
cubyboxy:     file format elf64-x86-64


Disassembly of section .init:

0000000000002000 <_init>:
    2000:	f3 0f 1e fa          	endbr64 
    2004:	48 83 ec 08          	sub    $0x8,%rsp
    2008:	48 8b 05 d1 cf 00 00 	mov    0xcfd1(%rip),%rax        # efe0 <__gmon_start__@Base>
    200f:	48 85 c0             	test   %rax,%rax
    2012:	74 02                	je     2016 <_init+0x16>
    2014:	ff d0                	call   *%rax
    2016:	48 83 c4 08          	add    $0x8,%rsp
    201a:	c3                   	ret    

Disassembly of section .plt:

0000000000002020 <.plt>:
    2020:	ff 35 ba cd 00 00    	push   0xcdba(%rip)        # ede0 <_GLOBAL_OFFSET_TABLE_+0x8>
    2026:	f2 ff 25 bb cd 00 00 	bnd jmp *0xcdbb(%rip)        # ede8 <_GLOBAL_OFFSET_TABLE_+0x10>
    202d:	0f 1f 00             	nopl   (%rax)
    2030:	f3 0f 1e fa          	endbr64 
    2034:	68 00 00 00 00       	push   $0x0
    2039:	f2 e9 e1 ff ff ff    	bnd jmp 2020 <_init+0x20>
    203f:	90                   	nop
    2040:	f3 0f 1e fa          	endbr64 
    2044:	68 01 00 00 00       	push   $0x1
    2049:	f2 e9 d1 ff ff ff    	bnd jmp 2020 <_init+0x20>
    204f:	90                   	nop
    2050:	f3 0f 1e fa          	endbr64 
    2054:	68 02 00 00 00       	push   $0x2
    2059:	f2 e9 c1 ff ff ff    	bnd jmp 2020 <_init+0x20>
    205f:	90                   	nop
    2060:	f3 0f 1e fa          	endbr64 
    2064:	68 03 00 00 00       	push   $0x3
    2069:	f2 e9 b1 ff ff ff    	bnd jmp 2020 <_init+0x20>
    206f:	90                   	nop
    2070:	f3 0f 1e fa          	endbr64 
    2074:	68 04 00 00 00       	push   $0x4
    2079:	f2 e9 a1 ff ff ff    	bnd jmp 2020 <_init+0x20>
    207f:	90                   	nop
    2080:	f3 0f 1e fa          	endbr64 
    2084:	68 05 00 00 00       	push   $0x5
    2089:	f2 e9 91 ff ff ff    	bnd jmp 2020 <_init+0x20>
    208f:	90                   	nop
    2090:	f3 0f 1e fa          	endbr64 
    2094:	68 06 00 00 00       	push   $0x6
    2099:	f2 e9 81 ff ff ff    	bnd jmp 2020 <_init+0x20>
    209f:	90                   	nop
    20a0:	f3 0f 1e fa          	endbr64 
    20a4:	68 07 00 00 00       	push   $0x7
    20a9:	f2 e9 71 ff ff ff    	bnd jmp 2020 <_init+0x20>
    20af:	90                   	nop
    20b0:	f3 0f 1e fa          	endbr64 
    20b4:	68 08 00 00 00       	push   $0x8
    20b9:	f2 e9 61 ff ff ff    	bnd jmp 2020 <_init+0x20>
    20bf:	90                   	nop
    20c0:	f3 0f 1e fa          	endbr64 
    20c4:	68 09 00 00 00       	push   $0x9
    20c9:	f2 e9 51 ff ff ff    	bnd jmp 2020 <_init+0x20>
    20cf:	90                   	nop
    20d0:	f3 0f 1e fa          	endbr64 
    20d4:	68 0a 00 00 00       	push   $0xa
    20d9:	f2 e9 41 ff ff ff    	bnd jmp 2020 <_init+0x20>
    20df:	90                   	nop
    20e0:	f3 0f 1e fa          	endbr64 
    20e4:	68 0b 00 00 00       	push   $0xb
    20e9:	f2 e9 31 ff ff ff    	bnd jmp 2020 <_init+0x20>
    20ef:	90                   	nop
    20f0:	f3 0f 1e fa          	endbr64 
    20f4:	68 0c 00 00 00       	push   $0xc
    20f9:	f2 e9 21 ff ff ff    	bnd jmp 2020 <_init+0x20>
    20ff:	90                   	nop
    2100:	f3 0f 1e fa          	endbr64 
    2104:	68 0d 00 00 00       	push   $0xd
    2109:	f2 e9 11 ff ff ff    	bnd jmp 2020 <_init+0x20>
    210f:	90                   	nop
    2110:	f3 0f 1e fa          	endbr64 
    2114:	68 0e 00 00 00       	push   $0xe
    2119:	f2 e9 01 ff ff ff    	bnd jmp 2020 <_init+0x20>
    211f:	90                   	nop
    2120:	f3 0f 1e fa          	endbr64 
    2124:	68 0f 00 00 00       	push   $0xf
    2129:	f2 e9 f1 fe ff ff    	bnd jmp 2020 <_init+0x20>
    212f:	90                   	nop
    2130:	f3 0f 1e fa          	endbr64 
    2134:	68 10 00 00 00       	push   $0x10
    2139:	f2 e9 e1 fe ff ff    	bnd jmp 2020 <_init+0x20>
    213f:	90                   	nop
    2140:	f3 0f 1e fa          	endbr64 
    2144:	68 11 00 00 00       	push   $0x11
    2149:	f2 e9 d1 fe ff ff    	bnd jmp 2020 <_init+0x20>
    214f:	90                   	nop
    2150:	f3 0f 1e fa          	endbr64 
    2154:	68 12 00 00 00       	push   $0x12
    2159:	f2 e9 c1 fe ff ff    	bnd jmp 2020 <_init+0x20>
    215f:	90                   	nop
    2160:	f3 0f 1e fa          	endbr64 
    2164:	68 13 00 00 00       	push   $0x13
    2169:	f2 e9 b1 fe ff ff    	bnd jmp 2020 <_init+0x20>
    216f:	90                   	nop
    2170:	f3 0f 1e fa          	endbr64 
    2174:	68 14 00 00 00       	push   $0x14
    2179:	f2 e9 a1 fe ff ff    	bnd jmp 2020 <_init+0x20>
    217f:	90                   	nop
    2180:	f3 0f 1e fa          	endbr64 
    2184:	68 15 00 00 00       	push   $0x15
    2189:	f2 e9 91 fe ff ff    	bnd jmp 2020 <_init+0x20>
    218f:	90                   	nop
    2190:	f3 0f 1e fa          	endbr64 
    2194:	68 16 00 00 00       	push   $0x16
    2199:	f2 e9 81 fe ff ff    	bnd jmp 2020 <_init+0x20>
    219f:	90                   	nop
    21a0:	f3 0f 1e fa          	endbr64 
    21a4:	68 17 00 00 00       	push   $0x17
    21a9:	f2 e9 71 fe ff ff    	bnd jmp 2020 <_init+0x20>
    21af:	90                   	nop
    21b0:	f3 0f 1e fa          	endbr64 
    21b4:	68 18 00 00 00       	push   $0x18
    21b9:	f2 e9 61 fe ff ff    	bnd jmp 2020 <_init+0x20>
    21bf:	90                   	nop
    21c0:	f3 0f 1e fa          	endbr64 
    21c4:	68 19 00 00 00       	push   $0x19
    21c9:	f2 e9 51 fe ff ff    	bnd jmp 2020 <_init+0x20>
    21cf:	90                   	nop
    21d0:	f3 0f 1e fa          	endbr64 
    21d4:	68 1a 00 00 00       	push   $0x1a
    21d9:	f2 e9 41 fe ff ff    	bnd jmp 2020 <_init+0x20>
    21df:	90                   	nop
    21e0:	f3 0f 1e fa          	endbr64 
    21e4:	68 1b 00 00 00       	push   $0x1b
    21e9:	f2 e9 31 fe ff ff    	bnd jmp 2020 <_init+0x20>
    21ef:	90                   	nop
    21f0:	f3 0f 1e fa          	endbr64 
    21f4:	68 1c 00 00 00       	push   $0x1c
    21f9:	f2 e9 21 fe ff ff    	bnd jmp 2020 <_init+0x20>
    21ff:	90                   	nop
    2200:	f3 0f 1e fa          	endbr64 
    2204:	68 1d 00 00 00       	push   $0x1d
    2209:	f2 e9 11 fe ff ff    	bnd jmp 2020 <_init+0x20>
    220f:	90                   	nop
    2210:	f3 0f 1e fa          	endbr64 
    2214:	68 1e 00 00 00       	push   $0x1e
    2219:	f2 e9 01 fe ff ff    	bnd jmp 2020 <_init+0x20>
    221f:	90                   	nop
    2220:	f3 0f 1e fa          	endbr64 
    2224:	68 1f 00 00 00       	push   $0x1f
    2229:	f2 e9 f1 fd ff ff    	bnd jmp 2020 <_init+0x20>
    222f:	90                   	nop
    2230:	f3 0f 1e fa          	endbr64 
    2234:	68 20 00 00 00       	push   $0x20
    2239:	f2 e9 e1 fd ff ff    	bnd jmp 2020 <_init+0x20>
    223f:	90                   	nop
    2240:	f3 0f 1e fa          	endbr64 
    2244:	68 21 00 00 00       	push   $0x21
    2249:	f2 e9 d1 fd ff ff    	bnd jmp 2020 <_init+0x20>
    224f:	90                   	nop
    2250:	f3 0f 1e fa          	endbr64 
    2254:	68 22 00 00 00       	push   $0x22
    2259:	f2 e9 c1 fd ff ff    	bnd jmp 2020 <_init+0x20>
    225f:	90                   	nop
    2260:	f3 0f 1e fa          	endbr64 
    2264:	68 23 00 00 00       	push   $0x23
    2269:	f2 e9 b1 fd ff ff    	bnd jmp 2020 <_init+0x20>
    226f:	90                   	nop
    2270:	f3 0f 1e fa          	endbr64 
    2274:	68 24 00 00 00       	push   $0x24
    2279:	f2 e9 a1 fd ff ff    	bnd jmp 2020 <_init+0x20>
    227f:	90                   	nop
    2280:	f3 0f 1e fa          	endbr64 
    2284:	68 25 00 00 00       	push   $0x25
    2289:	f2 e9 91 fd ff ff    	bnd jmp 2020 <_init+0x20>
    228f:	90                   	nop
    2290:	f3 0f 1e fa          	endbr64 
    2294:	68 26 00 00 00       	push   $0x26
    2299:	f2 e9 81 fd ff ff    	bnd jmp 2020 <_init+0x20>
    229f:	90                   	nop
    22a0:	f3 0f 1e fa          	endbr64 
    22a4:	68 27 00 00 00       	push   $0x27
    22a9:	f2 e9 71 fd ff ff    	bnd jmp 2020 <_init+0x20>
    22af:	90                   	nop
    22b0:	f3 0f 1e fa          	endbr64 
    22b4:	68 28 00 00 00       	push   $0x28
    22b9:	f2 e9 61 fd ff ff    	bnd jmp 2020 <_init+0x20>
    22bf:	90                   	nop
    22c0:	f3 0f 1e fa          	endbr64 
    22c4:	68 29 00 00 00       	push   $0x29
    22c9:	f2 e9 51 fd ff ff    	bnd jmp 2020 <_init+0x20>
    22cf:	90                   	nop
    22d0:	f3 0f 1e fa          	endbr64 
    22d4:	68 2a 00 00 00       	push   $0x2a
    22d9:	f2 e9 41 fd ff ff    	bnd jmp 2020 <_init+0x20>
    22df:	90                   	nop
    22e0:	f3 0f 1e fa          	endbr64 
    22e4:	68 2b 00 00 00       	push   $0x2b
    22e9:	f2 e9 31 fd ff ff    	bnd jmp 2020 <_init+0x20>
    22ef:	90                   	nop
    22f0:	f3 0f 1e fa          	endbr64 
    22f4:	68 2c 00 00 00       	push   $0x2c
    22f9:	f2 e9 21 fd ff ff    	bnd jmp 2020 <_init+0x20>
    22ff:	90                   	nop
    2300:	f3 0f 1e fa          	endbr64 
    2304:	68 2d 00 00 00       	push   $0x2d
    2309:	f2 e9 11 fd ff ff    	bnd jmp 2020 <_init+0x20>
    230f:	90                   	nop
    2310:	f3 0f 1e fa          	endbr64 
    2314:	68 2e 00 00 00       	push   $0x2e
    2319:	f2 e9 01 fd ff ff    	bnd jmp 2020 <_init+0x20>
    231f:	90                   	nop
    2320:	f3 0f 1e fa          	endbr64 
    2324:	68 2f 00 00 00       	push   $0x2f
    2329:	f2 e9 f1 fc ff ff    	bnd jmp 2020 <_init+0x20>
    232f:	90                   	nop
    2330:	f3 0f 1e fa          	endbr64 
    2334:	68 30 00 00 00       	push   $0x30
    2339:	f2 e9 e1 fc ff ff    	bnd jmp 2020 <_init+0x20>
    233f:	90                   	nop
    2340:	f3 0f 1e fa          	endbr64 
    2344:	68 31 00 00 00       	push   $0x31
    2349:	f2 e9 d1 fc ff ff    	bnd jmp 2020 <_init+0x20>
    234f:	90                   	nop
    2350:	f3 0f 1e fa          	endbr64 
    2354:	68 32 00 00 00       	push   $0x32
    2359:	f2 e9 c1 fc ff ff    	bnd jmp 2020 <_init+0x20>
    235f:	90                   	nop
    2360:	f3 0f 1e fa          	endbr64 
    2364:	68 33 00 00 00       	push   $0x33
    2369:	f2 e9 b1 fc ff ff    	bnd jmp 2020 <_init+0x20>
    236f:	90                   	nop
    2370:	f3 0f 1e fa          	endbr64 
    2374:	68 34 00 00 00       	push   $0x34
    2379:	f2 e9 a1 fc ff ff    	bnd jmp 2020 <_init+0x20>
    237f:	90                   	nop
    2380:	f3 0f 1e fa          	endbr64 
    2384:	68 35 00 00 00       	push   $0x35
    2389:	f2 e9 91 fc ff ff    	bnd jmp 2020 <_init+0x20>
    238f:	90                   	nop
    2390:	f3 0f 1e fa          	endbr64 
    2394:	68 36 00 00 00       	push   $0x36
    2399:	f2 e9 81 fc ff ff    	bnd jmp 2020 <_init+0x20>
    239f:	90                   	nop
    23a0:	f3 0f 1e fa          	endbr64 
    23a4:	68 37 00 00 00       	push   $0x37
    23a9:	f2 e9 71 fc ff ff    	bnd jmp 2020 <_init+0x20>
    23af:	90                   	nop
    23b0:	f3 0f 1e fa          	endbr64 
    23b4:	68 38 00 00 00       	push   $0x38
    23b9:	f2 e9 61 fc ff ff    	bnd jmp 2020 <_init+0x20>
    23bf:	90                   	nop
    23c0:	f3 0f 1e fa          	endbr64 
    23c4:	68 39 00 00 00       	push   $0x39
    23c9:	f2 e9 51 fc ff ff    	bnd jmp 2020 <_init+0x20>
    23cf:	90                   	nop

Disassembly of section .plt.got:

00000000000023d0 <__cxa_finalize@plt>:
    23d0:	f3 0f 1e fa          	endbr64 
    23d4:	f2 ff 25 e5 cb 00 00 	bnd jmp *0xcbe5(%rip)        # efc0 <__cxa_finalize@GLIBC_2.2.5>
    23db:	0f 1f 44 00 00       	nopl   0x0(%rax,%rax,1)

Disassembly of section .plt.sec:

00000000000023e0 <__printf_chk@plt>:
    23e0:	f3 0f 1e fa          	endbr64 
    23e4:	f2 ff 25 05 ca 00 00 	bnd jmp *0xca05(%rip)        # edf0 <__printf_chk@GLIBC_2.3.4>
    23eb:	0f 1f 44 00 00       	nopl   0x0(%rax,%rax,1)

00000000000023f0 <_Znam@plt>:
    23f0:	f3 0f 1e fa          	endbr64 
    23f4:	f2 ff 25 fd c9 00 00 	bnd jmp *0xc9fd(%rip)        # edf8 <_Znam@GLIBCXX_3.4>
    23fb:	0f 1f 44 00 00       	nopl   0x0(%rax,%rax,1)

0000000000002400 <_ZNSo3putEc@plt>:
    2400:	f3 0f 1e fa          	endbr64 
    2404:	f2 ff 25 f5 c9 00 00 	bnd jmp *0xc9f5(%rip)        # ee00 <_ZNSo3putEc@GLIBCXX_3.4>
    240b:	0f 1f 44 00 00       	nopl   0x0(%rax,%rax,1)

0000000000002410 <_ZNSt13basic_filebufIcSt11char_traitsIcEE5closeEv@plt>:
    2410:	f3 0f 1e fa          	endbr64 
    2414:	f2 ff 25 ed c9 00 00 	bnd jmp *0xc9ed(%rip)        # ee08 <_ZNSt13basic_filebufIcSt11char_traitsIcEE5closeEv@GLIBCXX_3.4>
    241b:	0f 1f 44 00 00       	nopl   0x0(%rax,%rax,1)

0000000000002420 <_ZNSt8ios_baseC2Ev@plt>:
    2420:	f3 0f 1e fa          	endbr64 
    2424:	f2 ff 25 e5 c9 00 00 	bnd jmp *0xc9e5(%rip)        # ee10 <_ZNSt8ios_baseC2Ev@GLIBCXX_3.4>
    242b:	0f 1f 44 00 00       	nopl   0x0(%rax,%rax,1)

0000000000002430 <_ZNSt7__cxx1112basic_stringIcSt11char_traitsIcESaIcEE9_M_appendEPKcm@plt>:
    2430:	f3 0f 1e fa          	endbr64 
    2434:	f2 ff 25 dd c9 00 00 	bnd jmp *0xc9dd(%rip)        # ee18 <_ZNSt7__cxx1112basic_stringIcSt11char_traitsIcESaIcEE9_M_appendEPKcm@GLIBCXX_3.4.21>
    243b:	0f 1f 44 00 00       	nopl   0x0(%rax,%rax,1)

0000000000002440 <_ZNSt8ios_baseD2Ev@plt>:
    2440:	f3 0f 1e fa          	endbr64 
    2444:	f2 ff 25 d5 c9 00 00 	bnd jmp *0xc9d5(%rip)        # ee20 <_ZNSt8ios_baseD2Ev@GLIBCXX_3.4>
    244b:	0f 1f 44 00 00       	nopl   0x0(%rax,%rax,1)

0000000000002450 <__cxa_begin_catch@plt>:
    2450:	f3 0f 1e fa          	endbr64 
    2454:	f2 ff 25 cd c9 00 00 	bnd jmp *0xc9cd(%rip)        # ee28 <__cxa_begin_catch@CXXABI_1.3>
    245b:	0f 1f 44 00 00       	nopl   0x0(%rax,%rax,1)

0000000000002460 <round@plt>:
    2460:	f3 0f 1e fa          	endbr64 
    2464:	f2 ff 25 c5 c9 00 00 	bnd jmp *0xc9c5(%rip)        # ee30 <round@GLIBC_2.2.5>
    246b:	0f 1f 44 00 00       	nopl   0x0(%rax,%rax,1)

0000000000002470 <strlen@plt>:
    2470:	f3 0f 1e fa          	endbr64 
    2474:	f2 ff 25 bd c9 00 00 	bnd jmp *0xc9bd(%rip)        # ee38 <strlen@GLIBC_2.2.5>
    247b:	0f 1f 44 00 00       	nopl   0x0(%rax,%rax,1)

0000000000002480 <__cxa_allocate_exception@plt>:
    2480:	f3 0f 1e fa          	endbr64 
    2484:	f2 ff 25 b5 c9 00 00 	bnd jmp *0xc9b5(%rip)        # ee40 <__cxa_allocate_exception@CXXABI_1.3>
    248b:	0f 1f 44 00 00       	nopl   0x0(%rax,%rax,1)

0000000000002490 <_ZSt20__throw_length_errorPKc@plt>:
    2490:	f3 0f 1e fa          	endbr64 
    2494:	f2 ff 25 ad c9 00 00 	bnd jmp *0xc9ad(%rip)        # ee48 <_ZSt20__throw_length_errorPKc@GLIBCXX_3.4>
    249b:	0f 1f 44 00 00       	nopl   0x0(%rax,%rax,1)

00000000000024a0 <sincos@plt>:
    24a0:	f3 0f 1e fa          	endbr64 
    24a4:	f2 ff 25 a5 c9 00 00 	bnd jmp *0xc9a5(%rip)        # ee50 <sincos@GLIBC_2.2.5>
    24ab:	0f 1f 44 00 00       	nopl   0x0(%rax,%rax,1)

00000000000024b0 <_ZNSirsERi@plt>:
    24b0:	f3 0f 1e fa          	endbr64 
    24b4:	f2 ff 25 9d c9 00 00 	bnd jmp *0xc99d(%rip)        # ee58 <_ZNSirsERi@GLIBCXX_3.4>
    24bb:	0f 1f 44 00 00       	nopl   0x0(%rax,%rax,1)

00000000000024c0 <sysconf@plt>:
    24c0:	f3 0f 1e fa          	endbr64 
    24c4:	f2 ff 25 95 c9 00 00 	bnd jmp *0xc995(%rip)        # ee60 <sysconf@GLIBC_2.2.5>
    24cb:	0f 1f 44 00 00       	nopl   0x0(%rax,%rax,1)

00000000000024d0 <__assert_fail@plt>:
    24d0:	f3 0f 1e fa          	endbr64 
    24d4:	f2 ff 25 8d c9 00 00 	bnd jmp *0xc98d(%rip)        # ee68 <__assert_fail@GLIBC_2.2.5>
    24db:	0f 1f 44 00 00       	nopl   0x0(%rax,%rax,1)

00000000000024e0 <_ZNSi10_M_extractIdEERSiRT_@plt>:
    24e0:	f3 0f 1e fa          	endbr64 
    24e4:	f2 ff 25 85 c9 00 00 	bnd jmp *0xc985(%rip)        # ee70 <_ZNSi10_M_extractIdEERSiRT_@GLIBCXX_3.4.9>
    24eb:	0f 1f 44 00 00       	nopl   0x0(%rax,%rax,1)

00000000000024f0 <_ZNSo9_M_insertImEERSoT_@plt>:
    24f0:	f3 0f 1e fa          	endbr64 
    24f4:	f2 ff 25 7d c9 00 00 	bnd jmp *0xc97d(%rip)        # ee78 <_ZNSo9_M_insertImEERSoT_@GLIBCXX_3.4.9>
    24fb:	0f 1f 44 00 00       	nopl   0x0(%rax,%rax,1)

0000000000002500 <_ZNSo5flushEv@plt>:
    2500:	f3 0f 1e fa          	endbr64 
    2504:	f2 ff 25 75 c9 00 00 	bnd jmp *0xc975(%rip)        # ee80 <_ZNSo5flushEv@GLIBCXX_3.4>
    250b:	0f 1f 44 00 00       	nopl   0x0(%rax,%rax,1)

0000000000002510 <_ZSt19__throw_logic_errorPKc@plt>:
    2510:	f3 0f 1e fa          	endbr64 
    2514:	f2 ff 25 6d c9 00 00 	bnd jmp *0xc96d(%rip)        # ee88 <_ZSt19__throw_logic_errorPKc@GLIBCXX_3.4>
    251b:	0f 1f 44 00 00       	nopl   0x0(%rax,%rax,1)

0000000000002520 <sqrt@plt>:
    2520:	f3 0f 1e fa          	endbr64 
    2524:	f2 ff 25 65 c9 00 00 	bnd jmp *0xc965(%rip)        # ee90 <sqrt@GLIBC_2.2.5>
    252b:	0f 1f 44 00 00       	nopl   0x0(%rax,%rax,1)

0000000000002530 <memcpy@plt>:
    2530:	f3 0f 1e fa          	endbr64 
    2534:	f2 ff 25 5d c9 00 00 	bnd jmp *0xc95d(%rip)        # ee98 <memcpy@GLIBC_2.14>
    253b:	0f 1f 44 00 00       	nopl   0x0(%rax,%rax,1)

0000000000002540 <atan@plt>:
    2540:	f3 0f 1e fa          	endbr64 
    2544:	f2 ff 25 55 c9 00 00 	bnd jmp *0xc955(%rip)        # eea0 <atan@GLIBC_2.2.5>
    254b:	0f 1f 44 00 00       	nopl   0x0(%rax,%rax,1)

0000000000002550 <perror@plt>:
    2550:	f3 0f 1e fa          	endbr64 
    2554:	f2 ff 25 4d c9 00 00 	bnd jmp *0xc94d(%rip)        # eea8 <perror@GLIBC_2.2.5>
    255b:	0f 1f 44 00 00       	nopl   0x0(%rax,%rax,1)

0000000000002560 <__cxa_atexit@plt>:
    2560:	f3 0f 1e fa          	endbr64 
    2564:	f2 ff 25 45 c9 00 00 	bnd jmp *0xc945(%rip)        # eeb0 <__cxa_atexit@GLIBC_2.2.5>
    256b:	0f 1f 44 00 00       	nopl   0x0(%rax,%rax,1)

0000000000002570 <_ZNSt13basic_filebufIcSt11char_traitsIcEE4openEPKcSt13_Ios_Openmode@plt>:
    2570:	f3 0f 1e fa          	endbr64 
    2574:	f2 ff 25 3d c9 00 00 	bnd jmp *0xc93d(%rip)        # eeb8 <_ZNSt13basic_filebufIcSt11char_traitsIcEE4openEPKcSt13_Ios_Openmode@GLIBCXX_3.4>
    257b:	0f 1f 44 00 00       	nopl   0x0(%rax,%rax,1)

0000000000002580 <acos@plt>:
    2580:	f3 0f 1e fa          	endbr64 
    2584:	f2 ff 25 35 c9 00 00 	bnd jmp *0xc935(%rip)        # eec0 <acos@GLIBC_2.2.5>
    258b:	0f 1f 44 00 00       	nopl   0x0(%rax,%rax,1)

0000000000002590 <fclose@plt>:
    2590:	f3 0f 1e fa          	endbr64 
    2594:	f2 ff 25 2d c9 00 00 	bnd jmp *0xc92d(%rip)        # eec8 <fclose@GLIBC_2.2.5>
    259b:	0f 1f 44 00 00       	nopl   0x0(%rax,%rax,1)

00000000000025a0 <_Znwm@plt>:
    25a0:	f3 0f 1e fa          	endbr64 
    25a4:	f2 ff 25 25 c9 00 00 	bnd jmp *0xc925(%rip)        # eed0 <_Znwm@GLIBCXX_3.4>
    25ab:	0f 1f 44 00 00       	nopl   0x0(%rax,%rax,1)

00000000000025b0 <_ZdlPvm@plt>:
    25b0:	f3 0f 1e fa          	endbr64 
    25b4:	f2 ff 25 1d c9 00 00 	bnd jmp *0xc91d(%rip)        # eed8 <_ZdlPvm@CXXABI_1.3.9>
    25bb:	0f 1f 44 00 00       	nopl   0x0(%rax,%rax,1)

00000000000025c0 <_ZNSt13basic_filebufIcSt11char_traitsIcEEC1Ev@plt>:
    25c0:	f3 0f 1e fa          	endbr64 
    25c4:	f2 ff 25 15 c9 00 00 	bnd jmp *0xc915(%rip)        # eee0 <_ZNSt13basic_filebufIcSt11char_traitsIcEEC1Ev@GLIBCXX_3.4>
    25cb:	0f 1f 44 00 00       	nopl   0x0(%rax,%rax,1)

00000000000025d0 <__stack_chk_fail@plt>:
    25d0:	f3 0f 1e fa          	endbr64 
    25d4:	f2 ff 25 0d c9 00 00 	bnd jmp *0xc90d(%rip)        # eee8 <__stack_chk_fail@GLIBC_2.4>
    25db:	0f 1f 44 00 00       	nopl   0x0(%rax,%rax,1)

00000000000025e0 <_ZSt16__ostream_insertIcSt11char_traitsIcEERSt13basic_ostreamIT_T0_ES6_PKS3_l@plt>:
    25e0:	f3 0f 1e fa          	endbr64 
    25e4:	f2 ff 25 05 c9 00 00 	bnd jmp *0xc905(%rip)        # eef0 <_ZSt16__ostream_insertIcSt11char_traitsIcEERSt13basic_ostreamIT_T0_ES6_PKS3_l@GLIBCXX_3.4.9>
    25eb:	0f 1f 44 00 00       	nopl   0x0(%rax,%rax,1)

00000000000025f0 <_ZNKSt5ctypeIcE13_M_widen_initEv@plt>:
    25f0:	f3 0f 1e fa          	endbr64 
    25f4:	f2 ff 25 fd c8 00 00 	bnd jmp *0xc8fd(%rip)        # eef8 <_ZNKSt5ctypeIcE13_M_widen_initEv@GLIBCXX_3.4.11>
    25fb:	0f 1f 44 00 00       	nopl   0x0(%rax,%rax,1)

0000000000002600 <_ZNSt7__cxx1112basic_stringIcSt11char_traitsIcESaIcEE12_M_constructEmc@plt>:
    2600:	f3 0f 1e fa          	endbr64 
    2604:	f2 ff 25 f5 c8 00 00 	bnd jmp *0xc8f5(%rip)        # ef00 <_ZNSt7__cxx1112basic_stringIcSt11char_traitsIcESaIcEE12_M_constructEmc@GLIBCXX_3.4.21>
    260b:	0f 1f 44 00 00       	nopl   0x0(%rax,%rax,1)

0000000000002610 <fopen@plt>:
    2610:	f3 0f 1e fa          	endbr64 
    2614:	f2 ff 25 ed c8 00 00 	bnd jmp *0xc8ed(%rip)        # ef08 <fopen@GLIBC_2.2.5>
    261b:	0f 1f 44 00 00       	nopl   0x0(%rax,%rax,1)

0000000000002620 <free@plt>:
    2620:	f3 0f 1e fa          	endbr64 
    2624:	f2 ff 25 e5 c8 00 00 	bnd jmp *0xc8e5(%rip)        # ef10 <free@GLIBC_2.2.5>
    262b:	0f 1f 44 00 00       	nopl   0x0(%rax,%rax,1)

0000000000002630 <exit@plt>:
    2630:	f3 0f 1e fa          	endbr64 
    2634:	f2 ff 25 dd c8 00 00 	bnd jmp *0xc8dd(%rip)        # ef18 <exit@GLIBC_2.2.5>
    263b:	0f 1f 44 00 00       	nopl   0x0(%rax,%rax,1)

0000000000002640 <_ZSt16__throw_bad_castv@plt>:
    2640:	f3 0f 1e fa          	endbr64 
    2644:	f2 ff 25 d5 c8 00 00 	bnd jmp *0xc8d5(%rip)        # ef20 <_ZSt16__throw_bad_castv@GLIBCXX_3.4>
    264b:	0f 1f 44 00 00       	nopl   0x0(%rax,%rax,1)

0000000000002650 <malloc@plt>:
    2650:	f3 0f 1e fa          	endbr64 
    2654:	f2 ff 25 cd c8 00 00 	bnd jmp *0xc8cd(%rip)        # ef28 <malloc@GLIBC_2.2.5>
    265b:	0f 1f 44 00 00       	nopl   0x0(%rax,%rax,1)

0000000000002660 <_ZNSt9basic_iosIcSt11char_traitsIcEE4initEPSt15basic_streambufIcS1_E@plt>:
    2660:	f3 0f 1e fa          	endbr64 
    2664:	f2 ff 25 c5 c8 00 00 	bnd jmp *0xc8c5(%rip)        # ef30 <_ZNSt9basic_iosIcSt11char_traitsIcEE4initEPSt15basic_streambufIcS1_E@GLIBCXX_3.4>
    266b:	0f 1f 44 00 00       	nopl   0x0(%rax,%rax,1)

0000000000002670 <_ZNSt6localeD1Ev@plt>:
    2670:	f3 0f 1e fa          	endbr64 
    2674:	f2 ff 25 bd c8 00 00 	bnd jmp *0xc8bd(%rip)        # ef38 <_ZNSt6localeD1Ev@GLIBCXX_3.4>
    267b:	0f 1f 44 00 00       	nopl   0x0(%rax,%rax,1)

0000000000002680 <__cxa_throw_bad_array_new_length@plt>:
    2680:	f3 0f 1e fa          	endbr64 
    2684:	f2 ff 25 b5 c8 00 00 	bnd jmp *0xc8b5(%rip)        # ef40 <__cxa_throw_bad_array_new_length@CXXABI_1.3.8>
    268b:	0f 1f 44 00 00       	nopl   0x0(%rax,%rax,1)

0000000000002690 <_ZNSt14basic_ofstreamIcSt11char_traitsIcEED1Ev@plt>:
    2690:	f3 0f 1e fa          	endbr64 
    2694:	f2 ff 25 ad c8 00 00 	bnd jmp *0xc8ad(%rip)        # ef48 <_ZNSt14basic_ofstreamIcSt11char_traitsIcEED1Ev@GLIBCXX_3.4>
    269b:	0f 1f 44 00 00       	nopl   0x0(%rax,%rax,1)

00000000000026a0 <_ZNSt8ios_base4InitC1Ev@plt>:
    26a0:	f3 0f 1e fa          	endbr64 
    26a4:	f2 ff 25 a5 c8 00 00 	bnd jmp *0xc8a5(%rip)        # ef50 <_ZNSt8ios_base4InitC1Ev@GLIBCXX_3.4>
    26ab:	0f 1f 44 00 00       	nopl   0x0(%rax,%rax,1)

00000000000026b0 <_ZNSt7__cxx1112basic_stringIcSt11char_traitsIcESaIcEE10_M_replaceEmmPKcm@plt>:
    26b0:	f3 0f 1e fa          	endbr64 
    26b4:	f2 ff 25 9d c8 00 00 	bnd jmp *0xc89d(%rip)        # ef58 <_ZNSt7__cxx1112basic_stringIcSt11char_traitsIcESaIcEE10_M_replaceEmmPKcm@GLIBCXX_3.4.21>
    26bb:	0f 1f 44 00 00       	nopl   0x0(%rax,%rax,1)

00000000000026c0 <_ZNSt13basic_filebufIcSt11char_traitsIcEED1Ev@plt>:
    26c0:	f3 0f 1e fa          	endbr64 
    26c4:	f2 ff 25 95 c8 00 00 	bnd jmp *0xc895(%rip)        # ef60 <_ZNSt13basic_filebufIcSt11char_traitsIcEED1Ev@GLIBCXX_3.4>
    26cb:	0f 1f 44 00 00       	nopl   0x0(%rax,%rax,1)

00000000000026d0 <_ZNSo9_M_insertIdEERSoT_@plt>:
    26d0:	f3 0f 1e fa          	endbr64 
    26d4:	f2 ff 25 8d c8 00 00 	bnd jmp *0xc88d(%rip)        # ef68 <_ZNSo9_M_insertIdEERSoT_@GLIBCXX_3.4.9>
    26db:	0f 1f 44 00 00       	nopl   0x0(%rax,%rax,1)

00000000000026e0 <memmove@plt>:
    26e0:	f3 0f 1e fa          	endbr64 
    26e4:	f2 ff 25 85 c8 00 00 	bnd jmp *0xc885(%rip)        # ef70 <memmove@GLIBC_2.2.5>
    26eb:	0f 1f 44 00 00       	nopl   0x0(%rax,%rax,1)

00000000000026f0 <__cxa_end_catch@plt>:
    26f0:	f3 0f 1e fa          	endbr64 
    26f4:	f2 ff 25 7d c8 00 00 	bnd jmp *0xc87d(%rip)        # ef78 <__cxa_end_catch@CXXABI_1.3>
    26fb:	0f 1f 44 00 00       	nopl   0x0(%rax,%rax,1)

0000000000002700 <_ZNSt9basic_iosIcSt11char_traitsIcEE5clearESt12_Ios_Iostate@plt>:
    2700:	f3 0f 1e fa          	endbr64 
    2704:	f2 ff 25 75 c8 00 00 	bnd jmp *0xc875(%rip)        # ef80 <_ZNSt9basic_iosIcSt11char_traitsIcEE5clearESt12_Ios_Iostate@GLIBCXX_3.4>
    270b:	0f 1f 44 00 00       	nopl   0x0(%rax,%rax,1)

0000000000002710 <__cxa_throw@plt>:
    2710:	f3 0f 1e fa          	endbr64 
    2714:	f2 ff 25 6d c8 00 00 	bnd jmp *0xc86d(%rip)        # ef88 <__cxa_throw@CXXABI_1.3>
    271b:	0f 1f 44 00 00       	nopl   0x0(%rax,%rax,1)

0000000000002720 <_ZNSolsEi@plt>:
    2720:	f3 0f 1e fa          	endbr64 
    2724:	f2 ff 25 65 c8 00 00 	bnd jmp *0xc865(%rip)        # ef90 <_ZNSolsEi@GLIBCXX_3.4>
    272b:	0f 1f 44 00 00       	nopl   0x0(%rax,%rax,1)

0000000000002730 <_Unwind_Resume@plt>:
    2730:	f3 0f 1e fa          	endbr64 
    2734:	f2 ff 25 5d c8 00 00 	bnd jmp *0xc85d(%rip)        # ef98 <_Unwind_Resume@GCC_3.0>
    273b:	0f 1f 44 00 00       	nopl   0x0(%rax,%rax,1)

0000000000002740 <_ZNSt7__cxx1112basic_stringIcSt11char_traitsIcESaIcEE9_M_createERmm@plt>:
    2740:	f3 0f 1e fa          	endbr64 
    2744:	f2 ff 25 55 c8 00 00 	bnd jmp *0xc855(%rip)        # efa0 <_ZNSt7__cxx1112basic_stringIcSt11char_traitsIcESaIcEE9_M_createERmm@GLIBCXX_3.4.21>
    274b:	0f 1f 44 00 00       	nopl   0x0(%rax,%rax,1)

0000000000002750 <__isoc99_fscanf@plt>:
    2750:	f3 0f 1e fa          	endbr64 
    2754:	f2 ff 25 4d c8 00 00 	bnd jmp *0xc84d(%rip)        # efa8 <__isoc99_fscanf@GLIBC_2.7>
    275b:	0f 1f 44 00 00       	nopl   0x0(%rax,%rax,1)

0000000000002760 <_ZNSt12__basic_fileIcED1Ev@plt>:
    2760:	f3 0f 1e fa          	endbr64 
    2764:	f2 ff 25 45 c8 00 00 	bnd jmp *0xc845(%rip)        # efb0 <_ZNSt12__basic_fileIcED1Ev@GLIBCXX_3.4>
    276b:	0f 1f 44 00 00       	nopl   0x0(%rax,%rax,1)

0000000000002770 <cos@plt>:
    2770:	f3 0f 1e fa          	endbr64 
    2774:	f2 ff 25 3d c8 00 00 	bnd jmp *0xc83d(%rip)        # efb8 <cos@GLIBC_2.2.5>
    277b:	0f 1f 44 00 00       	nopl   0x0(%rax,%rax,1)

Disassembly of section .text:

0000000000002780 <_ZN5Eigen8internal19throw_std_bad_allocEv>:
    2780:	f3 0f 1e fa          	endbr64 
    2784:	50                   	push   %rax
    2785:	58                   	pop    %rax
    2786:	bf 08 00 00 00       	mov    $0x8,%edi
    278b:	50                   	push   %rax
    278c:	e8 ef fc ff ff       	call   2480 <__cxa_allocate_exception@plt>
    2791:	48 8b 15 30 c8 00 00 	mov    0xc830(%rip),%rdx        # efc8 <_ZNSt9bad_allocD1Ev@GLIBCXX_3.4>
    2798:	48 8d 35 29 c3 00 00 	lea    0xc329(%rip),%rsi        # eac8 <_ZTISt9bad_alloc@GLIBCXX_3.4>
    279f:	48 89 c7             	mov    %rax,%rdi
    27a2:	48 8d 05 07 c3 00 00 	lea    0xc307(%rip),%rax        # eab0 <_ZTVSt9bad_alloc@GLIBCXX_3.4+0x10>
    27a9:	48 89 07             	mov    %rax,(%rdi)
    27ac:	e8 5f ff ff ff       	call   2710 <__cxa_throw@plt>

00000000000027b1 <_Z7blearghv.cold>:
    27b1:	e8 ca ff ff ff       	call   2780 <_ZN5Eigen8internal19throw_std_bad_allocEv>
    27b6:	e8 c5 ff ff ff       	call   2780 <_ZN5Eigen8internal19throw_std_bad_allocEv>
    27bb:	e8 c0 ff ff ff       	call   2780 <_ZN5Eigen8internal19throw_std_bad_allocEv>
    27c0:	f3 0f 1e fa          	endbr64 
    27c4:	48 89 c5             	mov    %rax,%rbp
    27c7:	eb 17                	jmp    27e0 <_Z7blearghv.cold+0x2f>
    27c9:	48 8b bc 24 90 00 00 	mov    0x90(%rsp),%rdi
    27d0:	00 
    27d1:	e8 4a fe ff ff       	call   2620 <free@plt>
    27d6:	48 8b 7c 24 50       	mov    0x50(%rsp),%rdi
    27db:	e8 40 fe ff ff       	call   2620 <free@plt>
    27e0:	48 8b bc 24 30 01 00 	mov    0x130(%rsp),%rdi
    27e7:	00 
    27e8:	48 8b b4 24 40 01 00 	mov    0x140(%rsp),%rsi
    27ef:	00 
    27f0:	48 29 fe             	sub    %rdi,%rsi
    27f3:	48 85 ff             	test   %rdi,%rdi
    27f6:	74 05                	je     27fd <_Z7blearghv.cold+0x4c>
    27f8:	e8 b3 fd ff ff       	call   25b0 <_ZdlPvm@plt>
    27fd:	48 89 ef             	mov    %rbp,%rdi
    2800:	e8 2b ff ff ff       	call   2730 <_Unwind_Resume@plt>
    2805:	f3 0f 1e fa          	endbr64 
    2809:	48 89 c5             	mov    %rax,%rbp
    280c:	eb c8                	jmp    27d6 <_Z7blearghv.cold+0x25>

000000000000280e <main.cold>:
    280e:	48 8b bc 24 d0 00 00 	mov    0xd0(%rsp),%rdi
    2815:	00 
    2816:	48 3b 7c 24 28       	cmp    0x28(%rsp),%rdi
    281b:	74 11                	je     282e <main.cold+0x20>
    281d:	48 8b 84 24 e0 00 00 	mov    0xe0(%rsp),%rax
    2824:	00 
    2825:	48 8d 70 01          	lea    0x1(%rax),%rsi
    2829:	e8 82 fd ff ff       	call   25b0 <_ZdlPvm@plt>
    282e:	48 8b 7c 24 60       	mov    0x60(%rsp),%rdi
    2833:	48 8b 74 24 70       	mov    0x70(%rsp),%rsi
    2838:	48 29 fe             	sub    %rdi,%rsi
    283b:	48 85 ff             	test   %rdi,%rdi
    283e:	74 2d                	je     286d <main.cold+0x5f>
    2840:	e8 6b fd ff ff       	call   25b0 <_ZdlPvm@plt>
    2845:	eb 26                	jmp    286d <main.cold+0x5f>
    2847:	48 8b bc 24 d0 00 00 	mov    0xd0(%rsp),%rdi
    284e:	00 
    284f:	48 8d 84 24 e0 00 00 	lea    0xe0(%rsp),%rax
    2856:	00 
    2857:	48 39 c7             	cmp    %rax,%rdi
    285a:	74 11                	je     286d <main.cold+0x5f>
    285c:	48 8b 84 24 e0 00 00 	mov    0xe0(%rsp),%rax
    2863:	00 
    2864:	48 8d 70 01          	lea    0x1(%rax),%rsi
    2868:	e8 43 fd ff ff       	call   25b0 <_ZdlPvm@plt>
    286d:	48 89 ef             	mov    %rbp,%rdi
    2870:	e8 bb fe ff ff       	call   2730 <_Unwind_Resume@plt>
    2875:	48 8b bc 24 d0 00 00 	mov    0xd0(%rsp),%rdi
    287c:	00 
    287d:	48 3b 7c 24 28       	cmp    0x28(%rsp),%rdi
    2882:	75 d8                	jne    285c <main.cold+0x4e>
    2884:	eb e7                	jmp    286d <main.cold+0x5f>

0000000000002886 <_Z10allocate3djjj.cold>:
    2886:	e8 f5 fd ff ff       	call   2680 <__cxa_throw_bad_array_new_length@plt>

000000000000288b <_Z11allocate3dtjjj.cold>:
    288b:	e8 f0 fd ff ff       	call   2680 <__cxa_throw_bad_array_new_length@plt>

0000000000002890 <_Z12writeVTKFileiPPPPdiiiddd.cold>:
    2890:	e8 bb fb ff ff       	call   2450 <__cxa_begin_catch@plt>
    2895:	e8 56 fe ff ff       	call   26f0 <__cxa_end_catch@plt>
    289a:	e9 39 77 00 00       	jmp    9fd8 <_Z12writeVTKFileiPPPPdiiiddd+0x7f8>
    289f:	48 8b 7c 24 30       	mov    0x30(%rsp),%rdi
    28a4:	e8 17 fe ff ff       	call   26c0 <_ZNSt13basic_filebufIcSt11char_traitsIcEED1Ev@plt>
    28a9:	48 8b 05 d8 c1 00 00 	mov    0xc1d8(%rip),%rax        # ea88 <_ZTTSt14basic_ofstreamIcSt11char_traitsIcEE@GLIBCXX_3.4+0x8>
    28b0:	48 8b 0d d9 c1 00 00 	mov    0xc1d9(%rip),%rcx        # ea90 <_ZTTSt14basic_ofstreamIcSt11char_traitsIcEE@GLIBCXX_3.4+0x10>
    28b7:	48 89 84 24 b0 00 00 	mov    %rax,0xb0(%rsp)
    28be:	00 
    28bf:	48 8b 40 e8          	mov    -0x18(%rax),%rax
    28c3:	48 89 8c 04 b0 00 00 	mov    %rcx,0xb0(%rsp,%rax,1)
    28ca:	00 
    28cb:	48 8b 7c 24 38       	mov    0x38(%rsp),%rdi
    28d0:	48 8d 05 19 c1 00 00 	lea    0xc119(%rip),%rax        # e9f0 <_ZTVSt9basic_iosIcSt11char_traitsIcEE@GLIBCXX_3.4+0x10>
    28d7:	48 89 84 24 a8 01 00 	mov    %rax,0x1a8(%rsp)
    28de:	00 
    28df:	e8 5c fb ff ff       	call   2440 <_ZNSt8ios_baseD2Ev@plt>
    28e4:	48 89 ef             	mov    %rbp,%rdi
    28e7:	e8 44 fe ff ff       	call   2730 <_Unwind_Resume@plt>
    28ec:	48 8b 7c 24 50       	mov    0x50(%rsp),%rdi
    28f1:	48 3b 7c 24 40       	cmp    0x40(%rsp),%rdi
    28f6:	74 0e                	je     2906 <_Z12writeVTKFileiPPPPdiiiddd.cold+0x76>
    28f8:	48 8b 44 24 60       	mov    0x60(%rsp),%rax
    28fd:	48 8d 70 01          	lea    0x1(%rax),%rsi
    2901:	e8 aa fc ff ff       	call   25b0 <_ZdlPvm@plt>
    2906:	48 8b 7c 24 10       	mov    0x10(%rsp),%rdi
    290b:	e8 80 fd ff ff       	call   2690 <_ZNSt14basic_ofstreamIcSt11char_traitsIcEED1Ev@plt>
    2910:	48 89 ef             	mov    %rbp,%rdi
    2913:	e8 18 fe ff ff       	call   2730 <_Unwind_Resume@plt>
    2918:	48 8b bc 24 90 00 00 	mov    0x90(%rsp),%rdi
    291f:	00 
    2920:	48 39 df             	cmp    %rbx,%rdi
    2923:	74 11                	je     2936 <_Z12writeVTKFileiPPPPdiiiddd.cold+0xa6>
    2925:	48 8b 84 24 a0 00 00 	mov    0xa0(%rsp),%rax
    292c:	00 
    292d:	48 8d 70 01          	lea    0x1(%rax),%rsi
    2931:	e8 7a fc ff ff       	call   25b0 <_ZdlPvm@plt>
    2936:	48 8b 7c 24 70       	mov    0x70(%rsp),%rdi
    293b:	4c 39 f7             	cmp    %r14,%rdi
    293e:	74 c6                	je     2906 <_Z12writeVTKFileiPPPPdiiiddd.cold+0x76>
    2940:	48 8b 84 24 80 00 00 	mov    0x80(%rsp),%rax
    2947:	00 
    2948:	48 8d 70 01          	lea    0x1(%rax),%rsi
    294c:	e8 5f fc ff ff       	call   25b0 <_ZdlPvm@plt>
    2951:	eb b3                	jmp    2906 <_Z12writeVTKFileiPPPPdiiiddd.cold+0x76>

0000000000002953 <_Z14writeVTKFile3DRKNSt7__cxx1112basic_stringIcSt11char_traitsIcESaIcEEERKSt6vectorIS7_IS7_IdSaIdEESaIS9_EESaISB_EESF_SF_SF_ddd.cold>:
    2953:	48 8b 7c 24 70       	mov    0x70(%rsp),%rdi
    2958:	e8 63 fd ff ff       	call   26c0 <_ZNSt13basic_filebufIcSt11char_traitsIcEED1Ev@plt>
    295d:	48 8b 05 24 c1 00 00 	mov    0xc124(%rip),%rax        # ea88 <_ZTTSt14basic_ofstreamIcSt11char_traitsIcEE@GLIBCXX_3.4+0x8>
    2964:	48 8b 0d 25 c1 00 00 	mov    0xc125(%rip),%rcx        # ea90 <_ZTTSt14basic_ofstreamIcSt11char_traitsIcEE@GLIBCXX_3.4+0x10>
    296b:	48 89 84 24 80 00 00 	mov    %rax,0x80(%rsp)
    2972:	00 
    2973:	48 8b 40 e8          	mov    -0x18(%rax),%rax
    2977:	48 89 8c 04 80 00 00 	mov    %rcx,0x80(%rsp,%rax,1)
    297e:	00 
    297f:	48 8b 7c 24 68       	mov    0x68(%rsp),%rdi
    2984:	48 8d 05 65 c0 00 00 	lea    0xc065(%rip),%rax        # e9f0 <_ZTVSt9basic_iosIcSt11char_traitsIcEE@GLIBCXX_3.4+0x10>
    298b:	48 89 84 24 78 01 00 	mov    %rax,0x178(%rsp)
    2992:	00 
    2993:	e8 a8 fa ff ff       	call   2440 <_ZNSt8ios_baseD2Ev@plt>
    2998:	48 89 ef             	mov    %rbp,%rdi
    299b:	e8 90 fd ff ff       	call   2730 <_Unwind_Resume@plt>
    29a0:	e8 ab fa ff ff       	call   2450 <__cxa_begin_catch@plt>
    29a5:	e8 46 fd ff ff       	call   26f0 <__cxa_end_catch@plt>
    29aa:	e9 f5 7d 00 00       	jmp    a7a4 <_Z14writeVTKFile3DRKNSt7__cxx1112basic_stringIcSt11char_traitsIcESaIcEEERKSt6vectorIS7_IS7_IdSaIdEESaIS9_EESaISB_EESF_SF_SF_ddd+0x634>
    29af:	4c 89 f7             	mov    %r14,%rdi
    29b2:	e8 d9 fc ff ff       	call   2690 <_ZNSt14basic_ofstreamIcSt11char_traitsIcEED1Ev@plt>
    29b7:	48 89 ef             	mov    %rbp,%rdi
    29ba:	e8 71 fd ff ff       	call   2730 <_Unwind_Resume@plt>

00000000000029bf <_Z12writeVTKFileRKNSt7__cxx1112basic_stringIcSt11char_traitsIcESaIcEEERKSt6vectorIS7_IdSaIdEESaIS9_EESD_SD_dd.cold>:
    29bf:	48 8b 7c 24 28       	mov    0x28(%rsp),%rdi
    29c4:	e8 f7 fc ff ff       	call   26c0 <_ZNSt13basic_filebufIcSt11char_traitsIcEED1Ev@plt>
    29c9:	48 8b 05 b8 c0 00 00 	mov    0xc0b8(%rip),%rax        # ea88 <_ZTTSt14basic_ofstreamIcSt11char_traitsIcEE@GLIBCXX_3.4+0x8>
    29d0:	48 8b 0d b9 c0 00 00 	mov    0xc0b9(%rip),%rcx        # ea90 <_ZTTSt14basic_ofstreamIcSt11char_traitsIcEE@GLIBCXX_3.4+0x10>
    29d7:	48 89 44 24 50       	mov    %rax,0x50(%rsp)
    29dc:	48 8b 40 e8          	mov    -0x18(%rax),%rax
    29e0:	48 89 4c 04 50       	mov    %rcx,0x50(%rsp,%rax,1)
    29e5:	48 8b 7c 24 48       	mov    0x48(%rsp),%rdi
    29ea:	48 8d 05 ff bf 00 00 	lea    0xbfff(%rip),%rax        # e9f0 <_ZTVSt9basic_iosIcSt11char_traitsIcEE@GLIBCXX_3.4+0x10>
    29f1:	48 89 84 24 48 01 00 	mov    %rax,0x148(%rsp)
    29f8:	00 
    29f9:	e8 42 fa ff ff       	call   2440 <_ZNSt8ios_baseD2Ev@plt>
    29fe:	48 89 ef             	mov    %rbp,%rdi
    2a01:	e8 2a fd ff ff       	call   2730 <_Unwind_Resume@plt>
    2a06:	4c 89 f7             	mov    %r14,%rdi
    2a09:	e8 82 fc ff ff       	call   2690 <_ZNSt14basic_ofstreamIcSt11char_traitsIcEED1Ev@plt>
    2a0e:	48 89 ef             	mov    %rbp,%rdi
    2a11:	e8 1a fd ff ff       	call   2730 <_Unwind_Resume@plt>
    2a16:	e8 35 fa ff ff       	call   2450 <__cxa_begin_catch@plt>
    2a1b:	e8 d0 fc ff ff       	call   26f0 <__cxa_end_catch@plt>
    2a20:	e9 23 83 00 00       	jmp    ad48 <_Z12writeVTKFileRKNSt7__cxx1112basic_stringIcSt11char_traitsIcESaIcEEERKSt6vectorIS7_IdSaIdEESaIS9_EESD_SD_dd+0x4c8>
    2a25:	66 2e 0f 1f 84 00 00 	cs nopw 0x0(%rax,%rax,1)
    2a2c:	00 00 00 
    2a2f:	90                   	nop

0000000000002a30 <main>:
    2a30:	f3 0f 1e fa          	endbr64 
    2a34:	41 57                	push   %r15
    2a36:	48 8d 35 9e 8d 00 00 	lea    0x8d9e(%rip),%rsi        # b7db <_IO_stdin_used+0x7db>
    2a3d:	41 56                	push   %r14
    2a3f:	41 55                	push   %r13
    2a41:	41 54                	push   %r12
    2a43:	55                   	push   %rbp
    2a44:	53                   	push   %rbx
    2a45:	48 81 ec 08 01 00 00 	sub    $0x108,%rsp
    2a4c:	64 48 8b 04 25 28 00 	mov    %fs:0x28,%rax
    2a53:	00 00 
    2a55:	48 89 84 24 f8 00 00 	mov    %rax,0xf8(%rsp)
    2a5c:	00 
    2a5d:	31 c0                	xor    %eax,%eax
    2a5f:	48 8d 84 24 d0 00 00 	lea    0xd0(%rsp),%rax
    2a66:	00 
    2a67:	48 89 c3             	mov    %rax,%rbx
    2a6a:	48 89 c7             	mov    %rax,%rdi
    2a6d:	48 89 44 24 30       	mov    %rax,0x30(%rsp)
    2a72:	e8 69 12 00 00       	call   3ce0 <_ZNSt7__cxx1112basic_stringIcSt11char_traitsIcESaIcEEC2IS3_EEPKcRKS3_.constprop.1>
    2a77:	48 89 df             	mov    %rbx,%rdi
    2a7a:	e8 81 5a 00 00       	call   8500 <_Z16print_rss_memoryRKNSt7__cxx1112basic_stringIcSt11char_traitsIcESaIcEEE>
    2a7f:	48 8b bc 24 d0 00 00 	mov    0xd0(%rsp),%rdi
    2a86:	00 
    2a87:	48 8d 84 24 e0 00 00 	lea    0xe0(%rsp),%rax
    2a8e:	00 
    2a8f:	48 89 44 24 28       	mov    %rax,0x28(%rsp)
    2a94:	48 39 c7             	cmp    %rax,%rdi
    2a97:	74 11                	je     2aaa <main+0x7a>
    2a99:	48 8b 84 24 e0 00 00 	mov    0xe0(%rsp),%rax
    2aa0:	00 
    2aa1:	48 8d 70 01          	lea    0x1(%rax),%rsi
    2aa5:	e8 06 fb ff ff       	call   25b0 <_ZdlPvm@plt>
    2aaa:	48 8b 05 ff 8d 00 00 	mov    0x8dff(%rip),%rax        # b8b0 <_IO_stdin_used+0x8b0>
    2ab1:	31 f6                	xor    %esi,%esi
    2ab3:	bf 64 00 00 00       	mov    $0x64,%edi
    2ab8:	66 48 0f 6e c0       	movq   %rax,%xmm0
    2abd:	e8 1e 3f 00 00       	call   69e0 <_Z13compute_cubesdjPPd>
    2ac2:	48 8b 5c 24 30       	mov    0x30(%rsp),%rbx
    2ac7:	48 8d 35 1b 8d 00 00 	lea    0x8d1b(%rip),%rsi        # b7e9 <_IO_stdin_used+0x7e9>
    2ace:	48 89 44 24 10       	mov    %rax,0x10(%rsp)
    2ad3:	48 89 df             	mov    %rbx,%rdi
    2ad6:	e8 05 12 00 00       	call   3ce0 <_ZNSt7__cxx1112basic_stringIcSt11char_traitsIcESaIcEEC2IS3_EEPKcRKS3_.constprop.1>
    2adb:	48 89 df             	mov    %rbx,%rdi
    2ade:	e8 1d 5a 00 00       	call   8500 <_Z16print_rss_memoryRKNSt7__cxx1112basic_stringIcSt11char_traitsIcESaIcEEE>
    2ae3:	48 8b bc 24 d0 00 00 	mov    0xd0(%rsp),%rdi
    2aea:	00 
    2aeb:	48 3b 7c 24 28       	cmp    0x28(%rsp),%rdi
    2af0:	74 11                	je     2b03 <main+0xd3>
    2af2:	48 8b 84 24 e0 00 00 	mov    0xe0(%rsp),%rax
    2af9:	00 
    2afa:	48 8d 70 01          	lea    0x1(%rax),%rsi
    2afe:	e8 ad fa ff ff       	call   25b0 <_ZdlPvm@plt>
    2b03:	b9 c8 00 00 00       	mov    $0xc8,%ecx
    2b08:	ba c8 00 00 00       	mov    $0xc8,%edx
    2b0d:	be c8 00 00 00       	mov    $0xc8,%esi
    2b12:	bf 04 00 00 00       	mov    $0x4,%edi
    2b17:	e8 54 5f 00 00       	call   8a70 <_Z10allocate4djjjj>
    2b1c:	48 8b 5c 24 30       	mov    0x30(%rsp),%rbx
    2b21:	48 8d 35 d5 8c 00 00 	lea    0x8cd5(%rip),%rsi        # b7fd <_IO_stdin_used+0x7fd>
    2b28:	49 89 c4             	mov    %rax,%r12
    2b2b:	48 89 df             	mov    %rbx,%rdi
    2b2e:	e8 ad 11 00 00       	call   3ce0 <_ZNSt7__cxx1112basic_stringIcSt11char_traitsIcESaIcEEC2IS3_EEPKcRKS3_.constprop.1>
    2b33:	48 89 df             	mov    %rbx,%rdi
    2b36:	e8 c5 59 00 00       	call   8500 <_Z16print_rss_memoryRKNSt7__cxx1112basic_stringIcSt11char_traitsIcESaIcEEE>
    2b3b:	48 8b bc 24 d0 00 00 	mov    0xd0(%rsp),%rdi
    2b42:	00 
    2b43:	48 3b 7c 24 28       	cmp    0x28(%rsp),%rdi
    2b48:	74 11                	je     2b5b <main+0x12b>
    2b4a:	48 8b 84 24 e0 00 00 	mov    0xe0(%rsp),%rax
    2b51:	00 
    2b52:	48 8d 70 01          	lea    0x1(%rax),%rsi
    2b56:	e8 55 fa ff ff       	call   25b0 <_ZdlPvm@plt>
    2b5b:	48 c7 44 24 38 00 00 	movq   $0x0,0x38(%rsp)
    2b62:	00 00 
    2b64:	48 8d ac 24 80 00 00 	lea    0x80(%rsp),%rbp
    2b6b:	00 
    2b6c:	48 c7 44 24 20 00 00 	movq   $0x0,0x20(%rsp)
    2b73:	00 00 
    2b75:	48 8b 44 24 38       	mov    0x38(%rsp),%rax
    2b7a:	66 0f ef c0          	pxor   %xmm0,%xmm0
    2b7e:	48 c7 44 24 18 00 00 	movq   $0x0,0x18(%rsp)
    2b85:	00 00 
    2b87:	4c 8d 2c c5 00 00 00 	lea    0x0(,%rax,8),%r13
    2b8e:	00 
    2b8f:	90                   	nop
    2b90:	f2 0f 59 05 30 8d 00 	mulsd  0x8d30(%rip),%xmm0        # b8c8 <_IO_stdin_used+0x8c8>
    2b97:	00 
    2b98:	48 8b 44 24 18       	mov    0x18(%rsp),%rax
    2b9d:	45 31 ff             	xor    %r15d,%r15d
    2ba0:	f2 0f 58 44 24 20    	addsd  0x20(%rsp),%xmm0
    2ba6:	48 8d 1c c5 00 00 00 	lea    0x0(,%rax,8),%rbx
    2bad:	00 
    2bae:	f2 0f 11 44 24 08    	movsd  %xmm0,0x8(%rsp)
    2bb4:	66 0f ef c0          	pxor   %xmm0,%xmm0
    2bb8:	0f 1f 84 00 00 00 00 	nopl   0x0(%rax,%rax,1)
    2bbf:	00 
    2bc0:	f2 0f 59 05 00 8d 00 	mulsd  0x8d00(%rip),%xmm0        # b8c8 <_IO_stdin_used+0x8c8>
    2bc7:	00 
    2bc8:	48 8b 44 24 10       	mov    0x10(%rsp),%rax
    2bcd:	48 89 ef             	mov    %rbp,%rdi
    2bd0:	f2 0f 59 05 f0 8c 00 	mulsd  0x8cf0(%rip),%xmm0        # b8c8 <_IO_stdin_used+0x8c8>
    2bd7:	00 
    2bd8:	f2 0f 58 44 24 08    	addsd  0x8(%rsp),%xmm0
    2bde:	f2 0f 2c c8          	cvttsd2si %xmm0,%ecx
    2be2:	48 63 c9             	movslq %ecx,%rcx
    2be5:	4c 8d 34 c8          	lea    (%rax,%rcx,8),%r14
    2be9:	49 8b 36             	mov    (%r14),%rsi
    2bec:	f2 0f 10 56 10       	movsd  0x10(%rsi),%xmm2
    2bf1:	f2 0f 10 4e 08       	movsd  0x8(%rsi),%xmm1
    2bf6:	f2 0f 10 06          	movsd  (%rsi),%xmm0
    2bfa:	e8 e1 6a 00 00       	call   96e0 <_Z8velocityddd>
    2bff:	49 8b 34 24          	mov    (%r12),%rsi
    2c03:	48 89 ef             	mov    %rbp,%rdi
    2c06:	f2 0f 10 84 24 80 00 	movsd  0x80(%rsp),%xmm0
    2c0d:	00 00 
    2c0f:	4a 8b 34 2e          	mov    (%rsi,%r13,1),%rsi
    2c13:	48 8b 34 1e          	mov    (%rsi,%rbx,1),%rsi
    2c17:	f2 42 0f 11 04 fe    	movsd  %xmm0,(%rsi,%r15,8)
    2c1d:	49 8b 36             	mov    (%r14),%rsi
    2c20:	f2 0f 10 56 10       	movsd  0x10(%rsi),%xmm2
    2c25:	f2 0f 10 4e 08       	movsd  0x8(%rsi),%xmm1
    2c2a:	f2 0f 10 06          	movsd  (%rsi),%xmm0
    2c2e:	e8 ad 6a 00 00       	call   96e0 <_Z8velocityddd>
    2c33:	49 8b 74 24 08       	mov    0x8(%r12),%rsi
    2c38:	49 8b 0e             	mov    (%r14),%rcx
    2c3b:	48 89 ef             	mov    %rbp,%rdi
    2c3e:	f2 0f 10 84 24 88 00 	movsd  0x88(%rsp),%xmm0
    2c45:	00 00 
    2c47:	4a 8b 34 2e          	mov    (%rsi,%r13,1),%rsi
    2c4b:	48 8b 34 1e          	mov    (%rsi,%rbx,1),%rsi
    2c4f:	f2 42 0f 11 04 fe    	movsd  %xmm0,(%rsi,%r15,8)
    2c55:	f2 0f 10 01          	movsd  (%rcx),%xmm0
    2c59:	f2 0f 10 51 10       	movsd  0x10(%rcx),%xmm2
    2c5e:	f2 0f 10 49 08       	movsd  0x8(%rcx),%xmm1
    2c63:	e8 78 6a 00 00       	call   96e0 <_Z8velocityddd>
    2c68:	49 8b 4c 24 10       	mov    0x10(%r12),%rcx
    2c6d:	f2 0f 10 84 24 90 00 	movsd  0x90(%rsp),%xmm0
    2c74:	00 00 
    2c76:	48 8b 05 db 8b 00 00 	mov    0x8bdb(%rip),%rax        # b858 <_IO_stdin_used+0x858>
    2c7d:	4a 8b 0c 29          	mov    (%rcx,%r13,1),%rcx
    2c81:	48 8b 0c 19          	mov    (%rcx,%rbx,1),%rcx
    2c85:	f2 42 0f 11 04 f9    	movsd  %xmm0,(%rcx,%r15,8)
    2c8b:	49 8b 4c 24 18       	mov    0x18(%r12),%rcx
    2c90:	66 0f ef c0          	pxor   %xmm0,%xmm0
    2c94:	4a 8b 0c 29          	mov    (%rcx,%r13,1),%rcx
    2c98:	48 8b 0c 19          	mov    (%rcx,%rbx,1),%rcx
    2c9c:	4a 89 04 f9          	mov    %rax,(%rcx,%r15,8)
    2ca0:	41 8d 4f 01          	lea    0x1(%r15),%ecx
    2ca4:	49 83 c7 01          	add    $0x1,%r15
    2ca8:	f2 0f 2a c1          	cvtsi2sd %ecx,%xmm0
    2cac:	49 81 ff c8 00 00 00 	cmp    $0xc8,%r15
    2cb3:	0f 85 07 ff ff ff    	jne    2bc0 <main+0x190>
    2cb9:	48 8b 54 24 18       	mov    0x18(%rsp),%rdx
    2cbe:	66 0f ef c0          	pxor   %xmm0,%xmm0
    2cc2:	89 d0                	mov    %edx,%eax
    2cc4:	48 83 c2 01          	add    $0x1,%rdx
    2cc8:	83 c0 01             	add    $0x1,%eax
    2ccb:	48 89 54 24 18       	mov    %rdx,0x18(%rsp)
    2cd0:	f2 0f 2a c0          	cvtsi2sd %eax,%xmm0
    2cd4:	48 81 fa c8 00 00 00 	cmp    $0xc8,%rdx
    2cdb:	0f 85 af fe ff ff    	jne    2b90 <main+0x160>
    2ce1:	48 8b 54 24 38       	mov    0x38(%rsp),%rdx
    2ce6:	66 0f ef ed          	pxor   %xmm5,%xmm5
    2cea:	89 d0                	mov    %edx,%eax
    2cec:	48 83 c2 01          	add    $0x1,%rdx
    2cf0:	83 c0 01             	add    $0x1,%eax
    2cf3:	48 89 54 24 38       	mov    %rdx,0x38(%rsp)
    2cf8:	f2 0f 2a e8          	cvtsi2sd %eax,%xmm5
    2cfc:	f2 0f 11 6c 24 20    	movsd  %xmm5,0x20(%rsp)
    2d02:	48 81 fa c8 00 00 00 	cmp    $0xc8,%rdx
    2d09:	0f 85 66 fe ff ff    	jne    2b75 <main+0x145>
    2d0f:	48 8b 05 aa 8b 00 00 	mov    0x8baa(%rip),%rax        # b8c0 <_IO_stdin_used+0x8c0>
    2d16:	66 48 0f 6e c0       	movq   %rax,%xmm0
    2d1b:	e8 c0 0a 00 00       	call   37e0 <_Z18compute_spheremeshdjj.constprop.0>
    2d20:	48 8b 5c 24 30       	mov    0x30(%rsp),%rbx
    2d25:	48 8d 35 e2 8a 00 00 	lea    0x8ae2(%rip),%rsi        # b80e <_IO_stdin_used+0x80e>
    2d2c:	49 89 c7             	mov    %rax,%r15
    2d2f:	48 89 df             	mov    %rbx,%rdi
    2d32:	e8 a9 0f 00 00       	call   3ce0 <_ZNSt7__cxx1112basic_stringIcSt11char_traitsIcESaIcEEC2IS3_EEPKcRKS3_.constprop.1>
    2d37:	48 89 df             	mov    %rbx,%rdi
    2d3a:	e8 c1 57 00 00       	call   8500 <_Z16print_rss_memoryRKNSt7__cxx1112basic_stringIcSt11char_traitsIcESaIcEEE>
    2d3f:	48 8b bc 24 d0 00 00 	mov    0xd0(%rsp),%rdi
    2d46:	00 
    2d47:	48 3b 7c 24 28       	cmp    0x28(%rsp),%rdi
    2d4c:	74 11                	je     2d5f <main+0x32f>
    2d4e:	48 8b 84 24 e0 00 00 	mov    0xe0(%rsp),%rax
    2d55:	00 
    2d56:	48 8d 70 01          	lea    0x1(%rax),%rsi
    2d5a:	e8 51 f8 ff ff       	call   25b0 <_ZdlPvm@plt>
    2d5f:	ba c8 00 00 00       	mov    $0xc8,%edx
    2d64:	be c8 00 00 00       	mov    $0xc8,%esi
    2d69:	bf c8 00 00 00       	mov    $0xc8,%edi
    2d6e:	e8 1d 5a 00 00       	call   8790 <_Z11allocate3dtjjj>
    2d73:	48 8b 5c 24 30       	mov    0x30(%rsp),%rbx
    2d78:	48 8d 35 a0 8a 00 00 	lea    0x8aa0(%rip),%rsi        # b81f <_IO_stdin_used+0x81f>
    2d7f:	48 89 44 24 50       	mov    %rax,0x50(%rsp)
    2d84:	48 89 df             	mov    %rbx,%rdi
    2d87:	e8 54 0f 00 00       	call   3ce0 <_ZNSt7__cxx1112basic_stringIcSt11char_traitsIcESaIcEEC2IS3_EEPKcRKS3_.constprop.1>
    2d8c:	48 89 df             	mov    %rbx,%rdi
    2d8f:	e8 6c 57 00 00       	call   8500 <_Z16print_rss_memoryRKNSt7__cxx1112basic_stringIcSt11char_traitsIcESaIcEEE>
    2d94:	48 8b bc 24 d0 00 00 	mov    0xd0(%rsp),%rdi
    2d9b:	00 
    2d9c:	48 3b 7c 24 28       	cmp    0x28(%rsp),%rdi
    2da1:	74 11                	je     2db4 <main+0x384>
    2da3:	48 8b 84 24 e0 00 00 	mov    0xe0(%rsp),%rax
    2daa:	00 
    2dab:	48 8d 70 01          	lea    0x1(%rax),%rsi
    2daf:	e8 fc f7 ff ff       	call   25b0 <_ZdlPvm@plt>
    2db4:	48 c7 44 24 18 00 00 	movq   $0x0,0x18(%rsp)
    2dbb:	00 00 
    2dbd:	48 8b 5c 24 10       	mov    0x10(%rsp),%rbx
    2dc2:	45 31 e4             	xor    %r12d,%r12d
    2dc5:	45 31 ed             	xor    %r13d,%r13d
    2dc8:	66 0f ef c0          	pxor   %xmm0,%xmm0
    2dcc:	0f 1f 40 00          	nopl   0x0(%rax)
    2dd0:	f2 0f 59 05 f0 8a 00 	mulsd  0x8af0(%rip),%xmm0        # b8c8 <_IO_stdin_used+0x8c8>
    2dd7:	00 
    2dd8:	45 31 f6             	xor    %r14d,%r14d
    2ddb:	f2 0f 58 44 24 18    	addsd  0x18(%rsp),%xmm0
    2de1:	f2 0f 11 44 24 08    	movsd  %xmm0,0x8(%rsp)
    2de7:	66 0f ef c0          	pxor   %xmm0,%xmm0
    2deb:	0f 1f 44 00 00       	nopl   0x0(%rax,%rax,1)
    2df0:	f2 0f 59 05 d0 8a 00 	mulsd  0x8ad0(%rip),%xmm0        # b8c8 <_IO_stdin_used+0x8c8>
    2df7:	00 
    2df8:	48 89 ef             	mov    %rbp,%rdi
    2dfb:	41 83 c6 01          	add    $0x1,%r14d
    2dff:	f2 0f 59 05 c1 8a 00 	mulsd  0x8ac1(%rip),%xmm0        # b8c8 <_IO_stdin_used+0x8c8>
    2e06:	00 
    2e07:	f2 0f 58 44 24 08    	addsd  0x8(%rsp),%xmm0
    2e0d:	f2 0f 2c c0          	cvttsd2si %xmm0,%eax
    2e11:	48 98                	cltq   
    2e13:	48 8b 04 c3          	mov    (%rbx,%rax,8),%rax
    2e17:	f2 0f 10 58 10       	movsd  0x10(%rax),%xmm3
    2e1c:	f2 0f 10 50 08       	movsd  0x8(%rax),%xmm2
    2e21:	f2 0f 10 08          	movsd  (%rax),%xmm1
    2e25:	48 8b 05 2c 8a 00 00 	mov    0x8a2c(%rip),%rax        # b858 <_IO_stdin_used+0x858>
    2e2c:	66 48 0f 6e c0       	movq   %rax,%xmm0
    2e31:	e8 7a 5f 00 00       	call   8db0 <_Z6stressdddd>
    2e36:	66 0f ef c0          	pxor   %xmm0,%xmm0
    2e3a:	f2 41 0f 2a c6       	cvtsi2sd %r14d,%xmm0
    2e3f:	41 81 fe c8 00 00 00 	cmp    $0xc8,%r14d
    2e46:	75 a8                	jne    2df0 <main+0x3c0>
    2e48:	41 83 c5 01          	add    $0x1,%r13d
    2e4c:	66 0f ef c0          	pxor   %xmm0,%xmm0
    2e50:	f2 41 0f 2a c5       	cvtsi2sd %r13d,%xmm0
    2e55:	41 81 fd c8 00 00 00 	cmp    $0xc8,%r13d
    2e5c:	0f 85 6e ff ff ff    	jne    2dd0 <main+0x3a0>
    2e62:	41 83 c4 01          	add    $0x1,%r12d
    2e66:	66 0f ef f6          	pxor   %xmm6,%xmm6
    2e6a:	f2 41 0f 2a f4       	cvtsi2sd %r12d,%xmm6
    2e6f:	f2 0f 11 74 24 18    	movsd  %xmm6,0x18(%rsp)
    2e75:	41 81 fc c8 00 00 00 	cmp    $0xc8,%r12d
    2e7c:	0f 85 43 ff ff ff    	jne    2dc5 <main+0x395>
    2e82:	ba 42 00 00 00       	mov    $0x42,%edx
    2e87:	48 8d 35 6a 88 00 00 	lea    0x886a(%rip),%rsi        # b6f8 <_IO_stdin_used+0x6f8>
    2e8e:	48 8d 3d ab c1 00 00 	lea    0xc1ab(%rip),%rdi        # f040 <_ZSt4cout@GLIBCXX_3.4>
    2e95:	e8 46 f7 ff ff       	call   25e0 <_ZSt16__ostream_insertIcSt11char_traitsIcEERSt13basic_ostreamIT_T0_ES6_PKS3_l@plt>
    2e9a:	48 8b 05 1f 8a 00 00 	mov    0x8a1f(%rip),%rax        # b8c0 <_IO_stdin_used+0x8c0>
    2ea1:	c7 44 24 5c 0a 00 00 	movl   $0xa,0x5c(%rsp)
    2ea8:	00 
    2ea9:	48 89 44 24 08       	mov    %rax,0x8(%rsp)
    2eae:	48 c7 44 24 70 00 00 	movq   $0x0,0x70(%rsp)
    2eb5:	00 00 
    2eb7:	66 0f ef c0          	pxor   %xmm0,%xmm0
    2ebb:	31 db                	xor    %ebx,%ebx
    2ebd:	0f 29 44 24 60       	movaps %xmm0,0x60(%rsp)
    2ec2:	eb 2a                	jmp    2eee <main+0x4be>
    2ec4:	89 1e                	mov    %ebx,(%rsi)
    2ec6:	48 83 c6 04          	add    $0x4,%rsi
    2eca:	48 89 74 24 68       	mov    %rsi,0x68(%rsp)
    2ecf:	48 83 c3 01          	add    $0x1,%rbx
    2ed3:	66 0f ef c0          	pxor   %xmm0,%xmm0
    2ed7:	f2 0f 10 2d f9 89 00 	movsd  0x89f9(%rip),%xmm5        # b8d8 <_IO_stdin_used+0x8d8>
    2ede:	00 
    2edf:	f2 48 0f 2a c3       	cvtsi2sd %rbx,%xmm0
    2ee4:	66 0f 2f e8          	comisd %xmm0,%xmm5
    2ee8:	0f 86 92 00 00 00    	jbe    2f80 <main+0x550>
    2eee:	48 8b 44 24 10       	mov    0x10(%rsp),%rax
    2ef3:	66 0f ef ed          	pxor   %xmm5,%xmm5
    2ef7:	48 8b 04 d8          	mov    (%rax,%rbx,8),%rax
    2efb:	f2 0f 10 48 08       	movsd  0x8(%rax),%xmm1
    2f00:	f2 0f 10 00          	movsd  (%rax),%xmm0
    2f04:	f2 0f 10 50 10       	movsd  0x10(%rax),%xmm2
    2f09:	f2 0f 59 c0          	mulsd  %xmm0,%xmm0
    2f0d:	f2 0f 59 c9          	mulsd  %xmm1,%xmm1
    2f11:	f2 0f 59 d2          	mulsd  %xmm2,%xmm2
    2f15:	f2 0f 58 c8          	addsd  %xmm0,%xmm1
    2f19:	f2 0f 58 ca          	addsd  %xmm2,%xmm1
    2f1d:	66 0f 2e e9          	ucomisd %xmm1,%xmm5
    2f21:	0f 87 0b 06 00 00    	ja     3532 <main+0xb02>
    2f27:	f2 0f 51 c9          	sqrtsd %xmm1,%xmm1
    2f2b:	f2 0f 10 05 9d 89 00 	movsd  0x899d(%rip),%xmm0        # b8d0 <_IO_stdin_used+0x8d0>
    2f32:	00 
    2f33:	f2 0f 10 74 24 08    	movsd  0x8(%rsp),%xmm6
    2f39:	f2 0f 58 c1          	addsd  %xmm1,%xmm0
    2f3d:	66 0f 2f f0          	comisd %xmm0,%xmm6
    2f41:	77 8c                	ja     2ecf <main+0x49f>
    2f43:	f2 0f 5c 0d 85 89 00 	subsd  0x8985(%rip),%xmm1        # b8d0 <_IO_stdin_used+0x8d0>
    2f4a:	00 
    2f4b:	66 0f 2f 4c 24 08    	comisd 0x8(%rsp),%xmm1
    2f51:	0f 87 78 ff ff ff    	ja     2ecf <main+0x49f>
    2f57:	89 9c 24 80 00 00 00 	mov    %ebx,0x80(%rsp)
    2f5e:	48 8b 74 24 68       	mov    0x68(%rsp),%rsi
    2f63:	48 3b 74 24 70       	cmp    0x70(%rsp),%rsi
    2f68:	0f 85 56 ff ff ff    	jne    2ec4 <main+0x494>
    2f6e:	48 8d 7c 24 60       	lea    0x60(%rsp),%rdi
    2f73:	48 89 ea             	mov    %rbp,%rdx
    2f76:	e8 35 54 00 00       	call   83b0 <_ZNSt6vectorIiSaIiEE17_M_realloc_insertIJiEEEvN9__gnu_cxx17__normal_iteratorIPiS1_EEDpOT_>
    2f7b:	e9 4f ff ff ff       	jmp    2ecf <main+0x49f>
    2f80:	31 db                	xor    %ebx,%ebx
    2f82:	4c 8d 64 24 60       	lea    0x60(%rsp),%r12
    2f87:	eb 2a                	jmp    2fb3 <main+0x583>
    2f89:	89 1e                	mov    %ebx,(%rsi)
    2f8b:	48 83 c6 04          	add    $0x4,%rsi
    2f8f:	48 89 74 24 68       	mov    %rsi,0x68(%rsp)
    2f94:	48 83 c3 01          	add    $0x1,%rbx
    2f98:	66 0f ef c0          	pxor   %xmm0,%xmm0
    2f9c:	f2 0f 10 35 34 89 00 	movsd  0x8934(%rip),%xmm6        # b8d8 <_IO_stdin_used+0x8d8>
    2fa3:	00 
    2fa4:	f2 48 0f 2a c3       	cvtsi2sd %rbx,%xmm0
    2fa9:	66 0f 2f f0          	comisd %xmm0,%xmm6
    2fad:	0f 86 90 00 00 00    	jbe    3043 <main+0x613>
    2fb3:	48 8b 44 24 10       	mov    0x10(%rsp),%rax
    2fb8:	66 0f ef f6          	pxor   %xmm6,%xmm6
    2fbc:	48 8b 04 d8          	mov    (%rax,%rbx,8),%rax
    2fc0:	f2 0f 10 48 08       	movsd  0x8(%rax),%xmm1
    2fc5:	f2 0f 10 00          	movsd  (%rax),%xmm0
    2fc9:	f2 0f 10 50 10       	movsd  0x10(%rax),%xmm2
    2fce:	f2 0f 59 c0          	mulsd  %xmm0,%xmm0
    2fd2:	f2 0f 59 c9          	mulsd  %xmm1,%xmm1
    2fd6:	f2 0f 59 d2          	mulsd  %xmm2,%xmm2
    2fda:	f2 0f 58 c8          	addsd  %xmm0,%xmm1
    2fde:	f2 0f 58 ca          	addsd  %xmm2,%xmm1
    2fe2:	66 0f 2e f1          	ucomisd %xmm1,%xmm6
    2fe6:	0f 87 a9 05 00 00    	ja     3595 <main+0xb65>
    2fec:	f2 0f 51 c9          	sqrtsd %xmm1,%xmm1
    2ff0:	f2 0f 10 05 b8 88 00 	movsd  0x88b8(%rip),%xmm0        # b8b0 <_IO_stdin_used+0x8b0>
    2ff7:	00 
    2ff8:	f2 0f 10 6c 24 08    	movsd  0x8(%rsp),%xmm5
    2ffe:	f2 0f 58 c1          	addsd  %xmm1,%xmm0
    3002:	66 0f 2f e8          	comisd %xmm0,%xmm5
    3006:	77 8c                	ja     2f94 <main+0x564>
    3008:	f2 0f 5c 0d a0 88 00 	subsd  0x88a0(%rip),%xmm1        # b8b0 <_IO_stdin_used+0x8b0>
    300f:	00 
    3010:	66 0f 2f 4c 24 08    	comisd 0x8(%rsp),%xmm1
    3016:	0f 87 78 ff ff ff    	ja     2f94 <main+0x564>
    301c:	89 9c 24 80 00 00 00 	mov    %ebx,0x80(%rsp)
    3023:	48 8b 74 24 68       	mov    0x68(%rsp),%rsi
    3028:	48 3b 74 24 70       	cmp    0x70(%rsp),%rsi
    302d:	0f 85 56 ff ff ff    	jne    2f89 <main+0x559>
    3033:	48 89 ea             	mov    %rbp,%rdx
    3036:	4c 89 e7             	mov    %r12,%rdi
    3039:	e8 72 53 00 00       	call   83b0 <_ZNSt6vectorIiSaIiEE17_M_realloc_insertIJiEEEvN9__gnu_cxx17__normal_iteratorIPiS1_EEDpOT_>
    303e:	e9 51 ff ff ff       	jmp    2f94 <main+0x564>
    3043:	4d 85 ff             	test   %r15,%r15
    3046:	0f 84 2a 05 00 00    	je     3576 <main+0xb46>
    304c:	48 8b 5c 24 60       	mov    0x60(%rsp),%rbx
    3051:	4c 8b 64 24 68       	mov    0x68(%rsp),%r12
    3056:	4c 39 e3             	cmp    %r12,%rbx
    3059:	0f 84 dc 01 00 00    	je     323b <main+0x80b>
    305f:	48 c7 44 24 18 00 00 	movq   $0x0,0x18(%rsp)
    3066:	00 00 
    3068:	49 89 dd             	mov    %rbx,%r13
    306b:	49 89 de             	mov    %rbx,%r14
    306e:	48 c7 44 24 38 00 00 	movq   $0x0,0x38(%rsp)
    3075:	00 00 
    3077:	48 c7 44 24 20 00 00 	movq   $0x0,0x20(%rsp)
    307e:	00 00 
    3080:	48 8b 54 24 10       	mov    0x10(%rsp),%rdx
    3085:	49 63 06             	movslq (%r14),%rax
    3088:	4c 89 f9             	mov    %r15,%rcx
    308b:	be 32 00 00 00       	mov    $0x32,%esi
    3090:	f2 0f 10 35 48 88 00 	movsd  0x8848(%rip),%xmm6        # b8e0 <_IO_stdin_used+0x8e0>
    3097:	00 
    3098:	41 b9 64 00 00 00    	mov    $0x64,%r9d
    309e:	66 0f ef ff          	pxor   %xmm7,%xmm7
    30a2:	f2 0f 10 25 36 88 00 	movsd  0x8836(%rip),%xmm4        # b8e0 <_IO_stdin_used+0x8e0>
    30a9:	00 
    30aa:	48 8b 04 c2          	mov    (%rdx,%rax,8),%rax
    30ae:	48 89 ef             	mov    %rbp,%rdi
    30b1:	ba 32 00 00 00       	mov    $0x32,%edx
    30b6:	49 83 c6 04          	add    $0x4,%r14
    30ba:	f2 0f 10 15 1e 88 00 	movsd  0x881e(%rip),%xmm2        # b8e0 <_IO_stdin_used+0x8e0>
    30c1:	00 
    30c2:	f2 0f 10 08          	movsd  (%rax),%xmm1
    30c6:	f2 0f 10 58 08       	movsd  0x8(%rax),%xmm3
    30cb:	f2 0f 10 68 10       	movsd  0x10(%rax),%xmm5
    30d0:	48 8b 05 81 87 00 00 	mov    0x8781(%rip),%rax        # b858 <_IO_stdin_used+0x858>
    30d7:	6a 00                	push   $0x0
    30d9:	f2 0f 58 e3          	addsd  %xmm3,%xmm4
    30dd:	f2 0f 58 d1          	addsd  %xmm1,%xmm2
    30e1:	50                   	push   %rax
    30e2:	f2 0f 58 f5          	addsd  %xmm5,%xmm6
    30e6:	f2 0f 5c 1d f2 87 00 	subsd  0x87f2(%rip),%xmm3        # b8e0 <_IO_stdin_used+0x8e0>
    30ed:	00 
    30ee:	f2 0f 5c 2d ea 87 00 	subsd  0x87ea(%rip),%xmm5        # b8e0 <_IO_stdin_used+0x8e0>
    30f5:	00 
    30f6:	f2 0f 5c 0d e2 87 00 	subsd  0x87e2(%rip),%xmm1        # b8e0 <_IO_stdin_used+0x8e0>
    30fd:	00 
    30fe:	4c 8b 44 24 60       	mov    0x60(%rsp),%r8
    3103:	f2 0f 10 44 24 18    	movsd  0x18(%rsp),%xmm0
    3109:	e8 02 21 00 00       	call   5210 <_ZL7torqueldddddddjjPPPdddddPPP6tensori.constprop.0>
    310e:	f2 0f 10 74 24 28    	movsd  0x28(%rsp),%xmm6
    3114:	f2 0f 58 b4 24 a0 00 	addsd  0xa0(%rsp),%xmm6
    311b:	00 00 
    311d:	f2 0f 10 6c 24 48    	movsd  0x48(%rsp),%xmm5
    3123:	f2 0f 58 ac 24 98 00 	addsd  0x98(%rsp),%xmm5
    312a:	00 00 
    312c:	f2 0f 11 74 24 28    	movsd  %xmm6,0x28(%rsp)
    3132:	f2 0f 10 74 24 30    	movsd  0x30(%rsp),%xmm6
    3138:	f2 0f 58 b4 24 90 00 	addsd  0x90(%rsp),%xmm6
    313f:	00 00 
    3141:	f2 0f 11 6c 24 48    	movsd  %xmm5,0x48(%rsp)
    3147:	f2 0f 11 74 24 30    	movsd  %xmm6,0x30(%rsp)
    314d:	59                   	pop    %rcx
    314e:	5e                   	pop    %rsi
    314f:	4d 39 f4             	cmp    %r14,%r12
    3152:	0f 85 28 ff ff ff    	jne    3080 <main+0x650>
    3158:	48 c7 44 24 48 00 00 	movq   $0x0,0x48(%rsp)
    315f:	00 00 
    3161:	45 31 f6             	xor    %r14d,%r14d
    3164:	48 c7 44 24 40 00 00 	movq   $0x0,0x40(%rsp)
    316b:	00 00 
    316d:	49 63 45 00          	movslq 0x0(%r13),%rax
    3171:	48 8b 54 24 10       	mov    0x10(%rsp),%rdx
    3176:	4c 89 f9             	mov    %r15,%rcx
    3179:	48 89 ef             	mov    %rbp,%rdi
    317c:	4c 8b 44 24 50       	mov    0x50(%rsp),%r8
    3181:	f2 0f 10 44 24 08    	movsd  0x8(%rsp),%xmm0
    3187:	be 32 00 00 00       	mov    $0x32,%esi
    318c:	41 b9 64 00 00 00    	mov    $0x64,%r9d
    3192:	48 8b 04 c2          	mov    (%rdx,%rax,8),%rax
    3196:	f2 0f 10 35 42 87 00 	movsd  0x8742(%rip),%xmm6        # b8e0 <_IO_stdin_used+0x8e0>
    319d:	00 
    319e:	ba 32 00 00 00       	mov    $0x32,%edx
    31a3:	49 83 c5 04          	add    $0x4,%r13
    31a7:	f2 0f 10 25 31 87 00 	movsd  0x8731(%rip),%xmm4        # b8e0 <_IO_stdin_used+0x8e0>
    31ae:	00 
    31af:	f2 0f 10 15 29 87 00 	movsd  0x8729(%rip),%xmm2        # b8e0 <_IO_stdin_used+0x8e0>
    31b6:	00 
    31b7:	f2 0f 10 08          	movsd  (%rax),%xmm1
    31bb:	f2 0f 10 58 08       	movsd  0x8(%rax),%xmm3
    31c0:	f2 0f 10 68 10       	movsd  0x10(%rax),%xmm5
    31c5:	f2 0f 58 e3          	addsd  %xmm3,%xmm4
    31c9:	f2 0f 58 d1          	addsd  %xmm1,%xmm2
    31cd:	f2 0f 58 f5          	addsd  %xmm5,%xmm6
    31d1:	f2 0f 5c 1d 07 87 00 	subsd  0x8707(%rip),%xmm3        # b8e0 <_IO_stdin_used+0x8e0>
    31d8:	00 
    31d9:	f2 0f 5c 2d ff 86 00 	subsd  0x86ff(%rip),%xmm5        # b8e0 <_IO_stdin_used+0x8e0>
    31e0:	00 
    31e1:	f2 0f 5c 0d f7 86 00 	subsd  0x86f7(%rip),%xmm1        # b8e0 <_IO_stdin_used+0x8e0>
    31e8:	00 
    31e9:	e8 b2 0b 00 00       	call   3da0 <_ZL6forceldddddddjjPPPdddddPPP6tensori.constprop.0>
    31ee:	f2 0f 10 6c 24 48    	movsd  0x48(%rsp),%xmm5
    31f4:	66 49 0f 6e f6       	movq   %r14,%xmm6
    31f9:	f2 0f 58 ac 24 90 00 	addsd  0x90(%rsp),%xmm5
    3200:	00 00 
    3202:	f2 0f 58 b4 24 80 00 	addsd  0x80(%rsp),%xmm6
    3209:	00 00 
    320b:	f2 0f 11 6c 24 48    	movsd  %xmm5,0x48(%rsp)
    3211:	f2 0f 10 6c 24 40    	movsd  0x40(%rsp),%xmm5
    3217:	f2 0f 58 ac 24 88 00 	addsd  0x88(%rsp),%xmm5
    321e:	00 00 
    3220:	66 49 0f 7e f6       	movq   %xmm6,%r14
    3225:	f2 0f 11 6c 24 40    	movsd  %xmm5,0x40(%rsp)
    322b:	4d 39 ec             	cmp    %r13,%r12
    322e:	0f 85 39 ff ff ff    	jne    316d <main+0x73d>
    3234:	48 89 5c 24 68       	mov    %rbx,0x68(%rsp)
    3239:	eb 30                	jmp    326b <main+0x83b>
    323b:	48 c7 44 24 40 00 00 	movq   $0x0,0x40(%rsp)
    3242:	00 00 
    3244:	45 31 f6             	xor    %r14d,%r14d
    3247:	48 c7 44 24 18 00 00 	movq   $0x0,0x18(%rsp)
    324e:	00 00 
    3250:	48 c7 44 24 20 00 00 	movq   $0x0,0x20(%rsp)
    3257:	00 00 
    3259:	48 c7 44 24 48 00 00 	movq   $0x0,0x48(%rsp)
    3260:	00 00 
    3262:	48 c7 44 24 38 00 00 	movq   $0x0,0x38(%rsp)
    3269:	00 00 
    326b:	f2 0f 10 44 24 08    	movsd  0x8(%rsp),%xmm0
    3271:	48 8d 3d c8 bd 00 00 	lea    0xbdc8(%rip),%rdi        # f040 <_ZSt4cout@GLIBCXX_3.4>
    3278:	e8 53 f4 ff ff       	call   26d0 <_ZNSo9_M_insertIdEERSoT_@plt>
    327d:	4c 8d 25 ab 85 00 00 	lea    0x85ab(%rip),%r12        # b82f <_IO_stdin_used+0x82f>
    3284:	ba 01 00 00 00       	mov    $0x1,%edx
    3289:	48 89 c7             	mov    %rax,%rdi
    328c:	49 89 c5             	mov    %rax,%r13
    328f:	4c 89 e6             	mov    %r12,%rsi
    3292:	e8 49 f3 ff ff       	call   25e0 <_ZSt16__ostream_insertIcSt11char_traitsIcEERSt13basic_ostreamIT_T0_ES6_PKS3_l@plt>
    3297:	66 49 0f 6e c6       	movq   %r14,%xmm0
    329c:	4c 89 ef             	mov    %r13,%rdi
    329f:	e8 2c f4 ff ff       	call   26d0 <_ZNSo9_M_insertIdEERSoT_@plt>
    32a4:	ba 01 00 00 00       	mov    $0x1,%edx
    32a9:	4c 89 e6             	mov    %r12,%rsi
    32ac:	48 89 c7             	mov    %rax,%rdi
    32af:	49 89 c5             	mov    %rax,%r13
    32b2:	e8 29 f3 ff ff       	call   25e0 <_ZSt16__ostream_insertIcSt11char_traitsIcEERSt13basic_ostreamIT_T0_ES6_PKS3_l@plt>
    32b7:	f2 0f 10 44 24 40    	movsd  0x40(%rsp),%xmm0
    32bd:	4c 89 ef             	mov    %r13,%rdi
    32c0:	e8 0b f4 ff ff       	call   26d0 <_ZNSo9_M_insertIdEERSoT_@plt>
    32c5:	ba 01 00 00 00       	mov    $0x1,%edx
    32ca:	4c 89 e6             	mov    %r12,%rsi
    32cd:	48 89 c7             	mov    %rax,%rdi
    32d0:	49 89 c5             	mov    %rax,%r13
    32d3:	e8 08 f3 ff ff       	call   25e0 <_ZSt16__ostream_insertIcSt11char_traitsIcEERSt13basic_ostreamIT_T0_ES6_PKS3_l@plt>
    32d8:	f2 0f 10 44 24 48    	movsd  0x48(%rsp),%xmm0
    32de:	4c 89 ef             	mov    %r13,%rdi
    32e1:	e8 ea f3 ff ff       	call   26d0 <_ZNSo9_M_insertIdEERSoT_@plt>
    32e6:	ba 02 00 00 00       	mov    $0x2,%edx
    32eb:	48 8d 35 3c 85 00 00 	lea    0x853c(%rip),%rsi        # b82e <_IO_stdin_used+0x82e>
    32f2:	48 89 c7             	mov    %rax,%rdi
    32f5:	49 89 c5             	mov    %rax,%r13
    32f8:	e8 e3 f2 ff ff       	call   25e0 <_ZSt16__ostream_insertIcSt11char_traitsIcEERSt13basic_ostreamIT_T0_ES6_PKS3_l@plt>
    32fd:	f2 0f 10 44 24 20    	movsd  0x20(%rsp),%xmm0
    3303:	4c 89 ef             	mov    %r13,%rdi
    3306:	e8 c5 f3 ff ff       	call   26d0 <_ZNSo9_M_insertIdEERSoT_@plt>
    330b:	ba 01 00 00 00       	mov    $0x1,%edx
    3310:	4c 89 e6             	mov    %r12,%rsi
    3313:	48 89 c7             	mov    %rax,%rdi
    3316:	49 89 c5             	mov    %rax,%r13
    3319:	e8 c2 f2 ff ff       	call   25e0 <_ZSt16__ostream_insertIcSt11char_traitsIcEERSt13basic_ostreamIT_T0_ES6_PKS3_l@plt>
    331e:	f2 0f 10 44 24 38    	movsd  0x38(%rsp),%xmm0
    3324:	4c 89 ef             	mov    %r13,%rdi
    3327:	e8 a4 f3 ff ff       	call   26d0 <_ZNSo9_M_insertIdEERSoT_@plt>
    332c:	ba 01 00 00 00       	mov    $0x1,%edx
    3331:	4c 89 e6             	mov    %r12,%rsi
    3334:	48 89 c7             	mov    %rax,%rdi
    3337:	49 89 c5             	mov    %rax,%r13
    333a:	e8 a1 f2 ff ff       	call   25e0 <_ZSt16__ostream_insertIcSt11char_traitsIcEERSt13basic_ostreamIT_T0_ES6_PKS3_l@plt>
    333f:	f2 0f 10 44 24 18    	movsd  0x18(%rsp),%xmm0
    3345:	4c 89 ef             	mov    %r13,%rdi
    3348:	e8 83 f3 ff ff       	call   26d0 <_ZNSo9_M_insertIdEERSoT_@plt>
    334d:	ba 01 00 00 00       	mov    $0x1,%edx
    3352:	4c 89 e6             	mov    %r12,%rsi
    3355:	48 89 c7             	mov    %rax,%rdi
    3358:	49 89 c5             	mov    %rax,%r13
    335b:	e8 80 f2 ff ff       	call   25e0 <_ZSt16__ostream_insertIcSt11char_traitsIcEERSt13basic_ostreamIT_T0_ES6_PKS3_l@plt>
    3360:	f2 0f 10 74 24 08    	movsd  0x8(%rsp),%xmm6
    3366:	f2 0f 10 05 7a 85 00 	movsd  0x857a(%rip),%xmm0        # b8e8 <_IO_stdin_used+0x8e8>
    336d:	00 
    336e:	66 49 0f 6e ce       	movq   %r14,%xmm1
    3373:	4c 89 ef             	mov    %r13,%rdi
    3376:	f2 0f 59 c6          	mulsd  %xmm6,%xmm0
    337a:	f2 0f 59 c6          	mulsd  %xmm6,%xmm0
    337e:	f2 0f 59 c6          	mulsd  %xmm6,%xmm0
    3382:	f2 0f 59 05 66 85 00 	mulsd  0x8566(%rip),%xmm0        # b8f0 <_IO_stdin_used+0x8f0>
    3389:	00 
    338a:	66 0f 28 e8          	movapd %xmm0,%xmm5
    338e:	f2 0f 5e 2d 62 85 00 	divsd  0x8562(%rip),%xmm5        # b8f8 <_IO_stdin_used+0x8f8>
    3395:	00 
    3396:	f2 0f 10 05 ba 84 00 	movsd  0x84ba(%rip),%xmm0        # b858 <_IO_stdin_used+0x858>
    339d:	00 
    339e:	f2 0f 11 6c 24 20    	movsd  %xmm5,0x20(%rsp)
    33a4:	f2 0f 5e cd          	divsd  %xmm5,%xmm1
    33a8:	f2 0f 5c c1          	subsd  %xmm1,%xmm0
    33ac:	66 0f 54 05 5c 85 00 	andpd  0x855c(%rip),%xmm0        # b910 <_IO_stdin_used+0x910>
    33b3:	00 
    33b4:	f2 0f 59 05 fc 84 00 	mulsd  0x84fc(%rip),%xmm0        # b8b8 <_IO_stdin_used+0x8b8>
    33bb:	00 
    33bc:	e8 0f f3 ff ff       	call   26d0 <_ZNSo9_M_insertIdEERSoT_@plt>
    33c1:	ba 01 00 00 00       	mov    $0x1,%edx
    33c6:	4c 89 e6             	mov    %r12,%rsi
    33c9:	48 89 c7             	mov    %rax,%rdi
    33cc:	49 89 c5             	mov    %rax,%r13
    33cf:	e8 0c f2 ff ff       	call   25e0 <_ZSt16__ostream_insertIcSt11char_traitsIcEERSt13basic_ostreamIT_T0_ES6_PKS3_l@plt>
    33d4:	f2 0f 10 44 24 18    	movsd  0x18(%rsp),%xmm0
    33da:	f2 0f 5e 44 24 20    	divsd  0x20(%rsp),%xmm0
    33e0:	4c 89 ef             	mov    %r13,%rdi
    33e3:	f2 0f 58 05 6d 84 00 	addsd  0x846d(%rip),%xmm0        # b858 <_IO_stdin_used+0x858>
    33ea:	00 
    33eb:	66 0f 54 05 1d 85 00 	andpd  0x851d(%rip),%xmm0        # b910 <_IO_stdin_used+0x910>
    33f2:	00 
    33f3:	f2 0f 59 05 bd 84 00 	mulsd  0x84bd(%rip),%xmm0        # b8b8 <_IO_stdin_used+0x8b8>
    33fa:	00 
    33fb:	e8 d0 f2 ff ff       	call   26d0 <_ZNSo9_M_insertIdEERSoT_@plt>
    3400:	48 89 c7             	mov    %rax,%rdi
    3403:	ba 01 00 00 00       	mov    $0x1,%edx
    3408:	48 8d 35 e9 86 00 00 	lea    0x86e9(%rip),%rsi        # baf8 <_IO_stdin_used+0xaf8>
    340f:	e8 cc f1 ff ff       	call   25e0 <_ZSt16__ostream_insertIcSt11char_traitsIcEERSt13basic_ostreamIT_T0_ES6_PKS3_l@plt>
    3414:	f2 0f 10 2d a4 84 00 	movsd  0x84a4(%rip),%xmm5        # b8c0 <_IO_stdin_used+0x8c0>
    341b:	00 
    341c:	f2 0f 58 6c 24 08    	addsd  0x8(%rsp),%xmm5
    3422:	4c 89 ff             	mov    %r15,%rdi
    3425:	f2 0f 11 6c 24 08    	movsd  %xmm5,0x8(%rsp)
    342b:	e8 f0 f1 ff ff       	call   2620 <free@plt>
    3430:	f2 0f 10 44 24 08    	movsd  0x8(%rsp),%xmm0
    3436:	e8 a5 03 00 00       	call   37e0 <_Z18compute_spheremeshdjj.constprop.0>
    343b:	4c 8b 64 24 30       	mov    0x30(%rsp),%r12
    3440:	4c 8b 74 24 28       	mov    0x28(%rsp),%r14
    3445:	31 d2                	xor    %edx,%edx
    3447:	48 89 ee             	mov    %rbp,%rsi
    344a:	48 c7 84 24 80 00 00 	movq   $0x16,0x80(%rsp)
    3451:	00 16 00 00 00 
    3456:	49 89 c7             	mov    %rax,%r15
    3459:	4c 89 e7             	mov    %r12,%rdi
    345c:	4c 89 b4 24 d0 00 00 	mov    %r14,0xd0(%rsp)
    3463:	00 
    3464:	e8 d7 f2 ff ff       	call   2740 <_ZNSt7__cxx1112basic_stringIcSt11char_traitsIcESaIcEE9_M_createERmm@plt>
    3469:	48 8b 94 24 80 00 00 	mov    0x80(%rsp),%rdx
    3470:	00 
    3471:	66 0f 6f 05 b7 84 00 	movdqa 0x84b7(%rip),%xmm0        # b930 <_IO_stdin_used+0x930>
    3478:	00 
    3479:	48 89 84 24 d0 00 00 	mov    %rax,0xd0(%rsp)
    3480:	00 
    3481:	4c 89 e7             	mov    %r12,%rdi
    3484:	48 89 94 24 e0 00 00 	mov    %rdx,0xe0(%rsp)
    348b:	00 
    348c:	ba 72 65 00 00       	mov    $0x6572,%edx
    3491:	c7 40 10 73 70 68 65 	movl   $0x65687073,0x10(%rax)
    3498:	66 89 50 14          	mov    %dx,0x14(%rax)
    349c:	0f 11 00             	movups %xmm0,(%rax)
    349f:	48 8b 84 24 80 00 00 	mov    0x80(%rsp),%rax
    34a6:	00 
    34a7:	48 8b 94 24 d0 00 00 	mov    0xd0(%rsp),%rdx
    34ae:	00 
    34af:	48 89 84 24 d8 00 00 	mov    %rax,0xd8(%rsp)
    34b6:	00 
    34b7:	c6 04 02 00          	movb   $0x0,(%rdx,%rax,1)
    34bb:	e8 40 50 00 00       	call   8500 <_Z16print_rss_memoryRKNSt7__cxx1112basic_stringIcSt11char_traitsIcESaIcEEE>
    34c0:	48 8b bc 24 d0 00 00 	mov    0xd0(%rsp),%rdi
    34c7:	00 
    34c8:	4c 39 f7             	cmp    %r14,%rdi
    34cb:	74 11                	je     34de <main+0xaae>
    34cd:	48 8b 84 24 e0 00 00 	mov    0xe0(%rsp),%rax
    34d4:	00 
    34d5:	48 8d 70 01          	lea    0x1(%rax),%rsi
    34d9:	e8 d2 f0 ff ff       	call   25b0 <_ZdlPvm@plt>
    34de:	48 85 db             	test   %rbx,%rbx
    34e1:	74 42                	je     3525 <main+0xaf5>
    34e3:	48 8b 74 24 70       	mov    0x70(%rsp),%rsi
    34e8:	48 89 df             	mov    %rbx,%rdi
    34eb:	48 29 de             	sub    %rbx,%rsi
    34ee:	e8 bd f0 ff ff       	call   25b0 <_ZdlPvm@plt>
    34f3:	83 6c 24 5c 01       	subl   $0x1,0x5c(%rsp)
    34f8:	0f 85 b0 f9 ff ff    	jne    2eae <main+0x47e>
    34fe:	48 8b 84 24 f8 00 00 	mov    0xf8(%rsp),%rax
    3505:	00 
    3506:	64 48 2b 04 25 28 00 	sub    %fs:0x28,%rax
    350d:	00 00 
    350f:	75 60                	jne    3571 <main+0xb41>
    3511:	48 81 c4 08 01 00 00 	add    $0x108,%rsp
    3518:	31 c0                	xor    %eax,%eax
    351a:	5b                   	pop    %rbx
    351b:	5d                   	pop    %rbp
    351c:	41 5c                	pop    %r12
    351e:	41 5d                	pop    %r13
    3520:	41 5e                	pop    %r14
    3522:	41 5f                	pop    %r15
    3524:	c3                   	ret    
    3525:	83 6c 24 5c 01       	subl   $0x1,0x5c(%rsp)
    352a:	0f 85 7e f9 ff ff    	jne    2eae <main+0x47e>
    3530:	eb cc                	jmp    34fe <main+0xace>
    3532:	66 0f 28 c1          	movapd %xmm1,%xmm0
    3536:	f2 0f 11 4c 24 18    	movsd  %xmm1,0x18(%rsp)
    353c:	e8 df ef ff ff       	call   2520 <sqrt@plt>
    3541:	f2 0f 58 05 87 83 00 	addsd  0x8387(%rip),%xmm0        # b8d0 <_IO_stdin_used+0x8d0>
    3548:	00 
    3549:	f2 0f 10 6c 24 08    	movsd  0x8(%rsp),%xmm5
    354f:	f2 0f 10 4c 24 18    	movsd  0x18(%rsp),%xmm1
    3555:	66 0f 2f e8          	comisd %xmm0,%xmm5
    3559:	0f 87 70 f9 ff ff    	ja     2ecf <main+0x49f>
    355f:	66 0f 28 c1          	movapd %xmm1,%xmm0
    3563:	e8 b8 ef ff ff       	call   2520 <sqrt@plt>
    3568:	66 0f 28 c8          	movapd %xmm0,%xmm1
    356c:	e9 d2 f9 ff ff       	jmp    2f43 <main+0x513>
    3571:	e8 5a f0 ff ff       	call   25d0 <__stack_chk_fail@plt>
    3576:	48 8d 0d 53 7b 00 00 	lea    0x7b53(%rip),%rcx        # b0d0 <_IO_stdin_used+0xd0>
    357d:	ba 86 01 00 00       	mov    $0x186,%edx
    3582:	48 8d 35 b2 81 00 00 	lea    0x81b2(%rip),%rsi        # b73b <_IO_stdin_used+0x73b>
    3589:	48 8d 3d b8 81 00 00 	lea    0x81b8(%rip),%rdi        # b748 <_IO_stdin_used+0x748>
    3590:	e8 3b ef ff ff       	call   24d0 <__assert_fail@plt>
    3595:	66 0f 28 c1          	movapd %xmm1,%xmm0
    3599:	f2 0f 11 4c 24 18    	movsd  %xmm1,0x18(%rsp)
    359f:	e8 7c ef ff ff       	call   2520 <sqrt@plt>
    35a4:	f2 0f 58 05 04 83 00 	addsd  0x8304(%rip),%xmm0        # b8b0 <_IO_stdin_used+0x8b0>
    35ab:	00 
    35ac:	f2 0f 10 74 24 08    	movsd  0x8(%rsp),%xmm6
    35b2:	f2 0f 10 4c 24 18    	movsd  0x18(%rsp),%xmm1
    35b8:	66 0f 2f f0          	comisd %xmm0,%xmm6
    35bc:	0f 87 d2 f9 ff ff    	ja     2f94 <main+0x564>
    35c2:	66 0f 28 c1          	movapd %xmm1,%xmm0
    35c6:	e8 55 ef ff ff       	call   2520 <sqrt@plt>
    35cb:	66 0f 28 c8          	movapd %xmm0,%xmm1
    35cf:	e9 34 fa ff ff       	jmp    3008 <main+0x5d8>
    35d4:	f3 0f 1e fa          	endbr64 
    35d8:	48 89 c5             	mov    %rax,%rbp
    35db:	e9 4e f2 ff ff       	jmp    282e <main.cold+0x20>
    35e0:	f3 0f 1e fa          	endbr64 
    35e4:	48 89 c5             	mov    %rax,%rbp
    35e7:	e9 5b f2 ff ff       	jmp    2847 <main.cold+0x39>
    35ec:	f3 0f 1e fa          	endbr64 
    35f0:	48 89 c5             	mov    %rax,%rbp
    35f3:	e9 16 f2 ff ff       	jmp    280e <main.cold>
    35f8:	f3 0f 1e fa          	endbr64 
    35fc:	48 89 c5             	mov    %rax,%rbp
    35ff:	e9 71 f2 ff ff       	jmp    2875 <main.cold+0x67>
    3604:	f3 0f 1e fa          	endbr64 
    3608:	48 89 c5             	mov    %rax,%rbp
    360b:	e9 65 f2 ff ff       	jmp    2875 <main.cold+0x67>
    3610:	f3 0f 1e fa          	endbr64 
    3614:	48 89 c5             	mov    %rax,%rbp
    3617:	e9 59 f2 ff ff       	jmp    2875 <main.cold+0x67>
    361c:	f3 0f 1e fa          	endbr64 
    3620:	48 89 c5             	mov    %rax,%rbp
    3623:	e9 4d f2 ff ff       	jmp    2875 <main.cold+0x67>
    3628:	0f 1f 84 00 00 00 00 	nopl   0x0(%rax,%rax,1)
    362f:	00 

0000000000003630 <_GLOBAL__sub_I__Z7angleofdd>:
    3630:	f3 0f 1e fa          	endbr64 
    3634:	55                   	push   %rbp
    3635:	48 8d 2d 3d bc 00 00 	lea    0xbc3d(%rip),%rbp        # f279 <_ZStL8__ioinit>
    363c:	48 89 ef             	mov    %rbp,%rdi
    363f:	e8 5c f0 ff ff       	call   26a0 <_ZNSt8ios_base4InitC1Ev@plt>
    3644:	48 8b 3d a5 b9 00 00 	mov    0xb9a5(%rip),%rdi        # eff0 <_ZNSt8ios_base4InitD1Ev@GLIBCXX_3.4>
    364b:	48 89 ee             	mov    %rbp,%rsi
    364e:	5d                   	pop    %rbp
    364f:	48 8d 15 b2 b9 00 00 	lea    0xb9b2(%rip),%rdx        # f008 <__dso_handle>
    3656:	e9 05 ef ff ff       	jmp    2560 <__cxa_atexit@plt>
    365b:	0f 1f 44 00 00       	nopl   0x0(%rax,%rax,1)

0000000000003660 <_GLOBAL__sub_I__Z16print_rss_memoryRKNSt7__cxx1112basic_stringIcSt11char_traitsIcESaIcEEE>:
    3660:	f3 0f 1e fa          	endbr64 
    3664:	55                   	push   %rbp
    3665:	48 8d 2d 0e bc 00 00 	lea    0xbc0e(%rip),%rbp        # f27a <_ZStL8__ioinit>
    366c:	48 89 ef             	mov    %rbp,%rdi
    366f:	e8 2c f0 ff ff       	call   26a0 <_ZNSt8ios_base4InitC1Ev@plt>
    3674:	48 8b 3d 75 b9 00 00 	mov    0xb975(%rip),%rdi        # eff0 <_ZNSt8ios_base4InitD1Ev@GLIBCXX_3.4>
    367b:	48 89 ee             	mov    %rbp,%rsi
    367e:	5d                   	pop    %rbp
    367f:	48 8d 15 82 b9 00 00 	lea    0xb982(%rip),%rdx        # f008 <__dso_handle>
    3686:	e9 d5 ee ff ff       	jmp    2560 <__cxa_atexit@plt>
    368b:	0f 1f 44 00 00       	nopl   0x0(%rax,%rax,1)

0000000000003690 <_GLOBAL__sub_I__Z5shearddd>:
    3690:	f3 0f 1e fa          	endbr64 
    3694:	55                   	push   %rbp
    3695:	48 8d 2d df bb 00 00 	lea    0xbbdf(%rip),%rbp        # f27b <_ZStL8__ioinit>
    369c:	48 89 ef             	mov    %rbp,%rdi
    369f:	e8 fc ef ff ff       	call   26a0 <_ZNSt8ios_base4InitC1Ev@plt>
    36a4:	48 8b 3d 45 b9 00 00 	mov    0xb945(%rip),%rdi        # eff0 <_ZNSt8ios_base4InitD1Ev@GLIBCXX_3.4>
    36ab:	48 89 ee             	mov    %rbp,%rsi
    36ae:	5d                   	pop    %rbp
    36af:	48 8d 15 52 b9 00 00 	lea    0xb952(%rip),%rdx        # f008 <__dso_handle>
    36b6:	e9 a5 ee ff ff       	jmp    2560 <__cxa_atexit@plt>
    36bb:	0f 1f 44 00 00       	nopl   0x0(%rax,%rax,1)

00000000000036c0 <_GLOBAL__sub_I__Z12writeVTKFileiPPPPdiiiddd>:
    36c0:	f3 0f 1e fa          	endbr64 
    36c4:	55                   	push   %rbp
    36c5:	48 8d 2d b0 bb 00 00 	lea    0xbbb0(%rip),%rbp        # f27c <_ZStL8__ioinit>
    36cc:	48 89 ef             	mov    %rbp,%rdi
    36cf:	e8 cc ef ff ff       	call   26a0 <_ZNSt8ios_base4InitC1Ev@plt>
    36d4:	48 8b 3d 15 b9 00 00 	mov    0xb915(%rip),%rdi        # eff0 <_ZNSt8ios_base4InitD1Ev@GLIBCXX_3.4>
    36db:	48 89 ee             	mov    %rbp,%rsi
    36de:	5d                   	pop    %rbp
    36df:	48 8d 15 22 b9 00 00 	lea    0xb922(%rip),%rdx        # f008 <__dso_handle>
    36e6:	e9 75 ee ff ff       	jmp    2560 <__cxa_atexit@plt>
    36eb:	0f 1f 44 00 00       	nopl   0x0(%rax,%rax,1)

00000000000036f0 <_start>:
    36f0:	f3 0f 1e fa          	endbr64 
    36f4:	31 ed                	xor    %ebp,%ebp
    36f6:	49 89 d1             	mov    %rdx,%r9
    36f9:	5e                   	pop    %rsi
    36fa:	48 89 e2             	mov    %rsp,%rdx
    36fd:	48 83 e4 f0          	and    $0xfffffffffffffff0,%rsp
    3701:	50                   	push   %rax
    3702:	54                   	push   %rsp
    3703:	45 31 c0             	xor    %r8d,%r8d
    3706:	31 c9                	xor    %ecx,%ecx
    3708:	48 8d 3d 21 f3 ff ff 	lea    -0xcdf(%rip),%rdi        # 2a30 <main>
    370f:	ff 15 bb b8 00 00    	call   *0xb8bb(%rip)        # efd0 <__libc_start_main@GLIBC_2.34>
    3715:	f4                   	hlt    
    3716:	66 2e 0f 1f 84 00 00 	cs nopw 0x0(%rax,%rax,1)
    371d:	00 00 00 

0000000000003720 <deregister_tm_clones>:
    3720:	48 8d 3d f1 b8 00 00 	lea    0xb8f1(%rip),%rdi        # f018 <__TMC_END__>
    3727:	48 8d 05 ea b8 00 00 	lea    0xb8ea(%rip),%rax        # f018 <__TMC_END__>
    372e:	48 39 f8             	cmp    %rdi,%rax
    3731:	74 15                	je     3748 <deregister_tm_clones+0x28>
    3733:	48 8b 05 9e b8 00 00 	mov    0xb89e(%rip),%rax        # efd8 <_ITM_deregisterTMCloneTable@Base>
    373a:	48 85 c0             	test   %rax,%rax
    373d:	74 09                	je     3748 <deregister_tm_clones+0x28>
    373f:	ff e0                	jmp    *%rax
    3741:	0f 1f 80 00 00 00 00 	nopl   0x0(%rax)
    3748:	c3                   	ret    
    3749:	0f 1f 80 00 00 00 00 	nopl   0x0(%rax)

0000000000003750 <register_tm_clones>:
    3750:	48 8d 3d c1 b8 00 00 	lea    0xb8c1(%rip),%rdi        # f018 <__TMC_END__>
    3757:	48 8d 35 ba b8 00 00 	lea    0xb8ba(%rip),%rsi        # f018 <__TMC_END__>
    375e:	48 29 fe             	sub    %rdi,%rsi
    3761:	48 89 f0             	mov    %rsi,%rax
    3764:	48 c1 ee 3f          	shr    $0x3f,%rsi
    3768:	48 c1 f8 03          	sar    $0x3,%rax
    376c:	48 01 c6             	add    %rax,%rsi
    376f:	48 d1 fe             	sar    %rsi
    3772:	74 14                	je     3788 <register_tm_clones+0x38>
    3774:	48 8b 05 6d b8 00 00 	mov    0xb86d(%rip),%rax        # efe8 <_ITM_registerTMCloneTable@Base>
    377b:	48 85 c0             	test   %rax,%rax
    377e:	74 08                	je     3788 <register_tm_clones+0x38>
    3780:	ff e0                	jmp    *%rax
    3782:	66 0f 1f 44 00 00    	nopw   0x0(%rax,%rax,1)
    3788:	c3                   	ret    
    3789:	0f 1f 80 00 00 00 00 	nopl   0x0(%rax)

0000000000003790 <__do_global_dtors_aux>:
    3790:	f3 0f 1e fa          	endbr64 
    3794:	80 3d dd ba 00 00 00 	cmpb   $0x0,0xbadd(%rip)        # f278 <completed.0>
    379b:	75 2b                	jne    37c8 <__do_global_dtors_aux+0x38>
    379d:	55                   	push   %rbp
    379e:	48 83 3d 1a b8 00 00 	cmpq   $0x0,0xb81a(%rip)        # efc0 <__cxa_finalize@GLIBC_2.2.5>
    37a5:	00 
    37a6:	48 89 e5             	mov    %rsp,%rbp
    37a9:	74 0c                	je     37b7 <__do_global_dtors_aux+0x27>
    37ab:	48 8b 3d 56 b8 00 00 	mov    0xb856(%rip),%rdi        # f008 <__dso_handle>
    37b2:	e8 19 ec ff ff       	call   23d0 <__cxa_finalize@plt>
    37b7:	e8 64 ff ff ff       	call   3720 <deregister_tm_clones>
    37bc:	c6 05 b5 ba 00 00 01 	movb   $0x1,0xbab5(%rip)        # f278 <completed.0>
    37c3:	5d                   	pop    %rbp
    37c4:	c3                   	ret    
    37c5:	0f 1f 00             	nopl   (%rax)
    37c8:	c3                   	ret    
    37c9:	0f 1f 80 00 00 00 00 	nopl   0x0(%rax)

00000000000037d0 <frame_dummy>:
    37d0:	f3 0f 1e fa          	endbr64 
    37d4:	e9 77 ff ff ff       	jmp    3750 <register_tm_clones>
    37d9:	0f 1f 80 00 00 00 00 	nopl   0x0(%rax)

00000000000037e0 <_Z18compute_spheremeshdjj.constprop.0>:
    37e0:	41 57                	push   %r15
    37e2:	ba 04 00 00 00       	mov    $0x4,%edx
    37e7:	be 32 00 00 00       	mov    $0x32,%esi
    37ec:	bf 32 00 00 00       	mov    $0x32,%edi
    37f1:	41 56                	push   %r14
    37f3:	41 55                	push   %r13
    37f5:	41 54                	push   %r12
    37f7:	55                   	push   %rbp
    37f8:	53                   	push   %rbx
    37f9:	48 83 ec 68          	sub    $0x68,%rsp
    37fd:	f2 0f 11 44 24 38    	movsd  %xmm0,0x38(%rsp)
    3803:	4c 8d 64 24 58       	lea    0x58(%rsp),%r12
    3808:	48 8d 6c 24 50       	lea    0x50(%rsp),%rbp
    380d:	e8 7e 4e 00 00       	call   8690 <_Z10allocate3djjj>
    3812:	f2 0f 10 54 24 38    	movsd  0x38(%rsp),%xmm2
    3818:	f2 0f 10 25 30 80 00 	movsd  0x8030(%rip),%xmm4        # b850 <_IO_stdin_used+0x850>
    381f:	00 
    3820:	48 89 44 24 48       	mov    %rax,0x48(%rsp)
    3825:	49 89 c5             	mov    %rax,%r13
    3828:	4c 8d b0 90 01 00 00 	lea    0x190(%rax),%r14
    382f:	48 8b 05 3a 80 00 00 	mov    0x803a(%rip),%rax        # b870 <_IO_stdin_used+0x870>
    3836:	66 0f 28 da          	movapd %xmm2,%xmm3
    383a:	f2 0f 10 0d 16 80 00 	movsd  0x8016(%rip),%xmm1        # b858 <_IO_stdin_used+0x858>
    3841:	00 
    3842:	f2 0f 59 da          	mulsd  %xmm2,%xmm3
    3846:	48 89 44 24 30       	mov    %rax,0x30(%rsp)
    384b:	f2 0f 10 15 15 80 00 	movsd  0x8015(%rip),%xmm2        # b868 <_IO_stdin_used+0x868>
    3852:	00 
    3853:	f2 0f 11 5c 24 40    	movsd  %xmm3,0x40(%rsp)
    3859:	f2 0f 10 1d ff 7f 00 	movsd  0x7fff(%rip),%xmm3        # b860 <_IO_stdin_used+0x860>
    3860:	00 
    3861:	0f 1f 80 00 00 00 00 	nopl   0x0(%rax)
    3868:	f2 0f 5c cc          	subsd  %xmm4,%xmm1
    386c:	f2 0f 10 7c 24 38    	movsd  0x38(%rsp),%xmm7
    3872:	f2 0f 10 44 24 40    	movsd  0x40(%rsp),%xmm0
    3878:	49 8b 5d 00          	mov    0x0(%r13),%rbx
    387c:	f2 0f 59 df          	mulsd  %xmm7,%xmm3
    3880:	f2 0f 59 c1          	mulsd  %xmm1,%xmm0
    3884:	66 0f ef c9          	pxor   %xmm1,%xmm1
    3888:	48 8b 03             	mov    (%rbx),%rax
    388b:	4c 8d 7b 08          	lea    0x8(%rbx),%r15
    388f:	f2 0f 59 05 e1 7f 00 	mulsd  0x7fe1(%rip),%xmm0        # b878 <_IO_stdin_used+0x878>
    3896:	00 
    3897:	48 81 c3 90 01 00 00 	add    $0x190,%rbx
    389e:	f2 0f 59 d7          	mulsd  %xmm7,%xmm2
    38a2:	66 0f 28 e3          	movapd %xmm3,%xmm4
    38a6:	66 0f 14 e0          	unpcklpd %xmm0,%xmm4
    38aa:	66 0f 28 c2          	movapd %xmm2,%xmm0
    38ae:	0f 11 60 10          	movups %xmm4,0x10(%rax)
    38b2:	66 0f 14 d2          	unpcklpd %xmm2,%xmm2
    38b6:	f2 0f 59 c8          	mulsd  %xmm0,%xmm1
    38ba:	0f 29 64 24 10       	movaps %xmm4,0x10(%rsp)
    38bf:	0f 29 54 24 20       	movaps %xmm2,0x20(%rsp)
    38c4:	66 0f 14 c1          	unpcklpd %xmm1,%xmm0
    38c8:	0f 11 00             	movups %xmm0,(%rax)
    38cb:	48 8b 05 a6 7f 00 00 	mov    0x7fa6(%rip),%rax        # b878 <_IO_stdin_used+0x878>
    38d2:	66 48 0f 6e c8       	movq   %rax,%xmm1
    38d7:	66 0f 1f 84 00 00 00 	nopw   0x0(%rax,%rax,1)
    38de:	00 00 
    38e0:	66 0f 28 c1          	movapd %xmm1,%xmm0
    38e4:	48 89 ee             	mov    %rbp,%rsi
    38e7:	4c 89 e7             	mov    %r12,%rdi
    38ea:	f2 0f 11 4c 24 08    	movsd  %xmm1,0x8(%rsp)
    38f0:	e8 ab eb ff ff       	call   24a0 <sincos@plt>
    38f5:	66 0f 10 44 24 50    	movupd 0x50(%rsp),%xmm0
    38fb:	49 8b 17             	mov    (%r15),%rdx
    38fe:	49 83 c7 08          	add    $0x8,%r15
    3902:	66 0f 59 44 24 20    	mulpd  0x20(%rsp),%xmm0
    3908:	66 0f 28 74 24 10    	movapd 0x10(%rsp),%xmm6
    390e:	f2 0f 10 4c 24 08    	movsd  0x8(%rsp),%xmm1
    3914:	f2 0f 58 0d 5c 7f 00 	addsd  0x7f5c(%rip),%xmm1        # b878 <_IO_stdin_used+0x878>
    391b:	00 
    391c:	0f 11 72 10          	movups %xmm6,0x10(%rdx)
    3920:	0f 11 02             	movups %xmm0,(%rdx)
    3923:	49 39 df             	cmp    %rbx,%r15
    3926:	75 b8                	jne    38e0 <_Z18compute_spheremeshdjj.constprop.0+0x100>
    3928:	49 83 c5 08          	add    $0x8,%r13
    392c:	f2 0f 10 3d 4c 7f 00 	movsd  0x7f4c(%rip),%xmm7        # b880 <_IO_stdin_used+0x880>
    3933:	00 
    3934:	f2 0f 58 7c 24 30    	addsd  0x30(%rsp),%xmm7
    393a:	4d 39 ee             	cmp    %r13,%r14
    393d:	0f 84 7d 00 00 00    	je     39c0 <_Z18compute_spheremeshdjj.constprop.0+0x1e0>
    3943:	66 0f 28 c7          	movapd %xmm7,%xmm0
    3947:	48 89 ee             	mov    %rbp,%rsi
    394a:	4c 89 e7             	mov    %r12,%rdi
    394d:	f2 0f 11 7c 24 30    	movsd  %xmm7,0x30(%rsp)
    3953:	e8 48 eb ff ff       	call   24a0 <sincos@plt>
    3958:	f2 0f 10 44 24 30    	movsd  0x30(%rsp),%xmm0
    395e:	f2 0f 5c 05 0a 7f 00 	subsd  0x7f0a(%rip),%xmm0        # b870 <_IO_stdin_used+0x870>
    3965:	00 
    3966:	f2 0f 10 54 24 58    	movsd  0x58(%rsp),%xmm2
    396c:	f2 0f 10 5c 24 50    	movsd  0x50(%rsp),%xmm3
    3972:	f2 0f 11 54 24 10    	movsd  %xmm2,0x10(%rsp)
    3978:	f2 0f 11 5c 24 20    	movsd  %xmm3,0x20(%rsp)
    397e:	e8 ed ed ff ff       	call   2770 <cos@plt>
    3983:	f2 0f 10 1d e5 7e 00 	movsd  0x7ee5(%rip),%xmm3        # b870 <_IO_stdin_used+0x870>
    398a:	00 
    398b:	f2 0f 58 5c 24 30    	addsd  0x30(%rsp),%xmm3
    3991:	f2 0f 11 44 24 08    	movsd  %xmm0,0x8(%rsp)
    3997:	66 0f 28 c3          	movapd %xmm3,%xmm0
    399b:	e8 d0 ed ff ff       	call   2770 <cos@plt>
    39a0:	f2 0f 10 4c 24 08    	movsd  0x8(%rsp),%xmm1
    39a6:	f2 0f 10 54 24 10    	movsd  0x10(%rsp),%xmm2
    39ac:	f2 0f 10 5c 24 20    	movsd  0x20(%rsp),%xmm3
    39b2:	66 0f 28 e0          	movapd %xmm0,%xmm4
    39b6:	e9 ad fe ff ff       	jmp    3868 <_Z18compute_spheremeshdjj.constprop.0+0x88>
    39bb:	0f 1f 44 00 00       	nopl   0x0(%rax,%rax,1)
    39c0:	48 8b 44 24 48       	mov    0x48(%rsp),%rax
    39c5:	48 83 c4 68          	add    $0x68,%rsp
    39c9:	5b                   	pop    %rbx
    39ca:	5d                   	pop    %rbp
    39cb:	41 5c                	pop    %r12
    39cd:	41 5d                	pop    %r13
    39cf:	41 5e                	pop    %r14
    39d1:	41 5f                	pop    %r15
    39d3:	c3                   	ret    
    39d4:	66 66 2e 0f 1f 84 00 	data16 cs nopw 0x0(%rax,%rax,1)
    39db:	00 00 00 00 
    39df:	90                   	nop

00000000000039e0 <_ZSt13__adjust_heapIPdldN9__gnu_cxx5__ops15_Iter_less_iterEEvT_T0_S5_T1_T2_.isra.0>:
    39e0:	48 8d 42 ff          	lea    -0x1(%rdx),%rax
    39e4:	49 89 d3             	mov    %rdx,%r11
    39e7:	48 89 f9             	mov    %rdi,%rcx
    39ea:	49 89 f0             	mov    %rsi,%r8
    39ed:	49 89 c1             	mov    %rax,%r9
    39f0:	49 89 d2             	mov    %rdx,%r10
    39f3:	41 83 e3 01          	and    $0x1,%r11d
    39f7:	49 c1 e9 3f          	shr    $0x3f,%r9
    39fb:	49 01 c1             	add    %rax,%r9
    39fe:	49 d1 f9             	sar    %r9
    3a01:	4c 39 ce             	cmp    %r9,%rsi
    3a04:	0f 8d a6 00 00 00    	jge    3ab0 <_ZSt13__adjust_heapIPdldN9__gnu_cxx5__ops15_Iter_less_iterEEvT_T0_S5_T1_T2_.isra.0+0xd0>
    3a0a:	48 89 f7             	mov    %rsi,%rdi
    3a0d:	eb 1a                	jmp    3a29 <_ZSt13__adjust_heapIPdldN9__gnu_cxx5__ops15_Iter_less_iterEEvT_T0_S5_T1_T2_.isra.0+0x49>
    3a0f:	90                   	nop
    3a10:	48 83 e8 01          	sub    $0x1,%rax
    3a14:	48 8d 34 c1          	lea    (%rcx,%rax,8),%rsi
    3a18:	f2 0f 10 0e          	movsd  (%rsi),%xmm1
    3a1c:	f2 0f 11 0c f9       	movsd  %xmm1,(%rcx,%rdi,8)
    3a21:	4c 39 c8             	cmp    %r9,%rax
    3a24:	7d 2d                	jge    3a53 <_ZSt13__adjust_heapIPdldN9__gnu_cxx5__ops15_Iter_less_iterEEvT_T0_S5_T1_T2_.isra.0+0x73>
    3a26:	48 89 c7             	mov    %rax,%rdi
    3a29:	48 8d 57 01          	lea    0x1(%rdi),%rdx
    3a2d:	48 8d 04 12          	lea    (%rdx,%rdx,1),%rax
    3a31:	48 c1 e2 04          	shl    $0x4,%rdx
    3a35:	48 8d 34 11          	lea    (%rcx,%rdx,1),%rsi
    3a39:	f2 0f 10 54 11 f8    	movsd  -0x8(%rcx,%rdx,1),%xmm2
    3a3f:	f2 0f 10 0e          	movsd  (%rsi),%xmm1
    3a43:	66 0f 2f d1          	comisd %xmm1,%xmm2
    3a47:	77 c7                	ja     3a10 <_ZSt13__adjust_heapIPdldN9__gnu_cxx5__ops15_Iter_less_iterEEvT_T0_S5_T1_T2_.isra.0+0x30>
    3a49:	f2 0f 11 0c f9       	movsd  %xmm1,(%rcx,%rdi,8)
    3a4e:	4c 39 c8             	cmp    %r9,%rax
    3a51:	7c d3                	jl     3a26 <_ZSt13__adjust_heapIPdldN9__gnu_cxx5__ops15_Iter_less_iterEEvT_T0_S5_T1_T2_.isra.0+0x46>
    3a53:	4d 85 db             	test   %r11,%r11
    3a56:	74 68                	je     3ac0 <_ZSt13__adjust_heapIPdldN9__gnu_cxx5__ops15_Iter_less_iterEEvT_T0_S5_T1_T2_.isra.0+0xe0>
    3a58:	48 8d 50 ff          	lea    -0x1(%rax),%rdx
    3a5c:	48 89 d7             	mov    %rdx,%rdi
    3a5f:	48 c1 ef 3f          	shr    $0x3f,%rdi
    3a63:	48 01 d7             	add    %rdx,%rdi
    3a66:	48 d1 ff             	sar    %rdi
    3a69:	4c 39 c0             	cmp    %r8,%rax
    3a6c:	7f 25                	jg     3a93 <_ZSt13__adjust_heapIPdldN9__gnu_cxx5__ops15_Iter_less_iterEEvT_T0_S5_T1_T2_.isra.0+0xb3>
    3a6e:	eb 36                	jmp    3aa6 <_ZSt13__adjust_heapIPdldN9__gnu_cxx5__ops15_Iter_less_iterEEvT_T0_S5_T1_T2_.isra.0+0xc6>
    3a70:	48 8d 57 ff          	lea    -0x1(%rdi),%rdx
    3a74:	f2 0f 11 0e          	movsd  %xmm1,(%rsi)
    3a78:	48 89 d0             	mov    %rdx,%rax
    3a7b:	48 c1 e8 3f          	shr    $0x3f,%rax
    3a7f:	48 01 d0             	add    %rdx,%rax
    3a82:	48 d1 f8             	sar    %rax
    3a85:	48 89 c2             	mov    %rax,%rdx
    3a88:	48 89 f8             	mov    %rdi,%rax
    3a8b:	49 39 f8             	cmp    %rdi,%r8
    3a8e:	7d 68                	jge    3af8 <_ZSt13__adjust_heapIPdldN9__gnu_cxx5__ops15_Iter_less_iterEEvT_T0_S5_T1_T2_.isra.0+0x118>
    3a90:	48 89 d7             	mov    %rdx,%rdi
    3a93:	4c 8d 0c f9          	lea    (%rcx,%rdi,8),%r9
    3a97:	48 8d 34 c1          	lea    (%rcx,%rax,8),%rsi
    3a9b:	f2 41 0f 10 09       	movsd  (%r9),%xmm1
    3aa0:	66 0f 2f c1          	comisd %xmm1,%xmm0
    3aa4:	77 ca                	ja     3a70 <_ZSt13__adjust_heapIPdldN9__gnu_cxx5__ops15_Iter_less_iterEEvT_T0_S5_T1_T2_.isra.0+0x90>
    3aa6:	f2 0f 11 06          	movsd  %xmm0,(%rsi)
    3aaa:	c3                   	ret    
    3aab:	0f 1f 44 00 00       	nopl   0x0(%rax,%rax,1)
    3ab0:	48 8d 34 f7          	lea    (%rdi,%rsi,8),%rsi
    3ab4:	4d 85 db             	test   %r11,%r11
    3ab7:	75 ed                	jne    3aa6 <_ZSt13__adjust_heapIPdldN9__gnu_cxx5__ops15_Iter_less_iterEEvT_T0_S5_T1_T2_.isra.0+0xc6>
    3ab9:	4c 89 c0             	mov    %r8,%rax
    3abc:	0f 1f 40 00          	nopl   0x0(%rax)
    3ac0:	49 83 ea 02          	sub    $0x2,%r10
    3ac4:	4c 89 d2             	mov    %r10,%rdx
    3ac7:	48 c1 ea 3f          	shr    $0x3f,%rdx
    3acb:	4c 01 d2             	add    %r10,%rdx
    3ace:	48 d1 fa             	sar    %rdx
    3ad1:	48 39 d0             	cmp    %rdx,%rax
    3ad4:	75 82                	jne    3a58 <_ZSt13__adjust_heapIPdldN9__gnu_cxx5__ops15_Iter_less_iterEEvT_T0_S5_T1_T2_.isra.0+0x78>
    3ad6:	48 8d 44 00 02       	lea    0x2(%rax,%rax,1),%rax
    3adb:	f2 0f 10 4c c1 f8    	movsd  -0x8(%rcx,%rax,8),%xmm1
    3ae1:	48 83 e8 01          	sub    $0x1,%rax
    3ae5:	f2 0f 11 0e          	movsd  %xmm1,(%rsi)
    3ae9:	48 8d 34 c1          	lea    (%rcx,%rax,8),%rsi
    3aed:	e9 66 ff ff ff       	jmp    3a58 <_ZSt13__adjust_heapIPdldN9__gnu_cxx5__ops15_Iter_less_iterEEvT_T0_S5_T1_T2_.isra.0+0x78>
    3af2:	66 0f 1f 44 00 00    	nopw   0x0(%rax,%rax,1)
    3af8:	4c 89 ce             	mov    %r9,%rsi
    3afb:	f2 0f 11 06          	movsd  %xmm0,(%rsi)
    3aff:	c3                   	ret    

0000000000003b00 <_ZSt16__introsort_loopIPdlN9__gnu_cxx5__ops15_Iter_less_iterEEvT_S4_T0_T1_.isra.0>:
    3b00:	48 89 f0             	mov    %rsi,%rax
    3b03:	48 29 f8             	sub    %rdi,%rax
    3b06:	48 3d 80 00 00 00    	cmp    $0x80,%rax
    3b0c:	0f 8e bf 01 00 00    	jle    3cd1 <_ZSt16__introsort_loopIPdlN9__gnu_cxx5__ops15_Iter_less_iterEEvT_S4_T0_T1_.isra.0+0x1d1>
    3b12:	41 55                	push   %r13
    3b14:	49 89 d5             	mov    %rdx,%r13
    3b17:	41 54                	push   %r12
    3b19:	4c 8d 67 08          	lea    0x8(%rdi),%r12
    3b1d:	55                   	push   %rbp
    3b1e:	48 89 fd             	mov    %rdi,%rbp
    3b21:	53                   	push   %rbx
    3b22:	48 83 ec 08          	sub    $0x8,%rsp
    3b26:	48 85 d2             	test   %rdx,%rdx
    3b29:	0f 84 20 01 00 00    	je     3c4f <_ZSt16__introsort_loopIPdlN9__gnu_cxx5__ops15_Iter_less_iterEEvT_S4_T0_T1_.isra.0+0x14f>
    3b2f:	66 0f 10 45 00       	movupd 0x0(%rbp),%xmm0
    3b34:	48 c1 f8 04          	sar    $0x4,%rax
    3b38:	49 83 ed 01          	sub    $0x1,%r13
    3b3c:	f2 0f 10 5e f8       	movsd  -0x8(%rsi),%xmm3
    3b41:	48 8d 44 c5 00       	lea    0x0(%rbp,%rax,8),%rax
    3b46:	66 0f 28 e0          	movapd %xmm0,%xmm4
    3b4a:	f2 0f 10 10          	movsd  (%rax),%xmm2
    3b4e:	66 0f 28 c8          	movapd %xmm0,%xmm1
    3b52:	66 0f c6 e0 01       	shufpd $0x1,%xmm0,%xmm4
    3b57:	66 0f 15 c0          	unpckhpd %xmm0,%xmm0
    3b5b:	66 0f 2f d0          	comisd %xmm0,%xmm2
    3b5f:	76 77                	jbe    3bd8 <_ZSt16__introsort_loopIPdlN9__gnu_cxx5__ops15_Iter_less_iterEEvT_S4_T0_T1_.isra.0+0xd8>
    3b61:	66 0f 2f da          	comisd %xmm2,%xmm3
    3b65:	0f 87 c7 00 00 00    	ja     3c32 <_ZSt16__introsort_loopIPdlN9__gnu_cxx5__ops15_Iter_less_iterEEvT_S4_T0_T1_.isra.0+0x132>
    3b6b:	66 0f 2f d8          	comisd %xmm0,%xmm3
    3b6f:	77 73                	ja     3be4 <_ZSt16__introsort_loopIPdlN9__gnu_cxx5__ops15_Iter_less_iterEEvT_S4_T0_T1_.isra.0+0xe4>
    3b71:	0f 11 65 00          	movups %xmm4,0x0(%rbp)
    3b75:	f2 0f 10 56 f8       	movsd  -0x8(%rsi),%xmm2
    3b7a:	48 89 f0             	mov    %rsi,%rax
    3b7d:	4c 89 e3             	mov    %r12,%rbx
    3b80:	eb 0f                	jmp    3b91 <_ZSt16__introsort_loopIPdlN9__gnu_cxx5__ops15_Iter_less_iterEEvT_S4_T0_T1_.isra.0+0x91>
    3b82:	66 0f 1f 44 00 00    	nopw   0x0(%rax,%rax,1)
    3b88:	f2 0f 10 4b 08       	movsd  0x8(%rbx),%xmm1
    3b8d:	48 83 c3 08          	add    $0x8,%rbx
    3b91:	66 0f 2f c1          	comisd %xmm1,%xmm0
    3b95:	77 f1                	ja     3b88 <_ZSt16__introsort_loopIPdlN9__gnu_cxx5__ops15_Iter_less_iterEEvT_S4_T0_T1_.isra.0+0x88>
    3b97:	48 83 e8 08          	sub    $0x8,%rax
    3b9b:	66 0f 2f d0          	comisd %xmm0,%xmm2
    3b9f:	76 16                	jbe    3bb7 <_ZSt16__introsort_loopIPdlN9__gnu_cxx5__ops15_Iter_less_iterEEvT_S4_T0_T1_.isra.0+0xb7>
    3ba1:	0f 1f 80 00 00 00 00 	nopl   0x0(%rax)
    3ba8:	f2 0f 10 50 f8       	movsd  -0x8(%rax),%xmm2
    3bad:	48 83 e8 08          	sub    $0x8,%rax
    3bb1:	66 0f 2f d0          	comisd %xmm0,%xmm2
    3bb5:	77 f1                	ja     3ba8 <_ZSt16__introsort_loopIPdlN9__gnu_cxx5__ops15_Iter_less_iterEEvT_S4_T0_T1_.isra.0+0xa8>
    3bb7:	48 39 d8             	cmp    %rbx,%rax
    3bba:	76 4c                	jbe    3c08 <_ZSt16__introsort_loopIPdlN9__gnu_cxx5__ops15_Iter_less_iterEEvT_S4_T0_T1_.isra.0+0x108>
    3bbc:	f2 0f 11 13          	movsd  %xmm2,(%rbx)
    3bc0:	48 83 c3 08          	add    $0x8,%rbx
    3bc4:	f2 0f 10 50 f8       	movsd  -0x8(%rax),%xmm2
    3bc9:	f2 0f 11 08          	movsd  %xmm1,(%rax)
    3bcd:	f2 0f 10 0b          	movsd  (%rbx),%xmm1
    3bd1:	f2 0f 10 45 00       	movsd  0x0(%rbp),%xmm0
    3bd6:	eb b9                	jmp    3b91 <_ZSt16__introsort_loopIPdlN9__gnu_cxx5__ops15_Iter_less_iterEEvT_S4_T0_T1_.isra.0+0x91>
    3bd8:	66 0f 2f d8          	comisd %xmm0,%xmm3
    3bdc:	77 93                	ja     3b71 <_ZSt16__introsort_loopIPdlN9__gnu_cxx5__ops15_Iter_less_iterEEvT_S4_T0_T1_.isra.0+0x71>
    3bde:	66 0f 2f da          	comisd %xmm2,%xmm3
    3be2:	76 4e                	jbe    3c32 <_ZSt16__introsort_loopIPdlN9__gnu_cxx5__ops15_Iter_less_iterEEvT_S4_T0_T1_.isra.0+0x132>
    3be4:	f2 0f 11 5d 00       	movsd  %xmm3,0x0(%rbp)
    3be9:	66 0f 28 d1          	movapd %xmm1,%xmm2
    3bed:	f2 0f 11 4e f8       	movsd  %xmm1,-0x8(%rsi)
    3bf2:	f2 0f 10 45 00       	movsd  0x0(%rbp),%xmm0
    3bf7:	f2 0f 10 4d 08       	movsd  0x8(%rbp),%xmm1
    3bfc:	e9 79 ff ff ff       	jmp    3b7a <_ZSt16__introsort_loopIPdlN9__gnu_cxx5__ops15_Iter_less_iterEEvT_S4_T0_T1_.isra.0+0x7a>
    3c01:	0f 1f 80 00 00 00 00 	nopl   0x0(%rax)
    3c08:	4c 89 ea             	mov    %r13,%rdx
    3c0b:	48 89 df             	mov    %rbx,%rdi
    3c0e:	e8 ed fe ff ff       	call   3b00 <_ZSt16__introsort_loopIPdlN9__gnu_cxx5__ops15_Iter_less_iterEEvT_S4_T0_T1_.isra.0>
    3c13:	48 89 d8             	mov    %rbx,%rax
    3c16:	48 29 e8             	sub    %rbp,%rax
    3c19:	48 3d 80 00 00 00    	cmp    $0x80,%rax
    3c1f:	0f 8e a1 00 00 00    	jle    3cc6 <_ZSt16__introsort_loopIPdlN9__gnu_cxx5__ops15_Iter_less_iterEEvT_S4_T0_T1_.isra.0+0x1c6>
    3c25:	4d 85 ed             	test   %r13,%r13
    3c28:	74 28                	je     3c52 <_ZSt16__introsort_loopIPdlN9__gnu_cxx5__ops15_Iter_less_iterEEvT_S4_T0_T1_.isra.0+0x152>
    3c2a:	48 89 de             	mov    %rbx,%rsi
    3c2d:	e9 fd fe ff ff       	jmp    3b2f <_ZSt16__introsort_loopIPdlN9__gnu_cxx5__ops15_Iter_less_iterEEvT_S4_T0_T1_.isra.0+0x2f>
    3c32:	f2 0f 11 55 00       	movsd  %xmm2,0x0(%rbp)
    3c37:	f2 0f 11 08          	movsd  %xmm1,(%rax)
    3c3b:	f2 0f 10 4d 08       	movsd  0x8(%rbp),%xmm1
    3c40:	f2 0f 10 45 00       	movsd  0x0(%rbp),%xmm0
    3c45:	f2 0f 10 56 f8       	movsd  -0x8(%rsi),%xmm2
    3c4a:	e9 2b ff ff ff       	jmp    3b7a <_ZSt16__introsort_loopIPdlN9__gnu_cxx5__ops15_Iter_less_iterEEvT_S4_T0_T1_.isra.0+0x7a>
    3c4f:	48 89 f3             	mov    %rsi,%rbx
    3c52:	48 c1 f8 03          	sar    $0x3,%rax
    3c56:	48 89 ef             	mov    %rbp,%rdi
    3c59:	4c 8d 68 fe          	lea    -0x2(%rax),%r13
    3c5d:	48 89 c2             	mov    %rax,%rdx
    3c60:	49 89 c4             	mov    %rax,%r12
    3c63:	49 d1 fd             	sar    %r13
    3c66:	f2 42 0f 10 44 ed 00 	movsd  0x0(%rbp,%r13,8),%xmm0
    3c6d:	4c 89 ee             	mov    %r13,%rsi
    3c70:	e8 6b fd ff ff       	call   39e0 <_ZSt13__adjust_heapIPdldN9__gnu_cxx5__ops15_Iter_less_iterEEvT_T0_S5_T1_T2_.isra.0>
    3c75:	49 83 ed 01          	sub    $0x1,%r13
    3c79:	4c 89 e2             	mov    %r12,%rdx
    3c7c:	48 89 ef             	mov    %rbp,%rdi
    3c7f:	f2 42 0f 10 44 ed 00 	movsd  0x0(%rbp,%r13,8),%xmm0
    3c86:	4c 89 ee             	mov    %r13,%rsi
    3c89:	e8 52 fd ff ff       	call   39e0 <_ZSt13__adjust_heapIPdldN9__gnu_cxx5__ops15_Iter_less_iterEEvT_T0_S5_T1_T2_.isra.0>
    3c8e:	4d 85 ed             	test   %r13,%r13
    3c91:	75 e2                	jne    3c75 <_ZSt16__introsort_loopIPdlN9__gnu_cxx5__ops15_Iter_less_iterEEvT_S4_T0_T1_.isra.0+0x175>
    3c93:	0f 1f 44 00 00       	nopl   0x0(%rax,%rax,1)
    3c98:	48 83 eb 08          	sub    $0x8,%rbx
    3c9c:	f2 0f 10 4d 00       	movsd  0x0(%rbp),%xmm1
    3ca1:	f2 0f 10 03          	movsd  (%rbx),%xmm0
    3ca5:	31 f6                	xor    %esi,%esi
    3ca7:	49 89 dc             	mov    %rbx,%r12
    3caa:	48 89 ef             	mov    %rbp,%rdi
    3cad:	49 29 ec             	sub    %rbp,%r12
    3cb0:	f2 0f 11 0b          	movsd  %xmm1,(%rbx)
    3cb4:	4c 89 e2             	mov    %r12,%rdx
    3cb7:	48 c1 fa 03          	sar    $0x3,%rdx
    3cbb:	e8 20 fd ff ff       	call   39e0 <_ZSt13__adjust_heapIPdldN9__gnu_cxx5__ops15_Iter_less_iterEEvT_T0_S5_T1_T2_.isra.0>
    3cc0:	49 83 fc 08          	cmp    $0x8,%r12
    3cc4:	7f d2                	jg     3c98 <_ZSt16__introsort_loopIPdlN9__gnu_cxx5__ops15_Iter_less_iterEEvT_S4_T0_T1_.isra.0+0x198>
    3cc6:	48 83 c4 08          	add    $0x8,%rsp
    3cca:	5b                   	pop    %rbx
    3ccb:	5d                   	pop    %rbp
    3ccc:	41 5c                	pop    %r12
    3cce:	41 5d                	pop    %r13
    3cd0:	c3                   	ret    
    3cd1:	c3                   	ret    
    3cd2:	66 66 2e 0f 1f 84 00 	data16 cs nopw 0x0(%rax,%rax,1)
    3cd9:	00 00 00 00 
    3cdd:	0f 1f 00             	nopl   (%rax)

0000000000003ce0 <_ZNSt7__cxx1112basic_stringIcSt11char_traitsIcESaIcEEC2IS3_EEPKcRKS3_.constprop.1>:
    3ce0:	41 55                	push   %r13
    3ce2:	4c 8d 6f 10          	lea    0x10(%rdi),%r13
    3ce6:	41 54                	push   %r12
    3ce8:	55                   	push   %rbp
    3ce9:	53                   	push   %rbx
    3cea:	48 83 ec 18          	sub    $0x18,%rsp
    3cee:	64 48 8b 04 25 28 00 	mov    %fs:0x28,%rax
    3cf5:	00 00 
    3cf7:	48 89 44 24 08       	mov    %rax,0x8(%rsp)
    3cfc:	31 c0                	xor    %eax,%eax
    3cfe:	4c 89 2f             	mov    %r13,(%rdi)
    3d01:	48 85 f6             	test   %rsi,%rsi
    3d04:	0f 84 89 00 00 00    	je     3d93 <_ZNSt7__cxx1112basic_stringIcSt11char_traitsIcESaIcEEC2IS3_EEPKcRKS3_.constprop.1+0xb3>
    3d0a:	48 89 fb             	mov    %rdi,%rbx
    3d0d:	48 89 f7             	mov    %rsi,%rdi
    3d10:	48 89 f5             	mov    %rsi,%rbp
    3d13:	e8 58 e7 ff ff       	call   2470 <strlen@plt>
    3d18:	48 89 04 24          	mov    %rax,(%rsp)
    3d1c:	49 89 c4             	mov    %rax,%r12
    3d1f:	48 83 f8 0f          	cmp    $0xf,%rax
    3d23:	77 3e                	ja     3d63 <_ZNSt7__cxx1112basic_stringIcSt11char_traitsIcESaIcEEC2IS3_EEPKcRKS3_.constprop.1+0x83>
    3d25:	48 83 f8 01          	cmp    $0x1,%rax
    3d29:	75 31                	jne    3d5c <_ZNSt7__cxx1112basic_stringIcSt11char_traitsIcESaIcEEC2IS3_EEPKcRKS3_.constprop.1+0x7c>
    3d2b:	0f b6 45 00          	movzbl 0x0(%rbp),%eax
    3d2f:	88 43 10             	mov    %al,0x10(%rbx)
    3d32:	48 8b 04 24          	mov    (%rsp),%rax
    3d36:	48 8b 13             	mov    (%rbx),%rdx
    3d39:	48 89 43 08          	mov    %rax,0x8(%rbx)
    3d3d:	c6 04 02 00          	movb   $0x0,(%rdx,%rax,1)
    3d41:	48 8b 44 24 08       	mov    0x8(%rsp),%rax
    3d46:	64 48 2b 04 25 28 00 	sub    %fs:0x28,%rax
    3d4d:	00 00 
    3d4f:	75 3d                	jne    3d8e <_ZNSt7__cxx1112basic_stringIcSt11char_traitsIcESaIcEEC2IS3_EEPKcRKS3_.constprop.1+0xae>
    3d51:	48 83 c4 18          	add    $0x18,%rsp
    3d55:	5b                   	pop    %rbx
    3d56:	5d                   	pop    %rbp
    3d57:	41 5c                	pop    %r12
    3d59:	41 5d                	pop    %r13
    3d5b:	c3                   	ret    
    3d5c:	48 85 c0             	test   %rax,%rax
    3d5f:	74 d1                	je     3d32 <_ZNSt7__cxx1112basic_stringIcSt11char_traitsIcESaIcEEC2IS3_EEPKcRKS3_.constprop.1+0x52>
    3d61:	eb 1b                	jmp    3d7e <_ZNSt7__cxx1112basic_stringIcSt11char_traitsIcESaIcEEC2IS3_EEPKcRKS3_.constprop.1+0x9e>
    3d63:	48 89 e6             	mov    %rsp,%rsi
    3d66:	31 d2                	xor    %edx,%edx
    3d68:	48 89 df             	mov    %rbx,%rdi
    3d6b:	e8 d0 e9 ff ff       	call   2740 <_ZNSt7__cxx1112basic_stringIcSt11char_traitsIcESaIcEE9_M_createERmm@plt>
    3d70:	48 89 03             	mov    %rax,(%rbx)
    3d73:	49 89 c5             	mov    %rax,%r13
    3d76:	48 8b 04 24          	mov    (%rsp),%rax
    3d7a:	48 89 43 10          	mov    %rax,0x10(%rbx)
    3d7e:	4c 89 e2             	mov    %r12,%rdx
    3d81:	48 89 ee             	mov    %rbp,%rsi
    3d84:	4c 89 ef             	mov    %r13,%rdi
    3d87:	e8 a4 e7 ff ff       	call   2530 <memcpy@plt>
    3d8c:	eb a4                	jmp    3d32 <_ZNSt7__cxx1112basic_stringIcSt11char_traitsIcESaIcEEC2IS3_EEPKcRKS3_.constprop.1+0x52>
    3d8e:	e8 3d e8 ff ff       	call   25d0 <__stack_chk_fail@plt>
    3d93:	48 8d 3d 6e 72 00 00 	lea    0x726e(%rip),%rdi        # b008 <_IO_stdin_used+0x8>
    3d9a:	e8 71 e7 ff ff       	call   2510 <_ZSt19__throw_logic_errorPKc@plt>
    3d9f:	90                   	nop

0000000000003da0 <_ZL6forceldddddddjjPPPdddddPPP6tensori.constprop.0>:
    3da0:	41 57                	push   %r15
    3da2:	66 0f 28 f8          	movapd %xmm0,%xmm7
    3da6:	66 44 0f 28 fd       	movapd %xmm5,%xmm15
    3dab:	49 89 ff             	mov    %rdi,%r15
    3dae:	41 56                	push   %r14
    3db0:	41 55                	push   %r13
    3db2:	41 54                	push   %r12
    3db4:	41 89 f4             	mov    %esi,%r12d
    3db7:	55                   	push   %rbp
    3db8:	53                   	push   %rbx
    3db9:	89 d3                	mov    %edx,%ebx
    3dbb:	48 81 ec 38 01 00 00 	sub    $0x138,%rsp
    3dc2:	48 89 4c 24 30       	mov    %rcx,0x30(%rsp)
    3dc7:	4c 89 44 24 58       	mov    %r8,0x58(%rsp)
    3dcc:	44 89 4c 24 74       	mov    %r9d,0x74(%rsp)
    3dd1:	f2 0f 11 24 24       	movsd  %xmm4,(%rsp)
    3dd6:	66 0f 28 e0          	movapd %xmm0,%xmm4
    3dda:	66 0f ef c0          	pxor   %xmm0,%xmm0
    3dde:	f2 0f 11 6c 24 50    	movsd  %xmm5,0x50(%rsp)
    3de4:	66 0f 14 e4          	unpcklpd %xmm4,%xmm4
    3de8:	f2 0f 11 74 24 18    	movsd  %xmm6,0x18(%rsp)
    3dee:	64 48 8b 04 25 28 00 	mov    %fs:0x28,%rax
    3df5:	00 00 
    3df7:	48 89 84 24 28 01 00 	mov    %rax,0x128(%rsp)
    3dfe:	00 
    3dff:	31 c0                	xor    %eax,%eax
    3e01:	0f 29 64 24 40       	movaps %xmm4,0x40(%rsp)
    3e06:	66 0f 28 e7          	movapd %xmm7,%xmm4
    3e0a:	66 0f 57 25 ee 7a 00 	xorpd  0x7aee(%rip),%xmm4        # b900 <_IO_stdin_used+0x900>
    3e11:	00 
    3e12:	48 c7 47 10 00 00 00 	movq   $0x0,0x10(%rdi)
    3e19:	00 
    3e1a:	66 44 0f 2f fc       	comisd %xmm4,%xmm15
    3e1f:	0f 11 07             	movups %xmm0,(%rdi)
    3e22:	66 0f 28 ec          	movapd %xmm4,%xmm5
    3e26:	0f 87 84 02 00 00    	ja     40b0 <_ZL6forceldddddddjjPPPdddddPPP6tensori.constprop.0+0x310>
    3e2c:	89 74 24 20          	mov    %esi,0x20(%rsp)
    3e30:	45 31 ed             	xor    %r13d,%r13d
    3e33:	66 0f 2f 7c 24 18    	comisd 0x18(%rsp),%xmm7
    3e39:	0f 87 b1 01 00 00    	ja     3ff0 <_ZL6forceldddddddjjPPPdddddPPP6tensori.constprop.0+0x250>
    3e3f:	66 0f 2f 6c 24 18    	comisd 0x18(%rsp),%xmm5
    3e45:	77 0c                	ja     3e53 <_ZL6forceldddddddjjPPPdddddPPP6tensori.constprop.0+0xb3>
    3e47:	f2 0f 10 44 24 50    	movsd  0x50(%rsp),%xmm0
    3e4d:	66 0f 2f c7          	comisd %xmm7,%xmm0
    3e51:	76 2d                	jbe    3e80 <_ZL6forceldddddddjjPPPdddddPPP6tensori.constprop.0+0xe0>
    3e53:	48 8b 84 24 28 01 00 	mov    0x128(%rsp),%rax
    3e5a:	00 
    3e5b:	64 48 2b 04 25 28 00 	sub    %fs:0x28,%rax
    3e62:	00 00 
    3e64:	0f 85 9a 13 00 00    	jne    5204 <_ZL6forceldddddddjjPPPdddddPPP6tensori.constprop.0+0x1464>
    3e6a:	48 81 c4 38 01 00 00 	add    $0x138,%rsp
    3e71:	4c 89 f8             	mov    %r15,%rax
    3e74:	5b                   	pop    %rbx
    3e75:	5d                   	pop    %rbp
    3e76:	41 5c                	pop    %r12
    3e78:	41 5d                	pop    %r13
    3e7a:	41 5e                	pop    %r14
    3e7c:	41 5f                	pop    %r15
    3e7e:	c3                   	ret    
    3e7f:	90                   	nop
    3e80:	66 0f ef e4          	pxor   %xmm4,%xmm4
    3e84:	66 0f 2e cc          	ucomisd %xmm4,%xmm1
    3e88:	0f 8a 64 03 00 00    	jp     41f2 <_ZL6forceldddddddjjPPPdddddPPP6tensori.constprop.0+0x452>
    3e8e:	0f 85 5e 03 00 00    	jne    41f2 <_ZL6forceldddddddjjPPPdddddPPP6tensori.constprop.0+0x452>
    3e94:	66 0f 2f dc          	comisd %xmm4,%xmm3
    3e98:	f2 0f 10 05 e8 79 00 	movsd  0x79e8(%rip),%xmm0        # b888 <_IO_stdin_used+0x888>
    3e9f:	00 
    3ea0:	77 19                	ja     3ebb <_ZL6forceldddddddjjPPPdddddPPP6tensori.constprop.0+0x11b>
    3ea2:	66 0f 28 ec          	movapd %xmm4,%xmm5
    3ea6:	66 0f 28 e3          	movapd %xmm3,%xmm4
    3eaa:	f2 0f 10 05 de 79 00 	movsd  0x79de(%rip),%xmm0        # b890 <_IO_stdin_used+0x890>
    3eb1:	00 
    3eb2:	f2 0f c2 e5 01       	cmpltsd %xmm5,%xmm4
    3eb7:	66 0f 54 c4          	andpd  %xmm4,%xmm0
    3ebb:	f2 0f 10 24 24       	movsd  (%rsp),%xmm4
    3ec0:	66 0f ef ed          	pxor   %xmm5,%xmm5
    3ec4:	f2 0f 11 84 24 00 01 	movsd  %xmm0,0x100(%rsp)
    3ecb:	00 00 
    3ecd:	f2 0f 10 05 b3 79 00 	movsd  0x79b3(%rip),%xmm0        # b888 <_IO_stdin_used+0x888>
    3ed4:	00 
    3ed5:	66 0f 2f e5          	comisd %xmm5,%xmm4
    3ed9:	0f 86 d2 11 00 00    	jbe    50b1 <_ZL6forceldddddddjjPPPdddddPPP6tensori.constprop.0+0x1311>
    3edf:	f2 0f 11 84 24 08 01 	movsd  %xmm0,0x108(%rsp)
    3ee6:	00 00 
    3ee8:	66 0f ef e4          	pxor   %xmm4,%xmm4
    3eec:	66 0f 2e d4          	ucomisd %xmm4,%xmm2
    3ef0:	7a 06                	jp     3ef8 <_ZL6forceldddddddjjPPPdddddPPP6tensori.constprop.0+0x158>
    3ef2:	0f 84 e9 03 00 00    	je     42e1 <_ZL6forceldddddddjjPPPdddddPPP6tensori.constprop.0+0x541>
    3ef8:	66 0f 28 c3          	movapd %xmm3,%xmm0
    3efc:	f2 0f 11 7c 24 78    	movsd  %xmm7,0x78(%rsp)
    3f02:	f2 0f 5e c2          	divsd  %xmm2,%xmm0
    3f06:	f2 0f 11 5c 24 60    	movsd  %xmm3,0x60(%rsp)
    3f0c:	f2 0f 11 8c 24 80 00 	movsd  %xmm1,0x80(%rsp)
    3f13:	00 00 
    3f15:	f2 0f 11 54 24 10    	movsd  %xmm2,0x10(%rsp)
    3f1b:	e8 20 e6 ff ff       	call   2540 <atan@plt>
    3f20:	f2 0f 10 5c 24 60    	movsd  0x60(%rsp),%xmm3
    3f26:	66 0f ef ff          	pxor   %xmm7,%xmm7
    3f2a:	f2 0f 10 54 24 10    	movsd  0x10(%rsp),%xmm2
    3f30:	f2 0f 10 8c 24 80 00 	movsd  0x80(%rsp),%xmm1
    3f37:	00 00 
    3f39:	66 0f ef e4          	pxor   %xmm4,%xmm4
    3f3d:	66 0f 2f fb          	comisd %xmm3,%xmm7
    3f41:	f2 0f 10 7c 24 78    	movsd  0x78(%rsp),%xmm7
    3f47:	0f 87 e9 10 00 00    	ja     5036 <_ZL6forceldddddddjjPPPdddddPPP6tensori.constprop.0+0x1296>
    3f4d:	66 0f 2f dc          	comisd %xmm4,%xmm3
    3f51:	0f 86 f1 11 00 00    	jbe    5148 <_ZL6forceldddddddjjPPPdddddPPP6tensori.constprop.0+0x13a8>
    3f57:	66 0f 2f e2          	comisd %xmm2,%xmm4
    3f5b:	0f 87 1d 12 00 00    	ja     517e <_ZL6forceldddddddjjPPPdddddPPP6tensori.constprop.0+0x13de>
    3f61:	f2 0f 11 84 24 10 01 	movsd  %xmm0,0x110(%rsp)
    3f68:	00 00 
    3f6a:	f2 0f 10 04 24       	movsd  (%rsp),%xmm0
    3f6f:	f2 0f 11 9c 24 80 00 	movsd  %xmm3,0x80(%rsp)
    3f76:	00 00 
    3f78:	f2 0f 5e c2          	divsd  %xmm2,%xmm0
    3f7c:	f2 0f 11 4c 24 78    	movsd  %xmm1,0x78(%rsp)
    3f82:	f2 0f 11 7c 24 60    	movsd  %xmm7,0x60(%rsp)
    3f88:	f2 0f 11 54 24 10    	movsd  %xmm2,0x10(%rsp)
    3f8e:	e8 ad e5 ff ff       	call   2540 <atan@plt>
    3f93:	66 0f ef db          	pxor   %xmm3,%xmm3
    3f97:	66 0f 2f 1c 24       	comisd (%rsp),%xmm3
    3f9c:	f2 0f 10 54 24 10    	movsd  0x10(%rsp),%xmm2
    3fa2:	f2 0f 10 7c 24 60    	movsd  0x60(%rsp),%xmm7
    3fa8:	f2 0f 10 4c 24 78    	movsd  0x78(%rsp),%xmm1
    3fae:	f2 0f 10 9c 24 80 00 	movsd  0x80(%rsp),%xmm3
    3fb5:	00 00 
    3fb7:	0f 87 db 11 00 00    	ja     5198 <_ZL6forceldddddddjjPPPdddddPPP6tensori.constprop.0+0x13f8>
    3fbd:	f2 0f 10 24 24       	movsd  (%rsp),%xmm4
    3fc2:	66 0f ef ed          	pxor   %xmm5,%xmm5
    3fc6:	66 0f 2f e5          	comisd %xmm5,%xmm4
    3fca:	0f 86 eb 11 00 00    	jbe    51bb <_ZL6forceldddddddjjPPPdddddPPP6tensori.constprop.0+0x141b>
    3fd0:	66 0f 2f ea          	comisd %xmm2,%xmm5
    3fd4:	0f 86 52 03 00 00    	jbe    432c <_ZL6forceldddddddjjPPPdddddPPP6tensori.constprop.0+0x58c>
    3fda:	f2 0f 58 05 b6 78 00 	addsd  0x78b6(%rip),%xmm0        # b898 <_IO_stdin_used+0x898>
    3fe1:	00 
    3fe2:	e9 45 03 00 00       	jmp    432c <_ZL6forceldddddddjjPPPdddddPPP6tensori.constprop.0+0x58c>
    3fe7:	66 0f 1f 84 00 00 00 	nopw   0x0(%rax,%rax,1)
    3fee:	00 00 
    3ff0:	f2 0f 10 44 24 18    	movsd  0x18(%rsp),%xmm0
    3ff6:	f2 0f 11 4c 24 78    	movsd  %xmm1,0x78(%rsp)
    3ffc:	f2 0f 11 9c 24 88 00 	movsd  %xmm3,0x88(%rsp)
    4003:	00 00 
    4005:	f2 0f 5e c7          	divsd  %xmm7,%xmm0
    4009:	f2 0f 11 6c 24 60    	movsd  %xmm5,0x60(%rsp)
    400f:	f2 0f 11 94 24 80 00 	movsd  %xmm2,0x80(%rsp)
    4016:	00 00 
    4018:	f2 0f 11 7c 24 10    	movsd  %xmm7,0x10(%rsp)
    401e:	e8 5d e5 ff ff       	call   2580 <acos@plt>
    4023:	43 8d 04 24          	lea    (%r12,%r12,1),%eax
    4027:	66 45 0f ef c0       	pxor   %xmm8,%xmm8
    402c:	f2 0f 10 25 64 78 00 	movsd  0x7864(%rip),%xmm4        # b898 <_IO_stdin_used+0x898>
    4033:	00 
    4034:	f2 4c 0f 2a c0       	cvtsi2sd %rax,%xmm8
    4039:	44 89 e0             	mov    %r12d,%eax
    403c:	f2 0f 10 7c 24 10    	movsd  0x10(%rsp),%xmm7
    4042:	f2 0f 10 6c 24 60    	movsd  0x60(%rsp),%xmm5
    4048:	66 0f 28 f4          	movapd %xmm4,%xmm6
    404c:	f2 0f 10 4c 24 78    	movsd  0x78(%rsp),%xmm1
    4052:	f2 0f 10 94 24 80 00 	movsd  0x80(%rsp),%xmm2
    4059:	00 00 
    405b:	f2 0f 10 9c 24 88 00 	movsd  0x88(%rsp),%xmm3
    4062:	00 00 
    4064:	f2 41 0f 5e f0       	divsd  %xmm8,%xmm6
    4069:	f2 44 0f 10 05 2e 78 	movsd  0x782e(%rip),%xmm8        # b8a0 <_IO_stdin_used+0x8a0>
    4070:	00 00 
    4072:	f2 0f 5c c6          	subsd  %xmm6,%xmm0
    4076:	66 0f ef f6          	pxor   %xmm6,%xmm6
    407a:	f2 48 0f 2a f0       	cvtsi2sd %rax,%xmm6
    407f:	f2 0f 5e e6          	divsd  %xmm6,%xmm4
    4083:	f2 0f 5e c4          	divsd  %xmm4,%xmm0
    4087:	f3 0f 7e 25 81 78 00 	movq   0x7881(%rip),%xmm4        # b910 <_IO_stdin_used+0x910>
    408e:	00 
    408f:	66 0f 28 f0          	movapd %xmm0,%xmm6
    4093:	66 0f 54 f4          	andpd  %xmm4,%xmm6
    4097:	66 44 0f 2e c6       	ucomisd %xmm6,%xmm8
    409c:	0f 87 0e 01 00 00    	ja     41b0 <_ZL6forceldddddddjjPPPdddddPPP6tensori.constprop.0+0x410>
    40a2:	f2 44 0f 2c e8       	cvttsd2si %xmm0,%r13d
    40a7:	e9 93 fd ff ff       	jmp    3e3f <_ZL6forceldddddddjjPPPdddddPPP6tensori.constprop.0+0x9f>
    40ac:	0f 1f 40 00          	nopl   0x0(%rax)
    40b0:	66 41 0f 28 c7       	movapd %xmm15,%xmm0
    40b5:	f2 0f 11 54 24 78    	movsd  %xmm2,0x78(%rsp)
    40bb:	f2 0f 5e c7          	divsd  %xmm7,%xmm0
    40bf:	f2 0f 11 4c 24 60    	movsd  %xmm1,0x60(%rsp)
    40c5:	f2 0f 11 9c 24 80 00 	movsd  %xmm3,0x80(%rsp)
    40cc:	00 00 
    40ce:	f2 0f 11 64 24 20    	movsd  %xmm4,0x20(%rsp)
    40d4:	f2 0f 11 7c 24 10    	movsd  %xmm7,0x10(%rsp)
    40da:	e8 a1 e4 ff ff       	call   2580 <acos@plt>
    40df:	43 8d 04 24          	lea    (%r12,%r12,1),%eax
    40e3:	66 45 0f ef c0       	pxor   %xmm8,%xmm8
    40e8:	f2 0f 10 25 a8 77 00 	movsd  0x77a8(%rip),%xmm4        # b898 <_IO_stdin_used+0x898>
    40ef:	00 
    40f0:	f2 4c 0f 2a c0       	cvtsi2sd %rax,%xmm8
    40f5:	44 89 e0             	mov    %r12d,%eax
    40f8:	f2 0f 10 7c 24 10    	movsd  0x10(%rsp),%xmm7
    40fe:	f2 0f 10 6c 24 20    	movsd  0x20(%rsp),%xmm5
    4104:	66 0f 28 f4          	movapd %xmm4,%xmm6
    4108:	f2 0f 10 4c 24 60    	movsd  0x60(%rsp),%xmm1
    410e:	f2 0f 10 54 24 78    	movsd  0x78(%rsp),%xmm2
    4114:	f2 0f 10 9c 24 80 00 	movsd  0x80(%rsp),%xmm3
    411b:	00 00 
    411d:	f2 41 0f 5e f0       	divsd  %xmm8,%xmm6
    4122:	f2 44 0f 10 05 75 77 	movsd  0x7775(%rip),%xmm8        # b8a0 <_IO_stdin_used+0x8a0>
    4129:	00 00 
    412b:	f2 0f 5c c6          	subsd  %xmm6,%xmm0
    412f:	66 0f ef f6          	pxor   %xmm6,%xmm6
    4133:	f2 48 0f 2a f0       	cvtsi2sd %rax,%xmm6
    4138:	f2 0f 5e e6          	divsd  %xmm6,%xmm4
    413c:	f2 0f 5e c4          	divsd  %xmm4,%xmm0
    4140:	f3 0f 7e 25 c8 77 00 	movq   0x77c8(%rip),%xmm4        # b910 <_IO_stdin_used+0x910>
    4147:	00 
    4148:	66 0f 28 f0          	movapd %xmm0,%xmm6
    414c:	66 0f 54 f4          	andpd  %xmm4,%xmm6
    4150:	66 44 0f 2e c6       	ucomisd %xmm6,%xmm8
    4155:	77 11                	ja     4168 <_ZL6forceldddddddjjPPPdddddPPP6tensori.constprop.0+0x3c8>
    4157:	f2 0f 2c c0          	cvttsd2si %xmm0,%eax
    415b:	89 44 24 20          	mov    %eax,0x20(%rsp)
    415f:	e9 cc fc ff ff       	jmp    3e30 <_ZL6forceldddddddjjPPPdddddPPP6tensori.constprop.0+0x90>
    4164:	0f 1f 40 00          	nopl   0x0(%rax)
    4168:	f2 48 0f 2c c0       	cvttsd2si %xmm0,%rax
    416d:	66 0f ef f6          	pxor   %xmm6,%xmm6
    4171:	66 44 0f 28 c0       	movapd %xmm0,%xmm8
    4176:	f2 44 0f 10 0d d9 76 	movsd  0x76d9(%rip),%xmm9        # b858 <_IO_stdin_used+0x858>
    417d:	00 00 
    417f:	66 0f 55 e0          	andnpd %xmm0,%xmm4
    4183:	f2 48 0f 2a f0       	cvtsi2sd %rax,%xmm6
    4188:	f2 44 0f c2 c6 06    	cmpnlesd %xmm6,%xmm8
    418e:	66 45 0f 54 c1       	andpd  %xmm9,%xmm8
    4193:	f2 41 0f 58 f0       	addsd  %xmm8,%xmm6
    4198:	66 0f 28 c6          	movapd %xmm6,%xmm0
    419c:	66 0f 56 c4          	orpd   %xmm4,%xmm0
    41a0:	f2 0f 2c c0          	cvttsd2si %xmm0,%eax
    41a4:	89 44 24 20          	mov    %eax,0x20(%rsp)
    41a8:	e9 83 fc ff ff       	jmp    3e30 <_ZL6forceldddddddjjPPPdddddPPP6tensori.constprop.0+0x90>
    41ad:	0f 1f 00             	nopl   (%rax)
    41b0:	f2 48 0f 2c c0       	cvttsd2si %xmm0,%rax
    41b5:	66 0f ef f6          	pxor   %xmm6,%xmm6
    41b9:	66 0f 55 e0          	andnpd %xmm0,%xmm4
    41bd:	f2 44 0f 10 0d 92 76 	movsd  0x7692(%rip),%xmm9        # b858 <_IO_stdin_used+0x858>
    41c4:	00 00 
    41c6:	f2 48 0f 2a f0       	cvtsi2sd %rax,%xmm6
    41cb:	66 44 0f 28 c6       	movapd %xmm6,%xmm8
    41d0:	f2 44 0f c2 c0 06    	cmpnlesd %xmm0,%xmm8
    41d6:	66 45 0f 54 c1       	andpd  %xmm9,%xmm8
    41db:	f2 41 0f 5c f0       	subsd  %xmm8,%xmm6
    41e0:	66 0f 28 c6          	movapd %xmm6,%xmm0
    41e4:	66 0f 56 c4          	orpd   %xmm4,%xmm0
    41e8:	f2 44 0f 2c e8       	cvttsd2si %xmm0,%r13d
    41ed:	e9 4d fc ff ff       	jmp    3e3f <_ZL6forceldddddddjjPPPdddddPPP6tensori.constprop.0+0x9f>
    41f2:	66 0f 28 c3          	movapd %xmm3,%xmm0
    41f6:	f2 0f 11 7c 24 78    	movsd  %xmm7,0x78(%rsp)
    41fc:	f2 0f 5e c1          	divsd  %xmm1,%xmm0
    4200:	f2 0f 11 5c 24 60    	movsd  %xmm3,0x60(%rsp)
    4206:	f2 0f 11 94 24 80 00 	movsd  %xmm2,0x80(%rsp)
    420d:	00 00 
    420f:	f2 0f 11 4c 24 10    	movsd  %xmm1,0x10(%rsp)
    4215:	e8 26 e3 ff ff       	call   2540 <atan@plt>
    421a:	f2 0f 10 5c 24 60    	movsd  0x60(%rsp),%xmm3
    4220:	66 0f ef ff          	pxor   %xmm7,%xmm7
    4224:	f2 0f 10 4c 24 10    	movsd  0x10(%rsp),%xmm1
    422a:	f2 0f 10 94 24 80 00 	movsd  0x80(%rsp),%xmm2
    4231:	00 00 
    4233:	66 0f ef e4          	pxor   %xmm4,%xmm4
    4237:	66 0f 2f fb          	comisd %xmm3,%xmm7
    423b:	f2 0f 10 7c 24 78    	movsd  0x78(%rsp),%xmm7
    4241:	0f 87 86 0e 00 00    	ja     50cd <_ZL6forceldddddddjjPPPdddddPPP6tensori.constprop.0+0x132d>
    4247:	66 0f 2f dc          	comisd %xmm4,%xmm3
    424b:	0f 86 12 0f 00 00    	jbe    5163 <_ZL6forceldddddddjjPPPdddddPPP6tensori.constprop.0+0x13c3>
    4251:	66 0f 2f e1          	comisd %xmm1,%xmm4
    4255:	0f 87 30 0f 00 00    	ja     518b <_ZL6forceldddddddjjPPPdddddPPP6tensori.constprop.0+0x13eb>
    425b:	f2 0f 11 84 24 00 01 	movsd  %xmm0,0x100(%rsp)
    4262:	00 00 
    4264:	f2 0f 10 04 24       	movsd  (%rsp),%xmm0
    4269:	f2 0f 11 9c 24 80 00 	movsd  %xmm3,0x80(%rsp)
    4270:	00 00 
    4272:	f2 0f 5e c1          	divsd  %xmm1,%xmm0
    4276:	f2 0f 11 54 24 78    	movsd  %xmm2,0x78(%rsp)
    427c:	f2 0f 11 7c 24 60    	movsd  %xmm7,0x60(%rsp)
    4282:	f2 0f 11 4c 24 10    	movsd  %xmm1,0x10(%rsp)
    4288:	e8 b3 e2 ff ff       	call   2540 <atan@plt>
    428d:	66 0f ef db          	pxor   %xmm3,%xmm3
    4291:	66 0f 2f 1c 24       	comisd (%rsp),%xmm3
    4296:	f2 0f 10 4c 24 10    	movsd  0x10(%rsp),%xmm1
    429c:	f2 0f 10 7c 24 60    	movsd  0x60(%rsp),%xmm7
    42a2:	f2 0f 10 54 24 78    	movsd  0x78(%rsp),%xmm2
    42a8:	f2 0f 10 9c 24 80 00 	movsd  0x80(%rsp),%xmm3
    42af:	00 00 
    42b1:	0f 87 f4 0e 00 00    	ja     51ab <_ZL6forceldddddddjjPPPdddddPPP6tensori.constprop.0+0x140b>
    42b7:	f2 0f 10 24 24       	movsd  (%rsp),%xmm4
    42bc:	66 0f ef ed          	pxor   %xmm5,%xmm5
    42c0:	66 0f 2f e5          	comisd %xmm5,%xmm4
    42c4:	0f 86 08 0f 00 00    	jbe    51d2 <_ZL6forceldddddddjjPPPdddddPPP6tensori.constprop.0+0x1432>
    42ca:	66 0f 2f e9          	comisd %xmm1,%xmm5
    42ce:	0f 86 0b fc ff ff    	jbe    3edf <_ZL6forceldddddddjjPPPdddddPPP6tensori.constprop.0+0x13f>
    42d4:	f2 0f 58 05 bc 75 00 	addsd  0x75bc(%rip),%xmm0        # b898 <_IO_stdin_used+0x898>
    42db:	00 
    42dc:	e9 fe fb ff ff       	jmp    3edf <_ZL6forceldddddddjjPPPdddddPPP6tensori.constprop.0+0x13f>
    42e1:	66 0f 2f dc          	comisd %xmm4,%xmm3
    42e5:	f2 0f 10 05 9b 75 00 	movsd  0x759b(%rip),%xmm0        # b888 <_IO_stdin_used+0x888>
    42ec:	00 
    42ed:	77 19                	ja     4308 <_ZL6forceldddddddjjPPPdddddPPP6tensori.constprop.0+0x568>
    42ef:	66 0f 28 ec          	movapd %xmm4,%xmm5
    42f3:	66 0f 28 e3          	movapd %xmm3,%xmm4
    42f7:	f2 0f 10 05 91 75 00 	movsd  0x7591(%rip),%xmm0        # b890 <_IO_stdin_used+0x890>
    42fe:	00 
    42ff:	f2 0f c2 e5 01       	cmpltsd %xmm5,%xmm4
    4304:	66 0f 54 c4          	andpd  %xmm4,%xmm0
    4308:	f2 0f 10 24 24       	movsd  (%rsp),%xmm4
    430d:	66 0f ef ed          	pxor   %xmm5,%xmm5
    4311:	f2 0f 11 84 24 10 01 	movsd  %xmm0,0x110(%rsp)
    4318:	00 00 
    431a:	f2 0f 10 05 66 75 00 	movsd  0x7566(%rip),%xmm0        # b888 <_IO_stdin_used+0x888>
    4321:	00 
    4322:	66 0f 2f e5          	comisd %xmm5,%xmm4
    4326:	0f 86 ee 0c 00 00    	jbe    501a <_ZL6forceldddddddjjPPPdddddPPP6tensori.constprop.0+0x127a>
    432c:	48 8d ac 24 00 01 00 	lea    0x100(%rsp),%rbp
    4333:	00 
    4334:	48 8d b4 24 20 01 00 	lea    0x120(%rsp),%rsi
    433b:	00 
    433c:	ba 04 00 00 00       	mov    $0x4,%edx
    4341:	f2 0f 11 4c 24 10    	movsd  %xmm1,0x10(%rsp)
    4347:	f2 0f 11 9c 24 88 00 	movsd  %xmm3,0x88(%rsp)
    434e:	00 00 
    4350:	48 89 ef             	mov    %rbp,%rdi
    4353:	49 89 ee             	mov    %rbp,%r14
    4356:	f2 0f 11 94 24 80 00 	movsd  %xmm2,0x80(%rsp)
    435d:	00 00 
    435f:	f2 0f 11 84 24 18 01 	movsd  %xmm0,0x118(%rsp)
    4366:	00 00 
    4368:	e8 93 f7 ff ff       	call   3b00 <_ZSt16__introsort_loopIPdlN9__gnu_cxx5__ops15_Iter_less_iterEEvT_S4_T0_T1_.isra.0>
    436d:	f2 0f 10 4c 24 10    	movsd  0x10(%rsp),%xmm1
    4373:	48 8d 84 24 18 01 00 	lea    0x118(%rsp),%rax
    437a:	00 
    437b:	89 9c 24 90 00 00 00 	mov    %ebx,0x90(%rsp)
    4382:	f2 0f 11 7c 24 60    	movsd  %xmm7,0x60(%rsp)
    4388:	48 89 eb             	mov    %rbp,%rbx
    438b:	48 89 c5             	mov    %rax,%rbp
    438e:	f2 0f 11 4c 24 78    	movsd  %xmm1,0x78(%rsp)
    4394:	eb 38                	jmp    43ce <_ZL6forceldddddddjjPPPdddddPPP6tensori.constprop.0+0x62e>
    4396:	66 2e 0f 1f 84 00 00 	cs nopw 0x0(%rax,%rax,1)
    439d:	00 00 00 
    43a0:	b8 08 00 00 00       	mov    $0x8,%eax
    43a5:	48 29 da             	sub    %rbx,%rdx
    43a8:	48 89 de             	mov    %rbx,%rsi
    43ab:	f2 0f 11 4c 24 10    	movsd  %xmm1,0x10(%rsp)
    43b1:	48 8d 3c 03          	lea    (%rbx,%rax,1),%rdi
    43b5:	e8 26 e3 ff ff       	call   26e0 <memmove@plt>
    43ba:	f2 0f 10 4c 24 10    	movsd  0x10(%rsp),%xmm1
    43c0:	f2 0f 11 8c 24 00 01 	movsd  %xmm1,0x100(%rsp)
    43c7:	00 00 
    43c9:	4c 39 f5             	cmp    %r14,%rbp
    43cc:	74 52                	je     4420 <_ZL6forceldddddddjjPPPdddddPPP6tensori.constprop.0+0x680>
    43ce:	f2 0f 10 84 24 00 01 	movsd  0x100(%rsp),%xmm0
    43d5:	00 00 
    43d7:	4c 89 f1             	mov    %r14,%rcx
    43da:	49 83 c6 08          	add    $0x8,%r14
    43de:	f2 0f 10 49 08       	movsd  0x8(%rcx),%xmm1
    43e3:	4c 89 f2             	mov    %r14,%rdx
    43e6:	48 89 c8             	mov    %rcx,%rax
    43e9:	66 0f 2f c1          	comisd %xmm1,%xmm0
    43ed:	77 b1                	ja     43a0 <_ZL6forceldddddddjjPPPdddddPPP6tensori.constprop.0+0x600>
    43ef:	f2 0f 10 01          	movsd  (%rcx),%xmm0
    43f3:	66 0f 2f c1          	comisd %xmm1,%xmm0
    43f7:	76 1e                	jbe    4417 <_ZL6forceldddddddjjPPPdddddPPP6tensori.constprop.0+0x677>
    43f9:	0f 1f 80 00 00 00 00 	nopl   0x0(%rax)
    4400:	f2 0f 11 40 08       	movsd  %xmm0,0x8(%rax)
    4405:	48 89 c2             	mov    %rax,%rdx
    4408:	f2 0f 10 40 f8       	movsd  -0x8(%rax),%xmm0
    440d:	48 83 e8 08          	sub    $0x8,%rax
    4411:	66 0f 2f c1          	comisd %xmm1,%xmm0
    4415:	77 e9                	ja     4400 <_ZL6forceldddddddjjPPPdddddPPP6tensori.constprop.0+0x660>
    4417:	f2 0f 11 0a          	movsd  %xmm1,(%rdx)
    441b:	4c 39 f5             	cmp    %r14,%rbp
    441e:	75 ae                	jne    43ce <_ZL6forceldddddddjjPPPdddddPPP6tensori.constprop.0+0x62e>
    4420:	f2 0f 10 4c 24 78    	movsd  0x78(%rsp),%xmm1
    4426:	66 0f ef e4          	pxor   %xmm4,%xmm4
    442a:	f2 0f 10 7c 24 60    	movsd  0x60(%rsp),%xmm7
    4430:	f2 0f 10 94 24 80 00 	movsd  0x80(%rsp),%xmm2
    4437:	00 00 
    4439:	8b 9c 24 90 00 00 00 	mov    0x90(%rsp),%ebx
    4440:	f2 0f 10 9c 24 88 00 	movsd  0x88(%rsp),%xmm3
    4447:	00 00 
    4449:	66 0f 2f e1          	comisd %xmm1,%xmm4
    444d:	0f 83 0f 04 00 00    	jae    4862 <_ZL6forceldddddddjjPPPdddddPPP6tensori.constprop.0+0xac2>
    4453:	89 d8                	mov    %ebx,%eax
    4455:	66 0f ef c0          	pxor   %xmm0,%xmm0
    4459:	f2 0f 10 2d 47 74 00 	movsd  0x7447(%rip),%xmm5        # b8a8 <_IO_stdin_used+0x8a8>
    4460:	00 
    4461:	f3 0f 7e 25 a7 74 00 	movq   0x74a7(%rip),%xmm4        # b910 <_IO_stdin_used+0x910>
    4468:	00 
    4469:	f2 44 0f 10 05 2e 74 	movsd  0x742e(%rip),%xmm8        # b8a0 <_IO_stdin_used+0x8a0>
    4470:	00 00 
    4472:	f2 48 0f 2a c0       	cvtsi2sd %rax,%xmm0
    4477:	66 44 0f 28 cc       	movapd %xmm4,%xmm9
    447c:	f2 0f 5e e8          	divsd  %xmm0,%xmm5
    4480:	f2 0f 10 84 24 00 01 	movsd  0x100(%rsp),%xmm0
    4487:	00 00 
    4489:	f2 0f 5e c5          	divsd  %xmm5,%xmm0
    448d:	66 0f 28 f0          	movapd %xmm0,%xmm6
    4491:	66 0f 54 f4          	andpd  %xmm4,%xmm6
    4495:	66 44 0f 2e c6       	ucomisd %xmm6,%xmm8
    449a:	76 3a                	jbe    44d6 <_ZL6forceldddddddjjPPPdddddPPP6tensori.constprop.0+0x736>
    449c:	f2 48 0f 2c c0       	cvttsd2si %xmm0,%rax
    44a1:	66 0f ef f6          	pxor   %xmm6,%xmm6
    44a5:	66 44 0f 55 c8       	andnpd %xmm0,%xmm9
    44aa:	f2 44 0f 10 1d a5 73 	movsd  0x73a5(%rip),%xmm11        # b858 <_IO_stdin_used+0x858>
    44b1:	00 00 
    44b3:	f2 48 0f 2a f0       	cvtsi2sd %rax,%xmm6
    44b8:	66 44 0f 28 d6       	movapd %xmm6,%xmm10
    44bd:	f2 44 0f c2 d0 06    	cmpnlesd %xmm0,%xmm10
    44c3:	66 45 0f 54 d3       	andpd  %xmm11,%xmm10
    44c8:	f2 41 0f 5c f2       	subsd  %xmm10,%xmm6
    44cd:	66 0f 28 c6          	movapd %xmm6,%xmm0
    44d1:	66 41 0f 56 c1       	orpd   %xmm9,%xmm0
    44d6:	f2 0f 2c d0          	cvttsd2si %xmm0,%edx
    44da:	f2 0f 10 84 24 18 01 	movsd  0x118(%rsp),%xmm0
    44e1:	00 00 
    44e3:	f2 0f 5e c5          	divsd  %xmm5,%xmm0
    44e7:	66 0f 28 e8          	movapd %xmm0,%xmm5
    44eb:	66 0f 54 ec          	andpd  %xmm4,%xmm5
    44ef:	66 44 0f 2e c5       	ucomisd %xmm5,%xmm8
    44f4:	76 35                	jbe    452b <_ZL6forceldddddddjjPPPdddddPPP6tensori.constprop.0+0x78b>
    44f6:	f2 48 0f 2c c0       	cvttsd2si %xmm0,%rax
    44fb:	66 0f ef ed          	pxor   %xmm5,%xmm5
    44ff:	66 0f 28 f0          	movapd %xmm0,%xmm6
    4503:	f2 44 0f 10 05 4c 73 	movsd  0x734c(%rip),%xmm8        # b858 <_IO_stdin_used+0x858>
    450a:	00 00 
    450c:	66 0f 55 e0          	andnpd %xmm0,%xmm4
    4510:	f2 48 0f 2a e8       	cvtsi2sd %rax,%xmm5
    4515:	f2 0f c2 f5 06       	cmpnlesd %xmm5,%xmm6
    451a:	66 41 0f 54 f0       	andpd  %xmm8,%xmm6
    451f:	f2 0f 58 ee          	addsd  %xmm6,%xmm5
    4523:	66 0f 28 c5          	movapd %xmm5,%xmm0
    4527:	66 0f 56 c4          	orpd   %xmm4,%xmm0
    452b:	f2 0f 2c c0          	cvttsd2si %xmm0,%eax
    452f:	39 d8                	cmp    %ebx,%eax
    4531:	0f 47 c3             	cmova  %ebx,%eax
    4534:	89 c1                	mov    %eax,%ecx
    4536:	66 0f ef e4          	pxor   %xmm4,%xmm4
    453a:	66 0f 2f cc          	comisd %xmm4,%xmm1
    453e:	76 0a                	jbe    454a <_ZL6forceldddddddjjPPPdddddPPP6tensori.constprop.0+0x7aa>
    4540:	66 0f 2f e3          	comisd %xmm3,%xmm4
    4544:	0f 87 48 03 00 00    	ja     4892 <_ZL6forceldddddddjjPPPdddddPPP6tensori.constprop.0+0xaf2>
    454a:	8b 74 24 20          	mov    0x20(%rsp),%esi
    454e:	44 39 ee             	cmp    %r13d,%esi
    4551:	0f 86 fc f8 ff ff    	jbe    3e53 <_ZL6forceldddddddjjPPPdddddPPP6tensori.constprop.0+0xb3>
    4557:	39 d1                	cmp    %edx,%ecx
    4559:	0f 86 f4 f8 ff ff    	jbe    3e53 <_ZL6forceldddddddjjPPPdddddPPP6tensori.constprop.0+0xb3>
    455f:	83 ee 01             	sub    $0x1,%esi
    4562:	48 8b 7c 24 30       	mov    0x30(%rsp),%rdi
    4567:	44 89 e8             	mov    %r13d,%eax
    456a:	4c 89 fd             	mov    %r15,%rbp
    456d:	f2 0f 11 bc 24 d0 00 	movsd  %xmm7,0xd0(%rsp)
    4574:	00 00 
    4576:	41 89 f4             	mov    %esi,%r12d
    4579:	89 d6                	mov    %edx,%esi
    457b:	f2 0f 10 3c 24       	movsd  (%rsp),%xmm7
    4580:	45 29 ec             	sub    %r13d,%r12d
    4583:	4c 8d 34 c7          	lea    (%rdi,%rax,8),%r14
    4587:	4c 8d 2c f5 00 00 00 	lea    0x0(,%rsi,8),%r13
    458e:	00 
    458f:	4c 01 e0             	add    %r12,%rax
    4592:	4d 89 ef             	mov    %r13,%r15
    4595:	48 8d 7c c7 08       	lea    0x8(%rdi,%rax,8),%rdi
    459a:	8d 41 ff             	lea    -0x1(%rcx),%eax
    459d:	29 d0                	sub    %edx,%eax
    459f:	49 89 fd             	mov    %rdi,%r13
    45a2:	4c 8d 64 06 01       	lea    0x1(%rsi,%rax,1),%r12
    45a7:	49 c1 e4 03          	shl    $0x3,%r12
    45ab:	4c 89 e2             	mov    %r12,%rdx
    45ae:	66 90                	xchg   %ax,%ax
    45b0:	4d 8b 26             	mov    (%r14),%r12
    45b3:	4b 8d 1c 3c          	lea    (%r12,%r15,1),%rbx
    45b7:	49 01 d4             	add    %rdx,%r12
    45ba:	66 0f 1f 44 00 00    	nopw   0x0(%rax,%rax,1)
    45c0:	48 8b 03             	mov    (%rbx),%rax
    45c3:	f2 0f 10 28          	movsd  (%rax),%xmm5
    45c7:	66 0f 2f e9          	comisd %xmm1,%xmm5
    45cb:	66 0f 28 f5          	movapd %xmm5,%xmm6
    45cf:	66 0f 14 f6          	unpcklpd %xmm6,%xmm6
    45d3:	0f 29 34 24          	movaps %xmm6,(%rsp)
    45d7:	0f 82 63 02 00 00    	jb     4840 <_ZL6forceldddddddjjPPPdddddPPP6tensori.constprop.0+0xaa0>
    45dd:	66 0f 2f d5          	comisd %xmm5,%xmm2
    45e1:	f2 0f 11 6c 24 10    	movsd  %xmm5,0x10(%rsp)
    45e7:	0f 82 53 02 00 00    	jb     4840 <_ZL6forceldddddddjjPPPdddddPPP6tensori.constprop.0+0xaa0>
    45ed:	f2 44 0f 10 40 08    	movsd  0x8(%rax),%xmm8
    45f3:	66 44 0f 2f c3       	comisd %xmm3,%xmm8
    45f8:	66 45 0f 28 c8       	movapd %xmm8,%xmm9
    45fd:	66 45 0f 14 c9       	unpcklpd %xmm9,%xmm9
    4602:	44 0f 29 4c 24 20    	movaps %xmm9,0x20(%rsp)
    4608:	0f 82 32 02 00 00    	jb     4840 <_ZL6forceldddddddjjPPPdddddPPP6tensori.constprop.0+0xaa0>
    460e:	66 41 0f 2f f8       	comisd %xmm8,%xmm7
    4613:	f2 44 0f 11 44 24 30 	movsd  %xmm8,0x30(%rsp)
    461a:	0f 82 20 02 00 00    	jb     4840 <_ZL6forceldddddddjjPPPdddddPPP6tensori.constprop.0+0xaa0>
    4620:	f2 0f 10 60 10       	movsd  0x10(%rax),%xmm4
    4625:	66 0f 2f 64 24 50    	comisd 0x50(%rsp),%xmm4
    462b:	66 44 0f 28 d4       	movapd %xmm4,%xmm10
    4630:	66 45 0f 14 d2       	unpcklpd %xmm10,%xmm10
    4635:	44 0f 29 54 24 60    	movaps %xmm10,0x60(%rsp)
    463b:	0f 82 ff 01 00 00    	jb     4840 <_ZL6forceldddddddjjPPPdddddPPP6tensori.constprop.0+0xaa0>
    4641:	f2 0f 10 6c 24 18    	movsd  0x18(%rsp),%xmm5
    4647:	f2 0f 11 64 24 78    	movsd  %xmm4,0x78(%rsp)
    464d:	66 0f 2f ec          	comisd %xmm4,%xmm5
    4651:	0f 82 e9 01 00 00    	jb     4840 <_ZL6forceldddddddjjPPPdddddPPP6tensori.constprop.0+0xaa0>
    4657:	f2 0f 11 bc 24 c8 00 	movsd  %xmm7,0xc8(%rsp)
    465e:	00 00 
    4660:	66 0f 28 fa          	movapd %xmm2,%xmm7
    4664:	66 45 0f ef e4       	pxor   %xmm12,%xmm12
    4669:	f2 44 0f 10 58 18    	movsd  0x18(%rax),%xmm11
    466f:	f2 0f 5c f9          	subsd  %xmm1,%xmm7
    4673:	48 89 94 24 c0 00 00 	mov    %rdx,0xc0(%rsp)
    467a:	00 
    467b:	f2 0f 11 9c 24 90 00 	movsd  %xmm3,0x90(%rsp)
    4682:	00 00 
    4684:	66 0f 28 d9          	movapd %xmm1,%xmm3
    4688:	f2 44 0f 2a 64 24 74 	cvtsi2sdl 0x74(%rsp),%xmm12
    468f:	f2 44 0f 11 9c 24 b8 	movsd  %xmm11,0xb8(%rsp)
    4696:	00 00 00 
    4699:	f2 0f 11 8c 24 a8 00 	movsd  %xmm1,0xa8(%rsp)
    46a0:	00 00 
    46a2:	f2 0f 5e df          	divsd  %xmm7,%xmm3
    46a6:	f2 0f 11 bc 24 80 00 	movsd  %xmm7,0x80(%rsp)
    46ad:	00 00 
    46af:	f2 44 0f 11 a4 24 88 	movsd  %xmm12,0x88(%rsp)
    46b6:	00 00 00 
    46b9:	f2 0f 11 94 24 b0 00 	movsd  %xmm2,0xb0(%rsp)
    46c0:	00 00 
    46c2:	66 0f 28 c3          	movapd %xmm3,%xmm0
    46c6:	f2 41 0f 58 c4       	addsd  %xmm12,%xmm0
    46cb:	e8 90 dd ff ff       	call   2460 <round@plt>
    46d0:	f2 0f 10 9c 24 90 00 	movsd  0x90(%rsp),%xmm3
    46d7:	00 00 
    46d9:	f2 0f 11 84 24 a0 00 	movsd  %xmm0,0xa0(%rsp)
    46e0:	00 00 
    46e2:	f2 0f 10 84 24 88 00 	movsd  0x88(%rsp),%xmm0
    46e9:	00 00 
    46eb:	f2 0f 11 9c 24 98 00 	movsd  %xmm3,0x98(%rsp)
    46f2:	00 00 
    46f4:	66 0f 28 d3          	movapd %xmm3,%xmm2
    46f8:	f2 0f 5e 94 24 80 00 	divsd  0x80(%rsp),%xmm2
    46ff:	00 00 
    4701:	f2 0f 58 c2          	addsd  %xmm2,%xmm0
    4705:	e8 56 dd ff ff       	call   2460 <round@plt>
    470a:	f2 0f 11 84 24 90 00 	movsd  %xmm0,0x90(%rsp)
    4711:	00 00 
    4713:	f2 0f 10 44 24 50    	movsd  0x50(%rsp),%xmm0
    4719:	f2 0f 5e 84 24 80 00 	divsd  0x80(%rsp),%xmm0
    4720:	00 00 
    4722:	f2 0f 58 84 24 88 00 	addsd  0x88(%rsp),%xmm0
    4729:	00 00 
    472b:	e8 30 dd ff ff       	call   2460 <round@plt>
    4730:	48 8b 4c 24 58       	mov    0x58(%rsp),%rcx
    4735:	66 0f 28 34 24       	movapd (%rsp),%xmm6
    473a:	f2 44 0f 10 ac 24 a0 	movsd  0xa0(%rsp),%xmm13
    4741:	00 00 00 
    4744:	f2 0f 10 6c 24 10    	movsd  0x10(%rsp),%xmm5
    474a:	f2 44 0f 10 a4 24 90 	movsd  0x90(%rsp),%xmm12
    4751:	00 00 00 
    4754:	f2 44 0f 10 44 24 30 	movsd  0x30(%rsp),%xmm8
    475b:	f2 41 0f 2c c5       	cvttsd2si %xmm13,%eax
    4760:	f2 0f 10 64 24 78    	movsd  0x78(%rsp),%xmm4
    4766:	66 44 0f 28 4c 24 20 	movapd 0x20(%rsp),%xmm9
    476d:	f2 41 0f 2c f4       	cvttsd2si %xmm12,%esi
    4772:	66 44 0f 28 54 24 60 	movapd 0x60(%rsp),%xmm10
    4779:	f2 44 0f 10 9c 24 b8 	movsd  0xb8(%rsp),%xmm11
    4780:	00 00 00 
    4783:	48 98                	cltq   
    4785:	4c 8b 04 c1          	mov    (%rcx,%rax,8),%r8
    4789:	f2 0f 2c c0          	cvttsd2si %xmm0,%eax
    478d:	48 63 f6             	movslq %esi,%rsi
    4790:	48 98                	cltq   
    4792:	48 8d 3c c0          	lea    (%rax,%rax,8),%rdi
    4796:	49 8b 04 f0          	mov    (%r8,%rsi,8),%rax
    479a:	48 8d 04 f8          	lea    (%rax,%rdi,8),%rax
    479e:	f2 0f 59 68 10       	mulsd  0x10(%rax),%xmm5
    47a3:	66 0f 10 40 18       	movupd 0x18(%rax),%xmm0
    47a8:	f2 44 0f 59 40 28    	mulsd  0x28(%rax),%xmm8
    47ae:	f2 0f 59 60 40       	mulsd  0x40(%rax),%xmm4
    47b3:	66 41 0f 59 c1       	mulpd  %xmm9,%xmm0
    47b8:	f2 41 0f 58 e8       	addsd  %xmm8,%xmm5
    47bd:	f2 0f 58 e5          	addsd  %xmm5,%xmm4
    47c1:	66 0f 10 28          	movupd (%rax),%xmm5
    47c5:	66 0f 59 ee          	mulpd  %xmm6,%xmm5
    47c9:	f2 41 0f 59 e3       	mulsd  %xmm11,%xmm4
    47ce:	66 45 0f 14 db       	unpcklpd %xmm11,%xmm11
    47d3:	f2 0f 5e a4 24 d0 00 	divsd  0xd0(%rsp),%xmm4
    47da:	00 00 
    47dc:	f2 0f 58 65 10       	addsd  0x10(%rbp),%xmm4
    47e1:	66 0f 58 c5          	addpd  %xmm5,%xmm0
    47e5:	66 0f 10 68 30       	movupd 0x30(%rax),%xmm5
    47ea:	66 41 0f 59 ea       	mulpd  %xmm10,%xmm5
    47ef:	66 0f 58 c5          	addpd  %xmm5,%xmm0
    47f3:	66 41 0f 59 c3       	mulpd  %xmm11,%xmm0
    47f8:	66 0f 5e 44 24 40    	divpd  0x40(%rsp),%xmm0
    47fe:	66 0f 10 7d 00       	movupd 0x0(%rbp),%xmm7
    4803:	f2 0f 11 65 10       	movsd  %xmm4,0x10(%rbp)
    4808:	48 8b 94 24 c0 00 00 	mov    0xc0(%rsp),%rdx
    480f:	00 
    4810:	f2 0f 10 94 24 b0 00 	movsd  0xb0(%rsp),%xmm2
    4817:	00 00 
    4819:	f2 0f 10 8c 24 a8 00 	movsd  0xa8(%rsp),%xmm1
    4820:	00 00 
    4822:	f2 0f 10 9c 24 98 00 	movsd  0x98(%rsp),%xmm3
    4829:	00 00 
    482b:	66 0f 58 c7          	addpd  %xmm7,%xmm0
    482f:	f2 0f 10 bc 24 c8 00 	movsd  0xc8(%rsp),%xmm7
    4836:	00 00 
    4838:	0f 11 45 00          	movups %xmm0,0x0(%rbp)
    483c:	0f 1f 40 00          	nopl   0x0(%rax)
    4840:	48 83 c3 08          	add    $0x8,%rbx
    4844:	4c 39 e3             	cmp    %r12,%rbx
    4847:	0f 85 73 fd ff ff    	jne    45c0 <_ZL6forceldddddddjjPPPdddddPPP6tensori.constprop.0+0x820>
    484d:	49 83 c6 08          	add    $0x8,%r14
    4851:	4d 39 f5             	cmp    %r14,%r13
    4854:	0f 85 56 fd ff ff    	jne    45b0 <_ZL6forceldddddddjjPPPdddddPPP6tensori.constprop.0+0x810>
    485a:	49 89 ef             	mov    %rbp,%r15
    485d:	e9 f1 f5 ff ff       	jmp    3e53 <_ZL6forceldddddddjjPPPdddddPPP6tensori.constprop.0+0xb3>
    4862:	66 0f 2f e3          	comisd %xmm3,%xmm4
    4866:	0f 82 e7 fb ff ff    	jb     4453 <_ZL6forceldddddddjjPPPdddddPPP6tensori.constprop.0+0x6b3>
    486c:	66 0f 2f d4          	comisd %xmm4,%xmm2
    4870:	0f 82 dd fb ff ff    	jb     4453 <_ZL6forceldddddddjjPPPdddddPPP6tensori.constprop.0+0x6b3>
    4876:	66 0f 28 c4          	movapd %xmm4,%xmm0
    487a:	f2 0f 10 24 24       	movsd  (%rsp),%xmm4
    487f:	31 d2                	xor    %edx,%edx
    4881:	89 d9                	mov    %ebx,%ecx
    4883:	66 0f 2f e0          	comisd %xmm0,%xmm4
    4887:	0f 83 a9 fc ff ff    	jae    4536 <_ZL6forceldddddddjjPPPdddddPPP6tensori.constprop.0+0x796>
    488d:	e9 c1 fb ff ff       	jmp    4453 <_ZL6forceldddddddjjPPPdddddPPP6tensori.constprop.0+0x6b3>
    4892:	66 0f 28 c4          	movapd %xmm4,%xmm0
    4896:	f2 0f 10 24 24       	movsd  (%rsp),%xmm4
    489b:	66 0f 2f e0          	comisd %xmm0,%xmm4
    489f:	0f 82 a5 fc ff ff    	jb     454a <_ZL6forceldddddddjjPPPdddddPPP6tensori.constprop.0+0x7aa>
    48a5:	66 0f ef e4          	pxor   %xmm4,%xmm4
    48a9:	f2 0f 10 2d f7 6f 00 	movsd  0x6ff7(%rip),%xmm5        # b8a8 <_IO_stdin_used+0x8a8>
    48b0:	00 
    48b1:	66 0f 28 f0          	movapd %xmm0,%xmm6
    48b5:	f2 0f 10 84 24 08 01 	movsd  0x108(%rsp),%xmm0
    48bc:	00 00 
    48be:	f2 48 0f 2a e3       	cvtsi2sd %rbx,%xmm4
    48c3:	f2 0f 5e ec          	divsd  %xmm4,%xmm5
    48c7:	f2 0f 10 24 24       	movsd  (%rsp),%xmm4
    48cc:	66 0f 2e e6          	ucomisd %xmm6,%xmm4
    48d0:	7a 06                	jp     48d8 <_ZL6forceldddddddjjPPPdddddPPP6tensori.constprop.0+0xb38>
    48d2:	0f 84 11 09 00 00    	je     51e9 <_ZL6forceldddddddjjPPPdddddPPP6tensori.constprop.0+0x1449>
    48d8:	f3 0f 7e 25 30 70 00 	movq   0x7030(%rip),%xmm4        # b910 <_IO_stdin_used+0x910>
    48df:	00 
    48e0:	f2 44 0f 10 05 b7 6f 	movsd  0x6fb7(%rip),%xmm8        # b8a0 <_IO_stdin_used+0x8a0>
    48e7:	00 00 
    48e9:	66 44 0f 28 cc       	movapd %xmm4,%xmm9
    48ee:	f2 0f 5e c5          	divsd  %xmm5,%xmm0
    48f2:	66 0f 28 f0          	movapd %xmm0,%xmm6
    48f6:	66 0f 54 f4          	andpd  %xmm4,%xmm6
    48fa:	66 44 0f 2e c6       	ucomisd %xmm6,%xmm8
    48ff:	76 3a                	jbe    493b <_ZL6forceldddddddjjPPPdddddPPP6tensori.constprop.0+0xb9b>
    4901:	f2 48 0f 2c c0       	cvttsd2si %xmm0,%rax
    4906:	66 0f ef f6          	pxor   %xmm6,%xmm6
    490a:	66 44 0f 28 d0       	movapd %xmm0,%xmm10
    490f:	f2 44 0f 10 1d 40 6f 	movsd  0x6f40(%rip),%xmm11        # b858 <_IO_stdin_used+0x858>
    4916:	00 00 
    4918:	66 44 0f 55 c8       	andnpd %xmm0,%xmm9
    491d:	f2 48 0f 2a f0       	cvtsi2sd %rax,%xmm6
    4922:	f2 44 0f c2 d6 06    	cmpnlesd %xmm6,%xmm10
    4928:	66 45 0f 54 d3       	andpd  %xmm11,%xmm10
    492d:	f2 41 0f 58 f2       	addsd  %xmm10,%xmm6
    4932:	66 0f 28 c6          	movapd %xmm6,%xmm0
    4936:	66 41 0f 56 c1       	orpd   %xmm9,%xmm0
    493b:	f2 0f 2c c0          	cvttsd2si %xmm0,%eax
    493f:	f2 0f 10 84 24 10 01 	movsd  0x110(%rsp),%xmm0
    4946:	00 00 
    4948:	f2 0f 5e c5          	divsd  %xmm5,%xmm0
    494c:	66 0f 28 e8          	movapd %xmm0,%xmm5
    4950:	66 0f 54 ec          	andpd  %xmm4,%xmm5
    4954:	66 44 0f 2e c5       	ucomisd %xmm5,%xmm8
    4959:	76 35                	jbe    4990 <_ZL6forceldddddddjjPPPdddddPPP6tensori.constprop.0+0xbf0>
    495b:	f2 48 0f 2c d0       	cvttsd2si %xmm0,%rdx
    4960:	66 0f ef ed          	pxor   %xmm5,%xmm5
    4964:	66 0f 55 e0          	andnpd %xmm0,%xmm4
    4968:	f2 44 0f 10 05 e7 6e 	movsd  0x6ee7(%rip),%xmm8        # b858 <_IO_stdin_used+0x858>
    496f:	00 00 
    4971:	f2 48 0f 2a ea       	cvtsi2sd %rdx,%xmm5
    4976:	66 0f 28 f5          	movapd %xmm5,%xmm6
    497a:	f2 0f c2 f0 06       	cmpnlesd %xmm0,%xmm6
    497f:	66 41 0f 54 f0       	andpd  %xmm8,%xmm6
    4984:	f2 0f 5c ee          	subsd  %xmm6,%xmm5
    4988:	66 0f 28 c5          	movapd %xmm5,%xmm0
    498c:	66 0f 56 c4          	orpd   %xmm4,%xmm0
    4990:	f2 44 0f 2c d0       	cvttsd2si %xmm0,%r10d
    4995:	44 39 6c 24 20       	cmp    %r13d,0x20(%rsp)
    499a:	0f 86 b3 f4 ff ff    	jbe    3e53 <_ZL6forceldddddddjjPPPdddddPPP6tensori.constprop.0+0xb3>
    49a0:	8b 54 24 20          	mov    0x20(%rsp),%edx
    49a4:	48 8b 74 24 30       	mov    0x30(%rsp),%rsi
    49a9:	44 89 e9             	mov    %r13d,%ecx
    49ac:	44 89 d7             	mov    %r10d,%edi
    49af:	f2 0f 11 bc 24 80 00 	movsd  %xmm7,0x80(%rsp)
    49b6:	00 00 
    49b8:	f2 44 0f 10 44 24 50 	movsd  0x50(%rsp),%xmm8
    49bf:	f2 0f 10 3c 24       	movsd  (%rsp),%xmm7
    49c4:	83 ea 01             	sub    $0x1,%edx
    49c7:	4c 8d 34 ce          	lea    (%rsi,%rcx,8),%r14
    49cb:	44 29 ea             	sub    %r13d,%edx
    49ce:	48 01 ca             	add    %rcx,%rdx
    49d1:	41 8d 4c 24 ff       	lea    -0x1(%r12),%ecx
    49d6:	4c 8d 44 d6 08       	lea    0x8(%rsi,%rdx,8),%r8
    49db:	44 29 d1             	sub    %r10d,%ecx
    49de:	8d 70 ff             	lea    -0x1(%rax),%esi
    49e1:	4c 8d 2c f5 08 00 00 	lea    0x8(,%rsi,8),%r13
    49e8:	00 
    49e9:	48 8d 4c 0f 01       	lea    0x1(%rdi,%rcx,1),%rcx
    49ee:	4c 8d 0c cd 00 00 00 	lea    0x0(,%rcx,8),%r9
    49f5:	00 
    49f6:	4c 89 ee             	mov    %r13,%rsi
    49f9:	4c 89 f9             	mov    %r15,%rcx
    49fc:	41 89 c5             	mov    %eax,%r13d
    49ff:	48 8d 14 fd 00 00 00 	lea    0x0(,%rdi,8),%rdx
    4a06:	00 
    4a07:	44 89 e0             	mov    %r12d,%eax
    4a0a:	45 89 d7             	mov    %r10d,%r15d
    4a0d:	4d 89 c4             	mov    %r8,%r12
    4a10:	45 85 ed             	test   %r13d,%r13d
    4a13:	0f 84 ec 02 00 00    	je     4d05 <_ZL6forceldddddddjjPPPdddddPPP6tensori.constprop.0+0xf65>
    4a19:	49 8b 1e             	mov    (%r14),%rbx
    4a1c:	48 8d 2c 1e          	lea    (%rsi,%rbx,1),%rbp
    4a20:	48 8b 3b             	mov    (%rbx),%rdi
    4a23:	f2 0f 10 27          	movsd  (%rdi),%xmm4
    4a27:	66 0f 2f e1          	comisd %xmm1,%xmm4
    4a2b:	66 0f 28 ec          	movapd %xmm4,%xmm5
    4a2f:	66 0f 14 ed          	unpcklpd %xmm5,%xmm5
    4a33:	0f 29 2c 24          	movaps %xmm5,(%rsp)
    4a37:	0f 82 bb 02 00 00    	jb     4cf8 <_ZL6forceldddddddjjPPPdddddPPP6tensori.constprop.0+0xf58>
    4a3d:	66 0f 2f d4          	comisd %xmm4,%xmm2
    4a41:	f2 0f 11 64 24 10    	movsd  %xmm4,0x10(%rsp)
    4a47:	0f 82 ab 02 00 00    	jb     4cf8 <_ZL6forceldddddddjjPPPdddddPPP6tensori.constprop.0+0xf58>
    4a4d:	f2 44 0f 10 5f 08    	movsd  0x8(%rdi),%xmm11
    4a53:	66 44 0f 2f db       	comisd %xmm3,%xmm11
    4a58:	66 41 0f 28 f3       	movapd %xmm11,%xmm6
    4a5d:	66 0f 14 f6          	unpcklpd %xmm6,%xmm6
    4a61:	0f 29 74 24 20       	movaps %xmm6,0x20(%rsp)
    4a66:	0f 82 8c 02 00 00    	jb     4cf8 <_ZL6forceldddddddjjPPPdddddPPP6tensori.constprop.0+0xf58>
    4a6c:	66 41 0f 2f fb       	comisd %xmm11,%xmm7
    4a71:	f2 44 0f 11 5c 24 50 	movsd  %xmm11,0x50(%rsp)
    4a78:	0f 82 7a 02 00 00    	jb     4cf8 <_ZL6forceldddddddjjPPPdddddPPP6tensori.constprop.0+0xf58>
    4a7e:	f2 44 0f 10 67 10    	movsd  0x10(%rdi),%xmm12
    4a84:	66 45 0f 2f e0       	comisd %xmm8,%xmm12
    4a89:	66 45 0f 28 cc       	movapd %xmm12,%xmm9
    4a8e:	66 45 0f 14 c9       	unpcklpd %xmm9,%xmm9
    4a93:	44 0f 29 4c 24 30    	movaps %xmm9,0x30(%rsp)
    4a99:	0f 82 59 02 00 00    	jb     4cf8 <_ZL6forceldddddddjjPPPdddddPPP6tensori.constprop.0+0xf58>
    4a9f:	f2 44 0f 11 a4 24 88 	movsd  %xmm12,0x88(%rsp)
    4aa6:	00 00 00 
    4aa9:	f2 0f 10 64 24 18    	movsd  0x18(%rsp),%xmm4
    4aaf:	66 41 0f 2f e4       	comisd %xmm12,%xmm4
    4ab4:	0f 82 3e 02 00 00    	jb     4cf8 <_ZL6forceldddddddjjPPPdddddPPP6tensori.constprop.0+0xf58>
    4aba:	66 0f 28 c1          	movapd %xmm1,%xmm0
    4abe:	66 45 0f ef ed       	pxor   %xmm13,%xmm13
    4ac3:	f2 0f 11 bc 24 d8 00 	movsd  %xmm7,0xd8(%rsp)
    4aca:	00 00 
    4acc:	66 0f 28 fa          	movapd %xmm2,%xmm7
    4ad0:	f2 0f 5c f9          	subsd  %xmm1,%xmm7
    4ad4:	f2 44 0f 10 57 18    	movsd  0x18(%rdi),%xmm10
    4ada:	4c 89 8c 24 f8 00 00 	mov    %r9,0xf8(%rsp)
    4ae1:	00 
    4ae2:	f2 44 0f 2a 6c 24 74 	cvtsi2sdl 0x74(%rsp),%xmm13
    4ae9:	48 89 b4 24 f0 00 00 	mov    %rsi,0xf0(%rsp)
    4af0:	00 
    4af1:	89 84 24 ec 00 00 00 	mov    %eax,0xec(%rsp)
    4af8:	f2 0f 5e c7          	divsd  %xmm7,%xmm0
    4afc:	f2 0f 11 7c 24 60    	movsd  %xmm7,0x60(%rsp)
    4b02:	48 89 8c 24 d0 00 00 	mov    %rcx,0xd0(%rsp)
    4b09:	00 
    4b0a:	48 89 94 24 c8 00 00 	mov    %rdx,0xc8(%rsp)
    4b11:	00 
    4b12:	f2 44 0f 11 94 24 c0 	movsd  %xmm10,0xc0(%rsp)
    4b19:	00 00 00 
    4b1c:	f2 0f 11 94 24 b8 00 	movsd  %xmm2,0xb8(%rsp)
    4b23:	00 00 
    4b25:	f2 0f 11 8c 24 b0 00 	movsd  %xmm1,0xb0(%rsp)
    4b2c:	00 00 
    4b2e:	f2 44 0f 11 6c 24 78 	movsd  %xmm13,0x78(%rsp)
    4b35:	f2 44 0f 11 84 24 e0 	movsd  %xmm8,0xe0(%rsp)
    4b3c:	00 00 00 
    4b3f:	f2 0f 11 9c 24 90 00 	movsd  %xmm3,0x90(%rsp)
    4b46:	00 00 
    4b48:	f2 41 0f 58 c5       	addsd  %xmm13,%xmm0
    4b4d:	e8 0e d9 ff ff       	call   2460 <round@plt>
    4b52:	f2 0f 10 9c 24 90 00 	movsd  0x90(%rsp),%xmm3
    4b59:	00 00 
    4b5b:	f2 0f 11 84 24 a8 00 	movsd  %xmm0,0xa8(%rsp)
    4b62:	00 00 
    4b64:	f2 0f 11 9c 24 a0 00 	movsd  %xmm3,0xa0(%rsp)
    4b6b:	00 00 
    4b6d:	66 0f 28 c3          	movapd %xmm3,%xmm0
    4b71:	f2 0f 5e 44 24 60    	divsd  0x60(%rsp),%xmm0
    4b77:	f2 0f 58 44 24 78    	addsd  0x78(%rsp),%xmm0
    4b7d:	e8 de d8 ff ff       	call   2460 <round@plt>
    4b82:	f2 44 0f 10 84 24 e0 	movsd  0xe0(%rsp),%xmm8
    4b89:	00 00 00 
    4b8c:	f2 0f 11 84 24 98 00 	movsd  %xmm0,0x98(%rsp)
    4b93:	00 00 
    4b95:	f2 44 0f 11 84 24 90 	movsd  %xmm8,0x90(%rsp)
    4b9c:	00 00 00 
    4b9f:	66 41 0f 28 c0       	movapd %xmm8,%xmm0
    4ba4:	f2 0f 5e 44 24 60    	divsd  0x60(%rsp),%xmm0
    4baa:	f2 0f 58 44 24 78    	addsd  0x78(%rsp),%xmm0
    4bb0:	e8 ab d8 ff ff       	call   2460 <round@plt>
    4bb5:	48 8b 44 24 58       	mov    0x58(%rsp),%rax
    4bba:	66 0f 28 2c 24       	movapd (%rsp),%xmm5
    4bbf:	f2 44 0f 10 b4 24 a8 	movsd  0xa8(%rsp),%xmm14
    4bc6:	00 00 00 
    4bc9:	f2 0f 10 64 24 10    	movsd  0x10(%rsp),%xmm4
    4bcf:	f2 44 0f 10 ac 24 98 	movsd  0x98(%rsp),%xmm13
    4bd6:	00 00 00 
    4bd9:	f2 44 0f 10 5c 24 50 	movsd  0x50(%rsp),%xmm11
    4be0:	f2 41 0f 2c fe       	cvttsd2si %xmm14,%edi
    4be5:	66 0f 28 74 24 20    	movapd 0x20(%rsp),%xmm6
    4beb:	f2 44 0f 10 a4 24 88 	movsd  0x88(%rsp),%xmm12
    4bf2:	00 00 00 
    4bf5:	f2 45 0f 2c c5       	cvttsd2si %xmm13,%r8d
    4bfa:	66 44 0f 28 4c 24 30 	movapd 0x30(%rsp),%xmm9
    4c01:	f2 44 0f 10 94 24 c0 	movsd  0xc0(%rsp),%xmm10
    4c08:	00 00 00 
    4c0b:	48 8b 8c 24 d0 00 00 	mov    0xd0(%rsp),%rcx
    4c12:	00 
    4c13:	48 63 ff             	movslq %edi,%rdi
    4c16:	4c 8b 14 f8          	mov    (%rax,%rdi,8),%r10
    4c1a:	f2 0f 2c f8          	cvttsd2si %xmm0,%edi
    4c1e:	4d 63 c0             	movslq %r8d,%r8
    4c21:	48 63 ff             	movslq %edi,%rdi
    4c24:	4c 8d 1c ff          	lea    (%rdi,%rdi,8),%r11
    4c28:	4b 8b 3c c2          	mov    (%r10,%r8,8),%rdi
    4c2c:	4a 8d 3c df          	lea    (%rdi,%r11,8),%rdi
    4c30:	f2 0f 59 67 10       	mulsd  0x10(%rdi),%xmm4
    4c35:	66 0f 10 3f          	movupd (%rdi),%xmm7
    4c39:	f2 44 0f 59 5f 28    	mulsd  0x28(%rdi),%xmm11
    4c3f:	f2 44 0f 59 67 40    	mulsd  0x40(%rdi),%xmm12
    4c45:	66 0f 59 ef          	mulpd  %xmm7,%xmm5
    4c49:	f2 41 0f 58 e3       	addsd  %xmm11,%xmm4
    4c4e:	f2 41 0f 58 e4       	addsd  %xmm12,%xmm4
    4c53:	66 0f 28 c4          	movapd %xmm4,%xmm0
    4c57:	66 0f 10 67 18       	movupd 0x18(%rdi),%xmm4
    4c5c:	f2 41 0f 59 c2       	mulsd  %xmm10,%xmm0
    4c61:	66 45 0f 14 d2       	unpcklpd %xmm10,%xmm10
    4c66:	f2 0f 5e 84 24 80 00 	divsd  0x80(%rsp),%xmm0
    4c6d:	00 00 
    4c6f:	66 0f 59 e6          	mulpd  %xmm6,%xmm4
    4c73:	f2 0f 58 41 10       	addsd  0x10(%rcx),%xmm0
    4c78:	66 0f 58 e5          	addpd  %xmm5,%xmm4
    4c7c:	66 0f 10 6f 30       	movupd 0x30(%rdi),%xmm5
    4c81:	66 41 0f 59 e9       	mulpd  %xmm9,%xmm5
    4c86:	66 0f 58 e5          	addpd  %xmm5,%xmm4
    4c8a:	66 41 0f 59 e2       	mulpd  %xmm10,%xmm4
    4c8f:	66 0f 5e 64 24 40    	divpd  0x40(%rsp),%xmm4
    4c95:	66 0f 10 39          	movupd (%rcx),%xmm7
    4c99:	4c 8b 8c 24 f8 00 00 	mov    0xf8(%rsp),%r9
    4ca0:	00 
    4ca1:	f2 0f 11 41 10       	movsd  %xmm0,0x10(%rcx)
    4ca6:	48 8b b4 24 f0 00 00 	mov    0xf0(%rsp),%rsi
    4cad:	00 
    4cae:	8b 84 24 ec 00 00 00 	mov    0xec(%rsp),%eax
    4cb5:	66 0f 58 e7          	addpd  %xmm7,%xmm4
    4cb9:	48 8b 94 24 c8 00 00 	mov    0xc8(%rsp),%rdx
    4cc0:	00 
    4cc1:	f2 0f 10 bc 24 d8 00 	movsd  0xd8(%rsp),%xmm7
    4cc8:	00 00 
    4cca:	f2 0f 10 94 24 b8 00 	movsd  0xb8(%rsp),%xmm2
    4cd1:	00 00 
    4cd3:	f2 0f 10 8c 24 b0 00 	movsd  0xb0(%rsp),%xmm1
    4cda:	00 00 
    4cdc:	f2 0f 10 9c 24 a0 00 	movsd  0xa0(%rsp),%xmm3
    4ce3:	00 00 
    4ce5:	f2 44 0f 10 84 24 90 	movsd  0x90(%rsp),%xmm8
    4cec:	00 00 00 
    4cef:	0f 11 21             	movups %xmm4,(%rcx)
    4cf2:	66 0f 1f 44 00 00    	nopw   0x0(%rax,%rax,1)
    4cf8:	48 83 c3 08          	add    $0x8,%rbx
    4cfc:	48 39 dd             	cmp    %rbx,%rbp
    4cff:	0f 85 1b fd ff ff    	jne    4a20 <_ZL6forceldddddddjjPPPdddddPPP6tensori.constprop.0+0xc80>
    4d05:	44 39 f8             	cmp    %r15d,%eax
    4d08:	0f 86 f7 02 00 00    	jbe    5005 <_ZL6forceldddddddjjPPPdddddPPP6tensori.constprop.0+0x1265>
    4d0e:	49 8b 2e             	mov    (%r14),%rbp
    4d11:	48 8d 5c 15 00       	lea    0x0(%rbp,%rdx,1),%rbx
    4d16:	4c 01 cd             	add    %r9,%rbp
    4d19:	0f 1f 80 00 00 00 00 	nopl   0x0(%rax)
    4d20:	48 8b 3b             	mov    (%rbx),%rdi
    4d23:	f2 0f 10 27          	movsd  (%rdi),%xmm4
    4d27:	66 0f 2f e1          	comisd %xmm1,%xmm4
    4d2b:	66 0f 28 ec          	movapd %xmm4,%xmm5
    4d2f:	66 0f 14 ed          	unpcklpd %xmm5,%xmm5
    4d33:	0f 29 2c 24          	movaps %xmm5,(%rsp)
    4d37:	0f 82 bb 02 00 00    	jb     4ff8 <_ZL6forceldddddddjjPPPdddddPPP6tensori.constprop.0+0x1258>
    4d3d:	66 0f 2f d4          	comisd %xmm4,%xmm2
    4d41:	f2 0f 11 64 24 10    	movsd  %xmm4,0x10(%rsp)
    4d47:	0f 82 ab 02 00 00    	jb     4ff8 <_ZL6forceldddddddjjPPPdddddPPP6tensori.constprop.0+0x1258>
    4d4d:	f2 44 0f 10 5f 08    	movsd  0x8(%rdi),%xmm11
    4d53:	66 44 0f 2f db       	comisd %xmm3,%xmm11
    4d58:	66 41 0f 28 f3       	movapd %xmm11,%xmm6
    4d5d:	66 0f 14 f6          	unpcklpd %xmm6,%xmm6
    4d61:	0f 29 74 24 20       	movaps %xmm6,0x20(%rsp)
    4d66:	0f 82 8c 02 00 00    	jb     4ff8 <_ZL6forceldddddddjjPPPdddddPPP6tensori.constprop.0+0x1258>
    4d6c:	66 41 0f 2f fb       	comisd %xmm11,%xmm7
    4d71:	f2 44 0f 11 5c 24 50 	movsd  %xmm11,0x50(%rsp)
    4d78:	0f 82 7a 02 00 00    	jb     4ff8 <_ZL6forceldddddddjjPPPdddddPPP6tensori.constprop.0+0x1258>
    4d7e:	f2 44 0f 10 67 10    	movsd  0x10(%rdi),%xmm12
    4d84:	66 45 0f 2f e0       	comisd %xmm8,%xmm12
    4d89:	66 45 0f 28 cc       	movapd %xmm12,%xmm9
    4d8e:	66 45 0f 14 c9       	unpcklpd %xmm9,%xmm9
    4d93:	44 0f 29 4c 24 30    	movaps %xmm9,0x30(%rsp)
    4d99:	0f 82 59 02 00 00    	jb     4ff8 <_ZL6forceldddddddjjPPPdddddPPP6tensori.constprop.0+0x1258>
    4d9f:	f2 44 0f 11 a4 24 88 	movsd  %xmm12,0x88(%rsp)
    4da6:	00 00 00 
    4da9:	f2 0f 10 64 24 18    	movsd  0x18(%rsp),%xmm4
    4daf:	66 41 0f 2f e4       	comisd %xmm12,%xmm4
    4db4:	0f 82 3e 02 00 00    	jb     4ff8 <_ZL6forceldddddddjjPPPdddddPPP6tensori.constprop.0+0x1258>
    4dba:	66 0f 28 c1          	movapd %xmm1,%xmm0
    4dbe:	66 45 0f ef ed       	pxor   %xmm13,%xmm13
    4dc3:	f2 0f 11 bc 24 d8 00 	movsd  %xmm7,0xd8(%rsp)
    4dca:	00 00 
    4dcc:	66 0f 28 fa          	movapd %xmm2,%xmm7
    4dd0:	f2 0f 5c f9          	subsd  %xmm1,%xmm7
    4dd4:	f2 44 0f 10 57 18    	movsd  0x18(%rdi),%xmm10
    4dda:	4c 89 8c 24 f8 00 00 	mov    %r9,0xf8(%rsp)
    4de1:	00 
    4de2:	f2 44 0f 2a 6c 24 74 	cvtsi2sdl 0x74(%rsp),%xmm13
    4de9:	48 89 b4 24 f0 00 00 	mov    %rsi,0xf0(%rsp)
    4df0:	00 
    4df1:	89 84 24 ec 00 00 00 	mov    %eax,0xec(%rsp)
    4df8:	f2 0f 5e c7          	divsd  %xmm7,%xmm0
    4dfc:	f2 0f 11 7c 24 60    	movsd  %xmm7,0x60(%rsp)
    4e02:	48 89 8c 24 d0 00 00 	mov    %rcx,0xd0(%rsp)
    4e09:	00 
    4e0a:	48 89 94 24 c8 00 00 	mov    %rdx,0xc8(%rsp)
    4e11:	00 
    4e12:	f2 44 0f 11 94 24 c0 	movsd  %xmm10,0xc0(%rsp)
    4e19:	00 00 00 
    4e1c:	f2 0f 11 94 24 b8 00 	movsd  %xmm2,0xb8(%rsp)
    4e23:	00 00 
    4e25:	f2 0f 11 8c 24 b0 00 	movsd  %xmm1,0xb0(%rsp)
    4e2c:	00 00 
    4e2e:	f2 44 0f 11 6c 24 78 	movsd  %xmm13,0x78(%rsp)
    4e35:	f2 44 0f 11 84 24 e0 	movsd  %xmm8,0xe0(%rsp)
    4e3c:	00 00 00 
    4e3f:	f2 0f 11 9c 24 90 00 	movsd  %xmm3,0x90(%rsp)
    4e46:	00 00 
    4e48:	f2 41 0f 58 c5       	addsd  %xmm13,%xmm0
    4e4d:	e8 0e d6 ff ff       	call   2460 <round@plt>
    4e52:	f2 0f 10 9c 24 90 00 	movsd  0x90(%rsp),%xmm3
    4e59:	00 00 
    4e5b:	f2 0f 11 84 24 a8 00 	movsd  %xmm0,0xa8(%rsp)
    4e62:	00 00 
    4e64:	f2 0f 11 9c 24 a0 00 	movsd  %xmm3,0xa0(%rsp)
    4e6b:	00 00 
    4e6d:	66 0f 28 c3          	movapd %xmm3,%xmm0
    4e71:	f2 0f 5e 44 24 60    	divsd  0x60(%rsp),%xmm0
    4e77:	f2 0f 58 44 24 78    	addsd  0x78(%rsp),%xmm0
    4e7d:	e8 de d5 ff ff       	call   2460 <round@plt>
    4e82:	f2 44 0f 10 84 24 e0 	movsd  0xe0(%rsp),%xmm8
    4e89:	00 00 00 
    4e8c:	f2 0f 11 84 24 98 00 	movsd  %xmm0,0x98(%rsp)
    4e93:	00 00 
    4e95:	f2 44 0f 11 84 24 90 	movsd  %xmm8,0x90(%rsp)
    4e9c:	00 00 00 
    4e9f:	66 41 0f 28 c0       	movapd %xmm8,%xmm0
    4ea4:	f2 0f 5e 44 24 60    	divsd  0x60(%rsp),%xmm0
    4eaa:	f2 0f 58 44 24 78    	addsd  0x78(%rsp),%xmm0
    4eb0:	e8 ab d5 ff ff       	call   2460 <round@plt>
    4eb5:	48 8b 44 24 58       	mov    0x58(%rsp),%rax
    4eba:	66 0f 28 2c 24       	movapd (%rsp),%xmm5
    4ebf:	f2 44 0f 10 b4 24 a8 	movsd  0xa8(%rsp),%xmm14
    4ec6:	00 00 00 
    4ec9:	f2 0f 10 64 24 10    	movsd  0x10(%rsp),%xmm4
    4ecf:	f2 44 0f 10 ac 24 98 	movsd  0x98(%rsp),%xmm13
    4ed6:	00 00 00 
    4ed9:	f2 44 0f 10 5c 24 50 	movsd  0x50(%rsp),%xmm11
    4ee0:	f2 41 0f 2c fe       	cvttsd2si %xmm14,%edi
    4ee5:	66 0f 28 74 24 20    	movapd 0x20(%rsp),%xmm6
    4eeb:	f2 44 0f 10 a4 24 88 	movsd  0x88(%rsp),%xmm12
    4ef2:	00 00 00 
    4ef5:	f2 45 0f 2c c5       	cvttsd2si %xmm13,%r8d
    4efa:	66 44 0f 28 4c 24 30 	movapd 0x30(%rsp),%xmm9
    4f01:	f2 44 0f 10 94 24 c0 	movsd  0xc0(%rsp),%xmm10
    4f08:	00 00 00 
    4f0b:	48 8b 8c 24 d0 00 00 	mov    0xd0(%rsp),%rcx
    4f12:	00 
    4f13:	48 63 ff             	movslq %edi,%rdi
    4f16:	4c 8b 14 f8          	mov    (%rax,%rdi,8),%r10
    4f1a:	f2 0f 2c f8          	cvttsd2si %xmm0,%edi
    4f1e:	4d 63 c0             	movslq %r8d,%r8
    4f21:	48 63 ff             	movslq %edi,%rdi
    4f24:	4c 8d 1c ff          	lea    (%rdi,%rdi,8),%r11
    4f28:	4b 8b 3c c2          	mov    (%r10,%r8,8),%rdi
    4f2c:	4a 8d 3c df          	lea    (%rdi,%r11,8),%rdi
    4f30:	f2 0f 59 67 10       	mulsd  0x10(%rdi),%xmm4
    4f35:	66 0f 10 3f          	movupd (%rdi),%xmm7
    4f39:	f2 44 0f 59 5f 28    	mulsd  0x28(%rdi),%xmm11
    4f3f:	f2 44 0f 59 67 40    	mulsd  0x40(%rdi),%xmm12
    4f45:	66 0f 59 ef          	mulpd  %xmm7,%xmm5
    4f49:	f2 41 0f 58 e3       	addsd  %xmm11,%xmm4
    4f4e:	f2 41 0f 58 e4       	addsd  %xmm12,%xmm4
    4f53:	66 0f 28 c4          	movapd %xmm4,%xmm0
    4f57:	66 0f 10 67 18       	movupd 0x18(%rdi),%xmm4
    4f5c:	f2 41 0f 59 c2       	mulsd  %xmm10,%xmm0
    4f61:	66 45 0f 14 d2       	unpcklpd %xmm10,%xmm10
    4f66:	f2 0f 5e 84 24 80 00 	divsd  0x80(%rsp),%xmm0
    4f6d:	00 00 
    4f6f:	66 0f 59 e6          	mulpd  %xmm6,%xmm4
    4f73:	f2 0f 58 41 10       	addsd  0x10(%rcx),%xmm0
    4f78:	66 0f 58 e5          	addpd  %xmm5,%xmm4
    4f7c:	66 0f 10 6f 30       	movupd 0x30(%rdi),%xmm5
    4f81:	66 41 0f 59 e9       	mulpd  %xmm9,%xmm5
    4f86:	66 0f 58 e5          	addpd  %xmm5,%xmm4
    4f8a:	66 41 0f 59 e2       	mulpd  %xmm10,%xmm4
    4f8f:	66 0f 5e 64 24 40    	divpd  0x40(%rsp),%xmm4
    4f95:	66 0f 10 39          	movupd (%rcx),%xmm7
    4f99:	4c 8b 8c 24 f8 00 00 	mov    0xf8(%rsp),%r9
    4fa0:	00 
    4fa1:	f2 0f 11 41 10       	movsd  %xmm0,0x10(%rcx)
    4fa6:	48 8b b4 24 f0 00 00 	mov    0xf0(%rsp),%rsi
    4fad:	00 
    4fae:	8b 84 24 ec 00 00 00 	mov    0xec(%rsp),%eax
    4fb5:	66 0f 58 e7          	addpd  %xmm7,%xmm4
    4fb9:	48 8b 94 24 c8 00 00 	mov    0xc8(%rsp),%rdx
    4fc0:	00 
    4fc1:	f2 0f 10 bc 24 d8 00 	movsd  0xd8(%rsp),%xmm7
    4fc8:	00 00 
    4fca:	f2 0f 10 94 24 b8 00 	movsd  0xb8(%rsp),%xmm2
    4fd1:	00 00 
    4fd3:	f2 0f 10 8c 24 b0 00 	movsd  0xb0(%rsp),%xmm1
    4fda:	00 00 
    4fdc:	f2 0f 10 9c 24 a0 00 	movsd  0xa0(%rsp),%xmm3
    4fe3:	00 00 
    4fe5:	f2 44 0f 10 84 24 90 	movsd  0x90(%rsp),%xmm8
    4fec:	00 00 00 
    4fef:	0f 11 21             	movups %xmm4,(%rcx)
    4ff2:	66 0f 1f 44 00 00    	nopw   0x0(%rax,%rax,1)
    4ff8:	48 83 c3 08          	add    $0x8,%rbx
    4ffc:	48 39 dd             	cmp    %rbx,%rbp
    4fff:	0f 85 1b fd ff ff    	jne    4d20 <_ZL6forceldddddddjjPPPdddddPPP6tensori.constprop.0+0xf80>
    5005:	49 83 c6 08          	add    $0x8,%r14
    5009:	4d 39 f4             	cmp    %r14,%r12
    500c:	0f 85 fe f9 ff ff    	jne    4a10 <_ZL6forceldddddddjjPPPdddddPPP6tensori.constprop.0+0xc70>
    5012:	49 89 cf             	mov    %rcx,%r15
    5015:	e9 39 ee ff ff       	jmp    3e53 <_ZL6forceldddddddjjPPPdddddPPP6tensori.constprop.0+0xb3>
    501a:	66 0f 2f 2c 24       	comisd (%rsp),%xmm5
    501f:	f2 0f 10 05 69 68 00 	movsd  0x6869(%rip),%xmm0        # b890 <_IO_stdin_used+0x890>
    5026:	00 
    5027:	0f 87 ff f2 ff ff    	ja     432c <_ZL6forceldddddddjjPPPdddddPPP6tensori.constprop.0+0x58c>
    502d:	66 0f ef c0          	pxor   %xmm0,%xmm0
    5031:	e9 f6 f2 ff ff       	jmp    432c <_ZL6forceldddddddjjPPPdddddPPP6tensori.constprop.0+0x58c>
    5036:	66 0f 2f d4          	comisd %xmm4,%xmm2
    503a:	0f 86 3e 01 00 00    	jbe    517e <_ZL6forceldddddddjjPPPdddddPPP6tensori.constprop.0+0x13de>
    5040:	f2 0f 58 05 60 68 00 	addsd  0x6860(%rip),%xmm0        # b8a8 <_IO_stdin_used+0x8a8>
    5047:	00 
    5048:	f2 0f 11 84 24 10 01 	movsd  %xmm0,0x110(%rsp)
    504f:	00 00 
    5051:	f2 0f 10 04 24       	movsd  (%rsp),%xmm0
    5056:	f2 0f 11 9c 24 80 00 	movsd  %xmm3,0x80(%rsp)
    505d:	00 00 
    505f:	f2 0f 5e c2          	divsd  %xmm2,%xmm0
    5063:	f2 0f 11 4c 24 78    	movsd  %xmm1,0x78(%rsp)
    5069:	f2 0f 11 7c 24 60    	movsd  %xmm7,0x60(%rsp)
    506f:	f2 0f 11 54 24 10    	movsd  %xmm2,0x10(%rsp)
    5075:	e8 c6 d4 ff ff       	call   2540 <atan@plt>
    507a:	66 0f ef db          	pxor   %xmm3,%xmm3
    507e:	66 0f 2f 1c 24       	comisd (%rsp),%xmm3
    5083:	f2 0f 10 54 24 10    	movsd  0x10(%rsp),%xmm2
    5089:	f2 0f 10 7c 24 60    	movsd  0x60(%rsp),%xmm7
    508f:	f2 0f 10 4c 24 78    	movsd  0x78(%rsp),%xmm1
    5095:	f2 0f 10 9c 24 80 00 	movsd  0x80(%rsp),%xmm3
    509c:	00 00 
    509e:	0f 86 19 ef ff ff    	jbe    3fbd <_ZL6forceldddddddjjPPPdddddPPP6tensori.constprop.0+0x21d>
    50a4:	f2 0f 58 05 fc 67 00 	addsd  0x67fc(%rip),%xmm0        # b8a8 <_IO_stdin_used+0x8a8>
    50ab:	00 
    50ac:	e9 7b f2 ff ff       	jmp    432c <_ZL6forceldddddddjjPPPdddddPPP6tensori.constprop.0+0x58c>
    50b1:	66 0f 2f 2c 24       	comisd (%rsp),%xmm5
    50b6:	f2 0f 10 05 d2 67 00 	movsd  0x67d2(%rip),%xmm0        # b890 <_IO_stdin_used+0x890>
    50bd:	00 
    50be:	0f 87 1b ee ff ff    	ja     3edf <_ZL6forceldddddddjjPPPdddddPPP6tensori.constprop.0+0x13f>
    50c4:	66 0f ef c0          	pxor   %xmm0,%xmm0
    50c8:	e9 12 ee ff ff       	jmp    3edf <_ZL6forceldddddddjjPPPdddddPPP6tensori.constprop.0+0x13f>
    50cd:	66 0f 2f cc          	comisd %xmm4,%xmm1
    50d1:	0f 86 b4 00 00 00    	jbe    518b <_ZL6forceldddddddjjPPPdddddPPP6tensori.constprop.0+0x13eb>
    50d7:	f2 0f 58 05 c9 67 00 	addsd  0x67c9(%rip),%xmm0        # b8a8 <_IO_stdin_used+0x8a8>
    50de:	00 
    50df:	f2 0f 11 84 24 00 01 	movsd  %xmm0,0x100(%rsp)
    50e6:	00 00 
    50e8:	f2 0f 10 04 24       	movsd  (%rsp),%xmm0
    50ed:	f2 0f 11 9c 24 80 00 	movsd  %xmm3,0x80(%rsp)
    50f4:	00 00 
    50f6:	f2 0f 5e c1          	divsd  %xmm1,%xmm0
    50fa:	f2 0f 11 54 24 78    	movsd  %xmm2,0x78(%rsp)
    5100:	f2 0f 11 7c 24 60    	movsd  %xmm7,0x60(%rsp)
    5106:	f2 0f 11 4c 24 10    	movsd  %xmm1,0x10(%rsp)
    510c:	e8 2f d4 ff ff       	call   2540 <atan@plt>
    5111:	66 0f ef db          	pxor   %xmm3,%xmm3
    5115:	66 0f 2f 1c 24       	comisd (%rsp),%xmm3
    511a:	f2 0f 10 4c 24 10    	movsd  0x10(%rsp),%xmm1
    5120:	f2 0f 10 7c 24 60    	movsd  0x60(%rsp),%xmm7
    5126:	f2 0f 10 54 24 78    	movsd  0x78(%rsp),%xmm2
    512c:	f2 0f 10 9c 24 80 00 	movsd  0x80(%rsp),%xmm3
    5133:	00 00 
    5135:	0f 86 7c f1 ff ff    	jbe    42b7 <_ZL6forceldddddddjjPPPdddddPPP6tensori.constprop.0+0x517>
    513b:	f2 0f 58 05 65 67 00 	addsd  0x6765(%rip),%xmm0        # b8a8 <_IO_stdin_used+0x8a8>
    5142:	00 
    5143:	e9 97 ed ff ff       	jmp    3edf <_ZL6forceldddddddjjPPPdddddPPP6tensori.constprop.0+0x13f>
    5148:	66 0f 2f d4          	comisd %xmm4,%xmm2
    514c:	66 0f ef c0          	pxor   %xmm0,%xmm0
    5150:	0f 87 f2 fe ff ff    	ja     5048 <_ZL6forceldddddddjjPPPdddddPPP6tensori.constprop.0+0x12a8>
    5156:	f2 0f 10 05 3a 67 00 	movsd  0x673a(%rip),%xmm0        # b898 <_IO_stdin_used+0x898>
    515d:	00 
    515e:	e9 fe ed ff ff       	jmp    3f61 <_ZL6forceldddddddjjPPPdddddPPP6tensori.constprop.0+0x1c1>
    5163:	66 0f 2f cc          	comisd %xmm4,%xmm1
    5167:	66 0f ef c0          	pxor   %xmm0,%xmm0
    516b:	0f 87 6e ff ff ff    	ja     50df <_ZL6forceldddddddjjPPPdddddPPP6tensori.constprop.0+0x133f>
    5171:	f2 0f 10 05 1f 67 00 	movsd  0x671f(%rip),%xmm0        # b898 <_IO_stdin_used+0x898>
    5178:	00 
    5179:	e9 dd f0 ff ff       	jmp    425b <_ZL6forceldddddddjjPPPdddddPPP6tensori.constprop.0+0x4bb>
    517e:	f2 0f 58 05 12 67 00 	addsd  0x6712(%rip),%xmm0        # b898 <_IO_stdin_used+0x898>
    5185:	00 
    5186:	e9 d6 ed ff ff       	jmp    3f61 <_ZL6forceldddddddjjPPPdddddPPP6tensori.constprop.0+0x1c1>
    518b:	f2 0f 58 05 05 67 00 	addsd  0x6705(%rip),%xmm0        # b898 <_IO_stdin_used+0x898>
    5192:	00 
    5193:	e9 c3 f0 ff ff       	jmp    425b <_ZL6forceldddddddjjPPPdddddPPP6tensori.constprop.0+0x4bb>
    5198:	66 0f ef e4          	pxor   %xmm4,%xmm4
    519c:	66 0f 2f d4          	comisd %xmm4,%xmm2
    51a0:	0f 86 34 ee ff ff    	jbe    3fda <_ZL6forceldddddddjjPPPdddddPPP6tensori.constprop.0+0x23a>
    51a6:	e9 f9 fe ff ff       	jmp    50a4 <_ZL6forceldddddddjjPPPdddddPPP6tensori.constprop.0+0x1304>
    51ab:	66 0f ef e4          	pxor   %xmm4,%xmm4
    51af:	66 0f 2f cc          	comisd %xmm4,%xmm1
    51b3:	0f 86 1b f1 ff ff    	jbe    42d4 <_ZL6forceldddddddjjPPPdddddPPP6tensori.constprop.0+0x534>
    51b9:	eb 80                	jmp    513b <_ZL6forceldddddddjjPPPdddddPPP6tensori.constprop.0+0x139b>
    51bb:	66 0f 2f d5          	comisd %xmm5,%xmm2
    51bf:	f2 0f 10 05 d1 66 00 	movsd  0x66d1(%rip),%xmm0        # b898 <_IO_stdin_used+0x898>
    51c6:	00 
    51c7:	0f 87 60 fe ff ff    	ja     502d <_ZL6forceldddddddjjPPPdddddPPP6tensori.constprop.0+0x128d>
    51cd:	e9 5a f1 ff ff       	jmp    432c <_ZL6forceldddddddjjPPPdddddPPP6tensori.constprop.0+0x58c>
    51d2:	66 0f 2f cd          	comisd %xmm5,%xmm1
    51d6:	f2 0f 10 05 ba 66 00 	movsd  0x66ba(%rip),%xmm0        # b898 <_IO_stdin_used+0x898>
    51dd:	00 
    51de:	0f 87 e0 fe ff ff    	ja     50c4 <_ZL6forceldddddddjjPPPdddddPPP6tensori.constprop.0+0x1324>
    51e4:	e9 f6 ec ff ff       	jmp    3edf <_ZL6forceldddddddjjPPPdddddPPP6tensori.constprop.0+0x13f>
    51e9:	f2 44 0f 10 05 ae 66 	movsd  0x66ae(%rip),%xmm8        # b8a0 <_IO_stdin_used+0x8a0>
    51f0:	00 00 
    51f2:	f3 0f 7e 25 16 67 00 	movq   0x6716(%rip),%xmm4        # b910 <_IO_stdin_used+0x910>
    51f9:	00 
    51fa:	b8 01 00 00 00       	mov    $0x1,%eax
    51ff:	e9 3b f7 ff ff       	jmp    493f <_ZL6forceldddddddjjPPPdddddPPP6tensori.constprop.0+0xb9f>
    5204:	e8 c7 d3 ff ff       	call   25d0 <__stack_chk_fail@plt>
    5209:	0f 1f 80 00 00 00 00 	nopl   0x0(%rax)

0000000000005210 <_ZL7torqueldddddddjjPPPdddddPPP6tensori.constprop.0>:
    5210:	41 57                	push   %r15
    5212:	66 44 0f 28 f8       	movapd %xmm0,%xmm15
    5217:	49 89 ff             	mov    %rdi,%r15
    521a:	41 56                	push   %r14
    521c:	41 55                	push   %r13
    521e:	41 54                	push   %r12
    5220:	41 89 f4             	mov    %esi,%r12d
    5223:	55                   	push   %rbp
    5224:	53                   	push   %rbx
    5225:	89 d3                	mov    %edx,%ebx
    5227:	48 81 ec 08 01 00 00 	sub    $0x108,%rsp
    522e:	48 89 4c 24 40       	mov    %rcx,0x40(%rsp)
    5233:	4c 89 44 24 30       	mov    %r8,0x30(%rsp)
    5238:	44 89 8c 24 b8 00 00 	mov    %r9d,0xb8(%rsp)
    523f:	00 
    5240:	f2 0f 11 64 24 18    	movsd  %xmm4,0x18(%rsp)
    5246:	66 41 0f 28 e7       	movapd %xmm15,%xmm4
    524b:	66 0f 57 25 ad 66 00 	xorpd  0x66ad(%rip),%xmm4        # b900 <_IO_stdin_used+0x900>
    5252:	00 
    5253:	f2 0f 11 44 24 08    	movsd  %xmm0,0x8(%rsp)
    5259:	66 0f ef c0          	pxor   %xmm0,%xmm0
    525d:	f2 0f 11 6c 24 10    	movsd  %xmm5,0x10(%rsp)
    5263:	f2 0f 11 34 24       	movsd  %xmm6,(%rsp)
    5268:	f2 0f 11 7c 24 28    	movsd  %xmm7,0x28(%rsp)
    526e:	64 48 8b 04 25 28 00 	mov    %fs:0x28,%rax
    5275:	00 00 
    5277:	48 89 84 24 f8 00 00 	mov    %rax,0xf8(%rsp)
    527e:	00 
    527f:	31 c0                	xor    %eax,%eax
    5281:	66 0f 2f ec          	comisd %xmm4,%xmm5
    5285:	48 c7 47 10 00 00 00 	movq   $0x0,0x10(%rdi)
    528c:	00 
    528d:	0f 11 07             	movups %xmm0,(%rdi)
    5290:	0f 87 3a 02 00 00    	ja     54d0 <_ZL7torqueldddddddjjPPPdddddPPP6tensori.constprop.0+0x2c0>
    5296:	89 74 24 38          	mov    %esi,0x38(%rsp)
    529a:	f2 0f 10 74 24 08    	movsd  0x8(%rsp),%xmm6
    52a0:	45 31 ed             	xor    %r13d,%r13d
    52a3:	66 0f 2f 34 24       	comisd (%rsp),%xmm6
    52a8:	0f 87 82 01 00 00    	ja     5430 <_ZL7torqueldddddddjjPPPdddddPPP6tensori.constprop.0+0x220>
    52ae:	66 0f 2f 24 24       	comisd (%rsp),%xmm4
    52b3:	77 0e                	ja     52c3 <_ZL7torqueldddddddjjPPPdddddPPP6tensori.constprop.0+0xb3>
    52b5:	f2 0f 10 7c 24 10    	movsd  0x10(%rsp),%xmm7
    52bb:	66 0f 2f 7c 24 08    	comisd 0x8(%rsp),%xmm7
    52c1:	76 2d                	jbe    52f0 <_ZL7torqueldddddddjjPPPdddddPPP6tensori.constprop.0+0xe0>
    52c3:	48 8b 84 24 f8 00 00 	mov    0xf8(%rsp),%rax
    52ca:	00 
    52cb:	64 48 2b 04 25 28 00 	sub    %fs:0x28,%rax
    52d2:	00 00 
    52d4:	0f 85 f7 13 00 00    	jne    66d1 <_ZL7torqueldddddddjjPPPdddddPPP6tensori.constprop.0+0x14c1>
    52da:	48 81 c4 08 01 00 00 	add    $0x108,%rsp
    52e1:	4c 89 f8             	mov    %r15,%rax
    52e4:	5b                   	pop    %rbx
    52e5:	5d                   	pop    %rbp
    52e6:	41 5c                	pop    %r12
    52e8:	41 5d                	pop    %r13
    52ea:	41 5e                	pop    %r14
    52ec:	41 5f                	pop    %r15
    52ee:	c3                   	ret    
    52ef:	90                   	nop
    52f0:	66 0f ef f6          	pxor   %xmm6,%xmm6
    52f4:	66 0f 2e ce          	ucomisd %xmm6,%xmm1
    52f8:	0f 8a f9 02 00 00    	jp     55f7 <_ZL7torqueldddddddjjPPPdddddPPP6tensori.constprop.0+0x3e7>
    52fe:	0f 85 f3 02 00 00    	jne    55f7 <_ZL7torqueldddddddjjPPPdddddPPP6tensori.constprop.0+0x3e7>
    5304:	66 0f 2f de          	comisd %xmm6,%xmm3
    5308:	f2 0f 10 05 78 65 00 	movsd  0x6578(%rip),%xmm0        # b888 <_IO_stdin_used+0x888>
    530f:	00 
    5310:	77 15                	ja     5327 <_ZL7torqueldddddddjjPPPdddddPPP6tensori.constprop.0+0x117>
    5312:	66 0f 28 e3          	movapd %xmm3,%xmm4
    5316:	f2 0f 10 05 72 65 00 	movsd  0x6572(%rip),%xmm0        # b890 <_IO_stdin_used+0x890>
    531d:	00 
    531e:	f2 0f c2 e6 01       	cmpltsd %xmm6,%xmm4
    5323:	66 0f 54 c4          	andpd  %xmm4,%xmm0
    5327:	f2 0f 10 74 24 18    	movsd  0x18(%rsp),%xmm6
    532d:	66 0f ef ff          	pxor   %xmm7,%xmm7
    5331:	f2 0f 11 84 24 d0 00 	movsd  %xmm0,0xd0(%rsp)
    5338:	00 00 
    533a:	f2 0f 10 05 46 65 00 	movsd  0x6546(%rip),%xmm0        # b888 <_IO_stdin_used+0x888>
    5341:	00 
    5342:	66 0f 2f f7          	comisd %xmm7,%xmm6
    5346:	0f 86 46 12 00 00    	jbe    6592 <_ZL7torqueldddddddjjPPPdddddPPP6tensori.constprop.0+0x1382>
    534c:	f2 0f 11 84 24 d8 00 	movsd  %xmm0,0xd8(%rsp)
    5353:	00 00 
    5355:	66 0f ef f6          	pxor   %xmm6,%xmm6
    5359:	66 0f 2e d6          	ucomisd %xmm6,%xmm2
    535d:	7a 06                	jp     5365 <_ZL7torqueldddddddjjPPPdddddPPP6tensori.constprop.0+0x155>
    535f:	0f 84 60 03 00 00    	je     56c5 <_ZL7torqueldddddddjjPPPdddddPPP6tensori.constprop.0+0x4b5>
    5365:	66 0f 28 c3          	movapd %xmm3,%xmm0
    5369:	f2 0f 11 4c 24 50    	movsd  %xmm1,0x50(%rsp)
    536f:	f2 0f 5e c2          	divsd  %xmm2,%xmm0
    5373:	f2 0f 11 5c 24 48    	movsd  %xmm3,0x48(%rsp)
    5379:	f2 0f 11 54 24 20    	movsd  %xmm2,0x20(%rsp)
    537f:	e8 bc d1 ff ff       	call   2540 <atan@plt>
    5384:	f2 0f 10 5c 24 48    	movsd  0x48(%rsp),%xmm3
    538a:	66 0f ef f6          	pxor   %xmm6,%xmm6
    538e:	f2 0f 10 54 24 20    	movsd  0x20(%rsp),%xmm2
    5394:	f2 0f 10 4c 24 50    	movsd  0x50(%rsp),%xmm1
    539a:	66 0f 2f f3          	comisd %xmm3,%xmm6
    539e:	0f 87 83 11 00 00    	ja     6527 <_ZL7torqueldddddddjjPPPdddddPPP6tensori.constprop.0+0x1317>
    53a4:	66 0f 2f de          	comisd %xmm6,%xmm3
    53a8:	0f 86 6c 12 00 00    	jbe    661a <_ZL7torqueldddddddjjPPPdddddPPP6tensori.constprop.0+0x140a>
    53ae:	66 0f 2f f2          	comisd %xmm2,%xmm6
    53b2:	0f 87 94 12 00 00    	ja     664c <_ZL7torqueldddddddjjPPPdddddPPP6tensori.constprop.0+0x143c>
    53b8:	f2 0f 11 84 24 e0 00 	movsd  %xmm0,0xe0(%rsp)
    53bf:	00 00 
    53c1:	f2 0f 10 44 24 18    	movsd  0x18(%rsp),%xmm0
    53c7:	f2 0f 11 5c 24 50    	movsd  %xmm3,0x50(%rsp)
    53cd:	f2 0f 5e c2          	divsd  %xmm2,%xmm0
    53d1:	f2 0f 11 4c 24 48    	movsd  %xmm1,0x48(%rsp)
    53d7:	f2 0f 11 54 24 20    	movsd  %xmm2,0x20(%rsp)
    53dd:	e8 5e d1 ff ff       	call   2540 <atan@plt>
    53e2:	66 0f ef d2          	pxor   %xmm2,%xmm2
    53e6:	66 0f 2f 54 24 18    	comisd 0x18(%rsp),%xmm2
    53ec:	f2 0f 10 4c 24 48    	movsd  0x48(%rsp),%xmm1
    53f2:	f2 0f 10 54 24 20    	movsd  0x20(%rsp),%xmm2
    53f8:	f2 0f 10 5c 24 50    	movsd  0x50(%rsp),%xmm3
    53fe:	0f 87 62 12 00 00    	ja     6666 <_ZL7torqueldddddddjjPPPdddddPPP6tensori.constprop.0+0x1456>
    5404:	f2 0f 10 74 24 18    	movsd  0x18(%rsp),%xmm6
    540a:	66 0f ef ff          	pxor   %xmm7,%xmm7
    540e:	66 0f 2f f7          	comisd %xmm7,%xmm6
    5412:	0f 86 71 12 00 00    	jbe    6689 <_ZL7torqueldddddddjjPPPdddddPPP6tensori.constprop.0+0x1479>
    5418:	66 0f 2f fa          	comisd %xmm2,%xmm7
    541c:	0f 86 eb 02 00 00    	jbe    570d <_ZL7torqueldddddddjjPPPdddddPPP6tensori.constprop.0+0x4fd>
    5422:	f2 0f 58 05 6e 64 00 	addsd  0x646e(%rip),%xmm0        # b898 <_IO_stdin_used+0x898>
    5429:	00 
    542a:	e9 de 02 00 00       	jmp    570d <_ZL7torqueldddddddjjPPPdddddPPP6tensori.constprop.0+0x4fd>
    542f:	90                   	nop
    5430:	f2 0f 10 04 24       	movsd  (%rsp),%xmm0
    5435:	f2 0f 11 5c 24 58    	movsd  %xmm3,0x58(%rsp)
    543b:	f2 0f 11 54 24 50    	movsd  %xmm2,0x50(%rsp)
    5441:	f2 0f 5e c6          	divsd  %xmm6,%xmm0
    5445:	f2 0f 11 4c 24 48    	movsd  %xmm1,0x48(%rsp)
    544b:	f2 0f 11 64 24 20    	movsd  %xmm4,0x20(%rsp)
    5451:	e8 2a d1 ff ff       	call   2580 <acos@plt>
    5456:	43 8d 04 24          	lea    (%r12,%r12,1),%eax
    545a:	66 0f ef ff          	pxor   %xmm7,%xmm7
    545e:	f2 0f 10 2d 32 64 00 	movsd  0x6432(%rip),%xmm5        # b898 <_IO_stdin_used+0x898>
    5465:	00 
    5466:	f2 48 0f 2a f8       	cvtsi2sd %rax,%xmm7
    546b:	44 89 e0             	mov    %r12d,%eax
    546e:	f2 0f 10 64 24 20    	movsd  0x20(%rsp),%xmm4
    5474:	f2 0f 10 4c 24 48    	movsd  0x48(%rsp),%xmm1
    547a:	66 0f 28 f5          	movapd %xmm5,%xmm6
    547e:	f2 0f 10 54 24 50    	movsd  0x50(%rsp),%xmm2
    5484:	f2 0f 10 5c 24 58    	movsd  0x58(%rsp),%xmm3
    548a:	f2 0f 5e f7          	divsd  %xmm7,%xmm6
    548e:	f2 0f 10 3d 0a 64 00 	movsd  0x640a(%rip),%xmm7        # b8a0 <_IO_stdin_used+0x8a0>
    5495:	00 
    5496:	f2 0f 5c c6          	subsd  %xmm6,%xmm0
    549a:	66 0f ef f6          	pxor   %xmm6,%xmm6
    549e:	f2 48 0f 2a f0       	cvtsi2sd %rax,%xmm6
    54a3:	f2 0f 5e ee          	divsd  %xmm6,%xmm5
    54a7:	f3 0f 7e 35 61 64 00 	movq   0x6461(%rip),%xmm6        # b910 <_IO_stdin_used+0x910>
    54ae:	00 
    54af:	f2 0f 5e c5          	divsd  %xmm5,%xmm0
    54b3:	66 0f 28 e8          	movapd %xmm0,%xmm5
    54b7:	66 0f 54 ee          	andpd  %xmm6,%xmm5
    54bb:	66 0f 2e fd          	ucomisd %xmm5,%xmm7
    54bf:	0f 87 f3 00 00 00    	ja     55b8 <_ZL7torqueldddddddjjPPPdddddPPP6tensori.constprop.0+0x3a8>
    54c5:	f2 44 0f 2c e8       	cvttsd2si %xmm0,%r13d
    54ca:	e9 df fd ff ff       	jmp    52ae <_ZL7torqueldddddddjjPPPdddddPPP6tensori.constprop.0+0x9e>
    54cf:	90                   	nop
    54d0:	66 0f 28 c5          	movapd %xmm5,%xmm0
    54d4:	f2 0f 11 5c 24 50    	movsd  %xmm3,0x50(%rsp)
    54da:	f2 41 0f 5e c7       	divsd  %xmm15,%xmm0
    54df:	f2 0f 11 54 24 48    	movsd  %xmm2,0x48(%rsp)
    54e5:	f2 0f 11 4c 24 38    	movsd  %xmm1,0x38(%rsp)
    54eb:	f2 0f 11 64 24 20    	movsd  %xmm4,0x20(%rsp)
    54f1:	e8 8a d0 ff ff       	call   2580 <acos@plt>
    54f6:	43 8d 04 24          	lea    (%r12,%r12,1),%eax
    54fa:	66 0f ef ff          	pxor   %xmm7,%xmm7
    54fe:	f2 0f 10 2d 92 63 00 	movsd  0x6392(%rip),%xmm5        # b898 <_IO_stdin_used+0x898>
    5505:	00 
    5506:	f2 48 0f 2a f8       	cvtsi2sd %rax,%xmm7
    550b:	44 89 e0             	mov    %r12d,%eax
    550e:	f2 0f 10 64 24 20    	movsd  0x20(%rsp),%xmm4
    5514:	f2 0f 10 4c 24 38    	movsd  0x38(%rsp),%xmm1
    551a:	66 0f 28 f5          	movapd %xmm5,%xmm6
    551e:	f2 0f 10 54 24 48    	movsd  0x48(%rsp),%xmm2
    5524:	f2 0f 10 5c 24 50    	movsd  0x50(%rsp),%xmm3
    552a:	f2 0f 5e f7          	divsd  %xmm7,%xmm6
    552e:	f2 0f 10 3d 6a 63 00 	movsd  0x636a(%rip),%xmm7        # b8a0 <_IO_stdin_used+0x8a0>
    5535:	00 
    5536:	f2 0f 5c c6          	subsd  %xmm6,%xmm0
    553a:	66 0f ef f6          	pxor   %xmm6,%xmm6
    553e:	f2 48 0f 2a f0       	cvtsi2sd %rax,%xmm6
    5543:	f2 0f 5e ee          	divsd  %xmm6,%xmm5
    5547:	f3 0f 7e 35 c1 63 00 	movq   0x63c1(%rip),%xmm6        # b910 <_IO_stdin_used+0x910>
    554e:	00 
    554f:	f2 0f 5e c5          	divsd  %xmm5,%xmm0
    5553:	66 0f 28 e8          	movapd %xmm0,%xmm5
    5557:	66 0f 54 ee          	andpd  %xmm6,%xmm5
    555b:	66 0f 2e fd          	ucomisd %xmm5,%xmm7
    555f:	77 0f                	ja     5570 <_ZL7torqueldddddddjjPPPdddddPPP6tensori.constprop.0+0x360>
    5561:	f2 0f 2c c0          	cvttsd2si %xmm0,%eax
    5565:	89 44 24 38          	mov    %eax,0x38(%rsp)
    5569:	e9 2c fd ff ff       	jmp    529a <_ZL7torqueldddddddjjPPPdddddPPP6tensori.constprop.0+0x8a>
    556e:	66 90                	xchg   %ax,%ax
    5570:	f2 48 0f 2c c0       	cvttsd2si %xmm0,%rax
    5575:	66 0f ef ed          	pxor   %xmm5,%xmm5
    5579:	66 0f 28 f8          	movapd %xmm0,%xmm7
    557d:	f2 44 0f 10 05 d2 62 	movsd  0x62d2(%rip),%xmm8        # b858 <_IO_stdin_used+0x858>
    5584:	00 00 
    5586:	66 0f 55 f0          	andnpd %xmm0,%xmm6
    558a:	f2 48 0f 2a e8       	cvtsi2sd %rax,%xmm5
    558f:	f2 0f c2 fd 06       	cmpnlesd %xmm5,%xmm7
    5594:	66 41 0f 54 f8       	andpd  %xmm8,%xmm7
    5599:	f2 0f 58 ef          	addsd  %xmm7,%xmm5
    559d:	66 0f 56 ee          	orpd   %xmm6,%xmm5
    55a1:	66 0f 28 c5          	movapd %xmm5,%xmm0
    55a5:	f2 0f 2c c0          	cvttsd2si %xmm0,%eax
    55a9:	89 44 24 38          	mov    %eax,0x38(%rsp)
    55ad:	e9 e8 fc ff ff       	jmp    529a <_ZL7torqueldddddddjjPPPdddddPPP6tensori.constprop.0+0x8a>
    55b2:	66 0f 1f 44 00 00    	nopw   0x0(%rax,%rax,1)
    55b8:	f2 48 0f 2c c0       	cvttsd2si %xmm0,%rax
    55bd:	66 0f ef ed          	pxor   %xmm5,%xmm5
    55c1:	66 0f 55 f0          	andnpd %xmm0,%xmm6
    55c5:	f2 44 0f 10 05 8a 62 	movsd  0x628a(%rip),%xmm8        # b858 <_IO_stdin_used+0x858>
    55cc:	00 00 
    55ce:	f2 48 0f 2a e8       	cvtsi2sd %rax,%xmm5
    55d3:	66 0f 28 fd          	movapd %xmm5,%xmm7
    55d7:	f2 0f c2 f8 06       	cmpnlesd %xmm0,%xmm7
    55dc:	66 41 0f 54 f8       	andpd  %xmm8,%xmm7
    55e1:	f2 0f 5c ef          	subsd  %xmm7,%xmm5
    55e5:	66 0f 56 ee          	orpd   %xmm6,%xmm5
    55e9:	66 0f 28 c5          	movapd %xmm5,%xmm0
    55ed:	f2 44 0f 2c e8       	cvttsd2si %xmm0,%r13d
    55f2:	e9 b7 fc ff ff       	jmp    52ae <_ZL7torqueldddddddjjPPPdddddPPP6tensori.constprop.0+0x9e>
    55f7:	66 0f 28 c3          	movapd %xmm3,%xmm0
    55fb:	f2 0f 11 54 24 50    	movsd  %xmm2,0x50(%rsp)
    5601:	f2 0f 5e c1          	divsd  %xmm1,%xmm0
    5605:	f2 0f 11 5c 24 48    	movsd  %xmm3,0x48(%rsp)
    560b:	f2 0f 11 4c 24 20    	movsd  %xmm1,0x20(%rsp)
    5611:	e8 2a cf ff ff       	call   2540 <atan@plt>
    5616:	f2 0f 10 5c 24 48    	movsd  0x48(%rsp),%xmm3
    561c:	66 0f ef d2          	pxor   %xmm2,%xmm2
    5620:	f2 0f 10 4c 24 20    	movsd  0x20(%rsp),%xmm1
    5626:	66 0f ef f6          	pxor   %xmm6,%xmm6
    562a:	66 0f 2f d3          	comisd %xmm3,%xmm2
    562e:	f2 0f 10 54 24 50    	movsd  0x50(%rsp),%xmm2
    5634:	0f 87 75 0f 00 00    	ja     65af <_ZL7torqueldddddddjjPPPdddddPPP6tensori.constprop.0+0x139f>
    563a:	66 0f 2f de          	comisd %xmm6,%xmm3
    563e:	0f 86 f1 0f 00 00    	jbe    6635 <_ZL7torqueldddddddjjPPPdddddPPP6tensori.constprop.0+0x1425>
    5644:	66 0f 2f f1          	comisd %xmm1,%xmm6
    5648:	0f 87 0b 10 00 00    	ja     6659 <_ZL7torqueldddddddjjPPPdddddPPP6tensori.constprop.0+0x1449>
    564e:	f2 0f 11 84 24 d0 00 	movsd  %xmm0,0xd0(%rsp)
    5655:	00 00 
    5657:	f2 0f 10 44 24 18    	movsd  0x18(%rsp),%xmm0
    565d:	f2 0f 11 5c 24 50    	movsd  %xmm3,0x50(%rsp)
    5663:	f2 0f 5e c1          	divsd  %xmm1,%xmm0
    5667:	f2 0f 11 54 24 48    	movsd  %xmm2,0x48(%rsp)
    566d:	f2 0f 11 4c 24 20    	movsd  %xmm1,0x20(%rsp)
    5673:	e8 c8 ce ff ff       	call   2540 <atan@plt>
    5678:	66 0f ef d2          	pxor   %xmm2,%xmm2
    567c:	66 0f 2f 54 24 18    	comisd 0x18(%rsp),%xmm2
    5682:	f2 0f 10 4c 24 20    	movsd  0x20(%rsp),%xmm1
    5688:	f2 0f 10 54 24 48    	movsd  0x48(%rsp),%xmm2
    568e:	f2 0f 10 5c 24 50    	movsd  0x50(%rsp),%xmm3
    5694:	0f 87 df 0f 00 00    	ja     6679 <_ZL7torqueldddddddjjPPPdddddPPP6tensori.constprop.0+0x1469>
    569a:	f2 0f 10 7c 24 18    	movsd  0x18(%rsp),%xmm7
    56a0:	66 0f ef f6          	pxor   %xmm6,%xmm6
    56a4:	66 0f 2f fe          	comisd %xmm6,%xmm7
    56a8:	0f 86 f2 0f 00 00    	jbe    66a0 <_ZL7torqueldddddddjjPPPdddddPPP6tensori.constprop.0+0x1490>
    56ae:	66 0f 2f f1          	comisd %xmm1,%xmm6
    56b2:	0f 86 94 fc ff ff    	jbe    534c <_ZL7torqueldddddddjjPPPdddddPPP6tensori.constprop.0+0x13c>
    56b8:	f2 0f 58 05 d8 61 00 	addsd  0x61d8(%rip),%xmm0        # b898 <_IO_stdin_used+0x898>
    56bf:	00 
    56c0:	e9 87 fc ff ff       	jmp    534c <_ZL7torqueldddddddjjPPPdddddPPP6tensori.constprop.0+0x13c>
    56c5:	66 0f 2f de          	comisd %xmm6,%xmm3
    56c9:	f2 0f 10 05 b7 61 00 	movsd  0x61b7(%rip),%xmm0        # b888 <_IO_stdin_used+0x888>
    56d0:	00 
    56d1:	77 15                	ja     56e8 <_ZL7torqueldddddddjjPPPdddddPPP6tensori.constprop.0+0x4d8>
    56d3:	66 0f 28 e3          	movapd %xmm3,%xmm4
    56d7:	f2 0f 10 05 b1 61 00 	movsd  0x61b1(%rip),%xmm0        # b890 <_IO_stdin_used+0x890>
    56de:	00 
    56df:	f2 0f c2 e6 01       	cmpltsd %xmm6,%xmm4
    56e4:	66 0f 54 c4          	andpd  %xmm4,%xmm0
    56e8:	f2 0f 10 74 24 18    	movsd  0x18(%rsp),%xmm6
    56ee:	66 0f ef ff          	pxor   %xmm7,%xmm7
    56f2:	f2 0f 11 84 24 e0 00 	movsd  %xmm0,0xe0(%rsp)
    56f9:	00 00 
    56fb:	f2 0f 10 05 85 61 00 	movsd  0x6185(%rip),%xmm0        # b888 <_IO_stdin_used+0x888>
    5702:	00 
    5703:	66 0f 2f f7          	comisd %xmm7,%xmm6
    5707:	0f 86 fd 0d 00 00    	jbe    650a <_ZL7torqueldddddddjjPPPdddddPPP6tensori.constprop.0+0x12fa>
    570d:	48 8d ac 24 d0 00 00 	lea    0xd0(%rsp),%rbp
    5714:	00 
    5715:	48 8d b4 24 f0 00 00 	lea    0xf0(%rsp),%rsi
    571c:	00 
    571d:	ba 04 00 00 00       	mov    $0x4,%edx
    5722:	f2 0f 11 4c 24 20    	movsd  %xmm1,0x20(%rsp)
    5728:	48 89 ef             	mov    %rbp,%rdi
    572b:	f2 0f 11 5c 24 58    	movsd  %xmm3,0x58(%rsp)
    5731:	49 89 ee             	mov    %rbp,%r14
    5734:	f2 0f 11 54 24 50    	movsd  %xmm2,0x50(%rsp)
    573a:	f2 0f 11 84 24 e8 00 	movsd  %xmm0,0xe8(%rsp)
    5741:	00 00 
    5743:	e8 b8 e3 ff ff       	call   3b00 <_ZSt16__introsort_loopIPdlN9__gnu_cxx5__ops15_Iter_less_iterEEvT_S4_T0_T1_.isra.0>
    5748:	f2 0f 10 4c 24 20    	movsd  0x20(%rsp),%xmm1
    574e:	89 5c 24 60          	mov    %ebx,0x60(%rsp)
    5752:	48 89 eb             	mov    %rbp,%rbx
    5755:	48 8d 84 24 e8 00 00 	lea    0xe8(%rsp),%rax
    575c:	00 
    575d:	f2 0f 11 4c 24 48    	movsd  %xmm1,0x48(%rsp)
    5763:	48 89 c5             	mov    %rax,%rbp
    5766:	eb 36                	jmp    579e <_ZL7torqueldddddddjjPPPdddddPPP6tensori.constprop.0+0x58e>
    5768:	0f 1f 84 00 00 00 00 	nopl   0x0(%rax,%rax,1)
    576f:	00 
    5770:	b8 08 00 00 00       	mov    $0x8,%eax
    5775:	48 29 da             	sub    %rbx,%rdx
    5778:	48 89 de             	mov    %rbx,%rsi
    577b:	f2 0f 11 4c 24 20    	movsd  %xmm1,0x20(%rsp)
    5781:	48 8d 3c 03          	lea    (%rbx,%rax,1),%rdi
    5785:	e8 56 cf ff ff       	call   26e0 <memmove@plt>
    578a:	f2 0f 10 4c 24 20    	movsd  0x20(%rsp),%xmm1
    5790:	f2 0f 11 8c 24 d0 00 	movsd  %xmm1,0xd0(%rsp)
    5797:	00 00 
    5799:	49 39 ee             	cmp    %rbp,%r14
    579c:	74 52                	je     57f0 <_ZL7torqueldddddddjjPPPdddddPPP6tensori.constprop.0+0x5e0>
    579e:	f2 0f 10 84 24 d0 00 	movsd  0xd0(%rsp),%xmm0
    57a5:	00 00 
    57a7:	4c 89 f1             	mov    %r14,%rcx
    57aa:	49 83 c6 08          	add    $0x8,%r14
    57ae:	f2 0f 10 49 08       	movsd  0x8(%rcx),%xmm1
    57b3:	4c 89 f2             	mov    %r14,%rdx
    57b6:	48 89 c8             	mov    %rcx,%rax
    57b9:	66 0f 2f c1          	comisd %xmm1,%xmm0
    57bd:	77 b1                	ja     5770 <_ZL7torqueldddddddjjPPPdddddPPP6tensori.constprop.0+0x560>
    57bf:	f2 0f 10 01          	movsd  (%rcx),%xmm0
    57c3:	66 0f 2f c1          	comisd %xmm1,%xmm0
    57c7:	76 1e                	jbe    57e7 <_ZL7torqueldddddddjjPPPdddddPPP6tensori.constprop.0+0x5d7>
    57c9:	0f 1f 80 00 00 00 00 	nopl   0x0(%rax)
    57d0:	f2 0f 11 40 08       	movsd  %xmm0,0x8(%rax)
    57d5:	48 89 c2             	mov    %rax,%rdx
    57d8:	f2 0f 10 40 f8       	movsd  -0x8(%rax),%xmm0
    57dd:	48 83 e8 08          	sub    $0x8,%rax
    57e1:	66 0f 2f c1          	comisd %xmm1,%xmm0
    57e5:	77 e9                	ja     57d0 <_ZL7torqueldddddddjjPPPdddddPPP6tensori.constprop.0+0x5c0>
    57e7:	f2 0f 11 0a          	movsd  %xmm1,(%rdx)
    57eb:	49 39 ee             	cmp    %rbp,%r14
    57ee:	75 ae                	jne    579e <_ZL7torqueldddddddjjPPPdddddPPP6tensori.constprop.0+0x58e>
    57f0:	f2 0f 10 4c 24 48    	movsd  0x48(%rsp),%xmm1
    57f6:	66 0f ef ff          	pxor   %xmm7,%xmm7
    57fa:	f2 0f 10 54 24 50    	movsd  0x50(%rsp),%xmm2
    5800:	f2 0f 10 5c 24 58    	movsd  0x58(%rsp),%xmm3
    5806:	8b 5c 24 60          	mov    0x60(%rsp),%ebx
    580a:	66 0f 2f f9          	comisd %xmm1,%xmm7
    580e:	0f 83 6e 04 00 00    	jae    5c82 <_ZL7torqueldddddddjjPPPdddddPPP6tensori.constprop.0+0xa72>
    5814:	89 d8                	mov    %ebx,%eax
    5816:	66 0f ef c0          	pxor   %xmm0,%xmm0
    581a:	f2 0f 10 25 86 60 00 	movsd  0x6086(%rip),%xmm4        # b8a8 <_IO_stdin_used+0x8a8>
    5821:	00 
    5822:	f3 0f 7e 35 e6 60 00 	movq   0x60e6(%rip),%xmm6        # b910 <_IO_stdin_used+0x910>
    5829:	00 
    582a:	f2 48 0f 2a c0       	cvtsi2sd %rax,%xmm0
    582f:	f2 0f 10 3d 69 60 00 	movsd  0x6069(%rip),%xmm7        # b8a0 <_IO_stdin_used+0x8a0>
    5836:	00 
    5837:	66 44 0f 28 c6       	movapd %xmm6,%xmm8
    583c:	f2 0f 5e e0          	divsd  %xmm0,%xmm4
    5840:	66 44 0f 28 d4       	movapd %xmm4,%xmm10
    5845:	f2 0f 10 a4 24 d0 00 	movsd  0xd0(%rsp),%xmm4
    584c:	00 00 
    584e:	f2 41 0f 5e e2       	divsd  %xmm10,%xmm4
    5853:	66 0f 28 ec          	movapd %xmm4,%xmm5
    5857:	66 0f 54 ee          	andpd  %xmm6,%xmm5
    585b:	66 0f 2e fd          	ucomisd %xmm5,%xmm7
    585f:	76 39                	jbe    589a <_ZL7torqueldddddddjjPPPdddddPPP6tensori.constprop.0+0x68a>
    5861:	f2 48 0f 2c c4       	cvttsd2si %xmm4,%rax
    5866:	66 0f ef ed          	pxor   %xmm5,%xmm5
    586a:	66 44 0f 55 c4       	andnpd %xmm4,%xmm8
    586f:	f2 0f 10 05 e1 5f 00 	movsd  0x5fe1(%rip),%xmm0        # b858 <_IO_stdin_used+0x858>
    5876:	00 
    5877:	f2 48 0f 2a e8       	cvtsi2sd %rax,%xmm5
    587c:	66 44 0f 28 cd       	movapd %xmm5,%xmm9
    5881:	f2 44 0f c2 cc 06    	cmpnlesd %xmm4,%xmm9
    5887:	66 44 0f 54 c8       	andpd  %xmm0,%xmm9
    588c:	f2 41 0f 5c e9       	subsd  %xmm9,%xmm5
    5891:	66 41 0f 56 e8       	orpd   %xmm8,%xmm5
    5896:	66 0f 28 e5          	movapd %xmm5,%xmm4
    589a:	f2 0f 2c d4          	cvttsd2si %xmm4,%edx
    589e:	f2 0f 10 a4 24 e8 00 	movsd  0xe8(%rsp),%xmm4
    58a5:	00 00 
    58a7:	f2 41 0f 5e e2       	divsd  %xmm10,%xmm4
    58ac:	66 0f 28 ec          	movapd %xmm4,%xmm5
    58b0:	66 0f 54 ee          	andpd  %xmm6,%xmm5
    58b4:	66 0f 2e fd          	ucomisd %xmm5,%xmm7
    58b8:	76 33                	jbe    58ed <_ZL7torqueldddddddjjPPPdddddPPP6tensori.constprop.0+0x6dd>
    58ba:	f2 48 0f 2c c4       	cvttsd2si %xmm4,%rax
    58bf:	66 0f ef ed          	pxor   %xmm5,%xmm5
    58c3:	66 0f 28 c4          	movapd %xmm4,%xmm0
    58c7:	f2 0f 10 3d 89 5f 00 	movsd  0x5f89(%rip),%xmm7        # b858 <_IO_stdin_used+0x858>
    58ce:	00 
    58cf:	66 0f 55 f4          	andnpd %xmm4,%xmm6
    58d3:	f2 48 0f 2a e8       	cvtsi2sd %rax,%xmm5
    58d8:	f2 0f c2 c5 06       	cmpnlesd %xmm5,%xmm0
    58dd:	66 0f 54 c7          	andpd  %xmm7,%xmm0
    58e1:	f2 0f 58 e8          	addsd  %xmm0,%xmm5
    58e5:	66 0f 56 ee          	orpd   %xmm6,%xmm5
    58e9:	66 0f 28 e5          	movapd %xmm5,%xmm4
    58ed:	f2 0f 2c c4          	cvttsd2si %xmm4,%eax
    58f1:	39 d8                	cmp    %ebx,%eax
    58f3:	0f 47 c3             	cmova  %ebx,%eax
    58f6:	89 c1                	mov    %eax,%ecx
    58f8:	66 0f ef f6          	pxor   %xmm6,%xmm6
    58fc:	66 0f 2f ce          	comisd %xmm6,%xmm1
    5900:	76 0e                	jbe    5910 <_ZL7torqueldddddddjjPPPdddddPPP6tensori.constprop.0+0x700>
    5902:	66 0f 2f f3          	comisd %xmm3,%xmm6
    5906:	66 0f 28 fe          	movapd %xmm6,%xmm7
    590a:	0f 87 9f 03 00 00    	ja     5caf <_ZL7torqueldddddddjjPPPdddddPPP6tensori.constprop.0+0xa9f>
    5910:	8b 74 24 38          	mov    0x38(%rsp),%esi
    5914:	44 39 ee             	cmp    %r13d,%esi
    5917:	0f 86 a6 f9 ff ff    	jbe    52c3 <_ZL7torqueldddddddjjPPPdddddPPP6tensori.constprop.0+0xb3>
    591d:	39 d1                	cmp    %edx,%ecx
    591f:	0f 86 9e f9 ff ff    	jbe    52c3 <_ZL7torqueldddddddjjPPPdddddPPP6tensori.constprop.0+0xb3>
    5925:	83 ee 01             	sub    $0x1,%esi
    5928:	48 8b 7c 24 40       	mov    0x40(%rsp),%rdi
    592d:	44 89 e8             	mov    %r13d,%eax
    5930:	f2 0f 10 7c 24 18    	movsd  0x18(%rsp),%xmm7
    5936:	41 89 f4             	mov    %esi,%r12d
    5939:	89 d6                	mov    %edx,%esi
    593b:	45 29 ec             	sub    %r13d,%r12d
    593e:	4c 8d 34 c7          	lea    (%rdi,%rax,8),%r14
    5942:	4c 8d 2c f5 00 00 00 	lea    0x0(,%rsi,8),%r13
    5949:	00 
    594a:	4c 01 e0             	add    %r12,%rax
    594d:	48 8d 7c c7 08       	lea    0x8(%rdi,%rax,8),%rdi
    5952:	8d 41 ff             	lea    -0x1(%rcx),%eax
    5955:	29 d0                	sub    %edx,%eax
    5957:	4c 89 fa             	mov    %r15,%rdx
    595a:	4c 8d 64 06 01       	lea    0x1(%rsi,%rax,1),%r12
    595f:	49 c1 e4 03          	shl    $0x3,%r12
    5963:	4d 89 e7             	mov    %r12,%r15
    5966:	49 89 fc             	mov    %rdi,%r12
    5969:	0f 1f 80 00 00 00 00 	nopl   0x0(%rax)
    5970:	49 8b 2e             	mov    (%r14),%rbp
    5973:	4a 8d 5c 2d 00       	lea    0x0(%rbp,%r13,1),%rbx
    5978:	4c 01 fd             	add    %r15,%rbp
    597b:	0f 1f 44 00 00       	nopl   0x0(%rax,%rax,1)
    5980:	48 8b 03             	mov    (%rbx),%rax
    5983:	f2 0f 10 20          	movsd  (%rax),%xmm4
    5987:	66 0f 2f e1          	comisd %xmm1,%xmm4
    598b:	0f 82 cf 02 00 00    	jb     5c60 <_ZL7torqueldddddddjjPPPdddddPPP6tensori.constprop.0+0xa50>
    5991:	66 0f 2f d4          	comisd %xmm4,%xmm2
    5995:	0f 82 c5 02 00 00    	jb     5c60 <_ZL7torqueldddddddjjPPPdddddPPP6tensori.constprop.0+0xa50>
    599b:	f2 44 0f 10 60 08    	movsd  0x8(%rax),%xmm12
    59a1:	66 44 0f 2f e3       	comisd %xmm3,%xmm12
    59a6:	0f 82 b4 02 00 00    	jb     5c60 <_ZL7torqueldddddddjjPPPdddddPPP6tensori.constprop.0+0xa50>
    59ac:	66 41 0f 2f fc       	comisd %xmm12,%xmm7
    59b1:	0f 82 a9 02 00 00    	jb     5c60 <_ZL7torqueldddddddjjPPPdddddPPP6tensori.constprop.0+0xa50>
    59b7:	f2 0f 10 68 10       	movsd  0x10(%rax),%xmm5
    59bc:	66 0f 2f 6c 24 10    	comisd 0x10(%rsp),%xmm5
    59c2:	0f 82 98 02 00 00    	jb     5c60 <_ZL7torqueldddddddjjPPPdddddPPP6tensori.constprop.0+0xa50>
    59c8:	f2 0f 10 34 24       	movsd  (%rsp),%xmm6
    59cd:	66 0f 2f f5          	comisd %xmm5,%xmm6
    59d1:	0f 82 89 02 00 00    	jb     5c60 <_ZL7torqueldddddddjjPPPdddddPPP6tensori.constprop.0+0xa50>
    59d7:	f2 0f 10 b4 24 48 01 	movsd  0x148(%rsp),%xmm6
    59de:	00 00 
    59e0:	f2 0f 11 5c 24 38    	movsd  %xmm3,0x38(%rsp)
    59e6:	66 0f 28 d9          	movapd %xmm1,%xmm3
    59ea:	f2 44 0f 10 8c 24 40 	movsd  0x140(%rsp),%xmm9
    59f1:	01 00 00 
    59f4:	f2 44 0f 10 54 24 28 	movsd  0x28(%rsp),%xmm10
    59fb:	66 45 0f ef c0       	pxor   %xmm8,%xmm8
    5a00:	f2 0f 11 bc 24 a0 00 	movsd  %xmm7,0xa0(%rsp)
    5a07:	00 00 
    5a09:	f2 0f 10 7c 24 08    	movsd  0x8(%rsp),%xmm7
    5a0f:	f2 0f 58 f5          	addsd  %xmm5,%xmm6
    5a13:	f2 45 0f 58 cc       	addsd  %xmm12,%xmm9
    5a18:	f2 44 0f 10 70 18    	movsd  0x18(%rax),%xmm14
    5a1e:	48 89 94 24 98 00 00 	mov    %rdx,0x98(%rsp)
    5a25:	00 
    5a26:	f2 0f 5e ef          	divsd  %xmm7,%xmm5
    5a2a:	f2 44 0f 58 d4       	addsd  %xmm4,%xmm10
    5a2f:	f2 0f 11 54 24 58    	movsd  %xmm2,0x58(%rsp)
    5a35:	f2 44 0f 2a 84 24 b8 	cvtsi2sdl 0xb8(%rsp),%xmm8
    5a3c:	00 00 00 
    5a3f:	f2 44 0f 11 74 24 60 	movsd  %xmm14,0x60(%rsp)
    5a46:	f2 0f 11 b4 24 90 00 	movsd  %xmm6,0x90(%rsp)
    5a4d:	00 00 
    5a4f:	66 0f 28 f2          	movapd %xmm2,%xmm6
    5a53:	f2 0f 5c f1          	subsd  %xmm1,%xmm6
    5a57:	f2 0f 11 4c 24 50    	movsd  %xmm1,0x50(%rsp)
    5a5d:	f2 44 0f 11 8c 24 88 	movsd  %xmm9,0x88(%rsp)
    5a64:	00 00 00 
    5a67:	f2 44 0f 11 94 24 80 	movsd  %xmm10,0x80(%rsp)
    5a6e:	00 00 00 
    5a71:	f2 0f 11 74 24 18    	movsd  %xmm6,0x18(%rsp)
    5a77:	f2 44 0f 11 44 24 20 	movsd  %xmm8,0x20(%rsp)
    5a7e:	f2 0f 5e de          	divsd  %xmm6,%xmm3
    5a82:	f2 0f 11 6c 24 78    	movsd  %xmm5,0x78(%rsp)
    5a88:	f2 44 0f 5e e7       	divsd  %xmm7,%xmm12
    5a8d:	66 0f 28 c3          	movapd %xmm3,%xmm0
    5a91:	f2 41 0f 58 c0       	addsd  %xmm8,%xmm0
    5a96:	f2 0f 5e e7          	divsd  %xmm7,%xmm4
    5a9a:	f2 44 0f 11 64 24 70 	movsd  %xmm12,0x70(%rsp)
    5aa1:	f2 0f 11 64 24 68    	movsd  %xmm4,0x68(%rsp)
    5aa7:	e8 b4 c9 ff ff       	call   2460 <round@plt>
    5aac:	f2 0f 10 5c 24 38    	movsd  0x38(%rsp),%xmm3
    5ab2:	f2 0f 11 44 24 48    	movsd  %xmm0,0x48(%rsp)
    5ab8:	f2 0f 10 44 24 20    	movsd  0x20(%rsp),%xmm0
    5abe:	66 0f 28 fb          	movapd %xmm3,%xmm7
    5ac2:	f2 0f 5e 7c 24 18    	divsd  0x18(%rsp),%xmm7
    5ac8:	f2 0f 11 5c 24 40    	movsd  %xmm3,0x40(%rsp)
    5ace:	f2 0f 58 c7          	addsd  %xmm7,%xmm0
    5ad2:	e8 89 c9 ff ff       	call   2460 <round@plt>
    5ad7:	f2 0f 11 44 24 38    	movsd  %xmm0,0x38(%rsp)
    5add:	f2 0f 10 44 24 10    	movsd  0x10(%rsp),%xmm0
    5ae3:	f2 0f 5e 44 24 18    	divsd  0x18(%rsp),%xmm0
    5ae9:	f2 0f 58 44 24 20    	addsd  0x20(%rsp),%xmm0
    5aef:	e8 6c c9 ff ff       	call   2460 <round@plt>
    5af4:	48 8b 74 24 30       	mov    0x30(%rsp),%rsi
    5af9:	f2 44 0f 10 6c 24 48 	movsd  0x48(%rsp),%xmm13
    5b00:	f2 44 0f 10 5c 24 38 	movsd  0x38(%rsp),%xmm11
    5b07:	f2 0f 10 64 24 68    	movsd  0x68(%rsp),%xmm4
    5b0d:	f2 41 0f 2c c5       	cvttsd2si %xmm13,%eax
    5b12:	f2 44 0f 10 64 24 70 	movsd  0x70(%rsp),%xmm12
    5b19:	f2 0f 10 6c 24 78    	movsd  0x78(%rsp),%xmm5
    5b1f:	f2 41 0f 2c cb       	cvttsd2si %xmm11,%ecx
    5b24:	48 98                	cltq   
    5b26:	48 8b 34 c6          	mov    (%rsi,%rax,8),%rsi
    5b2a:	f2 0f 2c c0          	cvttsd2si %xmm0,%eax
    5b2e:	48 63 c9             	movslq %ecx,%rcx
    5b31:	48 8b 0c ce          	mov    (%rsi,%rcx,8),%rcx
    5b35:	48 98                	cltq   
    5b37:	48 8d 04 c0          	lea    (%rax,%rax,8),%rax
    5b3b:	48 8d 04 c1          	lea    (%rcx,%rax,8),%rax
    5b3f:	f2 44 0f 10 40 10    	movsd  0x10(%rax),%xmm8
    5b45:	f2 0f 10 40 28       	movsd  0x28(%rax),%xmm0
    5b4a:	f2 44 0f 10 58 20    	movsd  0x20(%rax),%xmm11
    5b50:	f2 41 0f 59 c4       	mulsd  %xmm12,%xmm0
    5b55:	f2 44 0f 59 c4       	mulsd  %xmm4,%xmm8
    5b5a:	f2 45 0f 59 dc       	mulsd  %xmm12,%xmm11
    5b5f:	f2 44 0f 59 60 18    	mulsd  0x18(%rax),%xmm12
    5b65:	f2 44 0f 58 c0       	addsd  %xmm0,%xmm8
    5b6a:	f2 0f 10 40 40       	movsd  0x40(%rax),%xmm0
    5b6f:	f2 0f 59 c5          	mulsd  %xmm5,%xmm0
    5b73:	f2 44 0f 58 c0       	addsd  %xmm0,%xmm8
    5b78:	f2 0f 10 40 08       	movsd  0x8(%rax),%xmm0
    5b7d:	f2 0f 59 c4          	mulsd  %xmm4,%xmm0
    5b81:	f2 0f 59 20          	mulsd  (%rax),%xmm4
    5b85:	f2 41 0f 58 c3       	addsd  %xmm11,%xmm0
    5b8a:	f2 44 0f 10 58 38    	movsd  0x38(%rax),%xmm11
    5b90:	f2 41 0f 58 e4       	addsd  %xmm12,%xmm4
    5b95:	f2 44 0f 59 dd       	mulsd  %xmm5,%xmm11
    5b9a:	f2 0f 59 68 30       	mulsd  0x30(%rax),%xmm5
    5b9f:	f2 44 0f 10 94 24 80 	movsd  0x80(%rsp),%xmm10
    5ba6:	00 00 00 
    5ba9:	f2 44 0f 10 8c 24 88 	movsd  0x88(%rsp),%xmm9
    5bb0:	00 00 00 
    5bb3:	f2 44 0f 10 74 24 60 	movsd  0x60(%rsp),%xmm14
    5bba:	66 45 0f 28 e2       	movapd %xmm10,%xmm12
    5bbf:	f2 0f 10 54 24 58    	movsd  0x58(%rsp),%xmm2
    5bc5:	f2 0f 10 b4 24 90 00 	movsd  0x90(%rsp),%xmm6
    5bcc:	00 00 
    5bce:	48 8b 94 24 98 00 00 	mov    0x98(%rsp),%rdx
    5bd5:	00 
    5bd6:	f2 0f 10 4c 24 50    	movsd  0x50(%rsp),%xmm1
    5bdc:	f2 0f 10 bc 24 a0 00 	movsd  0xa0(%rsp),%xmm7
    5be3:	00 00 
    5be5:	f2 41 0f 58 c3       	addsd  %xmm11,%xmm0
    5bea:	f2 0f 58 ec          	addsd  %xmm4,%xmm5
    5bee:	66 41 0f 28 e1       	movapd %xmm9,%xmm4
    5bf3:	66 0f 10 1a          	movupd (%rdx),%xmm3
    5bf7:	f2 44 0f 59 e0       	mulsd  %xmm0,%xmm12
    5bfc:	f2 0f 59 e5          	mulsd  %xmm5,%xmm4
    5c00:	f2 0f 59 c6          	mulsd  %xmm6,%xmm0
    5c04:	f2 0f 59 f5          	mulsd  %xmm5,%xmm6
    5c08:	f2 44 0f 5c e4       	subsd  %xmm4,%xmm12
    5c0d:	66 41 0f 28 e1       	movapd %xmm9,%xmm4
    5c12:	f2 41 0f 59 e0       	mulsd  %xmm8,%xmm4
    5c17:	f2 45 0f 59 c2       	mulsd  %xmm10,%xmm8
    5c1c:	f2 45 0f 59 e6       	mulsd  %xmm14,%xmm12
    5c21:	66 45 0f 14 f6       	unpcklpd %xmm14,%xmm14
    5c26:	f2 44 0f 58 62 10    	addsd  0x10(%rdx),%xmm12
    5c2c:	f2 0f 5c e0          	subsd  %xmm0,%xmm4
    5c30:	f2 44 0f 5c c6       	subsd  %xmm6,%xmm8
    5c35:	f2 44 0f 11 62 10    	movsd  %xmm12,0x10(%rdx)
    5c3b:	66 44 0f 57 05 bc 5c 	xorpd  0x5cbc(%rip),%xmm8        # b900 <_IO_stdin_used+0x900>
    5c42:	00 00 
    5c44:	66 41 0f 14 e0       	unpcklpd %xmm8,%xmm4
    5c49:	66 41 0f 59 e6       	mulpd  %xmm14,%xmm4
    5c4e:	66 0f 58 e3          	addpd  %xmm3,%xmm4
    5c52:	f2 0f 10 5c 24 40    	movsd  0x40(%rsp),%xmm3
    5c58:	0f 11 22             	movups %xmm4,(%rdx)
    5c5b:	0f 1f 44 00 00       	nopl   0x0(%rax,%rax,1)
    5c60:	48 83 c3 08          	add    $0x8,%rbx
    5c64:	48 39 eb             	cmp    %rbp,%rbx
    5c67:	0f 85 13 fd ff ff    	jne    5980 <_ZL7torqueldddddddjjPPPdddddPPP6tensori.constprop.0+0x770>
    5c6d:	49 83 c6 08          	add    $0x8,%r14
    5c71:	4d 39 f4             	cmp    %r14,%r12
    5c74:	0f 85 f6 fc ff ff    	jne    5970 <_ZL7torqueldddddddjjPPPdddddPPP6tensori.constprop.0+0x760>
    5c7a:	49 89 d7             	mov    %rdx,%r15
    5c7d:	e9 41 f6 ff ff       	jmp    52c3 <_ZL7torqueldddddddjjPPPdddddPPP6tensori.constprop.0+0xb3>
    5c82:	66 0f 2f fb          	comisd %xmm3,%xmm7
    5c86:	0f 82 88 fb ff ff    	jb     5814 <_ZL7torqueldddddddjjPPPdddddPPP6tensori.constprop.0+0x604>
    5c8c:	66 0f 2f d7          	comisd %xmm7,%xmm2
    5c90:	0f 82 7e fb ff ff    	jb     5814 <_ZL7torqueldddddddjjPPPdddddPPP6tensori.constprop.0+0x604>
    5c96:	f2 0f 10 74 24 18    	movsd  0x18(%rsp),%xmm6
    5c9c:	31 d2                	xor    %edx,%edx
    5c9e:	89 d9                	mov    %ebx,%ecx
    5ca0:	66 0f 2f f7          	comisd %xmm7,%xmm6
    5ca4:	0f 83 4e fc ff ff    	jae    58f8 <_ZL7torqueldddddddjjPPPdddddPPP6tensori.constprop.0+0x6e8>
    5caa:	e9 65 fb ff ff       	jmp    5814 <_ZL7torqueldddddddjjPPPdddddPPP6tensori.constprop.0+0x604>
    5caf:	f2 0f 10 74 24 18    	movsd  0x18(%rsp),%xmm6
    5cb5:	66 0f 2f f7          	comisd %xmm7,%xmm6
    5cb9:	0f 82 51 fc ff ff    	jb     5910 <_ZL7torqueldddddddjjPPPdddddPPP6tensori.constprop.0+0x700>
    5cbf:	66 0f ef e4          	pxor   %xmm4,%xmm4
    5cc3:	66 0f 2e f7          	ucomisd %xmm7,%xmm6
    5cc7:	f2 0f 10 2d d9 5b 00 	movsd  0x5bd9(%rip),%xmm5        # b8a8 <_IO_stdin_used+0x8a8>
    5cce:	00 
    5ccf:	f2 0f 10 84 24 d8 00 	movsd  0xd8(%rsp),%xmm0
    5cd6:	00 00 
    5cd8:	f2 48 0f 2a e3       	cvtsi2sd %rbx,%xmm4
    5cdd:	f2 0f 5e ec          	divsd  %xmm4,%xmm5
    5ce1:	7a 06                	jp     5ce9 <_ZL7torqueldddddddjjPPPdddddPPP6tensori.constprop.0+0xad9>
    5ce3:	0f 84 ce 09 00 00    	je     66b7 <_ZL7torqueldddddddjjPPPdddddPPP6tensori.constprop.0+0x14a7>
    5ce9:	f3 0f 7e 35 1f 5c 00 	movq   0x5c1f(%rip),%xmm6        # b910 <_IO_stdin_used+0x910>
    5cf0:	00 
    5cf1:	f2 0f 10 3d a7 5b 00 	movsd  0x5ba7(%rip),%xmm7        # b8a0 <_IO_stdin_used+0x8a0>
    5cf8:	00 
    5cf9:	66 44 0f 28 c6       	movapd %xmm6,%xmm8
    5cfe:	f2 0f 5e c5          	divsd  %xmm5,%xmm0
    5d02:	66 0f 28 e0          	movapd %xmm0,%xmm4
    5d06:	66 0f 54 e6          	andpd  %xmm6,%xmm4
    5d0a:	66 0f 2e fc          	ucomisd %xmm4,%xmm7
    5d0e:	76 3a                	jbe    5d4a <_ZL7torqueldddddddjjPPPdddddPPP6tensori.constprop.0+0xb3a>
    5d10:	f2 48 0f 2c c0       	cvttsd2si %xmm0,%rax
    5d15:	66 0f ef e4          	pxor   %xmm4,%xmm4
    5d19:	66 44 0f 28 c8       	movapd %xmm0,%xmm9
    5d1e:	f2 44 0f 10 15 31 5b 	movsd  0x5b31(%rip),%xmm10        # b858 <_IO_stdin_used+0x858>
    5d25:	00 00 
    5d27:	66 44 0f 55 c0       	andnpd %xmm0,%xmm8
    5d2c:	f2 48 0f 2a e0       	cvtsi2sd %rax,%xmm4
    5d31:	f2 44 0f c2 cc 06    	cmpnlesd %xmm4,%xmm9
    5d37:	66 45 0f 54 ca       	andpd  %xmm10,%xmm9
    5d3c:	f2 41 0f 58 e1       	addsd  %xmm9,%xmm4
    5d41:	66 41 0f 56 e0       	orpd   %xmm8,%xmm4
    5d46:	66 0f 28 c4          	movapd %xmm4,%xmm0
    5d4a:	f2 0f 2c c0          	cvttsd2si %xmm0,%eax
    5d4e:	f2 0f 10 a4 24 e0 00 	movsd  0xe0(%rsp),%xmm4
    5d55:	00 00 
    5d57:	66 0f 28 c6          	movapd %xmm6,%xmm0
    5d5b:	f2 0f 5e e5          	divsd  %xmm5,%xmm4
    5d5f:	66 0f 28 ec          	movapd %xmm4,%xmm5
    5d63:	66 0f 54 ee          	andpd  %xmm6,%xmm5
    5d67:	66 0f 2e fd          	ucomisd %xmm5,%xmm7
    5d6b:	76 33                	jbe    5da0 <_ZL7torqueldddddddjjPPPdddddPPP6tensori.constprop.0+0xb90>
    5d6d:	f2 48 0f 2c d4       	cvttsd2si %xmm4,%rdx
    5d72:	66 0f ef ed          	pxor   %xmm5,%xmm5
    5d76:	f2 0f 10 3d da 5a 00 	movsd  0x5ada(%rip),%xmm7        # b858 <_IO_stdin_used+0x858>
    5d7d:	00 
    5d7e:	66 0f 55 c4          	andnpd %xmm4,%xmm0
    5d82:	f2 48 0f 2a ea       	cvtsi2sd %rdx,%xmm5
    5d87:	66 0f 28 f5          	movapd %xmm5,%xmm6
    5d8b:	f2 0f c2 f4 06       	cmpnlesd %xmm4,%xmm6
    5d90:	66 0f 54 f7          	andpd  %xmm7,%xmm6
    5d94:	f2 0f 5c ee          	subsd  %xmm6,%xmm5
    5d98:	66 0f 56 e8          	orpd   %xmm0,%xmm5
    5d9c:	66 0f 28 e5          	movapd %xmm5,%xmm4
    5da0:	f2 44 0f 2c d4       	cvttsd2si %xmm4,%r10d
    5da5:	44 39 6c 24 38       	cmp    %r13d,0x38(%rsp)
    5daa:	0f 86 13 f5 ff ff    	jbe    52c3 <_ZL7torqueldddddddjjPPPdddddPPP6tensori.constprop.0+0xb3>
    5db0:	8b 54 24 38          	mov    0x38(%rsp),%edx
    5db4:	48 8b 74 24 40       	mov    0x40(%rsp),%rsi
    5db9:	44 89 e9             	mov    %r13d,%ecx
    5dbc:	44 89 d7             	mov    %r10d,%edi
    5dbf:	f2 0f 10 6c 24 18    	movsd  0x18(%rsp),%xmm5
    5dc5:	f2 0f 10 74 24 10    	movsd  0x10(%rsp),%xmm6
    5dcb:	83 ea 01             	sub    $0x1,%edx
    5dce:	4c 8d 34 ce          	lea    (%rsi,%rcx,8),%r14
    5dd2:	44 29 ea             	sub    %r13d,%edx
    5dd5:	48 01 ca             	add    %rcx,%rdx
    5dd8:	41 8d 4c 24 ff       	lea    -0x1(%r12),%ecx
    5ddd:	4c 8d 44 d6 08       	lea    0x8(%rsi,%rdx,8),%r8
    5de2:	44 29 d1             	sub    %r10d,%ecx
    5de5:	8d 70 ff             	lea    -0x1(%rax),%esi
    5de8:	4c 8d 2c f5 08 00 00 	lea    0x8(,%rsi,8),%r13
    5def:	00 
    5df0:	48 8d 4c 0f 01       	lea    0x1(%rdi,%rcx,1),%rcx
    5df5:	4c 8d 0c cd 00 00 00 	lea    0x0(,%rcx,8),%r9
    5dfc:	00 
    5dfd:	4c 89 ee             	mov    %r13,%rsi
    5e00:	4c 89 f9             	mov    %r15,%rcx
    5e03:	41 89 c5             	mov    %eax,%r13d
    5e06:	48 8d 14 fd 00 00 00 	lea    0x0(,%rdi,8),%rdx
    5e0d:	00 
    5e0e:	44 89 e0             	mov    %r12d,%eax
    5e11:	45 89 d7             	mov    %r10d,%r15d
    5e14:	4d 89 c4             	mov    %r8,%r12
    5e17:	66 0f 1f 84 00 00 00 	nopw   0x0(%rax,%rax,1)
    5e1e:	00 00 
    5e20:	45 85 ed             	test   %r13d,%r13d
    5e23:	0f 84 5c 03 00 00    	je     6185 <_ZL7torqueldddddddjjPPPdddddPPP6tensori.constprop.0+0xf75>
    5e29:	49 8b 1e             	mov    (%r14),%rbx
    5e2c:	48 8d 2c 1e          	lea    (%rsi,%rbx,1),%rbp
    5e30:	48 8b 3b             	mov    (%rbx),%rdi
    5e33:	f2 0f 10 07          	movsd  (%rdi),%xmm0
    5e37:	66 0f 2f c1          	comisd %xmm1,%xmm0
    5e3b:	0f 82 37 03 00 00    	jb     6178 <_ZL7torqueldddddddjjPPPdddddPPP6tensori.constprop.0+0xf68>
    5e41:	66 0f 2f d0          	comisd %xmm0,%xmm2
    5e45:	0f 82 2d 03 00 00    	jb     6178 <_ZL7torqueldddddddjjPPPdddddPPP6tensori.constprop.0+0xf68>
    5e4b:	f2 0f 10 67 08       	movsd  0x8(%rdi),%xmm4
    5e50:	66 0f 2f e3          	comisd %xmm3,%xmm4
    5e54:	0f 82 1e 03 00 00    	jb     6178 <_ZL7torqueldddddddjjPPPdddddPPP6tensori.constprop.0+0xf68>
    5e5a:	66 0f 2f ec          	comisd %xmm4,%xmm5
    5e5e:	0f 82 14 03 00 00    	jb     6178 <_ZL7torqueldddddddjjPPPdddddPPP6tensori.constprop.0+0xf68>
    5e64:	f2 0f 10 7f 10       	movsd  0x10(%rdi),%xmm7
    5e69:	66 0f 2f fe          	comisd %xmm6,%xmm7
    5e6d:	0f 82 05 03 00 00    	jb     6178 <_ZL7torqueldddddddjjPPPdddddPPP6tensori.constprop.0+0xf68>
    5e73:	f2 44 0f 10 2c 24    	movsd  (%rsp),%xmm13
    5e79:	66 44 0f 2f ef       	comisd %xmm7,%xmm13
    5e7e:	0f 82 f4 02 00 00    	jb     6178 <_ZL7torqueldddddddjjPPPdddddPPP6tensori.constprop.0+0xf68>
    5e84:	f2 44 0f 10 94 24 40 	movsd  0x140(%rsp),%xmm10
    5e8b:	01 00 00 
    5e8e:	f2 0f 11 5c 24 20    	movsd  %xmm3,0x20(%rsp)
    5e94:	f2 0f 10 5c 24 08    	movsd  0x8(%rsp),%xmm3
    5e9a:	66 45 0f ef ed       	pxor   %xmm13,%xmm13
    5e9f:	f2 44 0f 10 8c 24 48 	movsd  0x148(%rsp),%xmm9
    5ea6:	01 00 00 
    5ea9:	f2 44 0f 10 44 24 28 	movsd  0x28(%rsp),%xmm8
    5eb0:	f2 44 0f 2a ac 24 b8 	cvtsi2sdl 0xb8(%rsp),%xmm13
    5eb7:	00 00 00 
    5eba:	4c 89 8c 24 c8 00 00 	mov    %r9,0xc8(%rsp)
    5ec1:	00 
    5ec2:	f2 44 0f 58 d4       	addsd  %xmm4,%xmm10
    5ec7:	f2 0f 5e e3          	divsd  %xmm3,%xmm4
    5ecb:	f2 44 0f 10 5f 18    	movsd  0x18(%rdi),%xmm11
    5ed1:	48 89 b4 24 c0 00 00 	mov    %rsi,0xc0(%rsp)
    5ed8:	00 
    5ed9:	f2 44 0f 58 cf       	addsd  %xmm7,%xmm9
    5ede:	f2 44 0f 58 c0       	addsd  %xmm0,%xmm8
    5ee3:	89 84 24 bc 00 00 00 	mov    %eax,0xbc(%rsp)
    5eea:	48 89 8c 24 a0 00 00 	mov    %rcx,0xa0(%rsp)
    5ef1:	00 
    5ef2:	48 89 94 24 98 00 00 	mov    %rdx,0x98(%rsp)
    5ef9:	00 
    5efa:	f2 0f 11 ac 24 a8 00 	movsd  %xmm5,0xa8(%rsp)
    5f01:	00 00 
    5f03:	f2 44 0f 11 8c 24 90 	movsd  %xmm9,0x90(%rsp)
    5f0a:	00 00 00 
    5f0d:	f2 44 0f 11 94 24 88 	movsd  %xmm10,0x88(%rsp)
    5f14:	00 00 00 
    5f17:	f2 44 0f 11 84 24 80 	movsd  %xmm8,0x80(%rsp)
    5f1e:	00 00 00 
    5f21:	f2 44 0f 11 5c 24 60 	movsd  %xmm11,0x60(%rsp)
    5f28:	f2 0f 11 54 24 58    	movsd  %xmm2,0x58(%rsp)
    5f2e:	f2 0f 11 4c 24 50    	movsd  %xmm1,0x50(%rsp)
    5f34:	f2 44 0f 11 6c 24 18 	movsd  %xmm13,0x18(%rsp)
    5f3b:	f2 0f 11 b4 24 b0 00 	movsd  %xmm6,0xb0(%rsp)
    5f42:	00 00 
    5f44:	f2 0f 5e fb          	divsd  %xmm3,%xmm7
    5f48:	f2 0f 11 64 24 70    	movsd  %xmm4,0x70(%rsp)
    5f4e:	66 0f 28 e0          	movapd %xmm0,%xmm4
    5f52:	66 0f 28 c1          	movapd %xmm1,%xmm0
    5f56:	f2 0f 5e e3          	divsd  %xmm3,%xmm4
    5f5a:	66 0f 28 da          	movapd %xmm2,%xmm3
    5f5e:	f2 0f 5c d9          	subsd  %xmm1,%xmm3
    5f62:	f2 0f 11 5c 24 10    	movsd  %xmm3,0x10(%rsp)
    5f68:	f2 0f 11 7c 24 78    	movsd  %xmm7,0x78(%rsp)
    5f6e:	f2 0f 5e c3          	divsd  %xmm3,%xmm0
    5f72:	f2 0f 11 64 24 68    	movsd  %xmm4,0x68(%rsp)
    5f78:	f2 41 0f 58 c5       	addsd  %xmm13,%xmm0
    5f7d:	e8 de c4 ff ff       	call   2460 <round@plt>
    5f82:	f2 0f 10 5c 24 20    	movsd  0x20(%rsp),%xmm3
    5f88:	f2 0f 11 44 24 48    	movsd  %xmm0,0x48(%rsp)
    5f8e:	66 0f 28 c3          	movapd %xmm3,%xmm0
    5f92:	f2 0f 5e 44 24 10    	divsd  0x10(%rsp),%xmm0
    5f98:	f2 0f 58 44 24 18    	addsd  0x18(%rsp),%xmm0
    5f9e:	f2 0f 11 5c 24 40    	movsd  %xmm3,0x40(%rsp)
    5fa4:	e8 b7 c4 ff ff       	call   2460 <round@plt>
    5fa9:	f2 0f 10 b4 24 b0 00 	movsd  0xb0(%rsp),%xmm6
    5fb0:	00 00 
    5fb2:	f2 0f 11 44 24 38    	movsd  %xmm0,0x38(%rsp)
    5fb8:	66 0f 28 c6          	movapd %xmm6,%xmm0
    5fbc:	f2 0f 5e 44 24 10    	divsd  0x10(%rsp),%xmm0
    5fc2:	f2 0f 58 44 24 18    	addsd  0x18(%rsp),%xmm0
    5fc8:	f2 0f 11 74 24 20    	movsd  %xmm6,0x20(%rsp)
    5fce:	e8 8d c4 ff ff       	call   2460 <round@plt>
    5fd3:	48 8b 44 24 30       	mov    0x30(%rsp),%rax
    5fd8:	f2 44 0f 10 74 24 48 	movsd  0x48(%rsp),%xmm14
    5fdf:	f2 44 0f 10 6c 24 38 	movsd  0x38(%rsp),%xmm13
    5fe6:	f2 44 0f 10 64 24 70 	movsd  0x70(%rsp),%xmm12
    5fed:	f2 41 0f 2c fe       	cvttsd2si %xmm14,%edi
    5ff2:	f2 0f 10 64 24 68    	movsd  0x68(%rsp),%xmm4
    5ff8:	f2 0f 10 7c 24 78    	movsd  0x78(%rsp),%xmm7
    5ffe:	f2 45 0f 2c c5       	cvttsd2si %xmm13,%r8d
    6003:	48 63 ff             	movslq %edi,%rdi
    6006:	4c 8b 14 f8          	mov    (%rax,%rdi,8),%r10
    600a:	f2 0f 2c f8          	cvttsd2si %xmm0,%edi
    600e:	4d 63 c0             	movslq %r8d,%r8
    6011:	4f 8b 04 c2          	mov    (%r10,%r8,8),%r8
    6015:	48 63 ff             	movslq %edi,%rdi
    6018:	48 8d 3c ff          	lea    (%rdi,%rdi,8),%rdi
    601c:	49 8d 3c f8          	lea    (%r8,%rdi,8),%rdi
    6020:	f2 44 0f 10 6f 10    	movsd  0x10(%rdi),%xmm13
    6026:	f2 0f 10 47 28       	movsd  0x28(%rdi),%xmm0
    602b:	f2 44 0f 10 77 08    	movsd  0x8(%rdi),%xmm14
    6031:	f2 41 0f 59 c4       	mulsd  %xmm12,%xmm0
    6036:	f2 44 0f 59 ec       	mulsd  %xmm4,%xmm13
    603b:	f2 44 0f 59 f4       	mulsd  %xmm4,%xmm14
    6040:	f2 0f 59 27          	mulsd  (%rdi),%xmm4
    6044:	f2 44 0f 58 e8       	addsd  %xmm0,%xmm13
    6049:	f2 0f 10 47 40       	movsd  0x40(%rdi),%xmm0
    604e:	f2 0f 59 c7          	mulsd  %xmm7,%xmm0
    6052:	f2 44 0f 58 e8       	addsd  %xmm0,%xmm13
    6057:	f2 0f 10 47 20       	movsd  0x20(%rdi),%xmm0
    605c:	f2 41 0f 59 c4       	mulsd  %xmm12,%xmm0
    6061:	f2 44 0f 58 f0       	addsd  %xmm0,%xmm14
    6066:	f2 0f 10 47 38       	movsd  0x38(%rdi),%xmm0
    606b:	f2 0f 59 c7          	mulsd  %xmm7,%xmm0
    606f:	f2 0f 59 7f 30       	mulsd  0x30(%rdi),%xmm7
    6074:	f2 44 0f 58 f0       	addsd  %xmm0,%xmm14
    6079:	66 0f 28 c4          	movapd %xmm4,%xmm0
    607d:	f2 0f 10 67 18       	movsd  0x18(%rdi),%xmm4
    6082:	f2 44 0f 10 84 24 80 	movsd  0x80(%rsp),%xmm8
    6089:	00 00 00 
    608c:	f2 44 0f 10 94 24 88 	movsd  0x88(%rsp),%xmm10
    6093:	00 00 00 
    6096:	f2 44 0f 10 5c 24 60 	movsd  0x60(%rsp),%xmm11
    609d:	f2 41 0f 59 e4       	mulsd  %xmm12,%xmm4
    60a2:	66 45 0f 28 e0       	movapd %xmm8,%xmm12
    60a7:	f2 44 0f 10 8c 24 90 	movsd  0x90(%rsp),%xmm9
    60ae:	00 00 00 
    60b1:	48 8b 8c 24 a0 00 00 	mov    0xa0(%rsp),%rcx
    60b8:	00 
    60b9:	f2 45 0f 59 e6       	mulsd  %xmm14,%xmm12
    60be:	4c 8b 8c 24 c8 00 00 	mov    0xc8(%rsp),%r9
    60c5:	00 
    60c6:	48 8b b4 24 c0 00 00 	mov    0xc0(%rsp),%rsi
    60cd:	00 
    60ce:	f2 45 0f 59 f1       	mulsd  %xmm9,%xmm14
    60d3:	66 0f 10 19          	movupd (%rcx),%xmm3
    60d7:	8b 84 24 bc 00 00 00 	mov    0xbc(%rsp),%eax
    60de:	f2 0f 10 ac 24 a8 00 	movsd  0xa8(%rsp),%xmm5
    60e5:	00 00 
    60e7:	48 8b 94 24 98 00 00 	mov    0x98(%rsp),%rdx
    60ee:	00 
    60ef:	f2 0f 10 54 24 58    	movsd  0x58(%rsp),%xmm2
    60f5:	f2 0f 10 4c 24 50    	movsd  0x50(%rsp),%xmm1
    60fb:	f2 0f 58 c4          	addsd  %xmm4,%xmm0
    60ff:	66 41 0f 28 e2       	movapd %xmm10,%xmm4
    6104:	f2 0f 10 74 24 20    	movsd  0x20(%rsp),%xmm6
    610a:	f2 0f 58 c7          	addsd  %xmm7,%xmm0
    610e:	66 41 0f 28 f8       	movapd %xmm8,%xmm7
    6113:	f2 41 0f 59 fd       	mulsd  %xmm13,%xmm7
    6118:	f2 0f 59 e0          	mulsd  %xmm0,%xmm4
    611c:	f2 44 0f 59 c8       	mulsd  %xmm0,%xmm9
    6121:	f2 44 0f 5c e4       	subsd  %xmm4,%xmm12
    6126:	66 41 0f 28 e2       	movapd %xmm10,%xmm4
    612b:	f2 41 0f 59 e5       	mulsd  %xmm13,%xmm4
    6130:	f2 41 0f 5c f9       	subsd  %xmm9,%xmm7
    6135:	66 0f 57 3d c3 57 00 	xorpd  0x57c3(%rip),%xmm7        # b900 <_IO_stdin_used+0x900>
    613c:	00 
    613d:	f2 45 0f 59 e3       	mulsd  %xmm11,%xmm12
    6142:	66 45 0f 14 db       	unpcklpd %xmm11,%xmm11
    6147:	f2 44 0f 58 61 10    	addsd  0x10(%rcx),%xmm12
    614d:	f2 41 0f 5c e6       	subsd  %xmm14,%xmm4
    6152:	f2 44 0f 11 61 10    	movsd  %xmm12,0x10(%rcx)
    6158:	66 0f 28 c4          	movapd %xmm4,%xmm0
    615c:	66 0f 14 c7          	unpcklpd %xmm7,%xmm0
    6160:	66 41 0f 59 c3       	mulpd  %xmm11,%xmm0
    6165:	66 0f 58 c3          	addpd  %xmm3,%xmm0
    6169:	f2 0f 10 5c 24 40    	movsd  0x40(%rsp),%xmm3
    616f:	0f 11 01             	movups %xmm0,(%rcx)
    6172:	66 0f 1f 44 00 00    	nopw   0x0(%rax,%rax,1)
    6178:	48 83 c3 08          	add    $0x8,%rbx
    617c:	48 39 dd             	cmp    %rbx,%rbp
    617f:	0f 85 ab fc ff ff    	jne    5e30 <_ZL7torqueldddddddjjPPPdddddPPP6tensori.constprop.0+0xc20>
    6185:	44 39 f8             	cmp    %r15d,%eax
    6188:	0f 86 67 03 00 00    	jbe    64f5 <_ZL7torqueldddddddjjPPPdddddPPP6tensori.constprop.0+0x12e5>
    618e:	49 8b 2e             	mov    (%r14),%rbp
    6191:	48 8d 5c 15 00       	lea    0x0(%rbp,%rdx,1),%rbx
    6196:	4c 01 cd             	add    %r9,%rbp
    6199:	0f 1f 80 00 00 00 00 	nopl   0x0(%rax)
    61a0:	48 8b 3b             	mov    (%rbx),%rdi
    61a3:	f2 0f 10 07          	movsd  (%rdi),%xmm0
    61a7:	66 0f 2f c1          	comisd %xmm1,%xmm0
    61ab:	0f 82 37 03 00 00    	jb     64e8 <_ZL7torqueldddddddjjPPPdddddPPP6tensori.constprop.0+0x12d8>
    61b1:	66 0f 2f d0          	comisd %xmm0,%xmm2
    61b5:	0f 82 2d 03 00 00    	jb     64e8 <_ZL7torqueldddddddjjPPPdddddPPP6tensori.constprop.0+0x12d8>
    61bb:	f2 0f 10 67 08       	movsd  0x8(%rdi),%xmm4
    61c0:	66 0f 2f e3          	comisd %xmm3,%xmm4
    61c4:	0f 82 1e 03 00 00    	jb     64e8 <_ZL7torqueldddddddjjPPPdddddPPP6tensori.constprop.0+0x12d8>
    61ca:	66 0f 2f ec          	comisd %xmm4,%xmm5
    61ce:	0f 82 14 03 00 00    	jb     64e8 <_ZL7torqueldddddddjjPPPdddddPPP6tensori.constprop.0+0x12d8>
    61d4:	f2 0f 10 7f 10       	movsd  0x10(%rdi),%xmm7
    61d9:	66 0f 2f fe          	comisd %xmm6,%xmm7
    61dd:	0f 82 05 03 00 00    	jb     64e8 <_ZL7torqueldddddddjjPPPdddddPPP6tensori.constprop.0+0x12d8>
    61e3:	f2 44 0f 10 2c 24    	movsd  (%rsp),%xmm13
    61e9:	66 44 0f 2f ef       	comisd %xmm7,%xmm13
    61ee:	0f 82 f4 02 00 00    	jb     64e8 <_ZL7torqueldddddddjjPPPdddddPPP6tensori.constprop.0+0x12d8>
    61f4:	f2 44 0f 10 94 24 40 	movsd  0x140(%rsp),%xmm10
    61fb:	01 00 00 
    61fe:	f2 0f 11 5c 24 20    	movsd  %xmm3,0x20(%rsp)
    6204:	f2 0f 10 5c 24 08    	movsd  0x8(%rsp),%xmm3
    620a:	66 45 0f ef ed       	pxor   %xmm13,%xmm13
    620f:	f2 44 0f 10 8c 24 48 	movsd  0x148(%rsp),%xmm9
    6216:	01 00 00 
    6219:	f2 44 0f 10 44 24 28 	movsd  0x28(%rsp),%xmm8
    6220:	f2 44 0f 2a ac 24 b8 	cvtsi2sdl 0xb8(%rsp),%xmm13
    6227:	00 00 00 
    622a:	4c 89 8c 24 c8 00 00 	mov    %r9,0xc8(%rsp)
    6231:	00 
    6232:	f2 44 0f 58 d4       	addsd  %xmm4,%xmm10
    6237:	f2 0f 5e e3          	divsd  %xmm3,%xmm4
    623b:	f2 44 0f 10 5f 18    	movsd  0x18(%rdi),%xmm11
    6241:	48 89 b4 24 c0 00 00 	mov    %rsi,0xc0(%rsp)
    6248:	00 
    6249:	f2 44 0f 58 cf       	addsd  %xmm7,%xmm9
    624e:	f2 44 0f 58 c0       	addsd  %xmm0,%xmm8
    6253:	89 84 24 bc 00 00 00 	mov    %eax,0xbc(%rsp)
    625a:	48 89 8c 24 a0 00 00 	mov    %rcx,0xa0(%rsp)
    6261:	00 
    6262:	48 89 94 24 98 00 00 	mov    %rdx,0x98(%rsp)
    6269:	00 
    626a:	f2 0f 11 ac 24 a8 00 	movsd  %xmm5,0xa8(%rsp)
    6271:	00 00 
    6273:	f2 44 0f 11 8c 24 90 	movsd  %xmm9,0x90(%rsp)
    627a:	00 00 00 
    627d:	f2 44 0f 11 94 24 88 	movsd  %xmm10,0x88(%rsp)
    6284:	00 00 00 
    6287:	f2 44 0f 11 84 24 80 	movsd  %xmm8,0x80(%rsp)
    628e:	00 00 00 
    6291:	f2 44 0f 11 5c 24 60 	movsd  %xmm11,0x60(%rsp)
    6298:	f2 0f 11 54 24 58    	movsd  %xmm2,0x58(%rsp)
    629e:	f2 0f 11 4c 24 50    	movsd  %xmm1,0x50(%rsp)
    62a4:	f2 44 0f 11 6c 24 18 	movsd  %xmm13,0x18(%rsp)
    62ab:	f2 0f 11 b4 24 b0 00 	movsd  %xmm6,0xb0(%rsp)
    62b2:	00 00 
    62b4:	f2 0f 5e fb          	divsd  %xmm3,%xmm7
    62b8:	f2 0f 11 64 24 70    	movsd  %xmm4,0x70(%rsp)
    62be:	66 0f 28 e0          	movapd %xmm0,%xmm4
    62c2:	66 0f 28 c1          	movapd %xmm1,%xmm0
    62c6:	f2 0f 5e e3          	divsd  %xmm3,%xmm4
    62ca:	66 0f 28 da          	movapd %xmm2,%xmm3
    62ce:	f2 0f 5c d9          	subsd  %xmm1,%xmm3
    62d2:	f2 0f 11 5c 24 10    	movsd  %xmm3,0x10(%rsp)
    62d8:	f2 0f 11 7c 24 78    	movsd  %xmm7,0x78(%rsp)
    62de:	f2 0f 5e c3          	divsd  %xmm3,%xmm0
    62e2:	f2 0f 11 64 24 68    	movsd  %xmm4,0x68(%rsp)
    62e8:	f2 41 0f 58 c5       	addsd  %xmm13,%xmm0
    62ed:	e8 6e c1 ff ff       	call   2460 <round@plt>
    62f2:	f2 0f 10 5c 24 20    	movsd  0x20(%rsp),%xmm3
    62f8:	f2 0f 11 44 24 48    	movsd  %xmm0,0x48(%rsp)
    62fe:	66 0f 28 c3          	movapd %xmm3,%xmm0
    6302:	f2 0f 5e 44 24 10    	divsd  0x10(%rsp),%xmm0
    6308:	f2 0f 58 44 24 18    	addsd  0x18(%rsp),%xmm0
    630e:	f2 0f 11 5c 24 40    	movsd  %xmm3,0x40(%rsp)
    6314:	e8 47 c1 ff ff       	call   2460 <round@plt>
    6319:	f2 0f 10 b4 24 b0 00 	movsd  0xb0(%rsp),%xmm6
    6320:	00 00 
    6322:	f2 0f 11 44 24 38    	movsd  %xmm0,0x38(%rsp)
    6328:	66 0f 28 c6          	movapd %xmm6,%xmm0
    632c:	f2 0f 5e 44 24 10    	divsd  0x10(%rsp),%xmm0
    6332:	f2 0f 58 44 24 18    	addsd  0x18(%rsp),%xmm0
    6338:	f2 0f 11 74 24 20    	movsd  %xmm6,0x20(%rsp)
    633e:	e8 1d c1 ff ff       	call   2460 <round@plt>
    6343:	48 8b 44 24 30       	mov    0x30(%rsp),%rax
    6348:	f2 44 0f 10 74 24 48 	movsd  0x48(%rsp),%xmm14
    634f:	f2 44 0f 10 6c 24 38 	movsd  0x38(%rsp),%xmm13
    6356:	f2 44 0f 10 64 24 70 	movsd  0x70(%rsp),%xmm12
    635d:	f2 41 0f 2c fe       	cvttsd2si %xmm14,%edi
    6362:	f2 0f 10 64 24 68    	movsd  0x68(%rsp),%xmm4
    6368:	f2 0f 10 7c 24 78    	movsd  0x78(%rsp),%xmm7
    636e:	f2 45 0f 2c c5       	cvttsd2si %xmm13,%r8d
    6373:	48 63 ff             	movslq %edi,%rdi
    6376:	4c 8b 14 f8          	mov    (%rax,%rdi,8),%r10
    637a:	f2 0f 2c f8          	cvttsd2si %xmm0,%edi
    637e:	4d 63 c0             	movslq %r8d,%r8
    6381:	4f 8b 04 c2          	mov    (%r10,%r8,8),%r8
    6385:	48 63 ff             	movslq %edi,%rdi
    6388:	48 8d 3c ff          	lea    (%rdi,%rdi,8),%rdi
    638c:	49 8d 3c f8          	lea    (%r8,%rdi,8),%rdi
    6390:	f2 44 0f 10 6f 10    	movsd  0x10(%rdi),%xmm13
    6396:	f2 0f 10 47 28       	movsd  0x28(%rdi),%xmm0
    639b:	f2 44 0f 10 77 08    	movsd  0x8(%rdi),%xmm14
    63a1:	f2 41 0f 59 c4       	mulsd  %xmm12,%xmm0
    63a6:	f2 44 0f 59 ec       	mulsd  %xmm4,%xmm13
    63ab:	f2 44 0f 59 f4       	mulsd  %xmm4,%xmm14
    63b0:	f2 0f 59 27          	mulsd  (%rdi),%xmm4
    63b4:	f2 44 0f 58 e8       	addsd  %xmm0,%xmm13
    63b9:	f2 0f 10 47 40       	movsd  0x40(%rdi),%xmm0
    63be:	f2 0f 59 c7          	mulsd  %xmm7,%xmm0
    63c2:	f2 44 0f 58 e8       	addsd  %xmm0,%xmm13
    63c7:	f2 0f 10 47 20       	movsd  0x20(%rdi),%xmm0
    63cc:	f2 41 0f 59 c4       	mulsd  %xmm12,%xmm0
    63d1:	f2 44 0f 58 f0       	addsd  %xmm0,%xmm14
    63d6:	f2 0f 10 47 38       	movsd  0x38(%rdi),%xmm0
    63db:	f2 0f 59 c7          	mulsd  %xmm7,%xmm0
    63df:	f2 0f 59 7f 30       	mulsd  0x30(%rdi),%xmm7
    63e4:	f2 44 0f 58 f0       	addsd  %xmm0,%xmm14
    63e9:	66 0f 28 c4          	movapd %xmm4,%xmm0
    63ed:	f2 0f 10 67 18       	movsd  0x18(%rdi),%xmm4
    63f2:	f2 44 0f 10 84 24 80 	movsd  0x80(%rsp),%xmm8
    63f9:	00 00 00 
    63fc:	f2 44 0f 10 94 24 88 	movsd  0x88(%rsp),%xmm10
    6403:	00 00 00 
    6406:	f2 44 0f 10 5c 24 60 	movsd  0x60(%rsp),%xmm11
    640d:	f2 41 0f 59 e4       	mulsd  %xmm12,%xmm4
    6412:	66 45 0f 28 e0       	movapd %xmm8,%xmm12
    6417:	f2 44 0f 10 8c 24 90 	movsd  0x90(%rsp),%xmm9
    641e:	00 00 00 
    6421:	48 8b 8c 24 a0 00 00 	mov    0xa0(%rsp),%rcx
    6428:	00 
    6429:	f2 45 0f 59 e6       	mulsd  %xmm14,%xmm12
    642e:	4c 8b 8c 24 c8 00 00 	mov    0xc8(%rsp),%r9
    6435:	00 
    6436:	48 8b b4 24 c0 00 00 	mov    0xc0(%rsp),%rsi
    643d:	00 
    643e:	f2 45 0f 59 f1       	mulsd  %xmm9,%xmm14
    6443:	66 0f 10 19          	movupd (%rcx),%xmm3
    6447:	8b 84 24 bc 00 00 00 	mov    0xbc(%rsp),%eax
    644e:	f2 0f 10 ac 24 a8 00 	movsd  0xa8(%rsp),%xmm5
    6455:	00 00 
    6457:	48 8b 94 24 98 00 00 	mov    0x98(%rsp),%rdx
    645e:	00 
    645f:	f2 0f 10 54 24 58    	movsd  0x58(%rsp),%xmm2
    6465:	f2 0f 10 4c 24 50    	movsd  0x50(%rsp),%xmm1
    646b:	f2 0f 58 c4          	addsd  %xmm4,%xmm0
    646f:	66 41 0f 28 e2       	movapd %xmm10,%xmm4
    6474:	f2 0f 10 74 24 20    	movsd  0x20(%rsp),%xmm6
    647a:	f2 0f 58 c7          	addsd  %xmm7,%xmm0
    647e:	66 41 0f 28 f8       	movapd %xmm8,%xmm7
    6483:	f2 41 0f 59 fd       	mulsd  %xmm13,%xmm7
    6488:	f2 0f 59 e0          	mulsd  %xmm0,%xmm4
    648c:	f2 44 0f 59 c8       	mulsd  %xmm0,%xmm9
    6491:	f2 44 0f 5c e4       	subsd  %xmm4,%xmm12
    6496:	66 41 0f 28 e2       	movapd %xmm10,%xmm4
    649b:	f2 41 0f 59 e5       	mulsd  %xmm13,%xmm4
    64a0:	f2 41 0f 5c f9       	subsd  %xmm9,%xmm7
    64a5:	66 0f 57 3d 53 54 00 	xorpd  0x5453(%rip),%xmm7        # b900 <_IO_stdin_used+0x900>
    64ac:	00 
    64ad:	f2 45 0f 59 e3       	mulsd  %xmm11,%xmm12
    64b2:	66 45 0f 14 db       	unpcklpd %xmm11,%xmm11
    64b7:	f2 44 0f 58 61 10    	addsd  0x10(%rcx),%xmm12
    64bd:	f2 41 0f 5c e6       	subsd  %xmm14,%xmm4
    64c2:	f2 44 0f 11 61 10    	movsd  %xmm12,0x10(%rcx)
    64c8:	66 0f 28 c4          	movapd %xmm4,%xmm0
    64cc:	66 0f 14 c7          	unpcklpd %xmm7,%xmm0
    64d0:	66 41 0f 59 c3       	mulpd  %xmm11,%xmm0
    64d5:	66 0f 58 c3          	addpd  %xmm3,%xmm0
    64d9:	f2 0f 10 5c 24 40    	movsd  0x40(%rsp),%xmm3
    64df:	0f 11 01             	movups %xmm0,(%rcx)
    64e2:	66 0f 1f 44 00 00    	nopw   0x0(%rax,%rax,1)
    64e8:	48 83 c3 08          	add    $0x8,%rbx
    64ec:	48 39 dd             	cmp    %rbx,%rbp
    64ef:	0f 85 ab fc ff ff    	jne    61a0 <_ZL7torqueldddddddjjPPPdddddPPP6tensori.constprop.0+0xf90>
    64f5:	49 83 c6 08          	add    $0x8,%r14
    64f9:	4d 39 f4             	cmp    %r14,%r12
    64fc:	0f 85 1e f9 ff ff    	jne    5e20 <_ZL7torqueldddddddjjPPPdddddPPP6tensori.constprop.0+0xc10>
    6502:	49 89 cf             	mov    %rcx,%r15
    6505:	e9 b9 ed ff ff       	jmp    52c3 <_ZL7torqueldddddddjjPPPdddddPPP6tensori.constprop.0+0xb3>
    650a:	66 0f 2f 7c 24 18    	comisd 0x18(%rsp),%xmm7
    6510:	f2 0f 10 05 78 53 00 	movsd  0x5378(%rip),%xmm0        # b890 <_IO_stdin_used+0x890>
    6517:	00 
    6518:	0f 87 ef f1 ff ff    	ja     570d <_ZL7torqueldddddddjjPPPdddddPPP6tensori.constprop.0+0x4fd>
    651e:	66 0f ef c0          	pxor   %xmm0,%xmm0
    6522:	e9 e6 f1 ff ff       	jmp    570d <_ZL7torqueldddddddjjPPPdddddPPP6tensori.constprop.0+0x4fd>
    6527:	66 0f 2f d6          	comisd %xmm6,%xmm2
    652b:	0f 86 1b 01 00 00    	jbe    664c <_ZL7torqueldddddddjjPPPdddddPPP6tensori.constprop.0+0x143c>
    6531:	f2 0f 58 05 6f 53 00 	addsd  0x536f(%rip),%xmm0        # b8a8 <_IO_stdin_used+0x8a8>
    6538:	00 
    6539:	f2 0f 11 84 24 e0 00 	movsd  %xmm0,0xe0(%rsp)
    6540:	00 00 
    6542:	f2 0f 10 44 24 18    	movsd  0x18(%rsp),%xmm0
    6548:	f2 0f 11 5c 24 50    	movsd  %xmm3,0x50(%rsp)
    654e:	f2 0f 5e c2          	divsd  %xmm2,%xmm0
    6552:	f2 0f 11 4c 24 48    	movsd  %xmm1,0x48(%rsp)
    6558:	f2 0f 11 54 24 20    	movsd  %xmm2,0x20(%rsp)
    655e:	e8 dd bf ff ff       	call   2540 <atan@plt>
    6563:	66 0f ef d2          	pxor   %xmm2,%xmm2
    6567:	66 0f 2f 54 24 18    	comisd 0x18(%rsp),%xmm2
    656d:	f2 0f 10 4c 24 48    	movsd  0x48(%rsp),%xmm1
    6573:	f2 0f 10 54 24 20    	movsd  0x20(%rsp),%xmm2
    6579:	f2 0f 10 5c 24 50    	movsd  0x50(%rsp),%xmm3
    657f:	0f 86 7f ee ff ff    	jbe    5404 <_ZL7torqueldddddddjjPPPdddddPPP6tensori.constprop.0+0x1f4>
    6585:	f2 0f 58 05 1b 53 00 	addsd  0x531b(%rip),%xmm0        # b8a8 <_IO_stdin_used+0x8a8>
    658c:	00 
    658d:	e9 7b f1 ff ff       	jmp    570d <_ZL7torqueldddddddjjPPPdddddPPP6tensori.constprop.0+0x4fd>
    6592:	66 0f 2f 7c 24 18    	comisd 0x18(%rsp),%xmm7
    6598:	f2 0f 10 05 f0 52 00 	movsd  0x52f0(%rip),%xmm0        # b890 <_IO_stdin_used+0x890>
    659f:	00 
    65a0:	0f 87 a6 ed ff ff    	ja     534c <_ZL7torqueldddddddjjPPPdddddPPP6tensori.constprop.0+0x13c>
    65a6:	66 0f ef c0          	pxor   %xmm0,%xmm0
    65aa:	e9 9d ed ff ff       	jmp    534c <_ZL7torqueldddddddjjPPPdddddPPP6tensori.constprop.0+0x13c>
    65af:	66 0f 2f ce          	comisd %xmm6,%xmm1
    65b3:	0f 86 a0 00 00 00    	jbe    6659 <_ZL7torqueldddddddjjPPPdddddPPP6tensori.constprop.0+0x1449>
    65b9:	f2 0f 58 05 e7 52 00 	addsd  0x52e7(%rip),%xmm0        # b8a8 <_IO_stdin_used+0x8a8>
    65c0:	00 
    65c1:	f2 0f 11 84 24 d0 00 	movsd  %xmm0,0xd0(%rsp)
    65c8:	00 00 
    65ca:	f2 0f 10 44 24 18    	movsd  0x18(%rsp),%xmm0
    65d0:	f2 0f 11 5c 24 50    	movsd  %xmm3,0x50(%rsp)
    65d6:	f2 0f 5e c1          	divsd  %xmm1,%xmm0
    65da:	f2 0f 11 54 24 48    	movsd  %xmm2,0x48(%rsp)
    65e0:	f2 0f 11 4c 24 20    	movsd  %xmm1,0x20(%rsp)
    65e6:	e8 55 bf ff ff       	call   2540 <atan@plt>
    65eb:	66 0f ef d2          	pxor   %xmm2,%xmm2
    65ef:	66 0f 2f 54 24 18    	comisd 0x18(%rsp),%xmm2
    65f5:	f2 0f 10 4c 24 20    	movsd  0x20(%rsp),%xmm1
    65fb:	f2 0f 10 54 24 48    	movsd  0x48(%rsp),%xmm2
    6601:	f2 0f 10 5c 24 50    	movsd  0x50(%rsp),%xmm3
    6607:	0f 86 8d f0 ff ff    	jbe    569a <_ZL7torqueldddddddjjPPPdddddPPP6tensori.constprop.0+0x48a>
    660d:	f2 0f 58 05 93 52 00 	addsd  0x5293(%rip),%xmm0        # b8a8 <_IO_stdin_used+0x8a8>
    6614:	00 
    6615:	e9 32 ed ff ff       	jmp    534c <_ZL7torqueldddddddjjPPPdddddPPP6tensori.constprop.0+0x13c>
    661a:	66 0f 2f d6          	comisd %xmm6,%xmm2
    661e:	66 0f ef c0          	pxor   %xmm0,%xmm0
    6622:	0f 87 11 ff ff ff    	ja     6539 <_ZL7torqueldddddddjjPPPdddddPPP6tensori.constprop.0+0x1329>
    6628:	f2 0f 10 05 68 52 00 	movsd  0x5268(%rip),%xmm0        # b898 <_IO_stdin_used+0x898>
    662f:	00 
    6630:	e9 83 ed ff ff       	jmp    53b8 <_ZL7torqueldddddddjjPPPdddddPPP6tensori.constprop.0+0x1a8>
    6635:	66 0f 2f ce          	comisd %xmm6,%xmm1
    6639:	66 0f ef c0          	pxor   %xmm0,%xmm0
    663d:	77 82                	ja     65c1 <_ZL7torqueldddddddjjPPPdddddPPP6tensori.constprop.0+0x13b1>
    663f:	f2 0f 10 05 51 52 00 	movsd  0x5251(%rip),%xmm0        # b898 <_IO_stdin_used+0x898>
    6646:	00 
    6647:	e9 02 f0 ff ff       	jmp    564e <_ZL7torqueldddddddjjPPPdddddPPP6tensori.constprop.0+0x43e>
    664c:	f2 0f 58 05 44 52 00 	addsd  0x5244(%rip),%xmm0        # b898 <_IO_stdin_used+0x898>
    6653:	00 
    6654:	e9 5f ed ff ff       	jmp    53b8 <_ZL7torqueldddddddjjPPPdddddPPP6tensori.constprop.0+0x1a8>
    6659:	f2 0f 58 05 37 52 00 	addsd  0x5237(%rip),%xmm0        # b898 <_IO_stdin_used+0x898>
    6660:	00 
    6661:	e9 e8 ef ff ff       	jmp    564e <_ZL7torqueldddddddjjPPPdddddPPP6tensori.constprop.0+0x43e>
    6666:	66 0f ef ff          	pxor   %xmm7,%xmm7
    666a:	66 0f 2f d7          	comisd %xmm7,%xmm2
    666e:	0f 86 ae ed ff ff    	jbe    5422 <_ZL7torqueldddddddjjPPPdddddPPP6tensori.constprop.0+0x212>
    6674:	e9 0c ff ff ff       	jmp    6585 <_ZL7torqueldddddddjjPPPdddddPPP6tensori.constprop.0+0x1375>
    6679:	66 0f ef f6          	pxor   %xmm6,%xmm6
    667d:	66 0f 2f ce          	comisd %xmm6,%xmm1
    6681:	0f 86 31 f0 ff ff    	jbe    56b8 <_ZL7torqueldddddddjjPPPdddddPPP6tensori.constprop.0+0x4a8>
    6687:	eb 84                	jmp    660d <_ZL7torqueldddddddjjPPPdddddPPP6tensori.constprop.0+0x13fd>
    6689:	66 0f 2f d7          	comisd %xmm7,%xmm2
    668d:	f2 0f 10 05 03 52 00 	movsd  0x5203(%rip),%xmm0        # b898 <_IO_stdin_used+0x898>
    6694:	00 
    6695:	0f 87 83 fe ff ff    	ja     651e <_ZL7torqueldddddddjjPPPdddddPPP6tensori.constprop.0+0x130e>
    669b:	e9 6d f0 ff ff       	jmp    570d <_ZL7torqueldddddddjjPPPdddddPPP6tensori.constprop.0+0x4fd>
    66a0:	66 0f 2f ce          	comisd %xmm6,%xmm1
    66a4:	f2 0f 10 05 ec 51 00 	movsd  0x51ec(%rip),%xmm0        # b898 <_IO_stdin_used+0x898>
    66ab:	00 
    66ac:	0f 87 f4 fe ff ff    	ja     65a6 <_ZL7torqueldddddddjjPPPdddddPPP6tensori.constprop.0+0x1396>
    66b2:	e9 95 ec ff ff       	jmp    534c <_ZL7torqueldddddddjjPPPdddddPPP6tensori.constprop.0+0x13c>
    66b7:	f2 0f 10 3d e1 51 00 	movsd  0x51e1(%rip),%xmm7        # b8a0 <_IO_stdin_used+0x8a0>
    66be:	00 
    66bf:	f3 0f 7e 35 49 52 00 	movq   0x5249(%rip),%xmm6        # b910 <_IO_stdin_used+0x910>
    66c6:	00 
    66c7:	b8 01 00 00 00       	mov    $0x1,%eax
    66cc:	e9 7d f6 ff ff       	jmp    5d4e <_ZL7torqueldddddddjjPPPdddddPPP6tensori.constprop.0+0xb3e>
    66d1:	e8 fa be ff ff       	call   25d0 <__stack_chk_fail@plt>
    66d6:	66 2e 0f 1f 84 00 00 	cs nopw 0x0(%rax,%rax,1)
    66dd:	00 00 00 

00000000000066e0 <_Z7angleofdd>:
    66e0:	f3 0f 1e fa          	endbr64 
    66e4:	66 0f ef db          	pxor   %xmm3,%xmm3
    66e8:	66 0f 28 d0          	movapd %xmm0,%xmm2
    66ec:	66 0f 2e c3          	ucomisd %xmm3,%xmm0
    66f0:	7a 16                	jp     6708 <_Z7angleofdd+0x28>
    66f2:	75 14                	jne    6708 <_Z7angleofdd+0x28>
    66f4:	66 0f 2f cb          	comisd %xmm3,%xmm1
    66f8:	f2 0f 10 05 88 51 00 	movsd  0x5188(%rip),%xmm0        # b888 <_IO_stdin_used+0x888>
    66ff:	00 
    6700:	76 66                	jbe    6768 <_Z7angleofdd+0x88>
    6702:	c3                   	ret    
    6703:	0f 1f 44 00 00       	nopl   0x0(%rax,%rax,1)
    6708:	66 0f 28 c1          	movapd %xmm1,%xmm0
    670c:	48 83 ec 18          	sub    $0x18,%rsp
    6710:	f2 0f 5e c2          	divsd  %xmm2,%xmm0
    6714:	f2 0f 11 4c 24 08    	movsd  %xmm1,0x8(%rsp)
    671a:	f2 0f 11 14 24       	movsd  %xmm2,(%rsp)
    671f:	e8 1c be ff ff       	call   2540 <atan@plt>
    6724:	f2 0f 10 4c 24 08    	movsd  0x8(%rsp),%xmm1
    672a:	66 0f ef db          	pxor   %xmm3,%xmm3
    672e:	f2 0f 10 14 24       	movsd  (%rsp),%xmm2
    6733:	66 0f 2f d9          	comisd %xmm1,%xmm3
    6737:	77 17                	ja     6750 <_Z7angleofdd+0x70>
    6739:	66 0f 2f cb          	comisd %xmm3,%xmm1
    673d:	76 41                	jbe    6780 <_Z7angleofdd+0xa0>
    673f:	66 0f 2f da          	comisd %xmm2,%xmm3
    6743:	77 53                	ja     6798 <_Z7angleofdd+0xb8>
    6745:	48 83 c4 18          	add    $0x18,%rsp
    6749:	c3                   	ret    
    674a:	66 0f 1f 44 00 00    	nopw   0x0(%rax,%rax,1)
    6750:	66 0f 2f d3          	comisd %xmm3,%xmm2
    6754:	76 42                	jbe    6798 <_Z7angleofdd+0xb8>
    6756:	f2 0f 58 05 4a 51 00 	addsd  0x514a(%rip),%xmm0        # b8a8 <_IO_stdin_used+0x8a8>
    675d:	00 
    675e:	48 83 c4 18          	add    $0x18,%rsp
    6762:	c3                   	ret    
    6763:	0f 1f 44 00 00       	nopl   0x0(%rax,%rax,1)
    6768:	f2 0f c2 cb 01       	cmpltsd %xmm3,%xmm1
    676d:	f2 0f 10 05 1b 51 00 	movsd  0x511b(%rip),%xmm0        # b890 <_IO_stdin_used+0x890>
    6774:	00 
    6775:	66 0f 54 c1          	andpd  %xmm1,%xmm0
    6779:	c3                   	ret    
    677a:	66 0f 1f 44 00 00    	nopw   0x0(%rax,%rax,1)
    6780:	66 0f 2f d3          	comisd %xmm3,%xmm2
    6784:	66 0f 28 c3          	movapd %xmm3,%xmm0
    6788:	77 bb                	ja     6745 <_Z7angleofdd+0x65>
    678a:	f2 0f 10 05 06 51 00 	movsd  0x5106(%rip),%xmm0        # b898 <_IO_stdin_used+0x898>
    6791:	00 
    6792:	eb b1                	jmp    6745 <_Z7angleofdd+0x65>
    6794:	0f 1f 40 00          	nopl   0x0(%rax)
    6798:	f2 0f 58 05 f8 50 00 	addsd  0x50f8(%rip),%xmm0        # b898 <_IO_stdin_used+0x898>
    679f:	00 
    67a0:	48 83 c4 18          	add    $0x18,%rsp
    67a4:	c3                   	ret    
    67a5:	66 66 2e 0f 1f 84 00 	data16 cs nopw 0x0(%rax,%rax,1)
    67ac:	00 00 00 00 

00000000000067b0 <_Z18compute_spheremeshdjj>:
    67b0:	f3 0f 1e fa          	endbr64 
    67b4:	41 57                	push   %r15
    67b6:	ba 04 00 00 00       	mov    $0x4,%edx
    67bb:	41 56                	push   %r14
    67bd:	41 89 f6             	mov    %esi,%r14d
    67c0:	41 55                	push   %r13
    67c2:	41 54                	push   %r12
    67c4:	55                   	push   %rbp
    67c5:	53                   	push   %rbx
    67c6:	89 fb                	mov    %edi,%ebx
    67c8:	89 df                	mov    %ebx,%edi
    67ca:	48 81 ec 88 00 00 00 	sub    $0x88,%rsp
    67d1:	f2 0f 11 44 24 40    	movsd  %xmm0,0x40(%rsp)
    67d7:	e8 b4 1e 00 00       	call   8690 <_Z10allocate3djjj>
    67dc:	66 0f ef c9          	pxor   %xmm1,%xmm1
    67e0:	f2 0f 10 05 b0 50 00 	movsd  0x50b0(%rip),%xmm0        # b898 <_IO_stdin_used+0x898>
    67e7:	00 
    67e8:	48 89 44 24 68       	mov    %rax,0x68(%rsp)
    67ed:	48 89 c1             	mov    %rax,%rcx
    67f0:	8d 04 1b             	lea    (%rbx,%rbx,1),%eax
    67f3:	f2 48 0f 2a c8       	cvtsi2sd %rax,%xmm1
    67f8:	66 0f 28 d8          	movapd %xmm0,%xmm3
    67fc:	f2 0f 5e d9          	divsd  %xmm1,%xmm3
    6800:	f2 0f 11 5c 24 30    	movsd  %xmm3,0x30(%rsp)
    6806:	85 db                	test   %ebx,%ebx
    6808:	0f 84 b7 01 00 00    	je     69c5 <_Z18compute_spheremeshdjj+0x215>
    680e:	f2 0f 10 54 24 40    	movsd  0x40(%rsp),%xmm2
    6814:	66 0f ef c9          	pxor   %xmm1,%xmm1
    6818:	44 89 f0             	mov    %r14d,%eax
    681b:	f2 48 0f 2a cb       	cvtsi2sd %rbx,%xmm1
    6820:	66 0f 28 da          	movapd %xmm2,%xmm3
    6824:	f2 0f 59 da          	mulsd  %xmm2,%xmm3
    6828:	f2 0f 10 15 58 50 00 	movsd  0x5058(%rip),%xmm2        # b888 <_IO_stdin_used+0x888>
    682f:	00 
    6830:	f2 0f 5e d1          	divsd  %xmm1,%xmm2
    6834:	f2 0f 11 5c 24 48    	movsd  %xmm3,0x48(%rsp)
    683a:	f2 0f 10 1d 66 50 00 	movsd  0x5066(%rip),%xmm3        # b8a8 <_IO_stdin_used+0x8a8>
    6841:	00 
    6842:	f2 0f 5e c1          	divsd  %xmm1,%xmm0
    6846:	f2 0f 11 54 24 38    	movsd  %xmm2,0x38(%rsp)
    684c:	66 0f ef d2          	pxor   %xmm2,%xmm2
    6850:	f2 48 0f 2a d0       	cvtsi2sd %rax,%xmm2
    6855:	f2 0f 5e da          	divsd  %xmm2,%xmm3
    6859:	f2 0f 11 44 24 50    	movsd  %xmm0,0x50(%rsp)
    685f:	f2 0f 11 5c 24 08    	movsd  %xmm3,0x8(%rsp)
    6865:	45 85 f6             	test   %r14d,%r14d
    6868:	0f 84 57 01 00 00    	je     69c5 <_Z18compute_spheremeshdjj+0x215>
    686e:	48 8d 04 d9          	lea    (%rcx,%rbx,8),%rax
    6872:	49 89 cd             	mov    %rcx,%r13
    6875:	4c 8d 64 24 78       	lea    0x78(%rsp),%r12
    687a:	48 89 44 24 58       	mov    %rax,0x58(%rsp)
    687f:	41 8d 46 fe          	lea    -0x2(%r14),%eax
    6883:	48 8d 6c 24 70       	lea    0x70(%rsp),%rbp
    6888:	48 8d 04 c5 10 00 00 	lea    0x10(,%rax,8),%rax
    688f:	00 
    6890:	48 89 44 24 60       	mov    %rax,0x60(%rsp)
    6895:	0f 1f 00             	nopl   (%rax)
    6898:	f2 0f 10 44 24 30    	movsd  0x30(%rsp),%xmm0
    689e:	48 89 ee             	mov    %rbp,%rsi
    68a1:	4c 89 e7             	mov    %r12,%rdi
    68a4:	e8 f7 bb ff ff       	call   24a0 <sincos@plt>
    68a9:	f2 0f 10 44 24 30    	movsd  0x30(%rsp),%xmm0
    68af:	f2 0f 5c 44 24 38    	subsd  0x38(%rsp),%xmm0
    68b5:	e8 b6 be ff ff       	call   2770 <cos@plt>
    68ba:	f2 0f 10 54 24 38    	movsd  0x38(%rsp),%xmm2
    68c0:	f2 0f 58 54 24 30    	addsd  0x30(%rsp),%xmm2
    68c6:	66 48 0f 7e c3       	movq   %xmm0,%rbx
    68cb:	66 0f 28 c2          	movapd %xmm2,%xmm0
    68cf:	e8 9c be ff ff       	call   2770 <cos@plt>
    68d4:	f2 0f 10 4c 24 70    	movsd  0x70(%rsp),%xmm1
    68da:	f2 0f 10 5c 24 40    	movsd  0x40(%rsp),%xmm3
    68e0:	66 0f 28 d0          	movapd %xmm0,%xmm2
    68e4:	66 48 0f 6e c3       	movq   %rbx,%xmm0
    68e9:	f2 0f 10 64 24 08    	movsd  0x8(%rsp),%xmm4
    68ef:	49 8b 5d 00          	mov    0x0(%r13),%rbx
    68f3:	f2 0f 59 cb          	mulsd  %xmm3,%xmm1
    68f7:	f2 0f 5c c2          	subsd  %xmm2,%xmm0
    68fb:	f2 0f 59 44 24 48    	mulsd  0x48(%rsp),%xmm0
    6901:	48 8b 03             	mov    (%rbx),%rax
    6904:	4c 8d 7b 08          	lea    0x8(%rbx),%r15
    6908:	f2 0f 59 5c 24 78    	mulsd  0x78(%rsp),%xmm3
    690e:	48 03 5c 24 60       	add    0x60(%rsp),%rbx
    6913:	66 0f 28 f9          	movapd %xmm1,%xmm7
    6917:	66 0f ef c9          	pxor   %xmm1,%xmm1
    691b:	f2 0f 59 c4          	mulsd  %xmm4,%xmm0
    691f:	f2 0f 59 cb          	mulsd  %xmm3,%xmm1
    6923:	66 0f 28 d3          	movapd %xmm3,%xmm2
    6927:	66 0f 14 d2          	unpcklpd %xmm2,%xmm2
    692b:	0f 29 54 24 20       	movaps %xmm2,0x20(%rsp)
    6930:	66 0f 14 f8          	unpcklpd %xmm0,%xmm7
    6934:	66 0f 28 c3          	movapd %xmm3,%xmm0
    6938:	66 0f 14 c1          	unpcklpd %xmm1,%xmm0
    693c:	66 0f ef c9          	pxor   %xmm1,%xmm1
    6940:	0f 29 7c 24 10       	movaps %xmm7,0x10(%rsp)
    6945:	f2 0f 58 cc          	addsd  %xmm4,%xmm1
    6949:	0f 11 00             	movups %xmm0,(%rax)
    694c:	0f 11 78 10          	movups %xmm7,0x10(%rax)
    6950:	41 83 fe 01          	cmp    $0x1,%r14d
    6954:	74 4e                	je     69a4 <_Z18compute_spheremeshdjj+0x1f4>
    6956:	66 2e 0f 1f 84 00 00 	cs nopw 0x0(%rax,%rax,1)
    695d:	00 00 00 
    6960:	66 0f 28 c1          	movapd %xmm1,%xmm0
    6964:	48 89 ee             	mov    %rbp,%rsi
    6967:	4c 89 e7             	mov    %r12,%rdi
    696a:	f2 0f 11 0c 24       	movsd  %xmm1,(%rsp)
    696f:	e8 2c bb ff ff       	call   24a0 <sincos@plt>
    6974:	66 0f 10 44 24 70    	movupd 0x70(%rsp),%xmm0
    697a:	49 8b 17             	mov    (%r15),%rdx
    697d:	49 83 c7 08          	add    $0x8,%r15
    6981:	66 0f 59 44 24 20    	mulpd  0x20(%rsp),%xmm0
    6987:	66 0f 28 6c 24 10    	movapd 0x10(%rsp),%xmm5
    698d:	f2 0f 10 0c 24       	movsd  (%rsp),%xmm1
    6992:	f2 0f 58 4c 24 08    	addsd  0x8(%rsp),%xmm1
    6998:	0f 11 6a 10          	movups %xmm5,0x10(%rdx)
    699c:	0f 11 02             	movups %xmm0,(%rdx)
    699f:	4c 39 fb             	cmp    %r15,%rbx
    69a2:	75 bc                	jne    6960 <_Z18compute_spheremeshdjj+0x1b0>
    69a4:	f2 0f 10 5c 24 30    	movsd  0x30(%rsp),%xmm3
    69aa:	f2 0f 58 5c 24 50    	addsd  0x50(%rsp),%xmm3
    69b0:	49 83 c5 08          	add    $0x8,%r13
    69b4:	f2 0f 11 5c 24 30    	movsd  %xmm3,0x30(%rsp)
    69ba:	4c 39 6c 24 58       	cmp    %r13,0x58(%rsp)
    69bf:	0f 85 d3 fe ff ff    	jne    6898 <_Z18compute_spheremeshdjj+0xe8>
    69c5:	48 8b 44 24 68       	mov    0x68(%rsp),%rax
    69ca:	48 81 c4 88 00 00 00 	add    $0x88,%rsp
    69d1:	5b                   	pop    %rbx
    69d2:	5d                   	pop    %rbp
    69d3:	41 5c                	pop    %r12
    69d5:	41 5d                	pop    %r13
    69d7:	41 5e                	pop    %r14
    69d9:	41 5f                	pop    %r15
    69db:	c3                   	ret    
    69dc:	0f 1f 40 00          	nopl   0x0(%rax)

00000000000069e0 <_Z13compute_cubesdjPPd>:
    69e0:	f3 0f 1e fa          	endbr64 
    69e4:	53                   	push   %rbx
    69e5:	89 fb                	mov    %edi,%ebx
    69e7:	0f af ff             	imul   %edi,%edi
    69ea:	48 89 f2             	mov    %rsi,%rdx
    69ed:	be 03 00 00 00       	mov    $0x3,%esi
    69f2:	0f af fb             	imul   %ebx,%edi
    69f5:	48 83 ec 10          	sub    $0x10,%rsp
    69f9:	f2 0f 11 44 24 08    	movsd  %xmm0,0x8(%rsp)
    69ff:	c1 e7 03             	shl    $0x3,%edi
    6a02:	e8 29 1c 00 00       	call   8630 <_Z10allocate2djjPPd>
    6a07:	66 0f ef c0          	pxor   %xmm0,%xmm0
    6a0b:	f2 0f 10 54 24 08    	movsd  0x8(%rsp),%xmm2
    6a11:	f2 0f 10 3d 97 4e 00 	movsd  0x4e97(%rip),%xmm7        # b8b0 <_IO_stdin_used+0x8b0>
    6a18:	00 
    6a19:	49 89 c1             	mov    %rax,%r9
    6a1c:	89 d8                	mov    %ebx,%eax
    6a1e:	44 8d 04 1b          	lea    (%rbx,%rbx,1),%r8d
    6a22:	f2 48 0f 2a c0       	cvtsi2sd %rax,%xmm0
    6a27:	66 0f 28 da          	movapd %xmm2,%xmm3
    6a2b:	f2 0f 5e d8          	divsd  %xmm0,%xmm3
    6a2f:	f2 0f 59 fb          	mulsd  %xmm3,%xmm7
    6a33:	45 85 c0             	test   %r8d,%r8d
    6a36:	0f 8e 84 00 00 00    	jle    6ac0 <_Z13compute_cubesdjPPd+0xe0>
    6a3c:	66 44 0f 28 c7       	movapd %xmm7,%xmm8
    6a41:	31 db                	xor    %ebx,%ebx
    6a43:	4d 8d 59 08          	lea    0x8(%r9),%r11
    6a47:	31 ff                	xor    %edi,%edi
    6a49:	45 8d 50 ff          	lea    -0x1(%r8),%r10d
    6a4d:	0f 1f 00             	nopl   (%rax)
    6a50:	66 41 0f 28 e8       	movapd %xmm8,%xmm5
    6a55:	66 0f 28 f7          	movapd %xmm7,%xmm6
    6a59:	31 f6                	xor    %esi,%esi
    6a5b:	f2 0f 5c ea          	subsd  %xmm2,%xmm5
    6a5f:	90                   	nop
    6a60:	66 0f 28 e6          	movapd %xmm6,%xmm4
    6a64:	48 63 d7             	movslq %edi,%rdx
    6a67:	66 0f 28 cf          	movapd %xmm7,%xmm1
    6a6b:	f2 0f 5c e2          	subsd  %xmm2,%xmm4
    6a6f:	49 8d 04 d1          	lea    (%r9,%rdx,8),%rax
    6a73:	4c 01 d2             	add    %r10,%rdx
    6a76:	49 8d 0c d3          	lea    (%r11,%rdx,8),%rcx
    6a7a:	66 0f 1f 44 00 00    	nopw   0x0(%rax,%rax,1)
    6a80:	66 0f 28 c1          	movapd %xmm1,%xmm0
    6a84:	48 8b 10             	mov    (%rax),%rdx
    6a87:	48 83 c0 08          	add    $0x8,%rax
    6a8b:	f2 0f 58 cb          	addsd  %xmm3,%xmm1
    6a8f:	f2 0f 5c c2          	subsd  %xmm2,%xmm0
    6a93:	f2 0f 11 6a 10       	movsd  %xmm5,0x10(%rdx)
    6a98:	66 0f 14 c4          	unpcklpd %xmm4,%xmm0
    6a9c:	0f 11 02             	movups %xmm0,(%rdx)
    6a9f:	48 39 c8             	cmp    %rcx,%rax
    6aa2:	75 dc                	jne    6a80 <_Z13compute_cubesdjPPd+0xa0>
    6aa4:	83 c6 01             	add    $0x1,%esi
    6aa7:	f2 0f 58 f3          	addsd  %xmm3,%xmm6
    6aab:	44 01 c7             	add    %r8d,%edi
    6aae:	44 39 c6             	cmp    %r8d,%esi
    6ab1:	75 ad                	jne    6a60 <_Z13compute_cubesdjPPd+0x80>
    6ab3:	83 c3 01             	add    $0x1,%ebx
    6ab6:	f2 44 0f 58 c3       	addsd  %xmm3,%xmm8
    6abb:	44 39 c3             	cmp    %r8d,%ebx
    6abe:	75 90                	jne    6a50 <_Z13compute_cubesdjPPd+0x70>
    6ac0:	48 83 c4 10          	add    $0x10,%rsp
    6ac4:	4c 89 c8             	mov    %r9,%rax
    6ac7:	5b                   	pop    %rbx
    6ac8:	c3                   	ret    
    6ac9:	0f 1f 80 00 00 00 00 	nopl   0x0(%rax)

0000000000006ad0 <_Z8pressureddd>:
    6ad0:	f3 0f 1e fa          	endbr64 
    6ad4:	f2 0f 58 c1          	addsd  %xmm1,%xmm0
    6ad8:	f2 0f 58 c2          	addsd  %xmm2,%xmm0
    6adc:	c3                   	ret    
    6add:	0f 1f 00             	nopl   (%rax)

0000000000006ae0 <_Z5pgradddd>:
    6ae0:	f3 0f 1e fa          	endbr64 
    6ae4:	66 0f 28 d8          	movapd %xmm0,%xmm3
    6ae8:	66 0f 28 e8          	movapd %xmm0,%xmm5
    6aec:	66 0f 14 c1          	unpcklpd %xmm1,%xmm0
    6af0:	48 89 f8             	mov    %rdi,%rax
    6af3:	66 0f 28 35 25 4e 00 	movapd 0x4e25(%rip),%xmm6        # b920 <_IO_stdin_used+0x920>
    6afa:	00 
    6afb:	f2 0f 58 e9          	addsd  %xmm1,%xmm5
    6aff:	66 0f 14 cb          	unpcklpd %xmm3,%xmm1
    6b03:	66 0f 28 e2          	movapd %xmm2,%xmm4
    6b07:	66 0f 58 c6          	addpd  %xmm6,%xmm0
    6b0b:	f2 0f 58 e5          	addsd  %xmm5,%xmm4
    6b0f:	66 0f 58 c1          	addpd  %xmm1,%xmm0
    6b13:	66 0f 28 ca          	movapd %xmm2,%xmm1
    6b17:	66 0f 14 c9          	unpcklpd %xmm1,%xmm1
    6b1b:	66 0f 58 c1          	addpd  %xmm1,%xmm0
    6b1f:	66 0f 28 cc          	movapd %xmm4,%xmm1
    6b23:	66 0f 14 c9          	unpcklpd %xmm1,%xmm1
    6b27:	66 0f 5c c1          	subpd  %xmm1,%xmm0
    6b2b:	66 0f 5e c6          	divpd  %xmm6,%xmm0
    6b2f:	0f 11 07             	movups %xmm0,(%rdi)
    6b32:	f2 0f 10 05 e6 4d 00 	movsd  0x4de6(%rip),%xmm0        # b920 <_IO_stdin_used+0x920>
    6b39:	00 
    6b3a:	f2 0f 58 d0          	addsd  %xmm0,%xmm2
    6b3e:	f2 0f 58 d5          	addsd  %xmm5,%xmm2
    6b42:	f2 0f 5c d4          	subsd  %xmm4,%xmm2
    6b46:	f2 0f 5e d0          	divsd  %xmm0,%xmm2
    6b4a:	f2 0f 11 57 10       	movsd  %xmm2,0x10(%rdi)
    6b4f:	c3                   	ret    

0000000000006b50 <_Z8plaplacedddd>:
    6b50:	f3 0f 1e fa          	endbr64 
    6b54:	66 0f 28 f0          	movapd %xmm0,%xmm6
    6b58:	66 0f 28 e8          	movapd %xmm0,%xmm5
    6b5c:	f2 0f 5c c3          	subsd  %xmm3,%xmm0
    6b60:	66 0f 28 fe          	movapd %xmm6,%xmm7
    6b64:	f2 0f 58 e9          	addsd  %xmm1,%xmm5
    6b68:	66 0f 28 e2          	movapd %xmm2,%xmm4
    6b6c:	f2 0f 58 fb          	addsd  %xmm3,%xmm7
    6b70:	f2 0f 58 c1          	addsd  %xmm1,%xmm0
    6b74:	f2 0f 58 e5          	addsd  %xmm5,%xmm4
    6b78:	f2 0f 58 f9          	addsd  %xmm1,%xmm7
    6b7c:	f2 0f 58 c2          	addsd  %xmm2,%xmm0
    6b80:	f2 0f 58 e4          	addsd  %xmm4,%xmm4
    6b84:	f2 0f 58 fa          	addsd  %xmm2,%xmm7
    6b88:	f2 0f 58 c7          	addsd  %xmm7,%xmm0
    6b8c:	66 0f 28 fb          	movapd %xmm3,%xmm7
    6b90:	f2 0f 58 f9          	addsd  %xmm1,%xmm7
    6b94:	f2 0f 5c cb          	subsd  %xmm3,%xmm1
    6b98:	f2 0f 5c c4          	subsd  %xmm4,%xmm0
    6b9c:	f2 0f 58 fe          	addsd  %xmm6,%xmm7
    6ba0:	f2 0f 58 ce          	addsd  %xmm6,%xmm1
    6ba4:	f2 0f 58 fa          	addsd  %xmm2,%xmm7
    6ba8:	f2 0f 58 ca          	addsd  %xmm2,%xmm1
    6bac:	f2 0f 58 c7          	addsd  %xmm7,%xmm0
    6bb0:	f2 0f 58 c1          	addsd  %xmm1,%xmm0
    6bb4:	66 0f 28 cb          	movapd %xmm3,%xmm1
    6bb8:	f2 0f 58 ca          	addsd  %xmm2,%xmm1
    6bbc:	f2 0f 5c d3          	subsd  %xmm3,%xmm2
    6bc0:	f2 0f 5c c4          	subsd  %xmm4,%xmm0
    6bc4:	f2 0f 58 cd          	addsd  %xmm5,%xmm1
    6bc8:	f2 0f 58 d5          	addsd  %xmm5,%xmm2
    6bcc:	f2 0f 58 c1          	addsd  %xmm1,%xmm0
    6bd0:	f2 0f 58 c2          	addsd  %xmm2,%xmm0
    6bd4:	f2 0f 5c c4          	subsd  %xmm4,%xmm0
    6bd8:	f2 0f 5e c3          	divsd  %xmm3,%xmm0
    6bdc:	f2 0f 5e c3          	divsd  %xmm3,%xmm0
    6be0:	c3                   	ret    
    6be1:	66 66 2e 0f 1f 84 00 	data16 cs nopw 0x0(%rax,%rax,1)
    6be8:	00 00 00 00 
    6bec:	0f 1f 40 00          	nopl   0x0(%rax)

0000000000006bf0 <_Z9checkcubeddddd>:
    6bf0:	f3 0f 1e fa          	endbr64 
    6bf4:	f2 0f 59 d2          	mulsd  %xmm2,%xmm2
    6bf8:	66 0f 28 e8          	movapd %xmm0,%xmm5
    6bfc:	66 0f ef c0          	pxor   %xmm0,%xmm0
    6c00:	48 83 ec 28          	sub    $0x28,%rsp
    6c04:	f2 0f 59 db          	mulsd  %xmm3,%xmm3
    6c08:	f2 0f 59 e4          	mulsd  %xmm4,%xmm4
    6c0c:	f2 0f 58 d3          	addsd  %xmm3,%xmm2
    6c10:	f2 0f 58 e2          	addsd  %xmm2,%xmm4
    6c14:	66 0f 2e c4          	ucomisd %xmm4,%xmm0
    6c18:	77 2d                	ja     6c47 <_Z9checkcubeddddd+0x57>
    6c1a:	f2 0f 51 e4          	sqrtsd %xmm4,%xmm4
    6c1e:	66 0f 28 c1          	movapd %xmm1,%xmm0
    6c22:	f2 0f 58 c4          	addsd  %xmm4,%xmm0
    6c26:	66 0f 2f e8          	comisd %xmm0,%xmm5
    6c2a:	77 14                	ja     6c40 <_Z9checkcubeddddd+0x50>
    6c2c:	f2 0f 5c e1          	subsd  %xmm1,%xmm4
    6c30:	31 c0                	xor    %eax,%eax
    6c32:	66 0f 2f e5          	comisd %xmm5,%xmm4
    6c36:	0f 97 c0             	seta   %al
    6c39:	f7 d8                	neg    %eax
    6c3b:	48 83 c4 28          	add    $0x28,%rsp
    6c3f:	c3                   	ret    
    6c40:	b8 ff ff ff ff       	mov    $0xffffffff,%eax
    6c45:	eb f4                	jmp    6c3b <_Z9checkcubeddddd+0x4b>
    6c47:	66 0f 28 c4          	movapd %xmm4,%xmm0
    6c4b:	f2 0f 11 4c 24 18    	movsd  %xmm1,0x18(%rsp)
    6c51:	f2 0f 11 6c 24 10    	movsd  %xmm5,0x10(%rsp)
    6c57:	f2 0f 11 64 24 08    	movsd  %xmm4,0x8(%rsp)
    6c5d:	e8 be b8 ff ff       	call   2520 <sqrt@plt>
    6c62:	f2 0f 10 4c 24 18    	movsd  0x18(%rsp),%xmm1
    6c68:	f2 0f 10 6c 24 10    	movsd  0x10(%rsp),%xmm5
    6c6e:	f2 0f 10 64 24 08    	movsd  0x8(%rsp),%xmm4
    6c74:	f2 0f 58 c1          	addsd  %xmm1,%xmm0
    6c78:	66 0f 2f e8          	comisd %xmm0,%xmm5
    6c7c:	77 c2                	ja     6c40 <_Z9checkcubeddddd+0x50>
    6c7e:	66 0f 28 c4          	movapd %xmm4,%xmm0
    6c82:	f2 0f 11 4c 24 10    	movsd  %xmm1,0x10(%rsp)
    6c88:	f2 0f 11 6c 24 08    	movsd  %xmm5,0x8(%rsp)
    6c8e:	e8 8d b8 ff ff       	call   2520 <sqrt@plt>
    6c93:	f2 0f 10 6c 24 08    	movsd  0x8(%rsp),%xmm5
    6c99:	f2 0f 10 4c 24 10    	movsd  0x10(%rsp),%xmm1
    6c9f:	66 0f 28 e0          	movapd %xmm0,%xmm4
    6ca3:	eb 87                	jmp    6c2c <_Z9checkcubeddddd+0x3c>
    6ca5:	66 66 2e 0f 1f 84 00 	data16 cs nopw 0x0(%rax,%rax,1)
    6cac:	00 00 00 00 

0000000000006cb0 <_Z5gradvdddidPPPPd>:
    6cb0:	f3 0f 1e fa          	endbr64 
    6cb4:	41 57                	push   %r15
    6cb6:	41 89 f0             	mov    %esi,%r8d
    6cb9:	49 89 ff             	mov    %rdi,%r15
    6cbc:	45 31 c9             	xor    %r9d,%r9d
    6cbf:	41 56                	push   %r14
    6cc1:	f2 44 0f 2c f2       	cvttsd2si %xmm2,%r14d
    6cc6:	41 55                	push   %r13
    6cc8:	f2 44 0f 2c e9       	cvttsd2si %xmm1,%r13d
    6ccd:	41 54                	push   %r12
    6ccf:	f2 44 0f 2c e0       	cvttsd2si %xmm0,%r12d
    6cd4:	66 0f 28 c3          	movapd %xmm3,%xmm0
    6cd8:	55                   	push   %rbp
    6cd9:	48 89 d5             	mov    %rdx,%rbp
    6cdc:	53                   	push   %rbx
    6cdd:	44 89 f1             	mov    %r14d,%ecx
    6ce0:	89 f3                	mov    %esi,%ebx
    6ce2:	48 89 ef             	mov    %rbp,%rdi
    6ce5:	44 89 ea             	mov    %r13d,%edx
    6ce8:	44 89 e6             	mov    %r12d,%esi
    6ceb:	48 83 ec 60          	sub    $0x60,%rsp
    6cef:	6a 00                	push   $0x0
    6cf1:	f2 0f 11 5c 24 10    	movsd  %xmm3,0x10(%rsp)
    6cf7:	e8 84 22 00 00       	call   8f80 <_Z7partdifPPPPdiiiidii>
    6cfc:	41 89 d8             	mov    %ebx,%r8d
    6cff:	44 89 f1             	mov    %r14d,%ecx
    6d02:	44 89 ea             	mov    %r13d,%edx
    6d05:	f2 0f 10 5c 24 10    	movsd  0x10(%rsp),%xmm3
    6d0b:	f2 0f 11 44 24 28    	movsd  %xmm0,0x28(%rsp)
    6d11:	44 89 e6             	mov    %r12d,%esi
    6d14:	48 89 ef             	mov    %rbp,%rdi
    6d17:	41 b9 01 00 00 00    	mov    $0x1,%r9d
    6d1d:	c7 04 24 00 00 00 00 	movl   $0x0,(%rsp)
    6d24:	66 0f 28 c3          	movapd %xmm3,%xmm0
    6d28:	e8 53 22 00 00       	call   8f80 <_Z7partdifPPPPdiiiidii>
    6d2d:	41 89 d8             	mov    %ebx,%r8d
    6d30:	44 89 f1             	mov    %r14d,%ecx
    6d33:	44 89 ea             	mov    %r13d,%edx
    6d36:	f2 0f 10 5c 24 10    	movsd  0x10(%rsp),%xmm3
    6d3c:	f2 0f 10 6c 24 28    	movsd  0x28(%rsp),%xmm5
    6d42:	44 89 e6             	mov    %r12d,%esi
    6d45:	48 89 ef             	mov    %rbp,%rdi
    6d48:	41 b9 02 00 00 00    	mov    $0x2,%r9d
    6d4e:	c7 04 24 00 00 00 00 	movl   $0x0,(%rsp)
    6d55:	66 0f 14 e8          	unpcklpd %xmm0,%xmm5
    6d59:	66 0f 28 c3          	movapd %xmm3,%xmm0
    6d5d:	0f 29 6c 24 50       	movaps %xmm5,0x50(%rsp)
    6d62:	e8 19 22 00 00       	call   8f80 <_Z7partdifPPPPdiiiidii>
    6d67:	41 89 d8             	mov    %ebx,%r8d
    6d6a:	44 89 f1             	mov    %r14d,%ecx
    6d6d:	44 89 ea             	mov    %r13d,%edx
    6d70:	f2 0f 10 5c 24 10    	movsd  0x10(%rsp),%xmm3
    6d76:	44 89 e6             	mov    %r12d,%esi
    6d79:	48 89 ef             	mov    %rbp,%rdi
    6d7c:	45 31 c9             	xor    %r9d,%r9d
    6d7f:	f2 0f 11 44 24 28    	movsd  %xmm0,0x28(%rsp)
    6d85:	66 0f 28 c3          	movapd %xmm3,%xmm0
    6d89:	c7 04 24 01 00 00 00 	movl   $0x1,(%rsp)
    6d90:	e8 eb 21 00 00       	call   8f80 <_Z7partdifPPPPdiiiidii>
    6d95:	41 89 d8             	mov    %ebx,%r8d
    6d98:	44 89 f1             	mov    %r14d,%ecx
    6d9b:	44 89 ea             	mov    %r13d,%edx
    6d9e:	f2 0f 10 5c 24 10    	movsd  0x10(%rsp),%xmm3
    6da4:	f2 0f 10 64 24 28    	movsd  0x28(%rsp),%xmm4
    6daa:	44 89 e6             	mov    %r12d,%esi
    6dad:	48 89 ef             	mov    %rbp,%rdi
    6db0:	41 b9 01 00 00 00    	mov    $0x1,%r9d
    6db6:	c7 04 24 01 00 00 00 	movl   $0x1,(%rsp)
    6dbd:	66 0f 14 e0          	unpcklpd %xmm0,%xmm4
    6dc1:	66 0f 28 c3          	movapd %xmm3,%xmm0
    6dc5:	0f 29 64 24 40       	movaps %xmm4,0x40(%rsp)
    6dca:	e8 b1 21 00 00       	call   8f80 <_Z7partdifPPPPdiiiidii>
    6dcf:	41 89 d8             	mov    %ebx,%r8d
    6dd2:	44 89 f1             	mov    %r14d,%ecx
    6dd5:	44 89 ea             	mov    %r13d,%edx
    6dd8:	f2 0f 10 5c 24 10    	movsd  0x10(%rsp),%xmm3
    6dde:	f2 0f 11 44 24 28    	movsd  %xmm0,0x28(%rsp)
    6de4:	44 89 e6             	mov    %r12d,%esi
    6de7:	48 89 ef             	mov    %rbp,%rdi
    6dea:	41 b9 02 00 00 00    	mov    $0x2,%r9d
    6df0:	c7 04 24 01 00 00 00 	movl   $0x1,(%rsp)
    6df7:	66 0f 28 c3          	movapd %xmm3,%xmm0
    6dfb:	e8 80 21 00 00       	call   8f80 <_Z7partdifPPPPdiiiidii>
    6e00:	41 89 d8             	mov    %ebx,%r8d
    6e03:	44 89 f1             	mov    %r14d,%ecx
    6e06:	44 89 ea             	mov    %r13d,%edx
    6e09:	f2 0f 10 5c 24 10    	movsd  0x10(%rsp),%xmm3
    6e0f:	44 89 e6             	mov    %r12d,%esi
    6e12:	48 89 ef             	mov    %rbp,%rdi
    6e15:	45 31 c9             	xor    %r9d,%r9d
    6e18:	f2 0f 10 54 24 28    	movsd  0x28(%rsp),%xmm2
    6e1e:	c7 04 24 02 00 00 00 	movl   $0x2,(%rsp)
    6e25:	f2 0f 11 5c 24 28    	movsd  %xmm3,0x28(%rsp)
    6e2b:	66 0f 14 d0          	unpcklpd %xmm0,%xmm2
    6e2f:	66 0f 28 c3          	movapd %xmm3,%xmm0
    6e33:	0f 29 54 24 30       	movaps %xmm2,0x30(%rsp)
    6e38:	e8 43 21 00 00       	call   8f80 <_Z7partdifPPPPdiiiidii>
    6e3d:	41 89 d8             	mov    %ebx,%r8d
    6e40:	44 89 f1             	mov    %r14d,%ecx
    6e43:	44 89 ea             	mov    %r13d,%edx
    6e46:	f2 0f 10 5c 24 28    	movsd  0x28(%rsp),%xmm3
    6e4c:	f2 0f 11 44 24 10    	movsd  %xmm0,0x10(%rsp)
    6e52:	44 89 e6             	mov    %r12d,%esi
    6e55:	48 89 ef             	mov    %rbp,%rdi
    6e58:	41 b9 01 00 00 00    	mov    $0x1,%r9d
    6e5e:	c7 04 24 02 00 00 00 	movl   $0x2,(%rsp)
    6e65:	66 0f 28 c3          	movapd %xmm3,%xmm0
    6e69:	e8 12 21 00 00       	call   8f80 <_Z7partdifPPPPdiiiidii>
    6e6e:	41 89 d8             	mov    %ebx,%r8d
    6e71:	44 89 f1             	mov    %r14d,%ecx
    6e74:	44 89 ea             	mov    %r13d,%edx
    6e77:	f2 0f 10 4c 24 10    	movsd  0x10(%rsp),%xmm1
    6e7d:	f2 0f 10 5c 24 28    	movsd  0x28(%rsp),%xmm3
    6e83:	44 89 e6             	mov    %r12d,%esi
    6e86:	48 89 ef             	mov    %rbp,%rdi
    6e89:	41 b9 02 00 00 00    	mov    $0x2,%r9d
    6e8f:	c7 04 24 02 00 00 00 	movl   $0x2,(%rsp)
    6e96:	66 0f 14 c8          	unpcklpd %xmm0,%xmm1
    6e9a:	66 0f 28 c3          	movapd %xmm3,%xmm0
    6e9e:	0f 29 4c 24 10       	movaps %xmm1,0x10(%rsp)
    6ea3:	e8 d8 20 00 00       	call   8f80 <_Z7partdifPPPPdiiiidii>
    6ea8:	66 0f 28 6c 24 50    	movapd 0x50(%rsp),%xmm5
    6eae:	4c 89 f8             	mov    %r15,%rax
    6eb1:	66 0f 28 64 24 40    	movapd 0x40(%rsp),%xmm4
    6eb7:	66 0f 28 54 24 30    	movapd 0x30(%rsp),%xmm2
    6ebd:	66 0f 28 4c 24 10    	movapd 0x10(%rsp),%xmm1
    6ec3:	f2 41 0f 11 47 40    	movsd  %xmm0,0x40(%r15)
    6ec9:	41 0f 11 2f          	movups %xmm5,(%r15)
    6ecd:	41 0f 11 67 10       	movups %xmm4,0x10(%r15)
    6ed2:	41 0f 11 57 20       	movups %xmm2,0x20(%r15)
    6ed7:	41 0f 11 4f 30       	movups %xmm1,0x30(%r15)
    6edc:	48 83 c4 68          	add    $0x68,%rsp
    6ee0:	5b                   	pop    %rbx
    6ee1:	5d                   	pop    %rbp
    6ee2:	41 5c                	pop    %r12
    6ee4:	41 5d                	pop    %r13
    6ee6:	41 5e                	pop    %r14
    6ee8:	41 5f                	pop    %r15
    6eea:	c3                   	ret    
    6eeb:	0f 1f 44 00 00       	nopl   0x0(%rax,%rax,1)

0000000000006ef0 <_Z5forcedddjjddidPPdRKSt6vectorIiSaIiEEPS0_PPP6tensor>:
    6ef0:	f3 0f 1e fa          	endbr64 
    6ef4:	66 0f ef c0          	pxor   %xmm0,%xmm0
    6ef8:	41 57                	push   %r15
    6efa:	f2 0f 2a c1          	cvtsi2sd %ecx,%xmm0
    6efe:	41 56                	push   %r14
    6f00:	41 55                	push   %r13
    6f02:	41 54                	push   %r12
    6f04:	41 89 d4             	mov    %edx,%r12d
    6f07:	55                   	push   %rbp
    6f08:	f2 0f 5e e0          	divsd  %xmm0,%xmm4
    6f0c:	53                   	push   %rbx
    6f0d:	66 0f ef c0          	pxor   %xmm0,%xmm0
    6f11:	48 83 ec 78          	sub    $0x78,%rsp
    6f15:	4c 89 44 24 40       	mov    %r8,0x40(%rsp)
    6f1a:	4c 8b b4 24 b0 00 00 	mov    0xb0(%rsp),%r14
    6f21:	00 
    6f22:	f2 0f 11 5c 24 38    	movsd  %xmm3,0x38(%rsp)
    6f28:	4c 8b 84 24 b8 00 00 	mov    0xb8(%rsp),%r8
    6f2f:	00 
    6f30:	64 48 8b 14 25 28 00 	mov    %fs:0x28,%rdx
    6f37:	00 00 
    6f39:	48 89 54 24 68       	mov    %rdx,0x68(%rsp)
    6f3e:	31 d2                	xor    %edx,%edx
    6f40:	48 c7 47 10 00 00 00 	movq   $0x0,0x10(%rdi)
    6f47:	00 
    6f48:	0f 11 07             	movups %xmm0,(%rdi)
    6f4b:	f2 0f 59 25 5d 49 00 	mulsd  0x495d(%rip),%xmm4        # b8b0 <_IO_stdin_used+0x8b0>
    6f52:	00 
    6f53:	4d 85 f6             	test   %r14,%r14
    6f56:	0f 84 18 01 00 00    	je     7074 <_Z5forcedddjjddidPPdRKSt6vectorIiSaIiEEPS0_PPP6tensor+0x184>
    6f5c:	49 8b 41 08          	mov    0x8(%r9),%rax
    6f60:	4d 8b 11             	mov    (%r9),%r10
    6f63:	49 89 fd             	mov    %rdi,%r13
    6f66:	48 89 44 24 30       	mov    %rax,0x30(%rsp)
    6f6b:	4c 39 d0             	cmp    %r10,%rax
    6f6e:	0f 84 de 00 00 00    	je     7052 <_Z5forcedddjjddidPPdRKSt6vectorIiSaIiEEPS0_PPP6tensor+0x162>
    6f74:	48 8d 44 24 50       	lea    0x50(%rsp),%rax
    6f79:	89 f5                	mov    %esi,%ebp
    6f7b:	66 0f 28 fc          	movapd %xmm4,%xmm7
    6f7f:	89 cb                	mov    %ecx,%ebx
    6f81:	48 89 44 24 48       	mov    %rax,0x48(%rsp)
    6f86:	4c 89 f0             	mov    %r14,%rax
    6f89:	66 45 0f ef c9       	pxor   %xmm9,%xmm9
    6f8e:	4d 89 d6             	mov    %r10,%r14
    6f91:	66 45 0f ef c0       	pxor   %xmm8,%xmm8
    6f96:	49 89 c7             	mov    %rax,%r15
    6f99:	0f 1f 80 00 00 00 00 	nopl   0x0(%rax)
    6fa0:	49 63 16             	movslq (%r14),%rdx
    6fa3:	48 8b 44 24 40       	mov    0x40(%rsp),%rax
    6fa8:	41 89 d9             	mov    %ebx,%r9d
    6fab:	4c 89 f9             	mov    %r15,%rcx
    6fae:	f2 0f 10 44 24 38    	movsd  0x38(%rsp),%xmm0
    6fb4:	48 8b 7c 24 48       	mov    0x48(%rsp),%rdi
    6fb9:	44 89 e6             	mov    %r12d,%esi
    6fbc:	4c 89 44 24 20       	mov    %r8,0x20(%rsp)
    6fc1:	48 8b 14 d0          	mov    (%rax,%rdx,8),%rdx
    6fc5:	44 0f 29 4c 24 10    	movaps %xmm9,0x10(%rsp)
    6fcb:	49 83 c6 04          	add    $0x4,%r14
    6fcf:	f2 44 0f 11 44 24 28 	movsd  %xmm8,0x28(%rsp)
    6fd6:	f2 0f 10 0a          	movsd  (%rdx),%xmm1
    6fda:	f2 0f 10 5a 08       	movsd  0x8(%rdx),%xmm3
    6fdf:	f2 0f 11 7c 24 08    	movsd  %xmm7,0x8(%rsp)
    6fe5:	f2 0f 10 6a 10       	movsd  0x10(%rdx),%xmm5
    6fea:	89 ea                	mov    %ebp,%edx
    6fec:	66 0f 28 e3          	movapd %xmm3,%xmm4
    6ff0:	66 0f 28 d1          	movapd %xmm1,%xmm2
    6ff4:	f2 0f 5c df          	subsd  %xmm7,%xmm3
    6ff8:	66 0f 28 f5          	movapd %xmm5,%xmm6
    6ffc:	f2 0f 58 e7          	addsd  %xmm7,%xmm4
    7000:	f2 0f 5c ef          	subsd  %xmm7,%xmm5
    7004:	f2 0f 58 f7          	addsd  %xmm7,%xmm6
    7008:	f2 0f 58 d7          	addsd  %xmm7,%xmm2
    700c:	f2 0f 5c cf          	subsd  %xmm7,%xmm1
    7010:	e8 8b cd ff ff       	call   3da0 <_ZL6forceldddddddjjPPPdddddPPP6tensori.constprop.0>
    7015:	4c 39 74 24 30       	cmp    %r14,0x30(%rsp)
    701a:	4c 8b 44 24 20       	mov    0x20(%rsp),%r8
    701f:	f2 44 0f 10 44 24 28 	movsd  0x28(%rsp),%xmm8
    7026:	66 44 0f 28 4c 24 10 	movapd 0x10(%rsp),%xmm9
    702d:	f2 44 0f 58 44 24 60 	addsd  0x60(%rsp),%xmm8
    7034:	66 44 0f 58 4c 24 50 	addpd  0x50(%rsp),%xmm9
    703b:	f2 0f 10 7c 24 08    	movsd  0x8(%rsp),%xmm7
    7041:	45 0f 11 4d 00       	movups %xmm9,0x0(%r13)
    7046:	f2 45 0f 11 45 10    	movsd  %xmm8,0x10(%r13)
    704c:	0f 85 4e ff ff ff    	jne    6fa0 <_Z5forcedddjjddidPPdRKSt6vectorIiSaIiEEPS0_PPP6tensor+0xb0>
    7052:	48 8b 54 24 68       	mov    0x68(%rsp),%rdx
    7057:	64 48 2b 14 25 28 00 	sub    %fs:0x28,%rdx
    705e:	00 00 
    7060:	75 31                	jne    7093 <_Z5forcedddjjddidPPdRKSt6vectorIiSaIiEEPS0_PPP6tensor+0x1a3>
    7062:	48 83 c4 78          	add    $0x78,%rsp
    7066:	4c 89 e8             	mov    %r13,%rax
    7069:	5b                   	pop    %rbx
    706a:	5d                   	pop    %rbp
    706b:	41 5c                	pop    %r12
    706d:	41 5d                	pop    %r13
    706f:	41 5e                	pop    %r14
    7071:	41 5f                	pop    %r15
    7073:	c3                   	ret    
    7074:	48 8d 0d bd 3f 00 00 	lea    0x3fbd(%rip),%rcx        # b038 <_IO_stdin_used+0x38>
    707b:	ba 6e 01 00 00       	mov    $0x16e,%edx
    7080:	48 8d 35 b4 46 00 00 	lea    0x46b4(%rip),%rsi        # b73b <_IO_stdin_used+0x73b>
    7087:	48 8d 3d ba 46 00 00 	lea    0x46ba(%rip),%rdi        # b748 <_IO_stdin_used+0x748>
    708e:	e8 3d b4 ff ff       	call   24d0 <__assert_fail@plt>
    7093:	e8 38 b5 ff ff       	call   25d0 <__stack_chk_fail@plt>
    7098:	0f 1f 84 00 00 00 00 	nopl   0x0(%rax,%rax,1)
    709f:	00 

00000000000070a0 <_Z6torquedddjjddidPPdRKSt6vectorIiSaIiEEPS0_PPP6tensor>:
    70a0:	f3 0f 1e fa          	endbr64 
    70a4:	66 0f 28 f8          	movapd %xmm0,%xmm7
    70a8:	66 0f ef c0          	pxor   %xmm0,%xmm0
    70ac:	41 57                	push   %r15
    70ae:	f2 0f 2a c1          	cvtsi2sd %ecx,%xmm0
    70b2:	41 56                	push   %r14
    70b4:	41 55                	push   %r13
    70b6:	41 54                	push   %r12
    70b8:	55                   	push   %rbp
    70b9:	f2 0f 5e e0          	divsd  %xmm0,%xmm4
    70bd:	53                   	push   %rbx
    70be:	66 0f ef c0          	pxor   %xmm0,%xmm0
    70c2:	48 81 ec 88 00 00 00 	sub    $0x88,%rsp
    70c9:	4c 89 44 24 50       	mov    %r8,0x50(%rsp)
    70ce:	4c 8b b4 24 c0 00 00 	mov    0xc0(%rsp),%r14
    70d5:	00 
    70d6:	f2 0f 11 4c 24 38    	movsd  %xmm1,0x38(%rsp)
    70dc:	4c 8b 84 24 c8 00 00 	mov    0xc8(%rsp),%r8
    70e3:	00 
    70e4:	f2 0f 11 54 24 40    	movsd  %xmm2,0x40(%rsp)
    70ea:	f2 0f 11 5c 24 48    	movsd  %xmm3,0x48(%rsp)
    70f0:	64 48 8b 04 25 28 00 	mov    %fs:0x28,%rax
    70f7:	00 00 
    70f9:	48 89 44 24 78       	mov    %rax,0x78(%rsp)
    70fe:	31 c0                	xor    %eax,%eax
    7100:	48 c7 47 10 00 00 00 	movq   $0x0,0x10(%rdi)
    7107:	00 
    7108:	0f 11 07             	movups %xmm0,(%rdi)
    710b:	f2 0f 59 25 9d 47 00 	mulsd  0x479d(%rip),%xmm4        # b8b0 <_IO_stdin_used+0x8b0>
    7112:	00 
    7113:	4d 85 f6             	test   %r14,%r14
    7116:	0f 84 3b 01 00 00    	je     7257 <_Z6torquedddjjddidPPdRKSt6vectorIiSaIiEEPS0_PPP6tensor+0x1b7>
    711c:	89 cb                	mov    %ecx,%ebx
    711e:	49 8b 01             	mov    (%r9),%rax
    7121:	49 8b 49 08          	mov    0x8(%r9),%rcx
    7125:	49 89 fd             	mov    %rdi,%r13
    7128:	48 89 4c 24 30       	mov    %rcx,0x30(%rsp)
    712d:	48 39 c1             	cmp    %rax,%rcx
    7130:	0f 84 fc 00 00 00    	je     7232 <_Z6torquedddjjddidPPdRKSt6vectorIiSaIiEEPS0_PPP6tensor+0x192>
    7136:	49 89 c7             	mov    %rax,%r15
    7139:	48 8d 44 24 60       	lea    0x60(%rsp),%rax
    713e:	89 f5                	mov    %esi,%ebp
    7140:	41 89 d4             	mov    %edx,%r12d
    7143:	48 89 44 24 58       	mov    %rax,0x58(%rsp)
    7148:	4c 89 f0             	mov    %r14,%rax
    714b:	66 44 0f 28 c4       	movapd %xmm4,%xmm8
    7150:	4d 89 fe             	mov    %r15,%r14
    7153:	66 45 0f ef d2       	pxor   %xmm10,%xmm10
    7158:	66 45 0f ef c9       	pxor   %xmm9,%xmm9
    715d:	49 89 c7             	mov    %rax,%r15
    7160:	49 63 16             	movslq (%r14),%rdx
    7163:	48 8b 44 24 50       	mov    0x50(%rsp),%rax
    7168:	41 89 d9             	mov    %ebx,%r9d
    716b:	4c 89 f9             	mov    %r15,%rcx
    716e:	44 0f 29 54 24 10    	movaps %xmm10,0x10(%rsp)
    7174:	44 89 e6             	mov    %r12d,%esi
    7177:	49 83 c6 04          	add    $0x4,%r14
    717b:	48 8b 14 d0          	mov    (%rax,%rdx,8),%rdx
    717f:	f2 44 0f 11 4c 24 28 	movsd  %xmm9,0x28(%rsp)
    7186:	f2 0f 10 0a          	movsd  (%rdx),%xmm1
    718a:	f2 0f 10 5a 08       	movsd  0x8(%rdx),%xmm3
    718f:	f2 0f 10 6a 10       	movsd  0x10(%rdx),%xmm5
    7194:	ff 74 24 40          	push   0x40(%rsp)
    7198:	89 ea                	mov    %ebp,%edx
    719a:	66 0f 28 e3          	movapd %xmm3,%xmm4
    719e:	66 0f 28 d1          	movapd %xmm1,%xmm2
    71a2:	ff 74 24 40          	push   0x40(%rsp)
    71a6:	f2 41 0f 5c d8       	subsd  %xmm8,%xmm3
    71ab:	66 0f 28 f5          	movapd %xmm5,%xmm6
    71af:	f2 41 0f 58 e0       	addsd  %xmm8,%xmm4
    71b4:	f2 41 0f 5c e8       	subsd  %xmm8,%xmm5
    71b9:	f2 0f 10 44 24 58    	movsd  0x58(%rsp),%xmm0
    71bf:	f2 41 0f 58 f0       	addsd  %xmm8,%xmm6
    71c4:	f2 41 0f 58 d0       	addsd  %xmm8,%xmm2
    71c9:	48 8b 7c 24 68       	mov    0x68(%rsp),%rdi
    71ce:	f2 41 0f 5c c8       	subsd  %xmm8,%xmm1
    71d3:	4c 89 44 24 30       	mov    %r8,0x30(%rsp)
    71d8:	f2 0f 11 7c 24 18    	movsd  %xmm7,0x18(%rsp)
    71de:	f2 44 0f 11 44 24 10 	movsd  %xmm8,0x10(%rsp)
    71e5:	e8 26 e0 ff ff       	call   5210 <_ZL7torqueldddddddjjPPPdddddPPP6tensori.constprop.0>
    71ea:	f2 44 0f 10 4c 24 38 	movsd  0x38(%rsp),%xmm9
    71f1:	66 44 0f 28 54 24 20 	movapd 0x20(%rsp),%xmm10
    71f8:	f2 44 0f 58 8c 24 80 	addsd  0x80(%rsp),%xmm9
    71ff:	00 00 00 
    7202:	66 44 0f 58 54 24 70 	addpd  0x70(%rsp),%xmm10
    7209:	f2 45 0f 11 4d 10    	movsd  %xmm9,0x10(%r13)
    720f:	45 0f 11 55 00       	movups %xmm10,0x0(%r13)
    7214:	58                   	pop    %rax
    7215:	5a                   	pop    %rdx
    7216:	4c 39 74 24 30       	cmp    %r14,0x30(%rsp)
    721b:	f2 44 0f 10 04 24    	movsd  (%rsp),%xmm8
    7221:	f2 0f 10 7c 24 08    	movsd  0x8(%rsp),%xmm7
    7227:	4c 8b 44 24 20       	mov    0x20(%rsp),%r8
    722c:	0f 85 2e ff ff ff    	jne    7160 <_Z6torquedddjjddidPPdRKSt6vectorIiSaIiEEPS0_PPP6tensor+0xc0>
    7232:	48 8b 44 24 78       	mov    0x78(%rsp),%rax
    7237:	64 48 2b 04 25 28 00 	sub    %fs:0x28,%rax
    723e:	00 00 
    7240:	75 34                	jne    7276 <_Z6torquedddjjddidPPdRKSt6vectorIiSaIiEEPS0_PPP6tensor+0x1d6>
    7242:	48 81 c4 88 00 00 00 	add    $0x88,%rsp
    7249:	4c 89 e8             	mov    %r13,%rax
    724c:	5b                   	pop    %rbx
    724d:	5d                   	pop    %rbp
    724e:	41 5c                	pop    %r12
    7250:	41 5d                	pop    %r13
    7252:	41 5e                	pop    %r14
    7254:	41 5f                	pop    %r15
    7256:	c3                   	ret    
    7257:	48 8d 0d 72 3e 00 00 	lea    0x3e72(%rip),%rcx        # b0d0 <_IO_stdin_used+0xd0>
    725e:	ba 86 01 00 00       	mov    $0x186,%edx
    7263:	48 8d 35 d1 44 00 00 	lea    0x44d1(%rip),%rsi        # b73b <_IO_stdin_used+0x73b>
    726a:	48 8d 3d d7 44 00 00 	lea    0x44d7(%rip),%rdi        # b748 <_IO_stdin_used+0x748>
    7271:	e8 5a b2 ff ff       	call   24d0 <__assert_fail@plt>
    7276:	e8 55 b3 ff ff       	call   25d0 <__stack_chk_fail@plt>
    727b:	0f 1f 44 00 00       	nopl   0x0(%rax,%rax,1)

0000000000007280 <_Z7blearghv>:
    7280:	f3 0f 1e fa          	endbr64 
    7284:	41 57                	push   %r15
    7286:	ba 5a 00 00 00       	mov    $0x5a,%edx
    728b:	48 8d 35 d6 3e 00 00 	lea    0x3ed6(%rip),%rsi        # b168 <_IO_stdin_used+0x168>
    7292:	48 8d 3d a7 7d 00 00 	lea    0x7da7(%rip),%rdi        # f040 <_ZSt4cout@GLIBCXX_3.4>
    7299:	41 56                	push   %r14
    729b:	41 55                	push   %r13
    729d:	41 54                	push   %r12
    729f:	55                   	push   %rbp
    72a0:	48 8d 2d b9 7e 00 00 	lea    0x7eb9(%rip),%rbp        # f160 <_ZSt3cin@GLIBCXX_3.4>
    72a7:	53                   	push   %rbx
    72a8:	48 81 ec e8 01 00 00 	sub    $0x1e8,%rsp
    72af:	64 48 8b 04 25 28 00 	mov    %fs:0x28,%rax
    72b6:	00 00 
    72b8:	48 89 84 24 d8 01 00 	mov    %rax,0x1d8(%rsp)
    72bf:	00 
    72c0:	31 c0                	xor    %eax,%eax
    72c2:	e8 19 b3 ff ff       	call   25e0 <_ZSt16__ostream_insertIcSt11char_traitsIcEERSt13basic_ostreamIT_T0_ES6_PKS3_l@plt>
    72c7:	48 8d b4 24 f0 00 00 	lea    0xf0(%rsp),%rsi
    72ce:	00 
    72cf:	48 89 ef             	mov    %rbp,%rdi
    72d2:	e8 09 b2 ff ff       	call   24e0 <_ZNSi10_M_extractIdEERSiRT_@plt>
    72d7:	48 8d b4 24 f8 00 00 	lea    0xf8(%rsp),%rsi
    72de:	00 
    72df:	48 89 c7             	mov    %rax,%rdi
    72e2:	e8 f9 b1 ff ff       	call   24e0 <_ZNSi10_M_extractIdEERSiRT_@plt>
    72e7:	48 8d b4 24 00 01 00 	lea    0x100(%rsp),%rsi
    72ee:	00 
    72ef:	48 89 c7             	mov    %rax,%rdi
    72f2:	e8 e9 b1 ff ff       	call   24e0 <_ZNSi10_M_extractIdEERSiRT_@plt>
    72f7:	ba 41 00 00 00       	mov    $0x41,%edx
    72fc:	48 8d 35 c5 3e 00 00 	lea    0x3ec5(%rip),%rsi        # b1c8 <_IO_stdin_used+0x1c8>
    7303:	48 8d 3d 36 7d 00 00 	lea    0x7d36(%rip),%rdi        # f040 <_ZSt4cout@GLIBCXX_3.4>
    730a:	e8 d1 b2 ff ff       	call   25e0 <_ZSt16__ostream_insertIcSt11char_traitsIcEERSt13basic_ostreamIT_T0_ES6_PKS3_l@plt>
    730f:	48 8d b4 24 e4 00 00 	lea    0xe4(%rsp),%rsi
    7316:	00 
    7317:	48 89 ef             	mov    %rbp,%rdi
    731a:	e8 91 b1 ff ff       	call   24b0 <_ZNSirsERi@plt>
    731f:	ba 40 00 00 00       	mov    $0x40,%edx
    7324:	48 8d 35 e5 3e 00 00 	lea    0x3ee5(%rip),%rsi        # b210 <_IO_stdin_used+0x210>
    732b:	48 8d 3d 0e 7d 00 00 	lea    0x7d0e(%rip),%rdi        # f040 <_ZSt4cout@GLIBCXX_3.4>
    7332:	e8 a9 b2 ff ff       	call   25e0 <_ZSt16__ostream_insertIcSt11char_traitsIcEERSt13basic_ostreamIT_T0_ES6_PKS3_l@plt>
    7337:	48 8d b4 24 e8 00 00 	lea    0xe8(%rsp),%rsi
    733e:	00 
    733f:	48 89 ef             	mov    %rbp,%rdi
    7342:	e8 69 b1 ff ff       	call   24b0 <_ZNSirsERi@plt>
    7347:	ba 21 00 00 00       	mov    $0x21,%edx
    734c:	48 8d 35 05 3f 00 00 	lea    0x3f05(%rip),%rsi        # b258 <_IO_stdin_used+0x258>
    7353:	48 8d 3d e6 7c 00 00 	lea    0x7ce6(%rip),%rdi        # f040 <_ZSt4cout@GLIBCXX_3.4>
    735a:	e8 81 b2 ff ff       	call   25e0 <_ZSt16__ostream_insertIcSt11char_traitsIcEERSt13basic_ostreamIT_T0_ES6_PKS3_l@plt>
    735f:	48 8d b4 24 08 01 00 	lea    0x108(%rsp),%rsi
    7366:	00 
    7367:	48 89 ef             	mov    %rbp,%rdi
    736a:	e8 71 b1 ff ff       	call   24e0 <_ZNSi10_M_extractIdEERSiRT_@plt>
    736f:	ba 2f 00 00 00       	mov    $0x2f,%edx
    7374:	48 8d 35 05 3f 00 00 	lea    0x3f05(%rip),%rsi        # b280 <_IO_stdin_used+0x280>
    737b:	48 8d 3d be 7c 00 00 	lea    0x7cbe(%rip),%rdi        # f040 <_ZSt4cout@GLIBCXX_3.4>
    7382:	e8 59 b2 ff ff       	call   25e0 <_ZSt16__ostream_insertIcSt11char_traitsIcEERSt13basic_ostreamIT_T0_ES6_PKS3_l@plt>
    7387:	48 8d b4 24 10 01 00 	lea    0x110(%rsp),%rsi
    738e:	00 
    738f:	48 89 ef             	mov    %rbp,%rdi
    7392:	e8 49 b1 ff ff       	call   24e0 <_ZNSi10_M_extractIdEERSiRT_@plt>
    7397:	ba a7 00 00 00       	mov    $0xa7,%edx
    739c:	48 8d 35 0d 3f 00 00 	lea    0x3f0d(%rip),%rsi        # b2b0 <_IO_stdin_used+0x2b0>
    73a3:	48 8d 3d 96 7c 00 00 	lea    0x7c96(%rip),%rdi        # f040 <_ZSt4cout@GLIBCXX_3.4>
    73aa:	e8 31 b2 ff ff       	call   25e0 <_ZSt16__ostream_insertIcSt11char_traitsIcEERSt13basic_ostreamIT_T0_ES6_PKS3_l@plt>
    73af:	48 8d b4 24 ec 00 00 	lea    0xec(%rsp),%rsi
    73b6:	00 
    73b7:	48 89 ef             	mov    %rbp,%rdi
    73ba:	e8 f1 b0 ff ff       	call   24b0 <_ZNSirsERi@plt>
    73bf:	ba 15 00 00 00       	mov    $0x15,%edx
    73c4:	48 8d 35 93 43 00 00 	lea    0x4393(%rip),%rsi        # b75e <_IO_stdin_used+0x75e>
    73cb:	48 8d 3d 6e 7c 00 00 	lea    0x7c6e(%rip),%rdi        # f040 <_ZSt4cout@GLIBCXX_3.4>
    73d2:	e8 09 b2 ff ff       	call   25e0 <_ZSt16__ostream_insertIcSt11char_traitsIcEERSt13basic_ostreamIT_T0_ES6_PKS3_l@plt>
    73d7:	48 8d b4 24 18 01 00 	lea    0x118(%rsp),%rsi
    73de:	00 
    73df:	48 89 ef             	mov    %rbp,%rdi
    73e2:	e8 f9 b0 ff ff       	call   24e0 <_ZNSi10_M_extractIdEERSiRT_@plt>
    73e7:	ba 11 00 00 00       	mov    $0x11,%edx
    73ec:	48 8d 35 81 43 00 00 	lea    0x4381(%rip),%rsi        # b774 <_IO_stdin_used+0x774>
    73f3:	48 8d 3d 46 7c 00 00 	lea    0x7c46(%rip),%rdi        # f040 <_ZSt4cout@GLIBCXX_3.4>
    73fa:	e8 e1 b1 ff ff       	call   25e0 <_ZSt16__ostream_insertIcSt11char_traitsIcEERSt13basic_ostreamIT_T0_ES6_PKS3_l@plt>
    73ff:	48 8d b4 24 20 01 00 	lea    0x120(%rsp),%rsi
    7406:	00 
    7407:	48 89 ef             	mov    %rbp,%rdi
    740a:	e8 d1 b0 ff ff       	call   24e0 <_ZNSi10_M_extractIdEERSiRT_@plt>
    740f:	ba 18 00 00 00       	mov    $0x18,%edx
    7414:	48 8d 35 6b 43 00 00 	lea    0x436b(%rip),%rsi        # b786 <_IO_stdin_used+0x786>
    741b:	48 8d 3d 1e 7c 00 00 	lea    0x7c1e(%rip),%rdi        # f040 <_ZSt4cout@GLIBCXX_3.4>
    7422:	e8 b9 b1 ff ff       	call   25e0 <_ZSt16__ostream_insertIcSt11char_traitsIcEERSt13basic_ostreamIT_T0_ES6_PKS3_l@plt>
    7427:	48 8d b4 24 28 01 00 	lea    0x128(%rsp),%rsi
    742e:	00 
    742f:	48 89 ef             	mov    %rbp,%rdi
    7432:	e8 a9 b0 ff ff       	call   24e0 <_ZNSi10_M_extractIdEERSiRT_@plt>
    7437:	8b 9c 24 ec 00 00 00 	mov    0xec(%rsp),%ebx
    743e:	31 d2                	xor    %edx,%edx
    7440:	f2 0f 10 94 24 10 01 	movsd  0x110(%rsp),%xmm2
    7447:	00 00 
    7449:	f2 0f 10 84 24 28 01 	movsd  0x128(%rsp),%xmm0
    7450:	00 00 
    7452:	be 03 00 00 00       	mov    $0x3,%esi
    7457:	f2 0f 5e 05 59 44 00 	divsd  0x4459(%rip),%xmm0        # b8b8 <_IO_stdin_used+0x8b8>
    745e:	00 
    745f:	f2 0f 11 44 24 40    	movsd  %xmm0,0x40(%rsp)
    7465:	89 df                	mov    %ebx,%edi
    7467:	f2 0f 11 54 24 08    	movsd  %xmm2,0x8(%rsp)
    746d:	0f af fb             	imul   %ebx,%edi
    7470:	0f af fb             	imul   %ebx,%edi
    7473:	c1 e7 03             	shl    $0x3,%edi
    7476:	e8 b5 11 00 00       	call   8630 <_Z10allocate2djjPPd>
    747b:	66 0f ef c0          	pxor   %xmm0,%xmm0
    747f:	f2 0f 10 54 24 08    	movsd  0x8(%rsp),%xmm2
    7485:	f2 0f 10 3d 23 44 00 	movsd  0x4423(%rip),%xmm7        # b8b0 <_IO_stdin_used+0x8b0>
    748c:	00 
    748d:	48 89 44 24 20       	mov    %rax,0x20(%rsp)
    7492:	89 d8                	mov    %ebx,%eax
    7494:	44 8d 04 1b          	lea    (%rbx,%rbx,1),%r8d
    7498:	f2 48 0f 2a c0       	cvtsi2sd %rax,%xmm0
    749d:	66 0f 28 da          	movapd %xmm2,%xmm3
    74a1:	f2 0f 5e d8          	divsd  %xmm0,%xmm3
    74a5:	f2 0f 59 fb          	mulsd  %xmm3,%xmm7
    74a9:	45 85 c0             	test   %r8d,%r8d
    74ac:	0f 8e 8f 00 00 00    	jle    7541 <_Z7blearghv+0x2c1>
    74b2:	48 8b 5c 24 20       	mov    0x20(%rsp),%rbx
    74b7:	66 44 0f 28 c7       	movapd %xmm7,%xmm8
    74bc:	31 ff                	xor    %edi,%edi
    74be:	45 31 db             	xor    %r11d,%r11d
    74c1:	45 8d 48 ff          	lea    -0x1(%r8),%r9d
    74c5:	4c 8d 53 08          	lea    0x8(%rbx),%r10
    74c9:	66 41 0f 28 e8       	movapd %xmm8,%xmm5
    74ce:	66 0f 28 f7          	movapd %xmm7,%xmm6
    74d2:	31 f6                	xor    %esi,%esi
    74d4:	f2 0f 5c ea          	subsd  %xmm2,%xmm5
    74d8:	0f 1f 84 00 00 00 00 	nopl   0x0(%rax,%rax,1)
    74df:	00 
    74e0:	66 0f 28 e6          	movapd %xmm6,%xmm4
    74e4:	48 63 d7             	movslq %edi,%rdx
    74e7:	66 0f 28 cf          	movapd %xmm7,%xmm1
    74eb:	f2 0f 5c e2          	subsd  %xmm2,%xmm4
    74ef:	48 8d 04 d3          	lea    (%rbx,%rdx,8),%rax
    74f3:	4c 01 ca             	add    %r9,%rdx
    74f6:	49 8d 0c d2          	lea    (%r10,%rdx,8),%rcx
    74fa:	66 0f 1f 44 00 00    	nopw   0x0(%rax,%rax,1)
    7500:	66 0f 28 c1          	movapd %xmm1,%xmm0
    7504:	48 8b 10             	mov    (%rax),%rdx
    7507:	48 83 c0 08          	add    $0x8,%rax
    750b:	f2 0f 58 cb          	addsd  %xmm3,%xmm1
    750f:	f2 0f 5c c2          	subsd  %xmm2,%xmm0
    7513:	f2 0f 11 6a 10       	movsd  %xmm5,0x10(%rdx)
    7518:	66 0f 14 c4          	unpcklpd %xmm4,%xmm0
    751c:	0f 11 02             	movups %xmm0,(%rdx)
    751f:	48 39 c1             	cmp    %rax,%rcx
    7522:	75 dc                	jne    7500 <_Z7blearghv+0x280>
    7524:	83 c6 01             	add    $0x1,%esi
    7527:	f2 0f 58 f3          	addsd  %xmm3,%xmm6
    752b:	44 01 c7             	add    %r8d,%edi
    752e:	44 39 c6             	cmp    %r8d,%esi
    7531:	75 ad                	jne    74e0 <_Z7blearghv+0x260>
    7533:	41 83 c3 01          	add    $0x1,%r11d
    7537:	f2 44 0f 58 c3       	addsd  %xmm3,%xmm8
    753c:	45 39 c3             	cmp    %r8d,%r11d
    753f:	75 88                	jne    74c9 <_Z7blearghv+0x249>
    7541:	8b b4 24 e4 00 00 00 	mov    0xe4(%rsp),%esi
    7548:	8b bc 24 e8 00 00 00 	mov    0xe8(%rsp),%edi
    754f:	4c 8d a4 24 90 01 00 	lea    0x190(%rsp),%r12
    7556:	00 
    7557:	f2 0f 10 84 24 08 01 	movsd  0x108(%rsp),%xmm0
    755e:	00 00 
    7560:	e8 4b f2 ff ff       	call   67b0 <_Z18compute_spheremeshdjj>
    7565:	bf 04 00 00 00       	mov    $0x4,%edi
    756a:	48 89 84 24 b0 00 00 	mov    %rax,0xb0(%rsp)
    7571:	00 
    7572:	8b 84 24 ec 00 00 00 	mov    0xec(%rsp),%eax
    7579:	8d 34 00             	lea    (%rax,%rax,1),%esi
    757c:	89 f2                	mov    %esi,%edx
    757e:	89 f1                	mov    %esi,%ecx
    7580:	e8 eb 14 00 00       	call   8a70 <_Z10allocate4djjjj>
    7585:	48 c7 44 24 30 00 00 	movq   $0x0,0x30(%rsp)
    758c:	00 00 
    758e:	48 8b 7c 24 30       	mov    0x30(%rsp),%rdi
    7593:	49 89 c7             	mov    %rax,%r15
    7596:	8b 84 24 ec 00 00 00 	mov    0xec(%rsp),%eax
    759d:	4d 89 fd             	mov    %r15,%r13
    75a0:	8d 14 00             	lea    (%rax,%rax,1),%edx
    75a3:	85 d2                	test   %edx,%edx
    75a5:	0f 8e 6d 01 00 00    	jle    7718 <_Z7blearghv+0x498>
    75ab:	89 7c 24 10          	mov    %edi,0x10(%rsp)
    75af:	48 8d 2c fd 00 00 00 	lea    0x0(,%rdi,8),%rbp
    75b6:	00 
    75b7:	4d 89 ee             	mov    %r13,%r14
    75ba:	48 c7 44 24 18 00 00 	movq   $0x0,0x18(%rsp)
    75c1:	00 00 
    75c3:	85 c0                	test   %eax,%eax
    75c5:	0f 8e 34 01 00 00    	jle    76ff <_Z7blearghv+0x47f>
    75cb:	0f 1f 44 00 00       	nopl   0x0(%rax,%rax,1)
    75d0:	48 8b 7c 24 18       	mov    0x18(%rsp),%rdi
    75d5:	89 7c 24 28          	mov    %edi,0x28(%rsp)
    75d9:	89 7c 24 08          	mov    %edi,0x8(%rsp)
    75dd:	85 c0                	test   %eax,%eax
    75df:	0f 8e 17 01 00 00    	jle    76fc <_Z7blearghv+0x47c>
    75e5:	48 8d 1c fd 00 00 00 	lea    0x0(,%rdi,8),%rbx
    75ec:	00 
    75ed:	45 31 ed             	xor    %r13d,%r13d
    75f0:	8b 54 24 08          	mov    0x8(%rsp),%edx
    75f4:	8b 7c 24 10          	mov    0x10(%rsp),%edi
    75f8:	0f af d0             	imul   %eax,%edx
    75fb:	8d 3c 57             	lea    (%rdi,%rdx,2),%edi
    75fe:	89 c2                	mov    %eax,%edx
    7600:	41 0f af d5          	imul   %r13d,%edx
    7604:	0f af c2             	imul   %edx,%eax
    7607:	8d 04 87             	lea    (%rdi,%rax,4),%eax
    760a:	48 8b 7c 24 20       	mov    0x20(%rsp),%rdi
    760f:	48 98                	cltq   
    7611:	4c 8d 3c c7          	lea    (%rdi,%rax,8),%r15
    7615:	4c 89 e7             	mov    %r12,%rdi
    7618:	49 8b 17             	mov    (%r15),%rdx
    761b:	f2 0f 10 52 10       	movsd  0x10(%rdx),%xmm2
    7620:	f2 0f 10 4a 08       	movsd  0x8(%rdx),%xmm1
    7625:	f2 0f 10 02          	movsd  (%rdx),%xmm0
    7629:	e8 b2 20 00 00       	call   96e0 <_Z8velocityddd>
    762e:	49 8b 16             	mov    (%r14),%rdx
    7631:	4c 89 e7             	mov    %r12,%rdi
    7634:	f2 0f 10 84 24 90 01 	movsd  0x190(%rsp),%xmm0
    763b:	00 00 
    763d:	48 8b 14 2a          	mov    (%rdx,%rbp,1),%rdx
    7641:	48 8b 14 1a          	mov    (%rdx,%rbx,1),%rdx
    7645:	f2 42 0f 11 04 ea    	movsd  %xmm0,(%rdx,%r13,8)
    764b:	49 8b 17             	mov    (%r15),%rdx
    764e:	f2 0f 10 52 10       	movsd  0x10(%rdx),%xmm2
    7653:	f2 0f 10 4a 08       	movsd  0x8(%rdx),%xmm1
    7658:	f2 0f 10 02          	movsd  (%rdx),%xmm0
    765c:	e8 7f 20 00 00       	call   96e0 <_Z8velocityddd>
    7661:	49 8b 56 08          	mov    0x8(%r14),%rdx
    7665:	49 8b 07             	mov    (%r15),%rax
    7668:	4c 89 e7             	mov    %r12,%rdi
    766b:	f2 0f 10 84 24 98 01 	movsd  0x198(%rsp),%xmm0
    7672:	00 00 
    7674:	48 8b 14 2a          	mov    (%rdx,%rbp,1),%rdx
    7678:	48 8b 14 1a          	mov    (%rdx,%rbx,1),%rdx
    767c:	f2 42 0f 11 04 ea    	movsd  %xmm0,(%rdx,%r13,8)
    7682:	f2 0f 10 00          	movsd  (%rax),%xmm0
    7686:	f2 0f 10 50 10       	movsd  0x10(%rax),%xmm2
    768b:	f2 0f 10 48 08       	movsd  0x8(%rax),%xmm1
    7690:	e8 4b 20 00 00       	call   96e0 <_Z8velocityddd>
    7695:	49 8b 46 10          	mov    0x10(%r14),%rax
    7699:	f2 0f 10 84 24 a0 01 	movsd  0x1a0(%rsp),%xmm0
    76a0:	00 00 
    76a2:	48 8b 04 28          	mov    (%rax,%rbp,1),%rax
    76a6:	48 8b 04 18          	mov    (%rax,%rbx,1),%rax
    76aa:	f2 42 0f 11 04 e8    	movsd  %xmm0,(%rax,%r13,8)
    76b0:	49 8b 46 18          	mov    0x18(%r14),%rax
    76b4:	f2 0f 10 84 24 18 01 	movsd  0x118(%rsp),%xmm0
    76bb:	00 00 
    76bd:	48 8b 04 28          	mov    (%rax,%rbp,1),%rax
    76c1:	48 8b 04 18          	mov    (%rax,%rbx,1),%rax
    76c5:	f2 42 0f 11 04 e8    	movsd  %xmm0,(%rax,%r13,8)
    76cb:	8b 84 24 ec 00 00 00 	mov    0xec(%rsp),%eax
    76d2:	49 83 c5 01          	add    $0x1,%r13
    76d6:	8d 14 00             	lea    (%rax,%rax,1),%edx
    76d9:	44 39 ea             	cmp    %r13d,%edx
    76dc:	0f 8f 0e ff ff ff    	jg     75f0 <_Z7blearghv+0x370>
    76e2:	8b 4c 24 28          	mov    0x28(%rsp),%ecx
    76e6:	83 c1 01             	add    $0x1,%ecx
    76e9:	39 ca                	cmp    %ecx,%edx
    76eb:	0f 8e 1f 03 00 00    	jle    7a10 <_Z7blearghv+0x790>
    76f1:	48 83 44 24 18 01    	addq   $0x1,0x18(%rsp)
    76f7:	e9 d4 fe ff ff       	jmp    75d0 <_Z7blearghv+0x350>
    76fc:	4d 89 f5             	mov    %r14,%r13
    76ff:	8d 14 00             	lea    (%rax,%rax,1),%edx
    7702:	48 83 44 24 30 01    	addq   $0x1,0x30(%rsp)
    7708:	48 8b 7c 24 30       	mov    0x30(%rsp),%rdi
    770d:	39 fa                	cmp    %edi,%edx
    770f:	0f 8f 96 fe ff ff    	jg     75ab <_Z7blearghv+0x32b>
    7715:	4d 89 ef             	mov    %r13,%r15
    7718:	66 0f ef c0          	pxor   %xmm0,%xmm0
    771c:	89 d1                	mov    %edx,%ecx
    771e:	41 89 d0             	mov    %edx,%r8d
    7721:	4c 89 fe             	mov    %r15,%rsi
    7724:	f2 0f 10 8c 24 10 01 	movsd  0x110(%rsp),%xmm1
    772b:	00 00 
    772d:	f2 0f 2a c0          	cvtsi2sd %eax,%xmm0
    7731:	31 ff                	xor    %edi,%edi
    7733:	f2 0f 5e c8          	divsd  %xmm0,%xmm1
    7737:	66 0f 28 d1          	movapd %xmm1,%xmm2
    773b:	66 0f 28 c1          	movapd %xmm1,%xmm0
    773f:	e8 9c 20 00 00       	call   97e0 <_Z12writeVTKFileiPPPPdiiiddd>
    7744:	8b 84 24 ec 00 00 00 	mov    0xec(%rsp),%eax
    774b:	8d 3c 00             	lea    (%rax,%rax,1),%edi
    774e:	89 fa                	mov    %edi,%edx
    7750:	89 fe                	mov    %edi,%esi
    7752:	e8 39 10 00 00       	call   8790 <_Z11allocate3dtjjj>
    7757:	8b 8c 24 ec 00 00 00 	mov    0xec(%rsp),%ecx
    775e:	48 89 84 24 88 00 00 	mov    %rax,0x88(%rsp)
    7765:	00 
    7766:	85 c9                	test   %ecx,%ecx
    7768:	0f 8e 33 01 00 00    	jle    78a1 <_Z7blearghv+0x621>
    776e:	4c 8d ac 24 90 01 00 	lea    0x190(%rsp),%r13
    7775:	00 
    7776:	4c 89 7c 24 18       	mov    %r15,0x18(%rsp)
    777b:	45 31 e4             	xor    %r12d,%r12d
    777e:	49 89 c7             	mov    %rax,%r15
    7781:	48 c7 44 24 08 00 00 	movq   $0x0,0x8(%rsp)
    7788:	00 00 
    778a:	4d 89 ee             	mov    %r13,%r14
    778d:	48 8b 44 24 08       	mov    0x8(%rsp),%rax
    7792:	89 44 24 10          	mov    %eax,0x10(%rsp)
    7796:	89 c3                	mov    %eax,%ebx
    7798:	85 c9                	test   %ecx,%ecx
    779a:	0f 8e fc 00 00 00    	jle    789c <_Z7blearghv+0x61c>
    77a0:	48 8d 2c c5 00 00 00 	lea    0x0(,%rax,8),%rbp
    77a7:	00 
    77a8:	4c 89 f0             	mov    %r14,%rax
    77ab:	45 31 ed             	xor    %r13d,%r13d
    77ae:	45 89 e6             	mov    %r12d,%r14d
    77b1:	4d 89 fc             	mov    %r15,%r12
    77b4:	49 89 c7             	mov    %rax,%r15
    77b7:	66 0f 1f 84 00 00 00 	nopw   0x0(%rax,%rax,1)
    77be:	00 00 
    77c0:	f2 0f 10 84 24 18 01 	movsd  0x118(%rsp),%xmm0
    77c7:	00 00 
    77c9:	89 d8                	mov    %ebx,%eax
    77cb:	48 8b 7c 24 20       	mov    0x20(%rsp),%rdi
    77d0:	0f af c1             	imul   %ecx,%eax
    77d3:	41 8d 34 46          	lea    (%r14,%rax,2),%esi
    77d7:	89 c8                	mov    %ecx,%eax
    77d9:	41 0f af c5          	imul   %r13d,%eax
    77dd:	0f af c1             	imul   %ecx,%eax
    77e0:	8d 04 86             	lea    (%rsi,%rax,4),%eax
    77e3:	48 98                	cltq   
    77e5:	48 8b 04 c7          	mov    (%rdi,%rax,8),%rax
    77e9:	4c 89 ff             	mov    %r15,%rdi
    77ec:	f2 0f 10 58 10       	movsd  0x10(%rax),%xmm3
    77f1:	f2 0f 10 50 08       	movsd  0x8(%rax),%xmm2
    77f6:	f2 0f 10 08          	movsd  (%rax),%xmm1
    77fa:	e8 b1 15 00 00       	call   8db0 <_Z6stressdddd>
    77ff:	49 8b 04 24          	mov    (%r12),%rax
    7803:	4b 8d 4c ed 00       	lea    0x0(%r13,%r13,8),%rcx
    7808:	66 0f 28 ac 24 90 01 	movapd 0x190(%rsp),%xmm5
    780f:	00 00 
    7811:	66 0f 28 bc 24 a0 01 	movapd 0x1a0(%rsp),%xmm7
    7818:	00 00 
    781a:	49 83 c5 01          	add    $0x1,%r13
    781e:	66 0f 28 b4 24 b0 01 	movapd 0x1b0(%rsp),%xmm6
    7825:	00 00 
    7827:	f2 0f 10 84 24 d0 01 	movsd  0x1d0(%rsp),%xmm0
    782e:	00 00 
    7830:	48 8b 04 28          	mov    (%rax,%rbp,1),%rax
    7834:	48 8d 04 c8          	lea    (%rax,%rcx,8),%rax
    7838:	8b 8c 24 ec 00 00 00 	mov    0xec(%rsp),%ecx
    783f:	0f 11 28             	movups %xmm5,(%rax)
    7842:	66 0f 28 ac 24 c0 01 	movapd 0x1c0(%rsp),%xmm5
    7849:	00 00 
    784b:	0f 11 78 10          	movups %xmm7,0x10(%rax)
    784f:	0f 11 70 20          	movups %xmm6,0x20(%rax)
    7853:	0f 11 68 30          	movups %xmm5,0x30(%rax)
    7857:	f2 0f 11 40 40       	movsd  %xmm0,0x40(%rax)
    785c:	8d 04 09             	lea    (%rcx,%rcx,1),%eax
    785f:	44 39 e8             	cmp    %r13d,%eax
    7862:	0f 8f 58 ff ff ff    	jg     77c0 <_Z7blearghv+0x540>
    7868:	8b 54 24 10          	mov    0x10(%rsp),%edx
    786c:	4c 89 ff             	mov    %r15,%rdi
    786f:	4d 89 e7             	mov    %r12,%r15
    7872:	45 89 f4             	mov    %r14d,%r12d
    7875:	49 89 fe             	mov    %rdi,%r14
    7878:	83 c2 01             	add    $0x1,%edx
    787b:	39 d0                	cmp    %edx,%eax
    787d:	0f 8e 95 01 00 00    	jle    7a18 <_Z7blearghv+0x798>
    7883:	48 83 44 24 08 01    	addq   $0x1,0x8(%rsp)
    7889:	48 8b 44 24 08       	mov    0x8(%rsp),%rax
    788e:	89 44 24 10          	mov    %eax,0x10(%rsp)
    7892:	89 c3                	mov    %eax,%ebx
    7894:	85 c9                	test   %ecx,%ecx
    7896:	0f 8f 04 ff ff ff    	jg     77a0 <_Z7blearghv+0x520>
    789c:	4c 8b 7c 24 18       	mov    0x18(%rsp),%r15
    78a1:	48 83 7c 24 20 00    	cmpq   $0x0,0x20(%rsp)
    78a7:	0f 84 c1 0a 00 00    	je     836e <_Z7blearghv+0x10ee>
    78ad:	f2 0f 10 b4 24 00 01 	movsd  0x100(%rsp),%xmm6
    78b4:	00 00 
    78b6:	89 c8                	mov    %ecx,%eax
    78b8:	66 0f ef c0          	pxor   %xmm0,%xmm0
    78bc:	48 c7 84 24 40 01 00 	movq   $0x0,0x140(%rsp)
    78c3:	00 00 00 00 00 
    78c8:	0f af c1             	imul   %ecx,%eax
    78cb:	0f 29 84 24 30 01 00 	movaps %xmm0,0x130(%rsp)
    78d2:	00 
    78d3:	f2 0f 10 a4 24 10 01 	movsd  0x110(%rsp),%xmm4
    78da:	00 00 
    78dc:	f2 0f 10 9c 24 08 01 	movsd  0x108(%rsp),%xmm3
    78e3:	00 00 
    78e5:	f2 0f 11 74 24 70    	movsd  %xmm6,0x70(%rsp)
    78eb:	f2 0f 10 b4 24 f8 00 	movsd  0xf8(%rsp),%xmm6
    78f2:	00 00 
    78f4:	0f af c1             	imul   %ecx,%eax
    78f7:	f2 0f 11 74 24 78    	movsd  %xmm6,0x78(%rsp)
    78fd:	f2 0f 10 b4 24 f0 00 	movsd  0xf0(%rsp),%xmm6
    7904:	00 00 
    7906:	f2 0f 11 b4 24 80 00 	movsd  %xmm6,0x80(%rsp)
    790d:	00 00 
    790f:	85 c0                	test   %eax,%eax
    7911:	0f 84 28 01 00 00    	je     7a3f <_Z7blearghv+0x7bf>
    7917:	48 8d 84 24 30 01 00 	lea    0x130(%rsp),%rax
    791e:	00 
    791f:	31 db                	xor    %ebx,%ebx
    7921:	48 8d ac 24 90 01 00 	lea    0x190(%rsp),%rbp
    7928:	00 
    7929:	48 89 84 24 98 00 00 	mov    %rax,0x98(%rsp)
    7930:	00 
    7931:	eb 2f                	jmp    7962 <_Z7blearghv+0x6e2>
    7933:	89 1e                	mov    %ebx,(%rsi)
    7935:	48 83 c6 04          	add    $0x4,%rsi
    7939:	48 89 b4 24 38 01 00 	mov    %rsi,0x138(%rsp)
    7940:	00 
    7941:	8b 8c 24 ec 00 00 00 	mov    0xec(%rsp),%ecx
    7948:	89 c8                	mov    %ecx,%eax
    794a:	48 83 c3 01          	add    $0x1,%rbx
    794e:	0f af c1             	imul   %ecx,%eax
    7951:	0f af c1             	imul   %ecx,%eax
    7954:	c1 e0 03             	shl    $0x3,%eax
    7957:	48 98                	cltq   
    7959:	48 39 d8             	cmp    %rbx,%rax
    795c:	0f 86 ed 00 00 00    	jbe    7a4f <_Z7blearghv+0x7cf>
    7962:	48 8b 44 24 20       	mov    0x20(%rsp),%rax
    7967:	66 0f ef f6          	pxor   %xmm6,%xmm6
    796b:	66 0f 28 ec          	movapd %xmm4,%xmm5
    796f:	f2 0f 2a f1          	cvtsi2sd %ecx,%xmm6
    7973:	48 8b 04 d8          	mov    (%rax,%rbx,8),%rax
    7977:	f2 0f 10 50 08       	movsd  0x8(%rax),%xmm2
    797c:	f2 0f 10 08          	movsd  (%rax),%xmm1
    7980:	f2 0f 10 40 10       	movsd  0x10(%rax),%xmm0
    7985:	f2 0f 5e ee          	divsd  %xmm6,%xmm5
    7989:	66 0f ef f6          	pxor   %xmm6,%xmm6
    798d:	f2 0f 59 c9          	mulsd  %xmm1,%xmm1
    7991:	f2 0f 59 d2          	mulsd  %xmm2,%xmm2
    7995:	f2 0f 59 c0          	mulsd  %xmm0,%xmm0
    7999:	f2 0f 58 ca          	addsd  %xmm2,%xmm1
    799d:	f2 0f 58 c8          	addsd  %xmm0,%xmm1
    79a1:	66 0f 2e f1          	ucomisd %xmm1,%xmm6
    79a5:	0f 87 75 08 00 00    	ja     8220 <_Z7blearghv+0xfa0>
    79ab:	f2 0f 51 c9          	sqrtsd %xmm1,%xmm1
    79af:	66 0f 28 c5          	movapd %xmm5,%xmm0
    79b3:	f2 0f 58 c1          	addsd  %xmm1,%xmm0
    79b7:	66 0f 2f d8          	comisd %xmm0,%xmm3
    79bb:	77 8b                	ja     7948 <_Z7blearghv+0x6c8>
    79bd:	f2 0f 5c cd          	subsd  %xmm5,%xmm1
    79c1:	66 0f 2f cb          	comisd %xmm3,%xmm1
    79c5:	77 81                	ja     7948 <_Z7blearghv+0x6c8>
    79c7:	89 9c 24 90 01 00 00 	mov    %ebx,0x190(%rsp)
    79ce:	48 8b b4 24 38 01 00 	mov    0x138(%rsp),%rsi
    79d5:	00 
    79d6:	48 3b b4 24 40 01 00 	cmp    0x140(%rsp),%rsi
    79dd:	00 
    79de:	0f 85 4f ff ff ff    	jne    7933 <_Z7blearghv+0x6b3>
    79e4:	48 8b bc 24 98 00 00 	mov    0x98(%rsp),%rdi
    79eb:	00 
    79ec:	48 89 ea             	mov    %rbp,%rdx
    79ef:	e8 bc 09 00 00       	call   83b0 <_ZNSt6vectorIiSaIiEE17_M_realloc_insertIJiEEEvN9__gnu_cxx17__normal_iteratorIPiS1_EEDpOT_>
    79f4:	f2 0f 10 a4 24 10 01 	movsd  0x110(%rsp),%xmm4
    79fb:	00 00 
    79fd:	f2 0f 10 9c 24 08 01 	movsd  0x108(%rsp),%xmm3
    7a04:	00 00 
    7a06:	e9 36 ff ff ff       	jmp    7941 <_Z7blearghv+0x6c1>
    7a0b:	0f 1f 44 00 00       	nopl   0x0(%rax,%rax,1)
    7a10:	4d 89 f5             	mov    %r14,%r13
    7a13:	e9 ea fc ff ff       	jmp    7702 <_Z7blearghv+0x482>
    7a18:	41 83 c4 01          	add    $0x1,%r12d
    7a1c:	49 83 c7 08          	add    $0x8,%r15
    7a20:	44 39 e0             	cmp    %r12d,%eax
    7a23:	0f 8e 73 fe ff ff    	jle    789c <_Z7blearghv+0x61c>
    7a29:	85 c9                	test   %ecx,%ecx
    7a2b:	0f 8e 6b fe ff ff    	jle    789c <_Z7blearghv+0x61c>
    7a31:	48 c7 44 24 08 00 00 	movq   $0x0,0x8(%rsp)
    7a38:	00 00 
    7a3a:	e9 4e fd ff ff       	jmp    778d <_Z7blearghv+0x50d>
    7a3f:	48 8d 84 24 30 01 00 	lea    0x130(%rsp),%rax
    7a46:	00 
    7a47:	48 89 84 24 98 00 00 	mov    %rax,0x98(%rsp)
    7a4e:	00 
    7a4f:	48 8d 84 24 50 01 00 	lea    0x150(%rsp),%rax
    7a56:	00 
    7a57:	c7 84 24 a4 00 00 00 	movl   $0x0,0xa4(%rsp)
    7a5e:	00 00 00 00 
    7a62:	48 89 84 24 d0 00 00 	mov    %rax,0xd0(%rsp)
    7a69:	00 
    7a6a:	48 8d 84 24 70 01 00 	lea    0x170(%rsp),%rax
    7a71:	00 
    7a72:	48 89 84 24 d8 00 00 	mov    %rax,0xd8(%rsp)
    7a79:	00 
    7a7a:	48 8d 84 24 90 01 00 	lea    0x190(%rsp),%rax
    7a81:	00 
    7a82:	48 89 44 24 48       	mov    %rax,0x48(%rsp)
    7a87:	44 8b a4 24 e8 00 00 	mov    0xe8(%rsp),%r12d
    7a8e:	00 
    7a8f:	8b ac 24 e4 00 00 00 	mov    0xe4(%rsp),%ebp
    7a96:	ff b4 24 88 00 00 00 	push   0x88(%rsp)
    7a9d:	4c 8b ac 24 b8 00 00 	mov    0xb8(%rsp),%r13
    7aa4:	00 
    7aa5:	44 89 e2             	mov    %r12d,%edx
    7aa8:	89 ee                	mov    %ebp,%esi
    7aaa:	41 55                	push   %r13
    7aac:	48 8b 5c 24 30       	mov    0x30(%rsp),%rbx
    7ab1:	4c 8b b4 24 a8 00 00 	mov    0xa8(%rsp),%r14
    7ab8:	00 
    7ab9:	f2 0f 10 ac 24 28 01 	movsd  0x128(%rsp),%xmm5
    7ac0:	00 00 
    7ac2:	f2 0f 10 94 24 80 00 	movsd  0x80(%rsp),%xmm2
    7ac9:	00 00 
    7acb:	48 8b bc 24 e0 00 00 	mov    0xe0(%rsp),%rdi
    7ad2:	00 
    7ad3:	49 89 d8             	mov    %rbx,%r8
    7ad6:	f2 0f 10 8c 24 88 00 	movsd  0x88(%rsp),%xmm1
    7add:	00 00 
    7adf:	4d 89 f1             	mov    %r14,%r9
    7ae2:	89 4c 24 18          	mov    %ecx,0x18(%rsp)
    7ae6:	f2 0f 10 84 24 90 00 	movsd  0x90(%rsp),%xmm0
    7aed:	00 00 
    7aef:	e8 fc f3 ff ff       	call   6ef0 <_Z5forcedddjjddidPPdRKSt6vectorIiSaIiEEPS0_PPP6tensor>
    7af4:	49 89 d8             	mov    %rbx,%r8
    7af7:	44 89 e2             	mov    %r12d,%edx
    7afa:	4d 89 f1             	mov    %r14,%r9
    7afd:	ff b4 24 98 00 00 00 	push   0x98(%rsp)
    7b04:	89 ee                	mov    %ebp,%esi
    7b06:	41 55                	push   %r13
    7b08:	8b 4c 24 28          	mov    0x28(%rsp),%ecx
    7b0c:	f2 0f 10 ac 24 38 01 	movsd  0x138(%rsp),%xmm5
    7b13:	00 00 
    7b15:	f2 0f 10 a4 24 30 01 	movsd  0x130(%rsp),%xmm4
    7b1c:	00 00 
    7b1e:	f2 0f 10 9c 24 28 01 	movsd  0x128(%rsp),%xmm3
    7b25:	00 00 
    7b27:	f2 0f 10 94 24 90 00 	movsd  0x90(%rsp),%xmm2
    7b2e:	00 00 
    7b30:	48 8b bc 24 f8 00 00 	mov    0xf8(%rsp),%rdi
    7b37:	00 
    7b38:	f2 0f 10 8c 24 98 00 	movsd  0x98(%rsp),%xmm1
    7b3f:	00 00 
    7b41:	f2 0f 10 84 24 a0 00 	movsd  0xa0(%rsp),%xmm0
    7b48:	00 00 
    7b4a:	e8 51 f5 ff ff       	call   70a0 <_Z6torquedddjjddidPPdRKSt6vectorIiSaIiEEPS0_PPP6tensor>
    7b4f:	8b 4c 24 28          	mov    0x28(%rsp),%ecx
    7b53:	f2 0f 10 b4 24 40 01 	movsd  0x140(%rsp),%xmm6
    7b5a:	00 00 
    7b5c:	f2 0f 11 b4 24 c8 00 	movsd  %xmm6,0xc8(%rsp)
    7b63:	00 00 
    7b65:	41 89 cc             	mov    %ecx,%r12d
    7b68:	f2 0f 10 b4 24 80 01 	movsd  0x180(%rsp),%xmm6
    7b6f:	00 00 
    7b71:	44 0f af e1          	imul   %ecx,%r12d
    7b75:	f2 0f 11 b4 24 d8 00 	movsd  %xmm6,0xd8(%rsp)
    7b7c:	00 00 
    7b7e:	f2 0f 10 b4 24 78 01 	movsd  0x178(%rsp),%xmm6
    7b85:	00 00 
    7b87:	f2 0f 11 b4 24 e0 00 	movsd  %xmm6,0xe0(%rsp)
    7b8e:	00 00 
    7b90:	44 0f af e1          	imul   %ecx,%r12d
    7b94:	f2 0f 10 b4 24 70 01 	movsd  0x170(%rsp),%xmm6
    7b9b:	00 00 
    7b9d:	f2 0f 11 b4 24 e8 00 	movsd  %xmm6,0xe8(%rsp)
    7ba4:	00 00 
    7ba6:	48 83 c4 20          	add    $0x20,%rsp
    7baa:	41 c1 e4 03          	shl    $0x3,%r12d
    7bae:	49 63 dc             	movslq %r12d,%rbx
    7bb1:	48 85 db             	test   %rbx,%rbx
    7bb4:	0f 88 95 07 00 00    	js     834f <_Z7blearghv+0x10cf>
    7bba:	0f 84 0e 05 00 00    	je     80ce <_Z7blearghv+0xe4e>
    7bc0:	48 8d 2c dd 00 00 00 	lea    0x0(,%rbx,8),%rbp
    7bc7:	00 
    7bc8:	89 4c 24 08          	mov    %ecx,0x8(%rsp)
    7bcc:	48 89 ef             	mov    %rbp,%rdi
    7bcf:	e8 7c aa ff ff       	call   2650 <malloc@plt>
    7bd4:	48 83 fd 0f          	cmp    $0xf,%rbp
    7bd8:	8b 4c 24 08          	mov    0x8(%rsp),%ecx
    7bdc:	48 89 44 24 50       	mov    %rax,0x50(%rsp)
    7be1:	0f 87 01 06 00 00    	ja     81e8 <_Z7blearghv+0xf68>
    7be7:	48 83 7c 24 50 00    	cmpq   $0x0,0x50(%rsp)
    7bed:	0f 84 c8 ab ff ff    	je     27bb <_Z7blearghv.cold+0xa>
    7bf3:	48 b8 ff ff ff ff ff 	movabs $0x1fffffffffffffff,%rax
    7bfa:	ff ff 1f 
    7bfd:	48 0f af db          	imul   %rbx,%rbx
    7c01:	48 39 c3             	cmp    %rax,%rbx
    7c04:	0f 8f a7 ab ff ff    	jg     27b1 <_Z7blearghv.cold>
    7c0a:	48 c1 e3 03          	shl    $0x3,%rbx
    7c0e:	89 4c 24 08          	mov    %ecx,0x8(%rsp)
    7c12:	48 89 df             	mov    %rbx,%rdi
    7c15:	e8 36 aa ff ff       	call   2650 <malloc@plt>
    7c1a:	48 83 fb 0f          	cmp    $0xf,%rbx
    7c1e:	8b 4c 24 08          	mov    0x8(%rsp),%ecx
    7c22:	48 89 84 24 90 00 00 	mov    %rax,0x90(%rsp)
    7c29:	00 
    7c2a:	0f 87 df 05 00 00    	ja     820f <_Z7blearghv+0xf8f>
    7c30:	48 83 bc 24 90 00 00 	cmpq   $0x0,0x90(%rsp)
    7c37:	00 00 
    7c39:	0f 84 77 ab ff ff    	je     27b6 <_Z7blearghv.cold+0x5>
    7c3f:	8d 34 09             	lea    (%rcx,%rcx,1),%esi
    7c42:	45 31 f6             	xor    %r14d,%r14d
    7c45:	31 c0                	xor    %eax,%eax
    7c47:	85 f6                	test   %esi,%esi
    7c49:	0f 8f a4 04 00 00    	jg     80f3 <_Z7blearghv+0xe73>
    7c4f:	90                   	nop
    7c50:	66 0f ef c9          	pxor   %xmm1,%xmm1
    7c54:	48 8b 9c 24 88 00 00 	mov    0x88(%rsp),%rbx
    7c5b:	00 
    7c5c:	f2 0f 10 84 24 10 01 	movsd  0x110(%rsp),%xmm0
    7c63:	00 00 
    7c65:	f2 0f 2a c9          	cvtsi2sd %ecx,%xmm1
    7c69:	48 89 df             	mov    %rbx,%rdi
    7c6c:	f2 0f 5e c1          	divsd  %xmm1,%xmm0
    7c70:	e8 fb 15 00 00       	call   9270 <_Z9divtenallPPP6tensorid>
    7c75:	8b 94 24 ec 00 00 00 	mov    0xec(%rsp),%edx
    7c7c:	49 89 c6             	mov    %rax,%r14
    7c7f:	8d 34 12             	lea    (%rdx,%rdx,1),%esi
    7c82:	85 f6                	test   %esi,%esi
    7c84:	0f 8e 31 03 00 00    	jle    7fbb <_Z7blearghv+0xd3b>
    7c8a:	48 89 5c 24 38       	mov    %rbx,0x38(%rsp)
    7c8f:	48 c7 44 24 68 00 00 	movq   $0x0,0x68(%rsp)
    7c96:	00 00 
    7c98:	0f 1f 84 00 00 00 00 	nopl   0x0(%rax,%rax,1)
    7c9f:	00 
    7ca0:	48 8b 44 24 68       	mov    0x68(%rsp),%rax
    7ca5:	8d 34 12             	lea    (%rdx,%rdx,1),%esi
    7ca8:	48 c7 44 24 58 00 00 	movq   $0x0,0x58(%rsp)
    7caf:	00 00 
    7cb1:	89 84 24 a0 00 00 00 	mov    %eax,0xa0(%rsp)
    7cb8:	4c 8d 2c c5 00 00 00 	lea    0x0(,%rax,8),%r13
    7cbf:	00 
    7cc0:	85 d2                	test   %edx,%edx
    7cc2:	0f 8e d6 02 00 00    	jle    7f9e <_Z7blearghv+0xd1e>
    7cc8:	8b 44 24 58          	mov    0x58(%rsp),%eax
    7ccc:	8d 34 12             	lea    (%rdx,%rdx,1),%esi
    7ccf:	89 44 24 64          	mov    %eax,0x64(%rsp)
    7cd3:	85 f6                	test   %esi,%esi
    7cd5:	0f 8e c3 02 00 00    	jle    7f9e <_Z7blearghv+0xd1e>
    7cdb:	0f 1f 44 00 00       	nopl   0x0(%rax,%rax,1)
    7ce0:	49 8b 47 10          	mov    0x10(%r15),%rax
    7ce4:	48 8b 5c 24 58       	mov    0x58(%rsp),%rbx
    7ce9:	66 0f ef ff          	pxor   %xmm7,%xmm7
    7ced:	66 0f ef f6          	pxor   %xmm6,%xmm6
    7cf1:	f2 0f 2a b4 24 a0 00 	cvtsi2sdl 0xa0(%rsp),%xmm6
    7cf8:	00 00 
    7cfa:	4a 8b 04 28          	mov    (%rax,%r13,1),%rax
    7cfe:	f2 0f 2a fb          	cvtsi2sd %ebx,%xmm7
    7d02:	4c 8d 24 dd 00 00 00 	lea    0x0(,%rbx,8),%r12
    7d09:	00 
    7d0a:	48 8b 0c d8          	mov    (%rax,%rbx,8),%rcx
    7d0e:	49 8b 47 08          	mov    0x8(%r15),%rax
    7d12:	f2 0f 11 74 24 30    	movsd  %xmm6,0x30(%rsp)
    7d18:	4a 8b 04 28          	mov    (%rax,%r13,1),%rax
    7d1c:	f2 0f 11 7c 24 28    	movsd  %xmm7,0x28(%rsp)
    7d22:	48 8b 3c d8          	mov    (%rax,%rbx,8),%rdi
    7d26:	49 8b 07             	mov    (%r15),%rax
    7d29:	4a 8b 04 28          	mov    (%rax,%r13,1),%rax
    7d2d:	48 8b 04 d8          	mov    (%rax,%rbx,8),%rax
    7d31:	31 db                	xor    %ebx,%ebx
    7d33:	0f 1f 44 00 00       	nopl   0x0(%rax,%rax,1)
    7d38:	66 0f ef c0          	pxor   %xmm0,%xmm0
    7d3c:	66 0f ef d2          	pxor   %xmm2,%xmm2
    7d40:	f2 0f 10 9c 24 10 01 	movsd  0x110(%rsp),%xmm3
    7d47:	00 00 
    7d49:	f2 44 0f 10 34 df    	movsd  (%rdi,%rbx,8),%xmm14
    7d4f:	f2 0f 2a c2          	cvtsi2sd %edx,%xmm0
    7d53:	f2 44 0f 10 2c d9    	movsd  (%rcx,%rbx,8),%xmm13
    7d59:	48 8b 7c 24 48       	mov    0x48(%rsp),%rdi
    7d5e:	4c 89 fa             	mov    %r15,%rdx
    7d61:	f2 0f 2a d3          	cvtsi2sd %ebx,%xmm2
    7d65:	f2 44 0f 10 3c d8    	movsd  (%rax,%rbx,8),%xmm15
    7d6b:	f2 0f 10 4c 24 28    	movsd  0x28(%rsp),%xmm1
    7d71:	48 8d 2c dd 00 00 00 	lea    0x0(,%rbx,8),%rbp
    7d78:	00 
    7d79:	f2 44 0f 11 6c 24 08 	movsd  %xmm13,0x8(%rsp)
    7d80:	f2 44 0f 11 74 24 10 	movsd  %xmm14,0x10(%rsp)
    7d87:	f2 0f 5e d8          	divsd  %xmm0,%xmm3
    7d8b:	f2 0f 10 44 24 30    	movsd  0x30(%rsp),%xmm0
    7d91:	f2 44 0f 11 7c 24 18 	movsd  %xmm15,0x18(%rsp)
    7d98:	e8 13 ef ff ff       	call   6cb0 <_Z5gradvdddidPPPPd>
    7d9d:	f2 44 0f 10 7c 24 18 	movsd  0x18(%rsp),%xmm15
    7da4:	49 8b 06             	mov    (%r14),%rax
    7da7:	48 8d 14 5b          	lea    (%rbx,%rbx,2),%rdx
    7dab:	f2 44 0f 10 74 24 10 	movsd  0x10(%rsp),%xmm14
    7db2:	f2 44 0f 10 6c 24 08 	movsd  0x8(%rsp),%xmm13
    7db9:	f2 44 0f 10 8c 24 c0 	movsd  0x1c0(%rsp),%xmm9
    7dc0:	01 00 00 
    7dc3:	66 41 0f 28 e7       	movapd %xmm15,%xmm4
    7dc8:	f2 44 0f 10 94 24 c8 	movsd  0x1c8(%rsp),%xmm10
    7dcf:	01 00 00 
    7dd2:	66 41 0f 28 c6       	movapd %xmm14,%xmm0
    7dd7:	4a 8b 04 20          	mov    (%rax,%r12,1),%rax
    7ddb:	f2 0f 10 ac 24 d0 01 	movsd  0x1d0(%rsp),%xmm5
    7de2:	00 00 
    7de4:	f2 0f 10 bc 24 a8 01 	movsd  0x1a8(%rsp),%xmm7
    7deb:	00 00 
    7ded:	f2 41 0f 59 c2       	mulsd  %xmm10,%xmm0
    7df2:	f2 0f 10 94 24 b0 01 	movsd  0x1b0(%rsp),%xmm2
    7df9:	00 00 
    7dfb:	f2 41 0f 59 e1       	mulsd  %xmm9,%xmm4
    7e00:	48 8d 14 d0          	lea    (%rax,%rdx,8),%rdx
    7e04:	49 8b 07             	mov    (%r15),%rax
    7e07:	f2 0f 10 b4 24 b8 01 	movsd  0x1b8(%rsp),%xmm6
    7e0e:	00 00 
    7e10:	f2 0f 10 9c 24 90 01 	movsd  0x190(%rsp),%xmm3
    7e17:	00 00 
    7e19:	f2 44 0f 10 84 24 98 	movsd  0x198(%rsp),%xmm8
    7e20:	01 00 00 
    7e23:	f2 0f 10 8c 24 a0 01 	movsd  0x1a0(%rsp),%xmm1
    7e2a:	00 00 
    7e2c:	4a 8b 04 28          	mov    (%rax,%r13,1),%rax
    7e30:	4a 8b 04 20          	mov    (%rax,%r12,1),%rax
    7e34:	f2 0f 58 e0          	addsd  %xmm0,%xmm4
    7e38:	66 41 0f 28 c5       	movapd %xmm13,%xmm0
    7e3d:	f2 0f 59 c5          	mulsd  %xmm5,%xmm0
    7e41:	48 8d 0c 28          	lea    (%rax,%rbp,1),%rcx
    7e45:	f2 0f 58 ed          	addsd  %xmm5,%xmm5
    7e49:	f2 0f 58 e0          	addsd  %xmm0,%xmm4
    7e4d:	f2 0f 10 42 10       	movsd  0x10(%rdx),%xmm0
    7e52:	f2 0f 5c c4          	subsd  %xmm4,%xmm0
    7e56:	66 41 0f 28 e7       	movapd %xmm15,%xmm4
    7e5b:	f2 0f 59 e7          	mulsd  %xmm7,%xmm4
    7e5f:	f2 41 0f 58 f8       	addsd  %xmm8,%xmm7
    7e64:	66 44 0f 28 d8       	movapd %xmm0,%xmm11
    7e69:	66 41 0f 28 c6       	movapd %xmm14,%xmm0
    7e6e:	f2 0f 59 c2          	mulsd  %xmm2,%xmm0
    7e72:	f2 0f 58 d2          	addsd  %xmm2,%xmm2
    7e76:	f2 0f 58 e0          	addsd  %xmm0,%xmm4
    7e7a:	66 41 0f 28 c5       	movapd %xmm13,%xmm0
    7e7f:	f2 0f 59 c6          	mulsd  %xmm6,%xmm0
    7e83:	f2 41 0f 58 f2       	addsd  %xmm10,%xmm6
    7e88:	66 0f 14 d6          	unpcklpd %xmm6,%xmm2
    7e8c:	f2 0f 58 e0          	addsd  %xmm0,%xmm4
    7e90:	f2 0f 10 42 08       	movsd  0x8(%rdx),%xmm0
    7e95:	f2 0f 5c c4          	subsd  %xmm4,%xmm0
    7e99:	66 41 0f 28 e6       	movapd %xmm14,%xmm4
    7e9e:	f2 41 0f 59 e0       	mulsd  %xmm8,%xmm4
    7ea3:	66 44 0f 28 e0       	movapd %xmm0,%xmm12
    7ea8:	66 41 0f 28 c7       	movapd %xmm15,%xmm0
    7ead:	f2 0f 59 c3          	mulsd  %xmm3,%xmm0
    7eb1:	f2 0f 58 db          	addsd  %xmm3,%xmm3
    7eb5:	66 0f 14 df          	unpcklpd %xmm7,%xmm3
    7eb9:	f2 0f 58 c4          	addsd  %xmm4,%xmm0
    7ebd:	66 41 0f 28 e5       	movapd %xmm13,%xmm4
    7ec2:	f2 0f 59 e1          	mulsd  %xmm1,%xmm4
    7ec6:	f2 41 0f 58 c9       	addsd  %xmm9,%xmm1
    7ecb:	f2 0f 58 c4          	addsd  %xmm4,%xmm0
    7ecf:	f2 0f 10 22          	movsd  (%rdx),%xmm4
    7ed3:	49 8b 57 08          	mov    0x8(%r15),%rdx
    7ed7:	4a 8b 14 2a          	mov    (%rdx,%r13,1),%rdx
    7edb:	f2 0f 5c e0          	subsd  %xmm0,%xmm4
    7edf:	4a 8b 3c 22          	mov    (%rdx,%r12,1),%rdi
    7ee3:	66 0f 28 c4          	movapd %xmm4,%xmm0
    7ee7:	f2 0f 10 64 24 40    	movsd  0x40(%rsp),%xmm4
    7eed:	48 8d 14 2f          	lea    (%rdi,%rbp,1),%rdx
    7ef1:	f2 0f 59 c4          	mulsd  %xmm4,%xmm0
    7ef5:	f2 0f 58 01          	addsd  (%rcx),%xmm0
    7ef9:	f2 0f 11 01          	movsd  %xmm0,(%rcx)
    7efd:	66 41 0f 28 c4       	movapd %xmm12,%xmm0
    7f02:	f2 0f 59 c4          	mulsd  %xmm4,%xmm0
    7f06:	f2 0f 58 02          	addsd  (%rdx),%xmm0
    7f0a:	f2 0f 11 02          	movsd  %xmm0,(%rdx)
    7f0e:	49 8b 57 10          	mov    0x10(%r15),%rdx
    7f12:	66 41 0f 28 c3       	movapd %xmm11,%xmm0
    7f17:	f2 0f 59 c4          	mulsd  %xmm4,%xmm0
    7f1b:	4a 8b 14 2a          	mov    (%rdx,%r13,1),%rdx
    7f1f:	4a 8b 0c 22          	mov    (%rdx,%r12,1),%rcx
    7f23:	48 01 cd             	add    %rcx,%rbp
    7f26:	f2 0f 58 45 00       	addsd  0x0(%rbp),%xmm0
    7f2b:	f2 0f 11 45 00       	movsd  %xmm0,0x0(%rbp)
    7f30:	48 8b 74 24 38       	mov    0x38(%rsp),%rsi
    7f35:	66 0f 28 c1          	movapd %xmm1,%xmm0
    7f39:	66 0f 14 ce          	unpcklpd %xmm6,%xmm1
    7f3d:	66 0f 14 c7          	unpcklpd %xmm7,%xmm0
    7f41:	48 8b 16             	mov    (%rsi),%rdx
    7f44:	48 8d 34 db          	lea    (%rbx,%rbx,8),%rsi
    7f48:	48 83 c3 01          	add    $0x1,%rbx
    7f4c:	4a 8b 14 22          	mov    (%rdx,%r12,1),%rdx
    7f50:	48 8d 14 f2          	lea    (%rdx,%rsi,8),%rdx
    7f54:	0f 11 1a             	movups %xmm3,(%rdx)
    7f57:	0f 11 42 10          	movups %xmm0,0x10(%rdx)
    7f5b:	0f 11 52 20          	movups %xmm2,0x20(%rdx)
    7f5f:	0f 11 4a 30          	movups %xmm1,0x30(%rdx)
    7f63:	f2 0f 11 6a 40       	movsd  %xmm5,0x40(%rdx)
    7f68:	8b 94 24 ec 00 00 00 	mov    0xec(%rsp),%edx
    7f6f:	8d 34 12             	lea    (%rdx,%rdx,1),%esi
    7f72:	39 de                	cmp    %ebx,%esi
    7f74:	0f 8f be fd ff ff    	jg     7d38 <_Z7blearghv+0xab8>
    7f7a:	8b 44 24 64          	mov    0x64(%rsp),%eax
    7f7e:	83 c0 01             	add    $0x1,%eax
    7f81:	39 f0                	cmp    %esi,%eax
    7f83:	7d 19                	jge    7f9e <_Z7blearghv+0xd1e>
    7f85:	48 83 44 24 58 01    	addq   $0x1,0x58(%rsp)
    7f8b:	8b 44 24 58          	mov    0x58(%rsp),%eax
    7f8f:	8d 34 12             	lea    (%rdx,%rdx,1),%esi
    7f92:	89 44 24 64          	mov    %eax,0x64(%rsp)
    7f96:	85 f6                	test   %esi,%esi
    7f98:	0f 8f 42 fd ff ff    	jg     7ce0 <_Z7blearghv+0xa60>
    7f9e:	48 83 44 24 68 01    	addq   $0x1,0x68(%rsp)
    7fa4:	48 8b 44 24 68       	mov    0x68(%rsp),%rax
    7fa9:	49 83 c6 08          	add    $0x8,%r14
    7fad:	48 83 44 24 38 08    	addq   $0x8,0x38(%rsp)
    7fb3:	39 c6                	cmp    %eax,%esi
    7fb5:	0f 8f e5 fc ff ff    	jg     7ca0 <_Z7blearghv+0xa20>
    7fbb:	66 0f ef c0          	pxor   %xmm0,%xmm0
    7fbf:	83 84 24 a4 00 00 00 	addl   $0x1,0xa4(%rsp)
    7fc6:	01 
    7fc7:	41 89 f0             	mov    %esi,%r8d
    7fca:	89 f1                	mov    %esi,%ecx
    7fcc:	f2 0f 2a c2          	cvtsi2sd %edx,%xmm0
    7fd0:	8b 9c 24 a4 00 00 00 	mov    0xa4(%rsp),%ebx
    7fd7:	89 f2                	mov    %esi,%edx
    7fd9:	f2 0f 10 8c 24 10 01 	movsd  0x110(%rsp),%xmm1
    7fe0:	00 00 
    7fe2:	4c 89 fe             	mov    %r15,%rsi
    7fe5:	89 df                	mov    %ebx,%edi
    7fe7:	f2 0f 5e c8          	divsd  %xmm0,%xmm1
    7feb:	66 0f 28 d1          	movapd %xmm1,%xmm2
    7fef:	66 0f 28 c1          	movapd %xmm1,%xmm0
    7ff3:	e8 e8 17 00 00       	call   97e0 <_Z12writeVTKFileiPPPPdiiiddd>
    7ff8:	f2 0f 10 74 24 40    	movsd  0x40(%rsp),%xmm6
    7ffe:	66 0f ef c0          	pxor   %xmm0,%xmm0
    8002:	f2 0f 10 8c 24 b8 00 	movsd  0xb8(%rsp),%xmm1
    8009:	00 00 
    800b:	f2 0f 10 94 24 a8 00 	movsd  0xa8(%rsp),%xmm2
    8012:	00 00 
    8014:	f2 0f 10 5c 24 70    	movsd  0x70(%rsp),%xmm3
    801a:	f2 0f 59 ce          	mulsd  %xmm6,%xmm1
    801e:	48 8b bc 24 90 00 00 	mov    0x90(%rsp),%rdi
    8025:	00 
    8026:	f2 0f 58 d2          	addsd  %xmm2,%xmm2
    802a:	f2 0f 59 c6          	mulsd  %xmm6,%xmm0
    802e:	f2 0f 59 ce          	mulsd  %xmm6,%xmm1
    8032:	f2 0f 58 d8          	addsd  %xmm0,%xmm3
    8036:	f2 0f 5e ca          	divsd  %xmm2,%xmm1
    803a:	f2 0f 58 cb          	addsd  %xmm3,%xmm1
    803e:	f2 0f 10 5c 24 78    	movsd  0x78(%rsp),%xmm3
    8044:	f2 0f 58 d8          	addsd  %xmm0,%xmm3
    8048:	f2 0f 58 84 24 80 00 	addsd  0x80(%rsp),%xmm0
    804f:	00 00 
    8051:	f2 0f 11 4c 24 70    	movsd  %xmm1,0x70(%rsp)
    8057:	f2 0f 10 8c 24 c0 00 	movsd  0xc0(%rsp),%xmm1
    805e:	00 00 
    8060:	f2 0f 59 ce          	mulsd  %xmm6,%xmm1
    8064:	f2 0f 59 ce          	mulsd  %xmm6,%xmm1
    8068:	f2 0f 5e ca          	divsd  %xmm2,%xmm1
    806c:	f2 0f 58 cb          	addsd  %xmm3,%xmm1
    8070:	f2 0f 11 4c 24 78    	movsd  %xmm1,0x78(%rsp)
    8076:	f2 0f 10 8c 24 c8 00 	movsd  0xc8(%rsp),%xmm1
    807d:	00 00 
    807f:	f2 0f 59 ce          	mulsd  %xmm6,%xmm1
    8083:	f2 0f 59 ce          	mulsd  %xmm6,%xmm1
    8087:	f2 0f 5e ca          	divsd  %xmm2,%xmm1
    808b:	f2 0f 58 c8          	addsd  %xmm0,%xmm1
    808f:	f2 0f 11 8c 24 80 00 	movsd  %xmm1,0x80(%rsp)
    8096:	00 00 
    8098:	e8 83 a5 ff ff       	call   2620 <free@plt>
    809d:	48 8b 7c 24 50       	mov    0x50(%rsp),%rdi
    80a2:	e8 79 a5 ff ff       	call   2620 <free@plt>
    80a7:	83 fb 64             	cmp    $0x64,%ebx
    80aa:	0f 84 fd 01 00 00    	je     82ad <_Z7blearghv+0x102d>
    80b0:	f2 0f 10 a4 24 10 01 	movsd  0x110(%rsp),%xmm4
    80b7:	00 00 
    80b9:	8b 8c 24 ec 00 00 00 	mov    0xec(%rsp),%ecx
    80c0:	f2 0f 10 9c 24 08 01 	movsd  0x108(%rsp),%xmm3
    80c7:	00 00 
    80c9:	e9 b9 f9 ff ff       	jmp    7a87 <_Z7blearghv+0x807>
    80ce:	8d 34 09             	lea    (%rcx,%rcx,1),%esi
    80d1:	45 31 f6             	xor    %r14d,%r14d
    80d4:	31 c0                	xor    %eax,%eax
    80d6:	48 c7 44 24 50 00 00 	movq   $0x0,0x50(%rsp)
    80dd:	00 00 
    80df:	48 c7 84 24 90 00 00 	movq   $0x0,0x90(%rsp)
    80e6:	00 00 00 00 00 
    80eb:	85 f6                	test   %esi,%esi
    80ed:	0f 8e 5d fb ff ff    	jle    7c50 <_Z7blearghv+0x9d0>
    80f3:	85 c9                	test   %ecx,%ecx
    80f5:	0f 8e c6 00 00 00    	jle    81c1 <_Z7blearghv+0xf41>
    80fb:	0f 1f 44 00 00       	nopl   0x0(%rax,%rax,1)
    8100:	66 0f ef f6          	pxor   %xmm6,%xmm6
    8104:	45 31 ed             	xor    %r13d,%r13d
    8107:	f2 41 0f 2a f6       	cvtsi2sd %r14d,%xmm6
    810c:	f2 0f 11 74 24 10    	movsd  %xmm6,0x10(%rsp)
    8112:	66 0f 1f 44 00 00    	nopw   0x0(%rax,%rax,1)
    8118:	66 0f ef ff          	pxor   %xmm7,%xmm7
    811c:	83 c0 01             	add    $0x1,%eax
    811f:	31 ed                	xor    %ebp,%ebp
    8121:	f2 41 0f 2a fd       	cvtsi2sd %r13d,%xmm7
    8126:	48 63 d8             	movslq %eax,%rbx
    8129:	f2 0f 11 7c 24 08    	movsd  %xmm7,0x8(%rsp)
    812f:	90                   	nop
    8130:	66 0f ef c0          	pxor   %xmm0,%xmm0
    8134:	89 ce                	mov    %ecx,%esi
    8136:	66 0f ef d2          	pxor   %xmm2,%xmm2
    813a:	f2 0f 10 4c 24 08    	movsd  0x8(%rsp),%xmm1
    8140:	f2 0f 10 9c 24 10 01 	movsd  0x110(%rsp),%xmm3
    8147:	00 00 
    8149:	f2 0f 2a c1          	cvtsi2sd %ecx,%xmm0
    814d:	4c 89 ff             	mov    %r15,%rdi
    8150:	0f af f1             	imul   %ecx,%esi
    8153:	f2 0f 2a d5          	cvtsi2sd %ebp,%xmm2
    8157:	f2 0f 5e d8          	divsd  %xmm0,%xmm3
    815b:	0f af f1             	imul   %ecx,%esi
    815e:	f2 0f 10 44 24 10    	movsd  0x10(%rsp),%xmm0
    8164:	c1 e6 03             	shl    $0x3,%esi
    8167:	e8 a4 15 00 00       	call   9710 <_Z10divvadvecvPPPPddddid>
    816c:	8d 43 ff             	lea    -0x1(%rbx),%eax
    816f:	41 39 c4             	cmp    %eax,%r12d
    8172:	7e 55                	jle    81c9 <_Z7blearghv+0xf49>
    8174:	8b 8c 24 ec 00 00 00 	mov    0xec(%rsp),%ecx
    817b:	48 8b 44 24 50       	mov    0x50(%rsp),%rax
    8180:	83 c5 01             	add    $0x1,%ebp
    8183:	8d 34 09             	lea    (%rcx,%rcx,1),%esi
    8186:	f2 0f 11 44 d8 f8    	movsd  %xmm0,-0x8(%rax,%rbx,8)
    818c:	89 d8                	mov    %ebx,%eax
    818e:	48 83 c3 01          	add    $0x1,%rbx
    8192:	39 ee                	cmp    %ebp,%esi
    8194:	7f 9a                	jg     8130 <_Z7blearghv+0xeb0>
    8196:	41 83 c5 01          	add    $0x1,%r13d
    819a:	44 39 ee             	cmp    %r13d,%esi
    819d:	7e 0d                	jle    81ac <_Z7blearghv+0xf2c>
    819f:	85 c9                	test   %ecx,%ecx
    81a1:	0f 8f 71 ff ff ff    	jg     8118 <_Z7blearghv+0xe98>
    81a7:	e9 a4 fa ff ff       	jmp    7c50 <_Z7blearghv+0x9d0>
    81ac:	41 83 c6 01          	add    $0x1,%r14d
    81b0:	44 39 f6             	cmp    %r14d,%esi
    81b3:	0f 8e 97 fa ff ff    	jle    7c50 <_Z7blearghv+0x9d0>
    81b9:	85 c9                	test   %ecx,%ecx
    81bb:	0f 8f 3f ff ff ff    	jg     8100 <_Z7blearghv+0xe80>
    81c1:	8d 34 09             	lea    (%rcx,%rcx,1),%esi
    81c4:	e9 87 fa ff ff       	jmp    7c50 <_Z7blearghv+0x9d0>
    81c9:	48 8d 0d 08 34 00 00 	lea    0x3408(%rip),%rcx        # b5d8 <_IO_stdin_used+0x5d8>
    81d0:	ba ab 01 00 00       	mov    $0x1ab,%edx
    81d5:	48 8d 35 e4 34 00 00 	lea    0x34e4(%rip),%rsi        # b6c0 <_IO_stdin_used+0x6c0>
    81dc:	48 8d 3d db 35 00 00 	lea    0x35db(%rip),%rdi        # b7be <_IO_stdin_used+0x7be>
    81e3:	e8 e8 a2 ff ff       	call   24d0 <__assert_fail@plt>
    81e8:	a8 0f                	test   $0xf,%al
    81ea:	0f 84 f7 f9 ff ff    	je     7be7 <_Z7blearghv+0x967>
    81f0:	48 8d 0d b1 32 00 00 	lea    0x32b1(%rip),%rcx        # b4a8 <_IO_stdin_used+0x4a8>
    81f7:	ba b9 00 00 00       	mov    $0xb9,%edx
    81fc:	48 8d 35 dd 32 00 00 	lea    0x32dd(%rip),%rsi        # b4e0 <_IO_stdin_used+0x4e0>
    8203:	48 8d 3d 0e 33 00 00 	lea    0x330e(%rip),%rdi        # b518 <_IO_stdin_used+0x518>
    820a:	e8 c1 a2 ff ff       	call   24d0 <__assert_fail@plt>
    820f:	a8 0f                	test   $0xf,%al
    8211:	75 dd                	jne    81f0 <_Z7blearghv+0xf70>
    8213:	e9 18 fa ff ff       	jmp    7c30 <_Z7blearghv+0x9b0>
    8218:	0f 1f 84 00 00 00 00 	nopl   0x0(%rax,%rax,1)
    821f:	00 
    8220:	66 0f 28 c1          	movapd %xmm1,%xmm0
    8224:	89 4c 24 10          	mov    %ecx,0x10(%rsp)
    8228:	f2 0f 11 5c 24 30    	movsd  %xmm3,0x30(%rsp)
    822e:	f2 0f 11 64 24 28    	movsd  %xmm4,0x28(%rsp)
    8234:	f2 0f 11 6c 24 18    	movsd  %xmm5,0x18(%rsp)
    823a:	f2 0f 11 4c 24 08    	movsd  %xmm1,0x8(%rsp)
    8240:	e8 db a2 ff ff       	call   2520 <sqrt@plt>
    8245:	f2 0f 10 6c 24 18    	movsd  0x18(%rsp),%xmm5
    824b:	f2 0f 10 5c 24 30    	movsd  0x30(%rsp),%xmm3
    8251:	f2 0f 10 4c 24 08    	movsd  0x8(%rsp),%xmm1
    8257:	8b 4c 24 10          	mov    0x10(%rsp),%ecx
    825b:	f2 0f 58 c5          	addsd  %xmm5,%xmm0
    825f:	f2 0f 10 64 24 28    	movsd  0x28(%rsp),%xmm4
    8265:	66 0f 2f d8          	comisd %xmm0,%xmm3
    8269:	0f 87 d9 f6 ff ff    	ja     7948 <_Z7blearghv+0x6c8>
    826f:	66 0f 28 c1          	movapd %xmm1,%xmm0
    8273:	89 4c 24 08          	mov    %ecx,0x8(%rsp)
    8277:	f2 0f 11 5c 24 28    	movsd  %xmm3,0x28(%rsp)
    827d:	f2 0f 11 64 24 18    	movsd  %xmm4,0x18(%rsp)
    8283:	f2 0f 11 6c 24 10    	movsd  %xmm5,0x10(%rsp)
    8289:	e8 92 a2 ff ff       	call   2520 <sqrt@plt>
    828e:	8b 4c 24 08          	mov    0x8(%rsp),%ecx
    8292:	f2 0f 10 6c 24 10    	movsd  0x10(%rsp),%xmm5
    8298:	f2 0f 10 64 24 18    	movsd  0x18(%rsp),%xmm4
    829e:	f2 0f 10 5c 24 28    	movsd  0x28(%rsp),%xmm3
    82a4:	66 0f 28 c8          	movapd %xmm0,%xmm1
    82a8:	e9 10 f7 ff ff       	jmp    79bd <_Z7blearghv+0x73d>
    82ad:	f2 0f 10 84 24 80 00 	movsd  0x80(%rsp),%xmm0
    82b4:	00 00 
    82b6:	48 8d 3d 83 6d 00 00 	lea    0x6d83(%rip),%rdi        # f040 <_ZSt4cout@GLIBCXX_3.4>
    82bd:	e8 0e a4 ff ff       	call   26d0 <_ZNSo9_M_insertIdEERSoT_@plt>
    82c2:	4c 8d 25 66 35 00 00 	lea    0x3566(%rip),%r12        # b82f <_IO_stdin_used+0x82f>
    82c9:	ba 01 00 00 00       	mov    $0x1,%edx
    82ce:	48 89 c7             	mov    %rax,%rdi
    82d1:	48 89 c5             	mov    %rax,%rbp
    82d4:	4c 89 e6             	mov    %r12,%rsi
    82d7:	e8 04 a3 ff ff       	call   25e0 <_ZSt16__ostream_insertIcSt11char_traitsIcEERSt13basic_ostreamIT_T0_ES6_PKS3_l@plt>
    82dc:	f2 0f 10 44 24 78    	movsd  0x78(%rsp),%xmm0
    82e2:	48 89 ef             	mov    %rbp,%rdi
    82e5:	e8 e6 a3 ff ff       	call   26d0 <_ZNSo9_M_insertIdEERSoT_@plt>
    82ea:	ba 01 00 00 00       	mov    $0x1,%edx
    82ef:	4c 89 e6             	mov    %r12,%rsi
    82f2:	48 89 c7             	mov    %rax,%rdi
    82f5:	48 89 c5             	mov    %rax,%rbp
    82f8:	e8 e3 a2 ff ff       	call   25e0 <_ZSt16__ostream_insertIcSt11char_traitsIcEERSt13basic_ostreamIT_T0_ES6_PKS3_l@plt>
    82fd:	f2 0f 10 44 24 70    	movsd  0x70(%rsp),%xmm0
    8303:	48 89 ef             	mov    %rbp,%rdi
    8306:	e8 c5 a3 ff ff       	call   26d0 <_ZNSo9_M_insertIdEERSoT_@plt>
    830b:	48 8b bc 24 30 01 00 	mov    0x130(%rsp),%rdi
    8312:	00 
    8313:	48 85 ff             	test   %rdi,%rdi
    8316:	74 10                	je     8328 <_Z7blearghv+0x10a8>
    8318:	48 8b b4 24 40 01 00 	mov    0x140(%rsp),%rsi
    831f:	00 
    8320:	48 29 fe             	sub    %rdi,%rsi
    8323:	e8 88 a2 ff ff       	call   25b0 <_ZdlPvm@plt>
    8328:	48 8b 84 24 d8 01 00 	mov    0x1d8(%rsp),%rax
    832f:	00 
    8330:	64 48 2b 04 25 28 00 	sub    %fs:0x28,%rax
    8337:	00 00 
    8339:	75 52                	jne    838d <_Z7blearghv+0x110d>
    833b:	48 81 c4 e8 01 00 00 	add    $0x1e8,%rsp
    8342:	31 c0                	xor    %eax,%eax
    8344:	5b                   	pop    %rbx
    8345:	5d                   	pop    %rbp
    8346:	41 5c                	pop    %r12
    8348:	41 5d                	pop    %r13
    834a:	41 5e                	pop    %r14
    834c:	41 5f                	pop    %r15
    834e:	c3                   	ret    
    834f:	48 8d 0d 02 30 00 00 	lea    0x3002(%rip),%rcx        # b358 <_IO_stdin_used+0x358>
    8356:	ba 30 01 00 00       	mov    $0x130,%edx
    835b:	48 8d 35 7e 30 00 00 	lea    0x307e(%rip),%rsi        # b3e0 <_IO_stdin_used+0x3e0>
    8362:	48 8d 3d af 30 00 00 	lea    0x30af(%rip),%rdi        # b418 <_IO_stdin_used+0x418>
    8369:	e8 62 a1 ff ff       	call   24d0 <__assert_fail@plt>
    836e:	48 8d 0d 2a 34 00 00 	lea    0x342a(%rip),%rcx        # b79f <_IO_stdin_used+0x79f>
    8375:	ba ca 01 00 00       	mov    $0x1ca,%edx
    837a:	48 8d 35 ba 33 00 00 	lea    0x33ba(%rip),%rsi        # b73b <_IO_stdin_used+0x73b>
    8381:	48 8d 3d 25 34 00 00 	lea    0x3425(%rip),%rdi        # b7ad <_IO_stdin_used+0x7ad>
    8388:	e8 43 a1 ff ff       	call   24d0 <__assert_fail@plt>
    838d:	e8 3e a2 ff ff       	call   25d0 <__stack_chk_fail@plt>
    8392:	f3 0f 1e fa          	endbr64 
    8396:	48 89 c5             	mov    %rax,%rbp
    8399:	e9 2b a4 ff ff       	jmp    27c9 <_Z7blearghv.cold+0x18>
    839e:	f3 0f 1e fa          	endbr64 
    83a2:	e9 1d a4 ff ff       	jmp    27c4 <_Z7blearghv.cold+0x13>
    83a7:	66 0f 1f 84 00 00 00 	nopw   0x0(%rax,%rax,1)
    83ae:	00 00 

00000000000083b0 <_ZNSt6vectorIiSaIiEE17_M_realloc_insertIJiEEEvN9__gnu_cxx17__normal_iteratorIPiS1_EEDpOT_>:
    83b0:	f3 0f 1e fa          	endbr64 
    83b4:	41 57                	push   %r15
    83b6:	49 89 d7             	mov    %rdx,%r15
    83b9:	48 ba ff ff ff ff ff 	movabs $0x1fffffffffffffff,%rdx
    83c0:	ff ff 1f 
    83c3:	41 56                	push   %r14
    83c5:	41 55                	push   %r13
    83c7:	41 54                	push   %r12
    83c9:	55                   	push   %rbp
    83ca:	53                   	push   %rbx
    83cb:	48 83 ec 18          	sub    $0x18,%rsp
    83cf:	4c 8b 67 08          	mov    0x8(%rdi),%r12
    83d3:	4c 8b 37             	mov    (%rdi),%r14
    83d6:	4c 89 e0             	mov    %r12,%rax
    83d9:	4c 29 f0             	sub    %r14,%rax
    83dc:	48 c1 f8 02          	sar    $0x2,%rax
    83e0:	48 39 d0             	cmp    %rdx,%rax
    83e3:	0f 84 02 01 00 00    	je     84eb <_ZNSt6vectorIiSaIiEE17_M_realloc_insertIJiEEEvN9__gnu_cxx17__normal_iteratorIPiS1_EEDpOT_+0x13b>
    83e9:	48 85 c0             	test   %rax,%rax
    83ec:	ba 01 00 00 00       	mov    $0x1,%edx
    83f1:	48 89 fd             	mov    %rdi,%rbp
    83f4:	49 89 f5             	mov    %rsi,%r13
    83f7:	48 0f 45 d0          	cmovne %rax,%rdx
    83fb:	31 c9                	xor    %ecx,%ecx
    83fd:	48 01 d0             	add    %rdx,%rax
    8400:	48 89 f2             	mov    %rsi,%rdx
    8403:	0f 92 c1             	setb   %cl
    8406:	4c 29 f2             	sub    %r14,%rdx
    8409:	48 85 c9             	test   %rcx,%rcx
    840c:	0f 85 96 00 00 00    	jne    84a8 <_ZNSt6vectorIiSaIiEE17_M_realloc_insertIJiEEEvN9__gnu_cxx17__normal_iteratorIPiS1_EEDpOT_+0xf8>
    8412:	48 85 c0             	test   %rax,%rax
    8415:	0f 85 b5 00 00 00    	jne    84d0 <_ZNSt6vectorIiSaIiEE17_M_realloc_insertIJiEEEvN9__gnu_cxx17__normal_iteratorIPiS1_EEDpOT_+0x120>
    841b:	31 db                	xor    %ebx,%ebx
    841d:	31 ff                	xor    %edi,%edi
    841f:	41 8b 07             	mov    (%r15),%eax
    8422:	4d 29 ec             	sub    %r13,%r12
    8425:	4c 8d 7c 17 04       	lea    0x4(%rdi,%rdx,1),%r15
    842a:	66 48 0f 6e c7       	movq   %rdi,%xmm0
    842f:	89 04 17             	mov    %eax,(%rdi,%rdx,1)
    8432:	4b 8d 04 27          	lea    (%r15,%r12,1),%rax
    8436:	66 48 0f 6e c8       	movq   %rax,%xmm1
    843b:	66 0f 6c c1          	punpcklqdq %xmm1,%xmm0
    843f:	0f 29 04 24          	movaps %xmm0,(%rsp)
    8443:	48 85 d2             	test   %rdx,%rdx
    8446:	7f 28                	jg     8470 <_ZNSt6vectorIiSaIiEE17_M_realloc_insertIJiEEEvN9__gnu_cxx17__normal_iteratorIPiS1_EEDpOT_+0xc0>
    8448:	4d 85 e4             	test   %r12,%r12
    844b:	7f 43                	jg     8490 <_ZNSt6vectorIiSaIiEE17_M_realloc_insertIJiEEEvN9__gnu_cxx17__normal_iteratorIPiS1_EEDpOT_+0xe0>
    844d:	4d 85 f6             	test   %r14,%r14
    8450:	75 2b                	jne    847d <_ZNSt6vectorIiSaIiEE17_M_realloc_insertIJiEEEvN9__gnu_cxx17__normal_iteratorIPiS1_EEDpOT_+0xcd>
    8452:	66 0f 6f 14 24       	movdqa (%rsp),%xmm2
    8457:	48 89 5d 10          	mov    %rbx,0x10(%rbp)
    845b:	0f 11 55 00          	movups %xmm2,0x0(%rbp)
    845f:	48 83 c4 18          	add    $0x18,%rsp
    8463:	5b                   	pop    %rbx
    8464:	5d                   	pop    %rbp
    8465:	41 5c                	pop    %r12
    8467:	41 5d                	pop    %r13
    8469:	41 5e                	pop    %r14
    846b:	41 5f                	pop    %r15
    846d:	c3                   	ret    
    846e:	66 90                	xchg   %ax,%ax
    8470:	4c 89 f6             	mov    %r14,%rsi
    8473:	e8 68 a2 ff ff       	call   26e0 <memmove@plt>
    8478:	4d 85 e4             	test   %r12,%r12
    847b:	7f 13                	jg     8490 <_ZNSt6vectorIiSaIiEE17_M_realloc_insertIJiEEEvN9__gnu_cxx17__normal_iteratorIPiS1_EEDpOT_+0xe0>
    847d:	48 8b 75 10          	mov    0x10(%rbp),%rsi
    8481:	4c 89 f7             	mov    %r14,%rdi
    8484:	4c 29 f6             	sub    %r14,%rsi
    8487:	e8 24 a1 ff ff       	call   25b0 <_ZdlPvm@plt>
    848c:	eb c4                	jmp    8452 <_ZNSt6vectorIiSaIiEE17_M_realloc_insertIJiEEEvN9__gnu_cxx17__normal_iteratorIPiS1_EEDpOT_+0xa2>
    848e:	66 90                	xchg   %ax,%ax
    8490:	4c 89 e2             	mov    %r12,%rdx
    8493:	4c 89 ee             	mov    %r13,%rsi
    8496:	4c 89 ff             	mov    %r15,%rdi
    8499:	e8 92 a0 ff ff       	call   2530 <memcpy@plt>
    849e:	4d 85 f6             	test   %r14,%r14
    84a1:	74 af                	je     8452 <_ZNSt6vectorIiSaIiEE17_M_realloc_insertIJiEEEvN9__gnu_cxx17__normal_iteratorIPiS1_EEDpOT_+0xa2>
    84a3:	eb d8                	jmp    847d <_ZNSt6vectorIiSaIiEE17_M_realloc_insertIJiEEEvN9__gnu_cxx17__normal_iteratorIPiS1_EEDpOT_+0xcd>
    84a5:	0f 1f 00             	nopl   (%rax)
    84a8:	48 bb fc ff ff ff ff 	movabs $0x7ffffffffffffffc,%rbx
    84af:	ff ff 7f 
    84b2:	48 89 df             	mov    %rbx,%rdi
    84b5:	48 89 14 24          	mov    %rdx,(%rsp)
    84b9:	e8 e2 a0 ff ff       	call   25a0 <_Znwm@plt>
    84be:	48 8b 14 24          	mov    (%rsp),%rdx
    84c2:	48 89 c7             	mov    %rax,%rdi
    84c5:	48 01 c3             	add    %rax,%rbx
    84c8:	e9 52 ff ff ff       	jmp    841f <_ZNSt6vectorIiSaIiEE17_M_realloc_insertIJiEEEvN9__gnu_cxx17__normal_iteratorIPiS1_EEDpOT_+0x6f>
    84cd:	0f 1f 00             	nopl   (%rax)
    84d0:	48 b9 ff ff ff ff ff 	movabs $0x1fffffffffffffff,%rcx
    84d7:	ff ff 1f 
    84da:	48 39 c8             	cmp    %rcx,%rax
    84dd:	48 0f 47 c1          	cmova  %rcx,%rax
    84e1:	48 8d 1c 85 00 00 00 	lea    0x0(,%rax,4),%rbx
    84e8:	00 
    84e9:	eb c7                	jmp    84b2 <_ZNSt6vectorIiSaIiEE17_M_realloc_insertIJiEEEvN9__gnu_cxx17__normal_iteratorIPiS1_EEDpOT_+0x102>
    84eb:	48 8d 3d 3f 33 00 00 	lea    0x333f(%rip),%rdi        # b831 <_IO_stdin_used+0x831>
    84f2:	e8 99 9f ff ff       	call   2490 <_ZSt20__throw_length_errorPKc@plt>
    84f7:	66 0f 1f 84 00 00 00 	nopw   0x0(%rax,%rax,1)
    84fe:	00 00 

0000000000008500 <_Z16print_rss_memoryRKNSt7__cxx1112basic_stringIcSt11char_traitsIcESaIcEEE>:
    8500:	f3 0f 1e fa          	endbr64 
    8504:	55                   	push   %rbp
    8505:	48 83 ec 20          	sub    $0x20,%rsp
    8509:	48 8b 57 08          	mov    0x8(%rdi),%rdx
    850d:	48 8b 37             	mov    (%rdi),%rsi
    8510:	48 8d 3d 29 6b 00 00 	lea    0x6b29(%rip),%rdi        # f040 <_ZSt4cout@GLIBCXX_3.4>
    8517:	64 48 8b 04 25 28 00 	mov    %fs:0x28,%rax
    851e:	00 00 
    8520:	48 89 44 24 18       	mov    %rax,0x18(%rsp)
    8525:	31 c0                	xor    %eax,%eax
    8527:	e8 b4 a0 ff ff       	call   25e0 <_ZSt16__ostream_insertIcSt11char_traitsIcEERSt13basic_ostreamIT_T0_ES6_PKS3_l@plt>
    852c:	48 8d 35 c5 35 00 00 	lea    0x35c5(%rip),%rsi        # baf8 <_IO_stdin_used+0xaf8>
    8533:	ba 01 00 00 00       	mov    $0x1,%edx
    8538:	48 89 c7             	mov    %rax,%rdi
    853b:	e8 a0 a0 ff ff       	call   25e0 <_ZSt16__ostream_insertIcSt11char_traitsIcEERSt13basic_ostreamIT_T0_ES6_PKS3_l@plt>
    8540:	48 8d 35 9d 34 00 00 	lea    0x349d(%rip),%rsi        # b9e4 <_IO_stdin_used+0x9e4>
    8547:	48 8d 3d f2 33 00 00 	lea    0x33f2(%rip),%rdi        # b940 <_IO_stdin_used+0x940>
    854e:	e8 bd a0 ff ff       	call   2610 <fopen@plt>
    8553:	48 85 c0             	test   %rax,%rax
    8556:	0f 84 a2 00 00 00    	je     85fe <_Z16print_rss_memoryRKNSt7__cxx1112basic_stringIcSt11char_traitsIcESaIcEEE+0xfe>
    855c:	48 89 c5             	mov    %rax,%rbp
    855f:	48 8d 4c 24 10       	lea    0x10(%rsp),%rcx
    8564:	48 8d 54 24 08       	lea    0x8(%rsp),%rdx
    8569:	48 89 c7             	mov    %rax,%rdi
    856c:	48 8d 35 f8 33 00 00 	lea    0x33f8(%rip),%rsi        # b96b <_IO_stdin_used+0x96b>
    8573:	31 c0                	xor    %eax,%eax
    8575:	e8 d6 a1 ff ff       	call   2750 <__isoc99_fscanf@plt>
    857a:	83 f8 02             	cmp    $0x2,%eax
    857d:	75 51                	jne    85d0 <_Z16print_rss_memoryRKNSt7__cxx1112basic_stringIcSt11char_traitsIcESaIcEEE+0xd0>
    857f:	48 89 ef             	mov    %rbp,%rdi
    8582:	e8 09 a0 ff ff       	call   2590 <fclose@plt>
    8587:	bf 1e 00 00 00       	mov    $0x1e,%edi
    858c:	e8 2f 9f ff ff       	call   24c0 <sysconf@plt>
    8591:	48 83 f8 ff          	cmp    $0xffffffffffffffff,%rax
    8595:	74 59                	je     85f0 <_Z16print_rss_memoryRKNSt7__cxx1112basic_stringIcSt11char_traitsIcESaIcEEE+0xf0>
    8597:	48 0f af 44 24 10    	imul   0x10(%rsp),%rax
    859d:	48 8d 35 04 34 00 00 	lea    0x3404(%rip),%rsi        # b9a8 <_IO_stdin_used+0x9a8>
    85a4:	bf 01 00 00 00       	mov    $0x1,%edi
    85a9:	48 89 c2             	mov    %rax,%rdx
    85ac:	31 c0                	xor    %eax,%eax
    85ae:	e8 2d 9e ff ff       	call   23e0 <__printf_chk@plt>
    85b3:	48 8b 44 24 18       	mov    0x18(%rsp),%rax
    85b8:	64 48 2b 04 25 28 00 	sub    %fs:0x28,%rax
    85bf:	00 00 
    85c1:	75 5c                	jne    861f <_Z16print_rss_memoryRKNSt7__cxx1112basic_stringIcSt11char_traitsIcESaIcEEE+0x11f>
    85c3:	48 83 c4 20          	add    $0x20,%rsp
    85c7:	5d                   	pop    %rbp
    85c8:	c3                   	ret    
    85c9:	0f 1f 80 00 00 00 00 	nopl   0x0(%rax)
    85d0:	48 8d 3d 9c 33 00 00 	lea    0x339c(%rip),%rdi        # b973 <_IO_stdin_used+0x973>
    85d7:	e8 74 9f ff ff       	call   2550 <perror@plt>
    85dc:	48 89 ef             	mov    %rbp,%rdi
    85df:	e8 ac 9f ff ff       	call   2590 <fclose@plt>
    85e4:	eb cd                	jmp    85b3 <_Z16print_rss_memoryRKNSt7__cxx1112basic_stringIcSt11char_traitsIcESaIcEEE+0xb3>
    85e6:	66 2e 0f 1f 84 00 00 	cs nopw 0x0(%rax,%rax,1)
    85ed:	00 00 00 
    85f0:	48 8d 3d 96 33 00 00 	lea    0x3396(%rip),%rdi        # b98d <_IO_stdin_used+0x98d>
    85f7:	e8 54 9f ff ff       	call   2550 <perror@plt>
    85fc:	eb b5                	jmp    85b3 <_Z16print_rss_memoryRKNSt7__cxx1112basic_stringIcSt11char_traitsIcESaIcEEE+0xb3>
    85fe:	48 8b 44 24 18       	mov    0x18(%rsp),%rax
    8603:	64 48 2b 04 25 28 00 	sub    %fs:0x28,%rax
    860a:	00 00 
    860c:	75 11                	jne    861f <_Z16print_rss_memoryRKNSt7__cxx1112basic_stringIcSt11char_traitsIcESaIcEEE+0x11f>
    860e:	48 83 c4 20          	add    $0x20,%rsp
    8612:	48 8d 3d 38 33 00 00 	lea    0x3338(%rip),%rdi        # b951 <_IO_stdin_used+0x951>
    8619:	5d                   	pop    %rbp
    861a:	e9 31 9f ff ff       	jmp    2550 <perror@plt>
    861f:	e8 ac 9f ff ff       	call   25d0 <__stack_chk_fail@plt>
    8624:	66 66 2e 0f 1f 84 00 	data16 cs nopw 0x0(%rax,%rax,1)
    862b:	00 00 00 00 
    862f:	90                   	nop

0000000000008630 <_Z10allocate2djjPPd>:
    8630:	f3 0f 1e fa          	endbr64 
    8634:	41 55                	push   %r13
    8636:	41 89 fd             	mov    %edi,%r13d
    8639:	41 54                	push   %r12
    863b:	55                   	push   %rbp
    863c:	89 f5                	mov    %esi,%ebp
    863e:	53                   	push   %rbx
    863f:	4c 89 eb             	mov    %r13,%rbx
    8642:	49 c1 e5 03          	shl    $0x3,%r13
    8646:	4c 89 ef             	mov    %r13,%rdi
    8649:	48 83 ec 08          	sub    $0x8,%rsp
    864d:	e8 9e 9d ff ff       	call   23f0 <_Znam@plt>
    8652:	49 89 c4             	mov    %rax,%r12
    8655:	85 db                	test   %ebx,%ebx
    8657:	74 24                	je     867d <_Z10allocate2djjPPd+0x4d>
    8659:	48 c1 e5 03          	shl    $0x3,%rbp
    865d:	48 89 c3             	mov    %rax,%rbx
    8660:	49 01 c5             	add    %rax,%r13
    8663:	0f 1f 44 00 00       	nopl   0x0(%rax,%rax,1)
    8668:	48 89 ef             	mov    %rbp,%rdi
    866b:	48 83 c3 08          	add    $0x8,%rbx
    866f:	e8 7c 9d ff ff       	call   23f0 <_Znam@plt>
    8674:	48 89 43 f8          	mov    %rax,-0x8(%rbx)
    8678:	4c 39 eb             	cmp    %r13,%rbx
    867b:	75 eb                	jne    8668 <_Z10allocate2djjPPd+0x38>
    867d:	48 83 c4 08          	add    $0x8,%rsp
    8681:	4c 89 e0             	mov    %r12,%rax
    8684:	5b                   	pop    %rbx
    8685:	5d                   	pop    %rbp
    8686:	41 5c                	pop    %r12
    8688:	41 5d                	pop    %r13
    868a:	c3                   	ret    
    868b:	0f 1f 44 00 00       	nopl   0x0(%rax,%rax,1)

0000000000008690 <_Z10allocate3djjj>:
    8690:	f3 0f 1e fa          	endbr64 
    8694:	41 57                	push   %r15
    8696:	48 63 c7             	movslq %edi,%rax
    8699:	4c 63 fe             	movslq %esi,%r15
    869c:	41 56                	push   %r14
    869e:	49 be ff ff ff ff ff 	movabs $0xfffffffffffffff,%r14
    86a5:	ff ff 0f 
    86a8:	41 55                	push   %r13
    86aa:	41 54                	push   %r12
    86ac:	55                   	push   %rbp
    86ad:	53                   	push   %rbx
    86ae:	48 83 ec 28          	sub    $0x28,%rsp
    86b2:	44 89 7c 24 04       	mov    %r15d,0x4(%rsp)
    86b7:	4c 39 f0             	cmp    %r14,%rax
    86ba:	0f 87 c6 a1 ff ff    	ja     2886 <_Z10allocate3djjj.cold>
    86c0:	48 8d 3c c5 00 00 00 	lea    0x0(,%rax,8),%rdi
    86c7:	00 
    86c8:	48 89 c3             	mov    %rax,%rbx
    86cb:	89 d5                	mov    %edx,%ebp
    86cd:	e8 1e 9d ff ff       	call   23f0 <_Znam@plt>
    86d2:	48 89 44 24 18       	mov    %rax,0x18(%rsp)
    86d7:	85 db                	test   %ebx,%ebx
    86d9:	0f 8e 97 00 00 00    	jle    8776 <_Z10allocate3djjj+0xe6>
    86df:	4d 39 f7             	cmp    %r14,%r15
    86e2:	0f 87 9e a1 ff ff    	ja     2886 <_Z10allocate3djjj.cold>
    86e8:	48 63 c5             	movslq %ebp,%rax
    86eb:	89 db                	mov    %ebx,%ebx
    86ed:	49 c1 e7 03          	shl    $0x3,%r15
    86f1:	48 89 44 24 10       	mov    %rax,0x10(%rsp)
    86f6:	4c 8d 2c c5 00 00 00 	lea    0x0(,%rax,8),%r13
    86fd:	00 
    86fe:	48 8b 44 24 18       	mov    0x18(%rsp),%rax
    8703:	48 89 c5             	mov    %rax,%rbp
    8706:	48 8d 04 d8          	lea    (%rax,%rbx,8),%rax
    870a:	48 89 44 24 08       	mov    %rax,0x8(%rsp)
    870f:	8b 44 24 04          	mov    0x4(%rsp),%eax
    8713:	44 8d 60 ff          	lea    -0x1(%rax),%r12d
    8717:	49 c1 e4 03          	shl    $0x3,%r12
    871b:	0f 1f 44 00 00       	nopl   0x0(%rax,%rax,1)
    8720:	4c 89 ff             	mov    %r15,%rdi
    8723:	e8 c8 9c ff ff       	call   23f0 <_Znam@plt>
    8728:	48 89 45 00          	mov    %rax,0x0(%rbp)
    872c:	48 89 c3             	mov    %rax,%rbx
    872f:	8b 44 24 04          	mov    0x4(%rsp),%eax
    8733:	85 c0                	test   %eax,%eax
    8735:	7e 34                	jle    876b <_Z10allocate3djjj+0xdb>
    8737:	48 b9 ff ff ff ff ff 	movabs $0xfffffffffffffff,%rcx
    873e:	ff ff 0f 
    8741:	48 39 4c 24 10       	cmp    %rcx,0x10(%rsp)
    8746:	77 42                	ja     878a <_Z10allocate3djjj+0xfa>
    8748:	45 31 f6             	xor    %r14d,%r14d
    874b:	eb 0b                	jmp    8758 <_Z10allocate3djjj+0xc8>
    874d:	0f 1f 00             	nopl   (%rax)
    8750:	48 8b 5d 00          	mov    0x0(%rbp),%rbx
    8754:	49 83 c6 08          	add    $0x8,%r14
    8758:	4c 89 ef             	mov    %r13,%rdi
    875b:	4c 01 f3             	add    %r14,%rbx
    875e:	e8 8d 9c ff ff       	call   23f0 <_Znam@plt>
    8763:	48 89 03             	mov    %rax,(%rbx)
    8766:	4d 39 e6             	cmp    %r12,%r14
    8769:	75 e5                	jne    8750 <_Z10allocate3djjj+0xc0>
    876b:	48 83 c5 08          	add    $0x8,%rbp
    876f:	48 3b 6c 24 08       	cmp    0x8(%rsp),%rbp
    8774:	75 aa                	jne    8720 <_Z10allocate3djjj+0x90>
    8776:	48 8b 44 24 18       	mov    0x18(%rsp),%rax
    877b:	48 83 c4 28          	add    $0x28,%rsp
    877f:	5b                   	pop    %rbx
    8780:	5d                   	pop    %rbp
    8781:	41 5c                	pop    %r12
    8783:	41 5d                	pop    %r13
    8785:	41 5e                	pop    %r14
    8787:	41 5f                	pop    %r15
    8789:	c3                   	ret    
    878a:	e9 f7 a0 ff ff       	jmp    2886 <_Z10allocate3djjj.cold>
    878f:	90                   	nop

0000000000008790 <_Z11allocate3dtjjj>:
    8790:	f3 0f 1e fa          	endbr64 
    8794:	41 57                	push   %r15
    8796:	48 63 c7             	movslq %edi,%rax
    8799:	41 56                	push   %r14
    879b:	41 55                	push   %r13
    879d:	41 54                	push   %r12
    879f:	55                   	push   %rbp
    87a0:	53                   	push   %rbx
    87a1:	48 bb ff ff ff ff ff 	movabs $0xfffffffffffffff,%rbx
    87a8:	ff ff 0f 
    87ab:	48 83 ec 58          	sub    $0x58,%rsp
    87af:	89 74 24 40          	mov    %esi,0x40(%rsp)
    87b3:	89 54 24 44          	mov    %edx,0x44(%rsp)
    87b7:	48 39 d8             	cmp    %rbx,%rax
    87ba:	0f 87 cb a0 ff ff    	ja     288b <_Z11allocate3dtjjj.cold>
    87c0:	48 8d 3c c5 00 00 00 	lea    0x0(,%rax,8),%rdi
    87c7:	00 
    87c8:	49 89 c4             	mov    %rax,%r12
    87cb:	e8 20 9c ff ff       	call   23f0 <_Znam@plt>
    87d0:	48 89 44 24 38       	mov    %rax,0x38(%rsp)
    87d5:	45 85 e4             	test   %r12d,%r12d
    87d8:	0f 8e 7d 02 00 00    	jle    8a5b <_Z11allocate3dtjjj+0x2cb>
    87de:	48 63 44 24 40       	movslq 0x40(%rsp),%rax
    87e3:	48 39 d8             	cmp    %rbx,%rax
    87e6:	0f 87 9f a0 ff ff    	ja     288b <_Z11allocate3dtjjj.cold>
    87ec:	48 8b 74 24 38       	mov    0x38(%rsp),%rsi
    87f1:	48 c1 e0 03          	shl    $0x3,%rax
    87f5:	48 63 7c 24 44       	movslq 0x44(%rsp),%rdi
    87fa:	48 89 44 24 28       	mov    %rax,0x28(%rsp)
    87ff:	44 89 e0             	mov    %r12d,%eax
    8802:	48 89 44 24 48       	mov    %rax,0x48(%rsp)
    8807:	48 8d 04 c6          	lea    (%rsi,%rax,8),%rax
    880b:	48 8d 2c ff          	lea    (%rdi,%rdi,8),%rbp
    880f:	48 89 44 24 30       	mov    %rax,0x30(%rsp)
    8814:	8b 44 24 40          	mov    0x40(%rsp),%eax
    8818:	48 8d 5f ff          	lea    -0x1(%rdi),%rbx
    881c:	48 c1 e5 03          	shl    $0x3,%rbp
    8820:	48 89 7c 24 08       	mov    %rdi,0x8(%rsp)
    8825:	83 e8 01             	sub    $0x1,%eax
    8828:	4c 8d 24 c5 08 00 00 	lea    0x8(,%rax,8),%r12
    882f:	00 
    8830:	48 89 f8             	mov    %rdi,%rax
    8833:	48 83 e7 fe          	and    $0xfffffffffffffffe,%rdi
    8837:	48 d1 e8             	shr    %rax
    883a:	4c 8d 34 ff          	lea    (%rdi,%rdi,8),%r14
    883e:	48 89 7c 24 10       	mov    %rdi,0x10(%rsp)
    8843:	4c 8d 3c c0          	lea    (%rax,%rax,8),%r15
    8847:	4a 8d 04 f5 00 00 00 	lea    0x0(,%r14,8),%rax
    884e:	00 
    884f:	49 89 f6             	mov    %rsi,%r14
    8852:	48 89 44 24 18       	mov    %rax,0x18(%rsp)
    8857:	48 89 d8             	mov    %rbx,%rax
    885a:	49 c1 e7 04          	shl    $0x4,%r15
    885e:	48 29 f8             	sub    %rdi,%rax
    8861:	48 89 44 24 20       	mov    %rax,0x20(%rsp)
    8866:	66 2e 0f 1f 84 00 00 	cs nopw 0x0(%rax,%rax,1)
    886d:	00 00 00 
    8870:	48 8b 7c 24 28       	mov    0x28(%rsp),%rdi
    8875:	e8 76 9b ff ff       	call   23f0 <_Znam@plt>
    887a:	49 89 06             	mov    %rax,(%r14)
    887d:	8b 44 24 40          	mov    0x40(%rsp),%eax
    8881:	85 c0                	test   %eax,%eax
    8883:	0f 8e ee 00 00 00    	jle    8977 <_Z11allocate3dtjjj+0x1e7>
    8889:	48 bf c7 71 1c c7 71 	movabs $0x1c71c71c71c71c7,%rdi
    8890:	1c c7 01 
    8893:	48 39 7c 24 08       	cmp    %rdi,0x8(%rsp)
    8898:	0f 87 ed 9f ff ff    	ja     288b <_Z11allocate3dtjjj.cold>
    889e:	31 c0                	xor    %eax,%eax
    88a0:	4d 89 f5             	mov    %r14,%r13
    88a3:	49 89 c6             	mov    %rax,%r14
    88a6:	66 2e 0f 1f 84 00 00 	cs nopw 0x0(%rax,%rax,1)
    88ad:	00 00 00 
    88b0:	48 89 ef             	mov    %rbp,%rdi
    88b3:	e8 38 9b ff ff       	call   23f0 <_Znam@plt>
    88b8:	48 83 fb ff          	cmp    $0xffffffffffffffff,%rbx
    88bc:	66 0f 28 05 0c 31 00 	movapd 0x310c(%rip),%xmm0        # b9d0 <_IO_stdin_used+0x9d0>
    88c3:	00 
    88c4:	0f 84 95 00 00 00    	je     895f <_Z11allocate3dtjjj+0x1cf>
    88ca:	48 83 fb 01          	cmp    $0x1,%rbx
    88ce:	0f 86 4d 01 00 00    	jbe    8a21 <_Z11allocate3dtjjj+0x291>
    88d4:	48 89 c2             	mov    %rax,%rdx
    88d7:	4a 8d 0c 38          	lea    (%rax,%r15,1),%rcx
    88db:	66 0f 28 c8          	movapd %xmm0,%xmm1
    88df:	90                   	nop
    88e0:	0f 11 02             	movups %xmm0,(%rdx)
    88e3:	48 81 c2 90 00 00 00 	add    $0x90,%rdx
    88ea:	0f 11 42 80          	movups %xmm0,-0x80(%rdx)
    88ee:	0f 11 42 90          	movups %xmm0,-0x70(%rdx)
    88f2:	0f 11 42 a0          	movups %xmm0,-0x60(%rdx)
    88f6:	0f 11 42 b0          	movups %xmm0,-0x50(%rdx)
    88fa:	0f 11 42 c0          	movups %xmm0,-0x40(%rdx)
    88fe:	0f 11 42 d0          	movups %xmm0,-0x30(%rdx)
    8902:	0f 11 42 e0          	movups %xmm0,-0x20(%rdx)
    8906:	0f 11 42 f0          	movups %xmm0,-0x10(%rdx)
    890a:	48 39 d1             	cmp    %rdx,%rcx
    890d:	75 d1                	jne    88e0 <_Z11allocate3dtjjj+0x150>
    890f:	48 8b 74 24 18       	mov    0x18(%rsp),%rsi
    8914:	48 8d 14 30          	lea    (%rax,%rsi,1),%rdx
    8918:	48 8b 74 24 10       	mov    0x10(%rsp),%rsi
    891d:	48 39 74 24 08       	cmp    %rsi,0x8(%rsp)
    8922:	74 3b                	je     895f <_Z11allocate3dtjjj+0x1cf>
    8924:	48 8b 4c 24 20       	mov    0x20(%rsp),%rcx
    8929:	48 8b 3d a0 30 00 00 	mov    0x30a0(%rip),%rdi        # b9d0 <_IO_stdin_used+0x9d0>
    8930:	0f 11 0a             	movups %xmm1,(%rdx)
    8933:	0f 11 4a 10          	movups %xmm1,0x10(%rdx)
    8937:	48 89 7a 40          	mov    %rdi,0x40(%rdx)
    893b:	0f 11 4a 20          	movups %xmm1,0x20(%rdx)
    893f:	0f 11 4a 30          	movups %xmm1,0x30(%rdx)
    8943:	48 85 c9             	test   %rcx,%rcx
    8946:	74 17                	je     895f <_Z11allocate3dtjjj+0x1cf>
    8948:	48 89 ba 88 00 00 00 	mov    %rdi,0x88(%rdx)
    894f:	0f 11 4a 48          	movups %xmm1,0x48(%rdx)
    8953:	0f 11 4a 58          	movups %xmm1,0x58(%rdx)
    8957:	0f 11 4a 68          	movups %xmm1,0x68(%rdx)
    895b:	0f 11 4a 78          	movups %xmm1,0x78(%rdx)
    895f:	49 8b 55 00          	mov    0x0(%r13),%rdx
    8963:	4a 89 04 32          	mov    %rax,(%rdx,%r14,1)
    8967:	49 83 c6 08          	add    $0x8,%r14
    896b:	4d 39 f4             	cmp    %r14,%r12
    896e:	0f 85 3c ff ff ff    	jne    88b0 <_Z11allocate3dtjjj+0x120>
    8974:	4d 89 ee             	mov    %r13,%r14
    8977:	49 83 c6 08          	add    $0x8,%r14
    897b:	4c 3b 74 24 30       	cmp    0x30(%rsp),%r14
    8980:	0f 85 ea fe ff ff    	jne    8870 <_Z11allocate3dtjjj+0xe0>
    8986:	48 8b 74 24 48       	mov    0x48(%rsp),%rsi
    898b:	48 8d 3d ae 66 00 00 	lea    0x66ae(%rip),%rdi        # f040 <_ZSt4cout@GLIBCXX_3.4>
    8992:	4c 8d 25 96 2e 00 00 	lea    0x2e96(%rip),%r12        # b82f <_IO_stdin_used+0x82f>
    8999:	e8 52 9b ff ff       	call   24f0 <_ZNSo9_M_insertImEERSoT_@plt>
    899e:	ba 01 00 00 00       	mov    $0x1,%edx
    89a3:	4c 89 e6             	mov    %r12,%rsi
    89a6:	48 89 c7             	mov    %rax,%rdi
    89a9:	48 89 c5             	mov    %rax,%rbp
    89ac:	e8 2f 9c ff ff       	call   25e0 <_ZSt16__ostream_insertIcSt11char_traitsIcEERSt13basic_ostreamIT_T0_ES6_PKS3_l@plt>
    89b1:	8b 74 24 40          	mov    0x40(%rsp),%esi
    89b5:	48 89 ef             	mov    %rbp,%rdi
    89b8:	e8 33 9b ff ff       	call   24f0 <_ZNSo9_M_insertImEERSoT_@plt>
    89bd:	4c 89 e6             	mov    %r12,%rsi
    89c0:	ba 01 00 00 00       	mov    $0x1,%edx
    89c5:	48 89 c7             	mov    %rax,%rdi
    89c8:	48 89 c5             	mov    %rax,%rbp
    89cb:	e8 10 9c ff ff       	call   25e0 <_ZSt16__ostream_insertIcSt11char_traitsIcEERSt13basic_ostreamIT_T0_ES6_PKS3_l@plt>
    89d0:	8b 74 24 44          	mov    0x44(%rsp),%esi
    89d4:	48 89 ef             	mov    %rbp,%rdi
    89d7:	e8 14 9b ff ff       	call   24f0 <_ZNSo9_M_insertImEERSoT_@plt>
    89dc:	49 89 c4             	mov    %rax,%r12
    89df:	48 8b 00             	mov    (%rax),%rax
    89e2:	48 8b 40 e8          	mov    -0x18(%rax),%rax
    89e6:	49 8b ac 04 f0 00 00 	mov    0xf0(%r12,%rax,1),%rbp
    89ed:	00 
    89ee:	48 85 ed             	test   %rbp,%rbp
    89f1:	74 75                	je     8a68 <_Z11allocate3dtjjj+0x2d8>
    89f3:	80 7d 38 00          	cmpb   $0x0,0x38(%rbp)
    89f7:	74 37                	je     8a30 <_Z11allocate3dtjjj+0x2a0>
    89f9:	0f be 75 43          	movsbl 0x43(%rbp),%esi
    89fd:	4c 89 e7             	mov    %r12,%rdi
    8a00:	e8 fb 99 ff ff       	call   2400 <_ZNSo3putEc@plt>
    8a05:	48 89 c7             	mov    %rax,%rdi
    8a08:	e8 f3 9a ff ff       	call   2500 <_ZNSo5flushEv@plt>
    8a0d:	48 8b 44 24 38       	mov    0x38(%rsp),%rax
    8a12:	48 83 c4 58          	add    $0x58,%rsp
    8a16:	5b                   	pop    %rbx
    8a17:	5d                   	pop    %rbp
    8a18:	41 5c                	pop    %r12
    8a1a:	41 5d                	pop    %r13
    8a1c:	41 5e                	pop    %r14
    8a1e:	41 5f                	pop    %r15
    8a20:	c3                   	ret    
    8a21:	48 89 d9             	mov    %rbx,%rcx
    8a24:	48 89 c2             	mov    %rax,%rdx
    8a27:	66 0f 28 c8          	movapd %xmm0,%xmm1
    8a2b:	e9 f9 fe ff ff       	jmp    8929 <_Z11allocate3dtjjj+0x199>
    8a30:	48 89 ef             	mov    %rbp,%rdi
    8a33:	e8 b8 9b ff ff       	call   25f0 <_ZNKSt5ctypeIcE13_M_widen_initEv@plt>
    8a38:	48 8b 45 00          	mov    0x0(%rbp),%rax
    8a3c:	be 0a 00 00 00       	mov    $0xa,%esi
    8a41:	48 8d 15 c8 02 00 00 	lea    0x2c8(%rip),%rdx        # 8d10 <_ZNKSt5ctypeIcE8do_widenEc>
    8a48:	48 8b 40 30          	mov    0x30(%rax),%rax
    8a4c:	48 39 d0             	cmp    %rdx,%rax
    8a4f:	74 ac                	je     89fd <_Z11allocate3dtjjj+0x26d>
    8a51:	48 89 ef             	mov    %rbp,%rdi
    8a54:	ff d0                	call   *%rax
    8a56:	0f be f0             	movsbl %al,%esi
    8a59:	eb a2                	jmp    89fd <_Z11allocate3dtjjj+0x26d>
    8a5b:	44 89 e0             	mov    %r12d,%eax
    8a5e:	48 89 44 24 48       	mov    %rax,0x48(%rsp)
    8a63:	e9 1e ff ff ff       	jmp    8986 <_Z11allocate3dtjjj+0x1f6>
    8a68:	e8 d3 9b ff ff       	call   2640 <_ZSt16__throw_bad_castv@plt>
    8a6d:	0f 1f 00             	nopl   (%rax)

0000000000008a70 <_Z10allocate4djjjj>:
    8a70:	f3 0f 1e fa          	endbr64 
    8a74:	41 57                	push   %r15
    8a76:	41 89 cf             	mov    %ecx,%r15d
    8a79:	41 56                	push   %r14
    8a7b:	41 89 f6             	mov    %esi,%r14d
    8a7e:	41 55                	push   %r13
    8a80:	41 89 fd             	mov    %edi,%r13d
    8a83:	41 54                	push   %r12
    8a85:	55                   	push   %rbp
    8a86:	4c 89 ed             	mov    %r13,%rbp
    8a89:	49 c1 e5 03          	shl    $0x3,%r13
    8a8d:	53                   	push   %rbx
    8a8e:	4c 89 ef             	mov    %r13,%rdi
    8a91:	89 d3                	mov    %edx,%ebx
    8a93:	48 83 ec 38          	sub    $0x38,%rsp
    8a97:	89 74 24 24          	mov    %esi,0x24(%rsp)
    8a9b:	89 4c 24 20          	mov    %ecx,0x20(%rsp)
    8a9f:	e8 4c 99 ff ff       	call   23f0 <_Znam@plt>
    8aa4:	48 89 44 24 28       	mov    %rax,0x28(%rsp)
    8aa9:	85 ed                	test   %ebp,%ebp
    8aab:	0f 84 ca 00 00 00    	je     8b7b <_Z10allocate4djjjj+0x10b>
    8ab1:	48 89 c6             	mov    %rax,%rsi
    8ab4:	44 89 f0             	mov    %r14d,%eax
    8ab7:	45 89 fc             	mov    %r15d,%r12d
    8aba:	48 89 c2             	mov    %rax,%rdx
    8abd:	48 c1 e0 03          	shl    $0x3,%rax
    8ac1:	4c 89 e1             	mov    %r12,%rcx
    8ac4:	49 01 f5             	add    %rsi,%r13
    8ac7:	48 89 44 24 10       	mov    %rax,0x10(%rsp)
    8acc:	48 8d 04 dd 00 00 00 	lea    0x0(,%rbx,8),%rax
    8ad3:	00 
    8ad4:	49 c1 e4 03          	shl    $0x3,%r12
    8ad8:	48 89 f5             	mov    %rsi,%rbp
    8adb:	48 89 04 24          	mov    %rax,(%rsp)
    8adf:	8d 42 ff             	lea    -0x1(%rdx),%eax
    8ae2:	48 c1 e0 03          	shl    $0x3,%rax
    8ae6:	4c 89 6c 24 18       	mov    %r13,0x18(%rsp)
    8aeb:	48 89 44 24 08       	mov    %rax,0x8(%rsp)
    8af0:	8d 41 ff             	lea    -0x1(%rcx),%eax
    8af3:	4c 8d 2c c5 08 00 00 	lea    0x8(,%rax,8),%r13
    8afa:	00 
    8afb:	0f 1f 44 00 00       	nopl   0x0(%rax,%rax,1)
    8b00:	48 8b 7c 24 10       	mov    0x10(%rsp),%rdi
    8b05:	e8 e6 98 ff ff       	call   23f0 <_Znam@plt>
    8b0a:	8b 54 24 24          	mov    0x24(%rsp),%edx
    8b0e:	48 89 45 00          	mov    %rax,0x0(%rbp)
    8b12:	49 89 c6             	mov    %rax,%r14
    8b15:	85 d2                	test   %edx,%edx
    8b17:	74 57                	je     8b70 <_Z10allocate4djjjj+0x100>
    8b19:	31 db                	xor    %ebx,%ebx
    8b1b:	0f 1f 44 00 00       	nopl   0x0(%rax,%rax,1)
    8b20:	48 8b 3c 24          	mov    (%rsp),%rdi
    8b24:	49 01 de             	add    %rbx,%r14
    8b27:	e8 c4 98 ff ff       	call   23f0 <_Znam@plt>
    8b2c:	49 89 06             	mov    %rax,(%r14)
    8b2f:	8b 44 24 20          	mov    0x20(%rsp),%eax
    8b33:	45 31 f6             	xor    %r14d,%r14d
    8b36:	85 c0                	test   %eax,%eax
    8b38:	74 25                	je     8b5f <_Z10allocate4djjjj+0xef>
    8b3a:	66 0f 1f 44 00 00    	nopw   0x0(%rax,%rax,1)
    8b40:	48 8b 45 00          	mov    0x0(%rbp),%rax
    8b44:	4c 89 e7             	mov    %r12,%rdi
    8b47:	4c 8b 3c 18          	mov    (%rax,%rbx,1),%r15
    8b4b:	e8 a0 98 ff ff       	call   23f0 <_Znam@plt>
    8b50:	4d 01 f7             	add    %r14,%r15
    8b53:	49 83 c6 08          	add    $0x8,%r14
    8b57:	49 89 07             	mov    %rax,(%r15)
    8b5a:	4d 39 ee             	cmp    %r13,%r14
    8b5d:	75 e1                	jne    8b40 <_Z10allocate4djjjj+0xd0>
    8b5f:	48 39 5c 24 08       	cmp    %rbx,0x8(%rsp)
    8b64:	74 0a                	je     8b70 <_Z10allocate4djjjj+0x100>
    8b66:	4c 8b 75 00          	mov    0x0(%rbp),%r14
    8b6a:	48 83 c3 08          	add    $0x8,%rbx
    8b6e:	eb b0                	jmp    8b20 <_Z10allocate4djjjj+0xb0>
    8b70:	48 83 c5 08          	add    $0x8,%rbp
    8b74:	48 3b 6c 24 18       	cmp    0x18(%rsp),%rbp
    8b79:	75 85                	jne    8b00 <_Z10allocate4djjjj+0x90>
    8b7b:	48 8b 44 24 28       	mov    0x28(%rsp),%rax
    8b80:	48 83 c4 38          	add    $0x38,%rsp
    8b84:	5b                   	pop    %rbx
    8b85:	5d                   	pop    %rbp
    8b86:	41 5c                	pop    %r12
    8b88:	41 5d                	pop    %r13
    8b8a:	41 5e                	pop    %r14
    8b8c:	41 5f                	pop    %r15
    8b8e:	c3                   	ret    
    8b8f:	90                   	nop

0000000000008b90 <_Z11allocate3dvjjj>:
    8b90:	f3 0f 1e fa          	endbr64 
    8b94:	41 57                	push   %r15
    8b96:	41 89 f7             	mov    %esi,%r15d
    8b99:	41 56                	push   %r14
    8b9b:	41 55                	push   %r13
    8b9d:	41 89 d5             	mov    %edx,%r13d
    8ba0:	41 54                	push   %r12
    8ba2:	41 89 fc             	mov    %edi,%r12d
    8ba5:	55                   	push   %rbp
    8ba6:	53                   	push   %rbx
    8ba7:	4c 89 e3             	mov    %r12,%rbx
    8baa:	49 c1 e4 03          	shl    $0x3,%r12
    8bae:	4c 89 e7             	mov    %r12,%rdi
    8bb1:	48 83 ec 48          	sub    $0x48,%rsp
    8bb5:	89 74 24 34          	mov    %esi,0x34(%rsp)
    8bb9:	e8 32 98 ff ff       	call   23f0 <_Znam@plt>
    8bbe:	48 89 44 24 38       	mov    %rax,0x38(%rsp)
    8bc3:	85 db                	test   %ebx,%ebx
    8bc5:	0f 84 29 01 00 00    	je     8cf4 <_Z11allocate3dvjjj+0x164>
    8bcb:	48 89 c1             	mov    %rax,%rcx
    8bce:	44 89 f8             	mov    %r15d,%eax
    8bd1:	44 89 ef             	mov    %r13d,%edi
    8bd4:	48 89 c6             	mov    %rax,%rsi
    8bd7:	48 c1 e0 03          	shl    $0x3,%rax
    8bdb:	49 01 cc             	add    %rcx,%r12
    8bde:	48 8d 2c 7f          	lea    (%rdi,%rdi,2),%rbp
    8be2:	48 89 44 24 20       	mov    %rax,0x20(%rsp)
    8be7:	8d 46 ff             	lea    -0x1(%rsi),%eax
    8bea:	48 8d 5f ff          	lea    -0x1(%rdi),%rbx
    8bee:	48 c1 e5 03          	shl    $0x3,%rbp
    8bf2:	48 89 3c 24          	mov    %rdi,(%rsp)
    8bf6:	4c 89 64 24 28       	mov    %r12,0x28(%rsp)
    8bfb:	4c 8d 24 c5 08 00 00 	lea    0x8(,%rax,8),%r12
    8c02:	00 
    8c03:	48 89 f8             	mov    %rdi,%rax
    8c06:	48 83 e7 fe          	and    $0xfffffffffffffffe,%rdi
    8c0a:	48 d1 e8             	shr    %rax
    8c0d:	4c 8d 34 7f          	lea    (%rdi,%rdi,2),%r14
    8c11:	48 89 7c 24 08       	mov    %rdi,0x8(%rsp)
    8c16:	4c 8d 3c 40          	lea    (%rax,%rax,2),%r15
    8c1a:	4a 8d 04 f5 00 00 00 	lea    0x0(,%r14,8),%rax
    8c21:	00 
    8c22:	49 89 ce             	mov    %rcx,%r14
    8c25:	48 89 44 24 10       	mov    %rax,0x10(%rsp)
    8c2a:	48 89 d8             	mov    %rbx,%rax
    8c2d:	49 c1 e7 04          	shl    $0x4,%r15
    8c31:	48 29 f8             	sub    %rdi,%rax
    8c34:	48 89 44 24 18       	mov    %rax,0x18(%rsp)
    8c39:	0f 1f 80 00 00 00 00 	nopl   0x0(%rax)
    8c40:	48 8b 7c 24 20       	mov    0x20(%rsp),%rdi
    8c45:	e8 a6 97 ff ff       	call   23f0 <_Znam@plt>
    8c4a:	49 89 06             	mov    %rax,(%r14)
    8c4d:	8b 44 24 34          	mov    0x34(%rsp),%eax
    8c51:	85 c0                	test   %eax,%eax
    8c53:	0f 84 8c 00 00 00    	je     8ce5 <_Z11allocate3dvjjj+0x155>
    8c59:	45 31 ed             	xor    %r13d,%r13d
    8c5c:	0f 1f 40 00          	nopl   0x0(%rax)
    8c60:	48 89 ef             	mov    %rbp,%rdi
    8c63:	e8 88 97 ff ff       	call   23f0 <_Znam@plt>
    8c68:	48 83 fb ff          	cmp    $0xffffffffffffffff,%rbx
    8c6c:	66 0f ef c0          	pxor   %xmm0,%xmm0
    8c70:	74 5f                	je     8cd1 <_Z11allocate3dvjjj+0x141>
    8c72:	48 83 fb 01          	cmp    $0x1,%rbx
    8c76:	0f 86 8c 00 00 00    	jbe    8d08 <_Z11allocate3dvjjj+0x178>
    8c7c:	48 89 c2             	mov    %rax,%rdx
    8c7f:	4a 8d 0c 38          	lea    (%rax,%r15,1),%rcx
    8c83:	0f 1f 44 00 00       	nopl   0x0(%rax,%rax,1)
    8c88:	0f 11 02             	movups %xmm0,(%rdx)
    8c8b:	48 83 c2 30          	add    $0x30,%rdx
    8c8f:	0f 11 42 e0          	movups %xmm0,-0x20(%rdx)
    8c93:	0f 11 42 f0          	movups %xmm0,-0x10(%rdx)
    8c97:	48 39 d1             	cmp    %rdx,%rcx
    8c9a:	75 ec                	jne    8c88 <_Z11allocate3dvjjj+0xf8>
    8c9c:	48 8b 74 24 10       	mov    0x10(%rsp),%rsi
    8ca1:	48 8d 14 30          	lea    (%rax,%rsi,1),%rdx
    8ca5:	48 8b 74 24 08       	mov    0x8(%rsp),%rsi
    8caa:	48 39 34 24          	cmp    %rsi,(%rsp)
    8cae:	74 21                	je     8cd1 <_Z11allocate3dvjjj+0x141>
    8cb0:	48 8b 4c 24 18       	mov    0x18(%rsp),%rcx
    8cb5:	48 c7 42 10 00 00 00 	movq   $0x0,0x10(%rdx)
    8cbc:	00 
    8cbd:	0f 11 02             	movups %xmm0,(%rdx)
    8cc0:	48 85 c9             	test   %rcx,%rcx
    8cc3:	74 0c                	je     8cd1 <_Z11allocate3dvjjj+0x141>
    8cc5:	48 c7 42 28 00 00 00 	movq   $0x0,0x28(%rdx)
    8ccc:	00 
    8ccd:	0f 11 42 18          	movups %xmm0,0x18(%rdx)
    8cd1:	49 8b 16             	mov    (%r14),%rdx
    8cd4:	4a 89 04 2a          	mov    %rax,(%rdx,%r13,1)
    8cd8:	49 83 c5 08          	add    $0x8,%r13
    8cdc:	4d 39 e5             	cmp    %r12,%r13
    8cdf:	0f 85 7b ff ff ff    	jne    8c60 <_Z11allocate3dvjjj+0xd0>
    8ce5:	49 83 c6 08          	add    $0x8,%r14
    8ce9:	4c 3b 74 24 28       	cmp    0x28(%rsp),%r14
    8cee:	0f 85 4c ff ff ff    	jne    8c40 <_Z11allocate3dvjjj+0xb0>
    8cf4:	48 8b 44 24 38       	mov    0x38(%rsp),%rax
    8cf9:	48 83 c4 48          	add    $0x48,%rsp
    8cfd:	5b                   	pop    %rbx
    8cfe:	5d                   	pop    %rbp
    8cff:	41 5c                	pop    %r12
    8d01:	41 5d                	pop    %r13
    8d03:	41 5e                	pop    %r14
    8d05:	41 5f                	pop    %r15
    8d07:	c3                   	ret    
    8d08:	48 89 d9             	mov    %rbx,%rcx
    8d0b:	48 89 c2             	mov    %rax,%rdx
    8d0e:	eb a5                	jmp    8cb5 <_Z11allocate3dvjjj+0x125>

0000000000008d10 <_ZNKSt5ctypeIcE8do_widenEc>:
    8d10:	f3 0f 1e fa          	endbr64 
    8d14:	89 f0                	mov    %esi,%eax
    8d16:	c3                   	ret    
    8d17:	66 0f 1f 84 00 00 00 	nopw   0x0(%rax,%rax,1)
    8d1e:	00 00 

0000000000008d20 <_Z5shearddd>:
    8d20:	f3 0f 1e fa          	endbr64 
    8d24:	f2 0f 10 05 c4 2b 00 	movsd  0x2bc4(%rip),%xmm0        # b8f0 <_IO_stdin_used+0x8f0>
    8d2b:	00 
    8d2c:	66 0f 28 d9          	movapd %xmm1,%xmm3
    8d30:	66 0f ef f6          	pxor   %xmm6,%xmm6
    8d34:	48 89 f8             	mov    %rdi,%rax
    8d37:	f2 0f 10 25 a9 2c 00 	movsd  0x2ca9(%rip),%xmm4        # b9e8 <_IO_stdin_used+0x9e8>
    8d3e:	00 
    8d3f:	48 c7 47 38 00 00 00 	movq   $0x0,0x38(%rdi)
    8d46:	00 
    8d47:	f2 0f 59 d8          	mulsd  %xmm0,%xmm3
    8d4b:	48 c7 47 40 00 00 00 	movq   $0x0,0x40(%rdi)
    8d52:	00 
    8d53:	f2 0f 59 d9          	mulsd  %xmm1,%xmm3
    8d57:	f2 0f 58 cc          	addsd  %xmm4,%xmm1
    8d5b:	f2 0f 59 c1          	mulsd  %xmm1,%xmm0
    8d5f:	66 0f 28 d3          	movapd %xmm3,%xmm2
    8d63:	f2 0f 5c d3          	subsd  %xmm3,%xmm2
    8d67:	f2 0f 59 c1          	mulsd  %xmm1,%xmm0
    8d6b:	f2 0f 5e d4          	divsd  %xmm4,%xmm2
    8d6f:	f2 0f 5c c3          	subsd  %xmm3,%xmm0
    8d73:	f2 0f 5e c4          	divsd  %xmm4,%xmm0
    8d77:	66 0f 28 ea          	movapd %xmm2,%xmm5
    8d7b:	f2 0f 58 d2          	addsd  %xmm2,%xmm2
    8d7f:	f2 0f 58 ee          	addsd  %xmm6,%xmm5
    8d83:	66 0f 28 cd          	movapd %xmm5,%xmm1
    8d87:	f2 0f 11 6f 30       	movsd  %xmm5,0x30(%rdi)
    8d8c:	f2 0f 58 c6          	addsd  %xmm6,%xmm0
    8d90:	66 0f 14 d0          	unpcklpd %xmm0,%xmm2
    8d94:	66 0f 14 c8          	unpcklpd %xmm0,%xmm1
    8d98:	66 0f ef c0          	pxor   %xmm0,%xmm0
    8d9c:	0f 11 17             	movups %xmm2,(%rdi)
    8d9f:	0f 11 4f 10          	movups %xmm1,0x10(%rdi)
    8da3:	0f 11 47 20          	movups %xmm0,0x20(%rdi)
    8da7:	c3                   	ret    
    8da8:	0f 1f 84 00 00 00 00 	nopl   0x0(%rax,%rax,1)
    8daf:	00 

0000000000008db0 <_Z6stressdddd>:
    8db0:	f3 0f 1e fa          	endbr64 
    8db4:	66 0f 28 e0          	movapd %xmm0,%xmm4
    8db8:	66 0f 28 ea          	movapd %xmm2,%xmm5
    8dbc:	66 0f ef db          	pxor   %xmm3,%xmm3
    8dc0:	48 89 f8             	mov    %rdi,%rax
    8dc3:	f2 0f 10 05 25 2b 00 	movsd  0x2b25(%rip),%xmm0        # b8f0 <_IO_stdin_used+0x8f0>
    8dca:	00 
    8dcb:	f2 0f 10 35 15 2c 00 	movsd  0x2c15(%rip),%xmm6        # b9e8 <_IO_stdin_used+0x9e8>
    8dd2:	00 
    8dd3:	48 c7 47 28 00 00 00 	movq   $0x0,0x28(%rdi)
    8dda:	00 
    8ddb:	48 c7 47 38 00 00 00 	movq   $0x0,0x38(%rdi)
    8de2:	00 
    8de3:	f2 0f 59 e8          	mulsd  %xmm0,%xmm5
    8de7:	f2 0f 59 ea          	mulsd  %xmm2,%xmm5
    8deb:	f2 0f 58 d6          	addsd  %xmm6,%xmm2
    8def:	f2 0f 59 c2          	mulsd  %xmm2,%xmm0
    8df3:	66 0f 28 cd          	movapd %xmm5,%xmm1
    8df7:	f2 0f 5c cd          	subsd  %xmm5,%xmm1
    8dfb:	f2 0f 59 c2          	mulsd  %xmm2,%xmm0
    8dff:	f2 0f 5e ce          	divsd  %xmm6,%xmm1
    8e03:	f2 0f 5c c5          	subsd  %xmm5,%xmm0
    8e07:	f2 0f 5e c6          	divsd  %xmm6,%xmm0
    8e0b:	66 0f 28 f9          	movapd %xmm1,%xmm7
    8e0f:	f2 0f 58 c9          	addsd  %xmm1,%xmm1
    8e13:	f2 0f 58 fb          	addsd  %xmm3,%xmm7
    8e17:	f2 0f 5c cc          	subsd  %xmm4,%xmm1
    8e1b:	f2 0f 11 7f 30       	movsd  %xmm7,0x30(%rdi)
    8e20:	f2 0f 58 c3          	addsd  %xmm3,%xmm0
    8e24:	f2 0f 5c dc          	subsd  %xmm4,%xmm3
    8e28:	66 0f 14 c8          	unpcklpd %xmm0,%xmm1
    8e2c:	f2 0f 11 5f 20       	movsd  %xmm3,0x20(%rdi)
    8e31:	0f 11 0f             	movups %xmm1,(%rdi)
    8e34:	66 0f 28 cf          	movapd %xmm7,%xmm1
    8e38:	66 0f 14 c8          	unpcklpd %xmm0,%xmm1
    8e3c:	f2 0f 11 5f 40       	movsd  %xmm3,0x40(%rdi)
    8e41:	0f 11 4f 10          	movups %xmm1,0x10(%rdi)
    8e45:	c3                   	ret    
    8e46:	66 2e 0f 1f 84 00 00 	cs nopw 0x0(%rax,%rax,1)
    8e4d:	00 00 00 

0000000000008e50 <_Z4diffdddi>:
    8e50:	f3 0f 1e fa          	endbr64 
    8e54:	48 89 f8             	mov    %rdi,%rax
    8e57:	83 fe 02             	cmp    $0x2,%esi
    8e5a:	74 3c                	je     8e98 <_Z4diffdddi+0x48>
    8e5c:	f2 0f 10 05 8c 2a 00 	movsd  0x2a8c(%rip),%xmm0        # b8f0 <_IO_stdin_used+0x8f0>
    8e63:	00 
    8e64:	48 c7 47 08 00 00 00 	movq   $0x0,0x8(%rdi)
    8e6b:	00 
    8e6c:	48 c7 47 10 00 00 00 	movq   $0x0,0x10(%rdi)
    8e73:	00 
    8e74:	f2 0f 59 c1          	mulsd  %xmm1,%xmm0
    8e78:	f2 0f 59 c1          	mulsd  %xmm1,%xmm0
    8e7c:	f2 0f 5c c0          	subsd  %xmm0,%xmm0
    8e80:	f2 0f 5e 05 60 2b 00 	divsd  0x2b60(%rip),%xmm0        # b9e8 <_IO_stdin_used+0x9e8>
    8e87:	00 
    8e88:	f2 0f 11 07          	movsd  %xmm0,(%rdi)
    8e8c:	83 fe 03             	cmp    $0x3,%esi
    8e8f:	75 57                	jne    8ee8 <_Z4diffdddi+0x98>
    8e91:	c3                   	ret    
    8e92:	66 0f 1f 44 00 00    	nopw   0x0(%rax,%rax,1)
    8e98:	f2 0f 10 1d 48 2b 00 	movsd  0x2b48(%rip),%xmm3        # b9e8 <_IO_stdin_used+0x9e8>
    8e9f:	00 
    8ea0:	66 0f 28 e1          	movapd %xmm1,%xmm4
    8ea4:	f2 0f 10 15 44 2a 00 	movsd  0x2a44(%rip),%xmm2        # b8f0 <_IO_stdin_used+0x8f0>
    8eab:	00 
    8eac:	48 c7 47 08 00 00 00 	movq   $0x0,0x8(%rdi)
    8eb3:	00 
    8eb4:	48 c7 47 10 00 00 00 	movq   $0x0,0x10(%rdi)
    8ebb:	00 
    8ebc:	f2 0f 58 e3          	addsd  %xmm3,%xmm4
    8ec0:	66 0f 28 c4          	movapd %xmm4,%xmm0
    8ec4:	f2 0f 59 c2          	mulsd  %xmm2,%xmm0
    8ec8:	f2 0f 59 d1          	mulsd  %xmm1,%xmm2
    8ecc:	f2 0f 59 c4          	mulsd  %xmm4,%xmm0
    8ed0:	f2 0f 59 d1          	mulsd  %xmm1,%xmm2
    8ed4:	f2 0f 5c c2          	subsd  %xmm2,%xmm0
    8ed8:	f2 0f 5e c3          	divsd  %xmm3,%xmm0
    8edc:	f2 0f 11 07          	movsd  %xmm0,(%rdi)
    8ee0:	c3                   	ret    
    8ee1:	0f 1f 80 00 00 00 00 	nopl   0x0(%rax)
    8ee8:	c3                   	ret    
    8ee9:	0f 1f 80 00 00 00 00 	nopl   0x0(%rax)

0000000000008ef0 <_Z6shearaPPPPdiii>:
    8ef0:	f3 0f 1e fa          	endbr64 
    8ef4:	66 0f ef d2          	pxor   %xmm2,%xmm2
    8ef8:	f2 0f 10 05 f0 29 00 	movsd  0x29f0(%rip),%xmm0        # b8f0 <_IO_stdin_used+0x8f0>
    8eff:	00 
    8f00:	66 0f ef f6          	pxor   %xmm6,%xmm6
    8f04:	f2 0f 10 25 dc 2a 00 	movsd  0x2adc(%rip),%xmm4        # b9e8 <_IO_stdin_used+0x9e8>
    8f0b:	00 
    8f0c:	f2 0f 2a d1          	cvtsi2sd %ecx,%xmm2
    8f10:	48 c7 47 38 00 00 00 	movq   $0x0,0x38(%rdi)
    8f17:	00 
    8f18:	48 89 f8             	mov    %rdi,%rax
    8f1b:	48 c7 47 40 00 00 00 	movq   $0x0,0x40(%rdi)
    8f22:	00 
    8f23:	66 0f 28 da          	movapd %xmm2,%xmm3
    8f27:	f2 0f 59 d8          	mulsd  %xmm0,%xmm3
    8f2b:	f2 0f 59 da          	mulsd  %xmm2,%xmm3
    8f2f:	f2 0f 58 d4          	addsd  %xmm4,%xmm2
    8f33:	f2 0f 59 c2          	mulsd  %xmm2,%xmm0
    8f37:	66 0f 28 cb          	movapd %xmm3,%xmm1
    8f3b:	f2 0f 5c cb          	subsd  %xmm3,%xmm1
    8f3f:	f2 0f 59 c2          	mulsd  %xmm2,%xmm0
    8f43:	f2 0f 5e cc          	divsd  %xmm4,%xmm1
    8f47:	f2 0f 5c c3          	subsd  %xmm3,%xmm0
    8f4b:	f2 0f 5e c4          	divsd  %xmm4,%xmm0
    8f4f:	66 0f 28 e9          	movapd %xmm1,%xmm5
    8f53:	f2 0f 58 c9          	addsd  %xmm1,%xmm1
    8f57:	f2 0f 58 ee          	addsd  %xmm6,%xmm5
    8f5b:	f2 0f 11 6f 30       	movsd  %xmm5,0x30(%rdi)
    8f60:	f2 0f 58 c6          	addsd  %xmm6,%xmm0
    8f64:	66 0f 14 c8          	unpcklpd %xmm0,%xmm1
    8f68:	0f 11 0f             	movups %xmm1,(%rdi)
    8f6b:	66 0f 28 cd          	movapd %xmm5,%xmm1
    8f6f:	66 0f 14 c8          	unpcklpd %xmm0,%xmm1
    8f73:	66 0f ef c0          	pxor   %xmm0,%xmm0
    8f77:	0f 11 4f 10          	movups %xmm1,0x10(%rdi)
    8f7b:	0f 11 47 20          	movups %xmm0,0x20(%rdi)
    8f7f:	c3                   	ret    

0000000000008f80 <_Z7partdifPPPPdiiiidii>:
    8f80:	f3 0f 1e fa          	endbr64 
    8f84:	48 83 ec 08          	sub    $0x8,%rsp
    8f88:	48 63 c1             	movslq %ecx,%rax
    8f8b:	66 0f 28 c8          	movapd %xmm0,%xmm1
    8f8f:	8b 4c 24 10          	mov    0x10(%rsp),%ecx
    8f93:	83 f9 01             	cmp    $0x1,%ecx
    8f96:	74 38                	je     8fd0 <_Z7partdifPPPPdiiiidii+0x50>
    8f98:	83 f9 02             	cmp    $0x2,%ecx
    8f9b:	0f 84 ef 00 00 00    	je     9090 <_Z7partdifPPPPdiiiidii+0x110>
    8fa1:	85 c9                	test   %ecx,%ecx
    8fa3:	0f 84 87 00 00 00    	je     9030 <_Z7partdifPPPPdiiiidii+0xb0>
    8fa9:	48 8d 3d 90 60 00 00 	lea    0x6090(%rip),%rdi        # f040 <_ZSt4cout@GLIBCXX_3.4>
    8fb0:	ba 05 00 00 00       	mov    $0x5,%edx
    8fb5:	48 8d 35 24 2a 00 00 	lea    0x2a24(%rip),%rsi        # b9e0 <_IO_stdin_used+0x9e0>
    8fbc:	e8 1f 96 ff ff       	call   25e0 <_ZSt16__ostream_insertIcSt11char_traitsIcEERSt13basic_ostreamIT_T0_ES6_PKS3_l@plt>
    8fc1:	bf 01 00 00 00       	mov    $0x1,%edi
    8fc6:	e8 65 96 ff ff       	call   2630 <exit@plt>
    8fcb:	0f 1f 44 00 00       	nopl   0x0(%rax,%rax,1)
    8fd0:	4d 63 c9             	movslq %r9d,%r9
    8fd3:	48 63 f6             	movslq %esi,%rsi
    8fd6:	4a 8b 0c cf          	mov    (%rdi,%r9,8),%rcx
    8fda:	48 63 fa             	movslq %edx,%rdi
    8fdd:	48 8b 0c f1          	mov    (%rcx,%rsi,8),%rcx
    8fe1:	48 8d 34 fd 00 00 00 	lea    0x0(,%rdi,8),%rsi
    8fe8:	00 
    8fe9:	85 d2                	test   %edx,%edx
    8feb:	0f 8e 4f 01 00 00    	jle    9140 <_Z7partdifPPPPdiiiidii+0x1c0>
    8ff1:	4c 8b 4c 31 f8       	mov    -0x8(%rcx,%rsi,1),%r9
    8ff6:	41 83 e8 01          	sub    $0x1,%r8d
    8ffa:	f2 41 0f 10 14 c1    	movsd  (%r9,%rax,8),%xmm2
    9000:	41 39 d0             	cmp    %edx,%r8d
    9003:	0f 8e f7 01 00 00    	jle    9200 <_Z7partdifPPPPdiiiidii+0x280>
    9009:	48 8b 54 31 08       	mov    0x8(%rcx,%rsi,1),%rdx
    900e:	f2 0f 10 04 c2       	movsd  (%rdx,%rax,8),%xmm0
    9013:	f2 0f 5c c2          	subsd  %xmm2,%xmm0
    9017:	f2 0f 59 05 91 28 00 	mulsd  0x2891(%rip),%xmm0        # b8b0 <_IO_stdin_used+0x8b0>
    901e:	00 
    901f:	f2 0f 5e c1          	divsd  %xmm1,%xmm0
    9023:	e9 b9 00 00 00       	jmp    90e1 <_Z7partdifPPPPdiiiidii+0x161>
    9028:	0f 1f 84 00 00 00 00 	nopl   0x0(%rax,%rax,1)
    902f:	00 
    9030:	4d 63 c9             	movslq %r9d,%r9
    9033:	48 63 d2             	movslq %edx,%rdx
    9036:	4a 8b 0c cf          	mov    (%rdi,%r9,8),%rcx
    903a:	4c 63 ce             	movslq %esi,%r9
    903d:	4a 8d 3c cd 00 00 00 	lea    0x0(,%r9,8),%rdi
    9044:	00 
    9045:	85 f6                	test   %esi,%esi
    9047:	0f 8e a3 00 00 00    	jle    90f0 <_Z7partdifPPPPdiiiidii+0x170>
    904d:	4c 8b 54 39 f8       	mov    -0x8(%rcx,%rdi,1),%r10
    9052:	41 83 e8 01          	sub    $0x1,%r8d
    9056:	4d 8b 14 d2          	mov    (%r10,%rdx,8),%r10
    905a:	f2 41 0f 10 14 c2    	movsd  (%r10,%rax,8),%xmm2
    9060:	41 39 f0             	cmp    %esi,%r8d
    9063:	0f 8e 57 01 00 00    	jle    91c0 <_Z7partdifPPPPdiiiidii+0x240>
    9069:	48 8b 4c 39 08       	mov    0x8(%rcx,%rdi,1),%rcx
    906e:	48 8b 14 d1          	mov    (%rcx,%rdx,8),%rdx
    9072:	f2 0f 10 04 c2       	movsd  (%rdx,%rax,8),%xmm0
    9077:	f2 0f 5c c2          	subsd  %xmm2,%xmm0
    907b:	f2 0f 59 05 2d 28 00 	mulsd  0x282d(%rip),%xmm0        # b8b0 <_IO_stdin_used+0x8b0>
    9082:	00 
    9083:	f2 0f 5e c1          	divsd  %xmm1,%xmm0
    9087:	eb 58                	jmp    90e1 <_Z7partdifPPPPdiiiidii+0x161>
    9089:	0f 1f 80 00 00 00 00 	nopl   0x0(%rax)
    9090:	4d 63 c9             	movslq %r9d,%r9
    9093:	48 63 f6             	movslq %esi,%rsi
    9096:	48 63 d2             	movslq %edx,%rdx
    9099:	4a 8b 0c cf          	mov    (%rdi,%r9,8),%rcx
    909d:	48 8b 0c f1          	mov    (%rcx,%rsi,8),%rcx
    90a1:	48 63 f0             	movslq %eax,%rsi
    90a4:	48 8b 14 d1          	mov    (%rcx,%rdx,8),%rdx
    90a8:	48 8d 0c f5 00 00 00 	lea    0x0(,%rsi,8),%rcx
    90af:	00 
    90b0:	85 c0                	test   %eax,%eax
    90b2:	0f 8e d0 00 00 00    	jle    9188 <_Z7partdifPPPPdiiiidii+0x208>
    90b8:	41 83 e8 01          	sub    $0x1,%r8d
    90bc:	f2 0f 10 54 0a f8    	movsd  -0x8(%rdx,%rcx,1),%xmm2
    90c2:	41 39 c0             	cmp    %eax,%r8d
    90c5:	0f 8e 75 01 00 00    	jle    9240 <_Z7partdifPPPPdiiiidii+0x2c0>
    90cb:	f2 0f 10 44 0a 08    	movsd  0x8(%rdx,%rcx,1),%xmm0
    90d1:	f2 0f 5c c2          	subsd  %xmm2,%xmm0
    90d5:	f2 0f 59 05 d3 27 00 	mulsd  0x27d3(%rip),%xmm0        # b8b0 <_IO_stdin_used+0x8b0>
    90dc:	00 
    90dd:	f2 0f 5e c1          	divsd  %xmm1,%xmm0
    90e1:	48 83 c4 08          	add    $0x8,%rsp
    90e5:	c3                   	ret    
    90e6:	66 2e 0f 1f 84 00 00 	cs nopw 0x0(%rax,%rax,1)
    90ed:	00 00 00 
    90f0:	48 8b 74 39 08       	mov    0x8(%rcx,%rdi,1),%rsi
    90f5:	f2 0f 10 05 f3 27 00 	movsd  0x27f3(%rip),%xmm0        # b8f0 <_IO_stdin_used+0x8f0>
    90fc:	00 
    90fd:	f2 0f 10 15 eb 28 00 	movsd  0x28eb(%rip),%xmm2        # b9f0 <_IO_stdin_used+0x9f0>
    9104:	00 
    9105:	48 8b 34 d6          	mov    (%rsi,%rdx,8),%rsi
    9109:	f2 0f 59 04 c6       	mulsd  (%rsi,%rax,8),%xmm0
    910e:	4a 8b 34 c9          	mov    (%rcx,%r9,8),%rsi
    9112:	48 8b 4c 39 10       	mov    0x10(%rcx,%rdi,1),%rcx
    9117:	48 8b 34 d6          	mov    (%rsi,%rdx,8),%rsi
    911b:	48 8b 14 d1          	mov    (%rcx,%rdx,8),%rdx
    911f:	f2 0f 59 14 c6       	mulsd  (%rsi,%rax,8),%xmm2
    9124:	f2 0f 58 c2          	addsd  %xmm2,%xmm0
    9128:	f2 0f 5c 04 c2       	subsd  (%rdx,%rax,8),%xmm0
    912d:	f2 0f 59 05 7b 27 00 	mulsd  0x277b(%rip),%xmm0        # b8b0 <_IO_stdin_used+0x8b0>
    9134:	00 
    9135:	48 83 c4 08          	add    $0x8,%rsp
    9139:	f2 0f 5e c1          	divsd  %xmm1,%xmm0
    913d:	c3                   	ret    
    913e:	66 90                	xchg   %ax,%ax
    9140:	48 8b 54 31 08       	mov    0x8(%rcx,%rsi,1),%rdx
    9145:	f2 0f 10 05 a3 27 00 	movsd  0x27a3(%rip),%xmm0        # b8f0 <_IO_stdin_used+0x8f0>
    914c:	00 
    914d:	f2 0f 10 15 9b 28 00 	movsd  0x289b(%rip),%xmm2        # b9f0 <_IO_stdin_used+0x9f0>
    9154:	00 
    9155:	f2 0f 59 04 c2       	mulsd  (%rdx,%rax,8),%xmm0
    915a:	48 8b 14 f9          	mov    (%rcx,%rdi,8),%rdx
    915e:	f2 0f 59 14 c2       	mulsd  (%rdx,%rax,8),%xmm2
    9163:	48 8b 54 31 10       	mov    0x10(%rcx,%rsi,1),%rdx
    9168:	f2 0f 58 c2          	addsd  %xmm2,%xmm0
    916c:	f2 0f 5c 04 c2       	subsd  (%rdx,%rax,8),%xmm0
    9171:	f2 0f 59 05 37 27 00 	mulsd  0x2737(%rip),%xmm0        # b8b0 <_IO_stdin_used+0x8b0>
    9178:	00 
    9179:	48 83 c4 08          	add    $0x8,%rsp
    917d:	f2 0f 5e c1          	divsd  %xmm1,%xmm0
    9181:	c3                   	ret    
    9182:	66 0f 1f 44 00 00    	nopw   0x0(%rax,%rax,1)
    9188:	f2 0f 10 05 60 27 00 	movsd  0x2760(%rip),%xmm0        # b8f0 <_IO_stdin_used+0x8f0>
    918f:	00 
    9190:	f2 0f 10 15 58 28 00 	movsd  0x2858(%rip),%xmm2        # b9f0 <_IO_stdin_used+0x9f0>
    9197:	00 
    9198:	f2 0f 59 44 0a 08    	mulsd  0x8(%rdx,%rcx,1),%xmm0
    919e:	f2 0f 59 14 f2       	mulsd  (%rdx,%rsi,8),%xmm2
    91a3:	f2 0f 58 c2          	addsd  %xmm2,%xmm0
    91a7:	f2 0f 5c 44 0a 10    	subsd  0x10(%rdx,%rcx,1),%xmm0
    91ad:	f2 0f 59 05 fb 26 00 	mulsd  0x26fb(%rip),%xmm0        # b8b0 <_IO_stdin_used+0x8b0>
    91b4:	00 
    91b5:	48 83 c4 08          	add    $0x8,%rsp
    91b9:	f2 0f 5e c1          	divsd  %xmm1,%xmm0
    91bd:	c3                   	ret    
    91be:	66 90                	xchg   %ax,%ax
    91c0:	4a 8b 34 c9          	mov    (%rcx,%r9,8),%rsi
    91c4:	f2 0f 59 15 24 27 00 	mulsd  0x2724(%rip),%xmm2        # b8f0 <_IO_stdin_used+0x8f0>
    91cb:	00 
    91cc:	f2 0f 10 05 24 27 00 	movsd  0x2724(%rip),%xmm0        # b8f8 <_IO_stdin_used+0x8f8>
    91d3:	00 
    91d4:	48 8b 4c 39 f0       	mov    -0x10(%rcx,%rdi,1),%rcx
    91d9:	48 8b 34 d6          	mov    (%rsi,%rdx,8),%rsi
    91dd:	48 8b 14 d1          	mov    (%rcx,%rdx,8),%rdx
    91e1:	f2 0f 59 04 c6       	mulsd  (%rsi,%rax,8),%xmm0
    91e6:	f2 0f 5c c2          	subsd  %xmm2,%xmm0
    91ea:	f2 0f 58 04 c2       	addsd  (%rdx,%rax,8),%xmm0
    91ef:	f2 0f 59 05 b9 26 00 	mulsd  0x26b9(%rip),%xmm0        # b8b0 <_IO_stdin_used+0x8b0>
    91f6:	00 
    91f7:	f2 0f 5e c1          	divsd  %xmm1,%xmm0
    91fb:	e9 e1 fe ff ff       	jmp    90e1 <_Z7partdifPPPPdiiiidii+0x161>
    9200:	48 8b 14 f9          	mov    (%rcx,%rdi,8),%rdx
    9204:	f2 0f 59 15 e4 26 00 	mulsd  0x26e4(%rip),%xmm2        # b8f0 <_IO_stdin_used+0x8f0>
    920b:	00 
    920c:	f2 0f 10 05 e4 26 00 	movsd  0x26e4(%rip),%xmm0        # b8f8 <_IO_stdin_used+0x8f8>
    9213:	00 
    9214:	f2 0f 59 04 c2       	mulsd  (%rdx,%rax,8),%xmm0
    9219:	48 8b 54 31 f0       	mov    -0x10(%rcx,%rsi,1),%rdx
    921e:	f2 0f 5c c2          	subsd  %xmm2,%xmm0
    9222:	f2 0f 58 04 c2       	addsd  (%rdx,%rax,8),%xmm0
    9227:	f2 0f 59 05 81 26 00 	mulsd  0x2681(%rip),%xmm0        # b8b0 <_IO_stdin_used+0x8b0>
    922e:	00 
    922f:	f2 0f 5e c1          	divsd  %xmm1,%xmm0
    9233:	e9 a9 fe ff ff       	jmp    90e1 <_Z7partdifPPPPdiiiidii+0x161>
    9238:	0f 1f 84 00 00 00 00 	nopl   0x0(%rax,%rax,1)
    923f:	00 
    9240:	f2 0f 59 15 a8 26 00 	mulsd  0x26a8(%rip),%xmm2        # b8f0 <_IO_stdin_used+0x8f0>
    9247:	00 
    9248:	f2 0f 10 05 a8 26 00 	movsd  0x26a8(%rip),%xmm0        # b8f8 <_IO_stdin_used+0x8f8>
    924f:	00 
    9250:	f2 0f 59 04 f2       	mulsd  (%rdx,%rsi,8),%xmm0
    9255:	f2 0f 5c c2          	subsd  %xmm2,%xmm0
    9259:	f2 0f 58 44 0a f0    	addsd  -0x10(%rdx,%rcx,1),%xmm0
    925f:	f2 0f 59 05 49 26 00 	mulsd  0x2649(%rip),%xmm0        # b8b0 <_IO_stdin_used+0x8b0>
    9266:	00 
    9267:	f2 0f 5e c1          	divsd  %xmm1,%xmm0
    926b:	e9 71 fe ff ff       	jmp    90e1 <_Z7partdifPPPPdiiiidii+0x161>

0000000000009270 <_Z9divtenallPPP6tensorid>:
    9270:	f3 0f 1e fa          	endbr64 
    9274:	41 57                	push   %r15
    9276:	89 f1                	mov    %esi,%ecx
    9278:	41 89 f7             	mov    %esi,%r15d
    927b:	89 f2                	mov    %esi,%edx
    927d:	41 56                	push   %r14
    927f:	41 55                	push   %r13
    9281:	41 54                	push   %r12
    9283:	55                   	push   %rbp
    9284:	53                   	push   %rbx
    9285:	48 81 ec e8 00 00 00 	sub    $0xe8,%rsp
    928c:	48 89 bc 24 a8 00 00 	mov    %rdi,0xa8(%rsp)
    9293:	00 
    9294:	bf 09 00 00 00       	mov    $0x9,%edi
    9299:	f2 0f 11 44 24 20    	movsd  %xmm0,0x20(%rsp)
    929f:	64 48 8b 04 25 28 00 	mov    %fs:0x28,%rax
    92a6:	00 00 
    92a8:	48 89 84 24 d8 00 00 	mov    %rax,0xd8(%rsp)
    92af:	00 
    92b0:	31 c0                	xor    %eax,%eax
    92b2:	e8 b9 f7 ff ff       	call   8a70 <_Z10allocate4djjjj>
    92b7:	45 85 ff             	test   %r15d,%r15d
    92ba:	0f 8e e8 03 00 00    	jle    96a8 <_Z9divtenallPPP6tensorid+0x438>
    92c0:	48 89 c3             	mov    %rax,%rbx
    92c3:	41 8d 47 ff          	lea    -0x1(%r15),%eax
    92c7:	48 c7 44 24 58 00 00 	movq   $0x0,0x58(%rsp)
    92ce:	00 00 
    92d0:	48 89 44 24 30       	mov    %rax,0x30(%rsp)
    92d5:	4c 8d 34 c5 08 00 00 	lea    0x8(,%rax,8),%r14
    92dc:	00 
    92dd:	48 8b 03             	mov    (%rbx),%rax
    92e0:	48 89 9c 24 b0 00 00 	mov    %rbx,0xb0(%rsp)
    92e7:	00 
    92e8:	48 89 44 24 78       	mov    %rax,0x78(%rsp)
    92ed:	48 8b 43 08          	mov    0x8(%rbx),%rax
    92f1:	44 89 bc 24 bc 00 00 	mov    %r15d,0xbc(%rsp)
    92f8:	00 
    92f9:	48 89 84 24 80 00 00 	mov    %rax,0x80(%rsp)
    9300:	00 
    9301:	48 8b 43 10          	mov    0x10(%rbx),%rax
    9305:	48 89 84 24 88 00 00 	mov    %rax,0x88(%rsp)
    930c:	00 
    930d:	48 8b 43 18          	mov    0x18(%rbx),%rax
    9311:	48 89 84 24 90 00 00 	mov    %rax,0x90(%rsp)
    9318:	00 
    9319:	48 8b 43 20          	mov    0x20(%rbx),%rax
    931d:	48 89 84 24 98 00 00 	mov    %rax,0x98(%rsp)
    9324:	00 
    9325:	48 8b 43 28          	mov    0x28(%rbx),%rax
    9329:	48 89 84 24 a0 00 00 	mov    %rax,0xa0(%rsp)
    9330:	00 
    9331:	48 8b 43 30          	mov    0x30(%rbx),%rax
    9335:	48 89 44 24 68       	mov    %rax,0x68(%rsp)
    933a:	48 8b 43 38          	mov    0x38(%rbx),%rax
    933e:	48 89 44 24 60       	mov    %rax,0x60(%rsp)
    9343:	48 8b 43 40          	mov    0x40(%rbx),%rax
    9347:	48 89 44 24 70       	mov    %rax,0x70(%rsp)
    934c:	48 8b 44 24 58       	mov    0x58(%rsp),%rax
    9351:	48 8b 8c 24 a8 00 00 	mov    0xa8(%rsp),%rcx
    9358:	00 
    9359:	4c 8b 3c 01          	mov    (%rcx,%rax,1),%r15
    935d:	48 8b 4c 24 78       	mov    0x78(%rsp),%rcx
    9362:	4c 8b 2c 01          	mov    (%rcx,%rax,1),%r13
    9366:	48 8b 8c 24 80 00 00 	mov    0x80(%rsp),%rcx
    936d:	00 
    936e:	48 8b 0c 01          	mov    (%rcx,%rax,1),%rcx
    9372:	48 89 4c 24 28       	mov    %rcx,0x28(%rsp)
    9377:	48 8b 8c 24 88 00 00 	mov    0x88(%rsp),%rcx
    937e:	00 
    937f:	48 8b 0c 01          	mov    (%rcx,%rax,1),%rcx
    9383:	48 89 4c 24 38       	mov    %rcx,0x38(%rsp)
    9388:	48 8b 8c 24 90 00 00 	mov    0x90(%rsp),%rcx
    938f:	00 
    9390:	48 8b 0c 01          	mov    (%rcx,%rax,1),%rcx
    9394:	48 89 4c 24 40       	mov    %rcx,0x40(%rsp)
    9399:	48 8b 8c 24 98 00 00 	mov    0x98(%rsp),%rcx
    93a0:	00 
    93a1:	48 8b 0c 01          	mov    (%rcx,%rax,1),%rcx
    93a5:	48 89 4c 24 48       	mov    %rcx,0x48(%rsp)
    93aa:	48 8b 8c 24 a0 00 00 	mov    0xa0(%rsp),%rcx
    93b1:	00 
    93b2:	48 8b 0c 01          	mov    (%rcx,%rax,1),%rcx
    93b6:	48 89 4c 24 50       	mov    %rcx,0x50(%rsp)
    93bb:	48 8b 4c 24 68       	mov    0x68(%rsp),%rcx
    93c0:	48 8b 0c 01          	mov    (%rcx,%rax,1),%rcx
    93c4:	48 89 4c 24 10       	mov    %rcx,0x10(%rsp)
    93c9:	48 8b 4c 24 60       	mov    0x60(%rsp),%rcx
    93ce:	48 8b 0c 01          	mov    (%rcx,%rax,1),%rcx
    93d2:	48 89 4c 24 08       	mov    %rcx,0x8(%rsp)
    93d7:	48 8b 4c 24 70       	mov    0x70(%rsp),%rcx
    93dc:	48 8b 04 01          	mov    (%rcx,%rax,1),%rax
    93e0:	31 c9                	xor    %ecx,%ecx
    93e2:	48 89 44 24 18       	mov    %rax,0x18(%rsp)
    93e7:	66 0f 1f 84 00 00 00 	nopw   0x0(%rax,%rax,1)
    93ee:	00 00 
    93f0:	48 8b 44 24 28       	mov    0x28(%rsp),%rax
    93f5:	49 8b 14 0f          	mov    (%r15,%rcx,1),%rdx
    93f9:	4d 8b 64 0d 00       	mov    0x0(%r13,%rcx,1),%r12
    93fe:	48 8b 2c 08          	mov    (%rax,%rcx,1),%rbp
    9402:	48 8b 44 24 38       	mov    0x38(%rsp),%rax
    9407:	48 8b 1c 08          	mov    (%rax,%rcx,1),%rbx
    940b:	48 8b 44 24 40       	mov    0x40(%rsp),%rax
    9410:	4c 8b 1c 08          	mov    (%rax,%rcx,1),%r11
    9414:	48 8b 44 24 48       	mov    0x48(%rsp),%rax
    9419:	4c 8b 14 08          	mov    (%rax,%rcx,1),%r10
    941d:	48 8b 44 24 50       	mov    0x50(%rsp),%rax
    9422:	4c 8b 0c 08          	mov    (%rax,%rcx,1),%r9
    9426:	48 8b 44 24 10       	mov    0x10(%rsp),%rax
    942b:	4c 8b 04 08          	mov    (%rax,%rcx,1),%r8
    942f:	48 8b 44 24 08       	mov    0x8(%rsp),%rax
    9434:	48 8b 3c 08          	mov    (%rax,%rcx,1),%rdi
    9438:	48 8b 44 24 18       	mov    0x18(%rsp),%rax
    943d:	48 8b 34 08          	mov    (%rax,%rcx,1),%rsi
    9441:	31 c0                	xor    %eax,%eax
    9443:	0f 1f 44 00 00       	nopl   0x0(%rax,%rax,1)
    9448:	f2 0f 10 02          	movsd  (%rdx),%xmm0
    944c:	48 83 c2 48          	add    $0x48,%rdx
    9450:	f2 41 0f 11 04 04    	movsd  %xmm0,(%r12,%rax,1)
    9456:	f2 0f 10 42 c0       	movsd  -0x40(%rdx),%xmm0
    945b:	f2 0f 11 44 05 00    	movsd  %xmm0,0x0(%rbp,%rax,1)
    9461:	f2 0f 10 42 c8       	movsd  -0x38(%rdx),%xmm0
    9466:	f2 0f 11 04 03       	movsd  %xmm0,(%rbx,%rax,1)
    946b:	f2 0f 10 42 d0       	movsd  -0x30(%rdx),%xmm0
    9470:	f2 41 0f 11 04 03    	movsd  %xmm0,(%r11,%rax,1)
    9476:	f2 0f 10 42 d8       	movsd  -0x28(%rdx),%xmm0
    947b:	f2 41 0f 11 04 02    	movsd  %xmm0,(%r10,%rax,1)
    9481:	f2 0f 10 42 e0       	movsd  -0x20(%rdx),%xmm0
    9486:	f2 41 0f 11 04 01    	movsd  %xmm0,(%r9,%rax,1)
    948c:	f2 0f 10 42 e8       	movsd  -0x18(%rdx),%xmm0
    9491:	f2 41 0f 11 04 00    	movsd  %xmm0,(%r8,%rax,1)
    9497:	f2 0f 10 42 f0       	movsd  -0x10(%rdx),%xmm0
    949c:	f2 0f 11 04 07       	movsd  %xmm0,(%rdi,%rax,1)
    94a1:	f2 0f 10 42 f8       	movsd  -0x8(%rdx),%xmm0
    94a6:	f2 0f 11 04 06       	movsd  %xmm0,(%rsi,%rax,1)
    94ab:	48 83 c0 08          	add    $0x8,%rax
    94af:	4c 39 f0             	cmp    %r14,%rax
    94b2:	75 94                	jne    9448 <_Z9divtenallPPP6tensorid+0x1d8>
    94b4:	48 83 c1 08          	add    $0x8,%rcx
    94b8:	48 39 c8             	cmp    %rcx,%rax
    94bb:	0f 85 2f ff ff ff    	jne    93f0 <_Z9divtenallPPP6tensorid+0x180>
    94c1:	48 83 44 24 58 08    	addq   $0x8,0x58(%rsp)
    94c7:	48 8b 4c 24 58       	mov    0x58(%rsp),%rcx
    94cc:	48 39 c8             	cmp    %rcx,%rax
    94cf:	0f 85 77 fe ff ff    	jne    934c <_Z9divtenallPPP6tensorid+0xdc>
    94d5:	44 8b bc 24 bc 00 00 	mov    0xbc(%rsp),%r15d
    94dc:	00 
    94dd:	48 8b 9c 24 b0 00 00 	mov    0xb0(%rsp),%rbx
    94e4:	00 
    94e5:	44 89 fa             	mov    %r15d,%edx
    94e8:	44 89 fe             	mov    %r15d,%esi
    94eb:	44 89 ff             	mov    %r15d,%edi
    94ee:	45 89 fe             	mov    %r15d,%r14d
    94f1:	e8 9a f6 ff ff       	call   8b90 <_Z11allocate3dvjjj>
    94f6:	49 89 df             	mov    %rbx,%r15
    94f9:	48 c7 44 24 40 00 00 	movq   $0x0,0x40(%rsp)
    9500:	00 00 
    9502:	48 89 44 24 48       	mov    %rax,0x48(%rsp)
    9507:	48 8d 84 24 c0 00 00 	lea    0xc0(%rsp),%rax
    950e:	00 
    950f:	48 89 44 24 50       	mov    %rax,0x50(%rsp)
    9514:	48 c7 44 24 58 00 00 	movq   $0x0,0x58(%rsp)
    951b:	00 00 
    951d:	8b 44 24 40          	mov    0x40(%rsp),%eax
    9521:	44 89 f3             	mov    %r14d,%ebx
    9524:	89 44 24 18          	mov    %eax,0x18(%rsp)
    9528:	48 8b 44 24 58       	mov    0x58(%rsp),%rax
    952d:	0f 1f 00             	nopl   (%rax)
    9530:	48 c7 44 24 28 00 00 	movq   $0x0,0x28(%rsp)
    9537:	00 00 
    9539:	41 89 c5             	mov    %eax,%r13d
    953c:	48 c1 e0 03          	shl    $0x3,%rax
    9540:	89 dd                	mov    %ebx,%ebp
    9542:	48 89 44 24 38       	mov    %rax,0x38(%rsp)
    9547:	66 0f 1f 84 00 00 00 	nopw   0x0(%rax,%rax,1)
    954e:	00 00 
    9550:	4c 8b 64 24 50       	mov    0x50(%rsp),%r12
    9555:	44 8b 74 24 28       	mov    0x28(%rsp),%r14d
    955a:	66 0f ef c9          	pxor   %xmm1,%xmm1
    955e:	48 c7 84 24 d0 00 00 	movq   $0x0,0xd0(%rsp)
    9565:	00 00 00 00 00 
    956a:	c7 44 24 08 03 00 00 	movl   $0x3,0x8(%rsp)
    9571:	00 
    9572:	4c 89 e3             	mov    %r12,%rbx
    9575:	0f 29 8c 24 c0 00 00 	movaps %xmm1,0xc0(%rsp)
    957c:	00 
    957d:	41 89 ec             	mov    %ebp,%r12d
    9580:	44 89 f5             	mov    %r14d,%ebp
    9583:	8b 44 24 08          	mov    0x8(%rsp),%eax
    9587:	41 be 01 00 00 00    	mov    $0x1,%r14d
    958d:	83 e8 04             	sub    $0x4,%eax
    9590:	89 44 24 10          	mov    %eax,0x10(%rsp)
    9594:	44 89 e0             	mov    %r12d,%eax
    9597:	41 89 ec             	mov    %ebp,%r12d
    959a:	89 c5                	mov    %eax,%ebp
    959c:	48 83 ec 08          	sub    $0x8,%rsp
    95a0:	44 89 ea             	mov    %r13d,%edx
    95a3:	41 89 e8             	mov    %ebp,%r8d
    95a6:	44 89 e1             	mov    %r12d,%ecx
    95a9:	41 56                	push   %r14
    95ab:	8b 44 24 20          	mov    0x20(%rsp),%eax
    95af:	4c 89 ff             	mov    %r15,%rdi
    95b2:	f2 0f 10 44 24 30    	movsd  0x30(%rsp),%xmm0
    95b8:	8b 74 24 28          	mov    0x28(%rsp),%esi
    95bc:	46 8d 0c 30          	lea    (%rax,%r14,1),%r9d
    95c0:	41 83 c6 01          	add    $0x1,%r14d
    95c4:	e8 b7 f9 ff ff       	call   8f80 <_Z7partdifPPPPdiiiidii>
    95c9:	f2 0f 58 03          	addsd  (%rbx),%xmm0
    95cd:	f2 0f 11 03          	movsd  %xmm0,(%rbx)
    95d1:	58                   	pop    %rax
    95d2:	5a                   	pop    %rdx
    95d3:	41 83 fe 04          	cmp    $0x4,%r14d
    95d7:	75 c3                	jne    959c <_Z9divtenallPPP6tensorid+0x32c>
    95d9:	89 e8                	mov    %ebp,%eax
    95db:	83 44 24 08 03       	addl   $0x3,0x8(%rsp)
    95e0:	44 89 e5             	mov    %r12d,%ebp
    95e3:	48 83 c3 08          	add    $0x8,%rbx
    95e7:	41 89 c4             	mov    %eax,%r12d
    95ea:	8b 44 24 08          	mov    0x8(%rsp),%eax
    95ee:	83 f8 0c             	cmp    $0xc,%eax
    95f1:	75 90                	jne    9583 <_Z9divtenallPPP6tensorid+0x313>
    95f3:	48 8b 44 24 48       	mov    0x48(%rsp),%rax
    95f8:	48 8b 7c 24 40       	mov    0x40(%rsp),%rdi
    95fd:	44 89 e5             	mov    %r12d,%ebp
    9600:	48 8b 4c 24 38       	mov    0x38(%rsp),%rcx
    9605:	48 8b 74 24 28       	mov    0x28(%rsp),%rsi
    960a:	66 0f 28 94 24 c0 00 	movapd 0xc0(%rsp),%xmm2
    9611:	00 00 
    9613:	48 8b 04 f8          	mov    (%rax,%rdi,8),%rax
    9617:	f2 0f 10 84 24 d0 00 	movsd  0xd0(%rsp),%xmm0
    961e:	00 00 
    9620:	48 8d 14 76          	lea    (%rsi,%rsi,2),%rdx
    9624:	48 8b 04 08          	mov    (%rax,%rcx,1),%rax
    9628:	48 8d 04 d0          	lea    (%rax,%rdx,8),%rax
    962c:	0f 11 10             	movups %xmm2,(%rax)
    962f:	f2 0f 11 40 10       	movsd  %xmm0,0x10(%rax)
    9634:	48 8d 46 01          	lea    0x1(%rsi),%rax
    9638:	48 39 74 24 30       	cmp    %rsi,0x30(%rsp)
    963d:	74 0a                	je     9649 <_Z9divtenallPPP6tensorid+0x3d9>
    963f:	48 89 44 24 28       	mov    %rax,0x28(%rsp)
    9644:	e9 07 ff ff ff       	jmp    9550 <_Z9divtenallPPP6tensorid+0x2e0>
    9649:	48 8b 4c 24 58       	mov    0x58(%rsp),%rcx
    964e:	44 89 e3             	mov    %r12d,%ebx
    9651:	48 8d 41 01          	lea    0x1(%rcx),%rax
    9655:	48 3b 4c 24 30       	cmp    0x30(%rsp),%rcx
    965a:	74 0a                	je     9666 <_Z9divtenallPPP6tensorid+0x3f6>
    965c:	48 89 44 24 58       	mov    %rax,0x58(%rsp)
    9661:	e9 ca fe ff ff       	jmp    9530 <_Z9divtenallPPP6tensorid+0x2c0>
    9666:	45 89 e6             	mov    %r12d,%r14d
    9669:	48 8d 47 01          	lea    0x1(%rdi),%rax
    966d:	48 3b 7c 24 30       	cmp    0x30(%rsp),%rdi
    9672:	74 0a                	je     967e <_Z9divtenallPPP6tensorid+0x40e>
    9674:	48 89 44 24 40       	mov    %rax,0x40(%rsp)
    9679:	e9 96 fe ff ff       	jmp    9514 <_Z9divtenallPPP6tensorid+0x2a4>
    967e:	48 8b 84 24 d8 00 00 	mov    0xd8(%rsp),%rax
    9685:	00 
    9686:	64 48 2b 04 25 28 00 	sub    %fs:0x28,%rax
    968d:	00 00 
    968f:	75 49                	jne    96da <_Z9divtenallPPP6tensorid+0x46a>
    9691:	48 8b 44 24 48       	mov    0x48(%rsp),%rax
    9696:	48 81 c4 e8 00 00 00 	add    $0xe8,%rsp
    969d:	5b                   	pop    %rbx
    969e:	5d                   	pop    %rbp
    969f:	41 5c                	pop    %r12
    96a1:	41 5d                	pop    %r13
    96a3:	41 5e                	pop    %r14
    96a5:	41 5f                	pop    %r15
    96a7:	c3                   	ret    
    96a8:	48 8b 84 24 d8 00 00 	mov    0xd8(%rsp),%rax
    96af:	00 
    96b0:	64 48 2b 04 25 28 00 	sub    %fs:0x28,%rax
    96b7:	00 00 
    96b9:	75 1f                	jne    96da <_Z9divtenallPPP6tensorid+0x46a>
    96bb:	48 81 c4 e8 00 00 00 	add    $0xe8,%rsp
    96c2:	44 89 fa             	mov    %r15d,%edx
    96c5:	44 89 fe             	mov    %r15d,%esi
    96c8:	44 89 ff             	mov    %r15d,%edi
    96cb:	5b                   	pop    %rbx
    96cc:	5d                   	pop    %rbp
    96cd:	41 5c                	pop    %r12
    96cf:	41 5d                	pop    %r13
    96d1:	41 5e                	pop    %r14
    96d3:	41 5f                	pop    %r15
    96d5:	e9 b6 f4 ff ff       	jmp    8b90 <_Z11allocate3dvjjj>
    96da:	e8 f1 8e ff ff       	call   25d0 <__stack_chk_fail@plt>
    96df:	90                   	nop

00000000000096e0 <_Z8velocityddd>:
    96e0:	f3 0f 1e fa          	endbr64 
    96e4:	f2 0f 10 05 04 22 00 	movsd  0x2204(%rip),%xmm0        # b8f0 <_IO_stdin_used+0x8f0>
    96eb:	00 
    96ec:	48 c7 47 08 00 00 00 	movq   $0x0,0x8(%rdi)
    96f3:	00 
    96f4:	48 89 f8             	mov    %rdi,%rax
    96f7:	48 c7 47 10 00 00 00 	movq   $0x0,0x10(%rdi)
    96fe:	00 
    96ff:	f2 0f 59 c1          	mulsd  %xmm1,%xmm0
    9703:	f2 0f 59 c1          	mulsd  %xmm1,%xmm0
    9707:	f2 0f 11 07          	movsd  %xmm0,(%rdi)
    970b:	c3                   	ret    
    970c:	0f 1f 40 00          	nopl   0x0(%rax)

0000000000009710 <_Z10divvadvecvPPPPddddid>:
    9710:	f3 0f 1e fa          	endbr64 
    9714:	41 57                	push   %r15
    9716:	41 89 f0             	mov    %esi,%r8d
    9719:	41 56                	push   %r14
    971b:	f2 44 0f 2c f2       	cvttsd2si %xmm2,%r14d
    9720:	41 55                	push   %r13
    9722:	f2 44 0f 2c e9       	cvttsd2si %xmm1,%r13d
    9727:	66 0f ef c9          	pxor   %xmm1,%xmm1
    972b:	41 54                	push   %r12
    972d:	f2 44 0f 2c e0       	cvttsd2si %xmm0,%r12d
    9732:	55                   	push   %rbp
    9733:	48 89 fd             	mov    %rdi,%rbp
    9736:	53                   	push   %rbx
    9737:	31 db                	xor    %ebx,%ebx
    9739:	48 83 ec 28          	sub    $0x28,%rsp
    973d:	f2 0f 11 1c 24       	movsd  %xmm3,(%rsp)
    9742:	45 31 ff             	xor    %r15d,%r15d
    9745:	f2 0f 11 4c 24 18    	movsd  %xmm1,0x18(%rsp)
    974b:	48 83 ec 08          	sub    $0x8,%rsp
    974f:	41 89 d9             	mov    %ebx,%r9d
    9752:	44 89 f1             	mov    %r14d,%ecx
    9755:	41 57                	push   %r15
    9757:	f2 0f 10 44 24 10    	movsd  0x10(%rsp),%xmm0
    975d:	44 89 ea             	mov    %r13d,%edx
    9760:	44 89 e6             	mov    %r12d,%esi
    9763:	48 89 ef             	mov    %rbp,%rdi
    9766:	44 89 44 24 24       	mov    %r8d,0x24(%rsp)
    976b:	e8 10 f8 ff ff       	call   8f80 <_Z7partdifPPPPdiiiidii>
    9770:	44 8b 44 24 24       	mov    0x24(%rsp),%r8d
    9775:	45 89 f9             	mov    %r15d,%r9d
    9778:	44 89 ea             	mov    %r13d,%edx
    977b:	f2 0f 11 44 24 18    	movsd  %xmm0,0x18(%rsp)
    9781:	44 89 f1             	mov    %r14d,%ecx
    9784:	44 89 e6             	mov    %r12d,%esi
    9787:	48 89 ef             	mov    %rbp,%rdi
    978a:	f2 0f 10 44 24 10    	movsd  0x10(%rsp),%xmm0
    9790:	89 1c 24             	mov    %ebx,(%rsp)
    9793:	41 83 c7 01          	add    $0x1,%r15d
    9797:	e8 e4 f7 ff ff       	call   8f80 <_Z7partdifPPPPdiiiidii>
    979c:	f2 0f 59 44 24 18    	mulsd  0x18(%rsp),%xmm0
    97a2:	f2 0f 10 4c 24 28    	movsd  0x28(%rsp),%xmm1
    97a8:	41 83 ff 03          	cmp    $0x3,%r15d
    97ac:	58                   	pop    %rax
    97ad:	5a                   	pop    %rdx
    97ae:	44 8b 44 24 14       	mov    0x14(%rsp),%r8d
    97b3:	f2 0f 58 c8          	addsd  %xmm0,%xmm1
    97b7:	75 8c                	jne    9745 <_Z10divvadvecvPPPPddddid+0x35>
    97b9:	83 c3 01             	add    $0x1,%ebx
    97bc:	83 fb 03             	cmp    $0x3,%ebx
    97bf:	75 81                	jne    9742 <_Z10divvadvecvPPPPddddid+0x32>
    97c1:	48 83 c4 28          	add    $0x28,%rsp
    97c5:	66 0f 28 c1          	movapd %xmm1,%xmm0
    97c9:	5b                   	pop    %rbx
    97ca:	5d                   	pop    %rbp
    97cb:	41 5c                	pop    %r12
    97cd:	41 5d                	pop    %r13
    97cf:	41 5e                	pop    %r14
    97d1:	41 5f                	pop    %r15
    97d3:	c3                   	ret    
    97d4:	66 2e 0f 1f 84 00 00 	cs nopw 0x0(%rax,%rax,1)
    97db:	00 00 00 
    97de:	66 90                	xchg   %ax,%ax

00000000000097e0 <_Z12writeVTKFileiPPPPdiiiddd>:
    97e0:	f3 0f 1e fa          	endbr64 
    97e4:	41 57                	push   %r15
    97e6:	41 56                	push   %r14
    97e8:	41 55                	push   %r13
    97ea:	41 54                	push   %r12
    97ec:	49 89 f4             	mov    %rsi,%r12
    97ef:	55                   	push   %rbp
    97f0:	53                   	push   %rbx
    97f1:	89 fb                	mov    %edi,%ebx
    97f3:	48 81 ec c8 02 00 00 	sub    $0x2c8,%rsp
    97fa:	89 54 24 20          	mov    %edx,0x20(%rsp)
    97fe:	4c 8d b4 24 a8 01 00 	lea    0x1a8(%rsp),%r14
    9805:	00 
    9806:	4c 8d bc 24 b0 00 00 	lea    0xb0(%rsp),%r15
    980d:	00 
    980e:	89 4c 24 24          	mov    %ecx,0x24(%rsp)
    9812:	4c 89 f7             	mov    %r14,%rdi
    9815:	44 89 44 24 28       	mov    %r8d,0x28(%rsp)
    981a:	f2 0f 11 04 24       	movsd  %xmm0,(%rsp)
    981f:	f2 0f 11 4c 24 18    	movsd  %xmm1,0x18(%rsp)
    9825:	f2 0f 11 54 24 48    	movsd  %xmm2,0x48(%rsp)
    982b:	64 48 8b 04 25 28 00 	mov    %fs:0x28,%rax
    9832:	00 00 
    9834:	48 89 84 24 b8 02 00 	mov    %rax,0x2b8(%rsp)
    983b:	00 
    983c:	31 c0                	xor    %eax,%eax
    983e:	4c 89 7c 24 10       	mov    %r15,0x10(%rsp)
    9843:	4c 89 74 24 38       	mov    %r14,0x38(%rsp)
    9848:	e8 d3 8b ff ff       	call   2420 <_ZNSt8ios_baseC2Ev@plt>
    984d:	48 8d 05 9c 51 00 00 	lea    0x519c(%rip),%rax        # e9f0 <_ZTVSt9basic_iosIcSt11char_traitsIcEE@GLIBCXX_3.4+0x10>
    9854:	31 ff                	xor    %edi,%edi
    9856:	31 f6                	xor    %esi,%esi
    9858:	48 89 84 24 a8 01 00 	mov    %rax,0x1a8(%rsp)
    985f:	00 
    9860:	66 0f ef c0          	pxor   %xmm0,%xmm0
    9864:	48 8b 05 1d 52 00 00 	mov    0x521d(%rip),%rax        # ea88 <_ZTTSt14basic_ofstreamIcSt11char_traitsIcEE@GLIBCXX_3.4+0x8>
    986b:	66 89 bc 24 88 02 00 	mov    %di,0x288(%rsp)
    9872:	00 
    9873:	48 89 84 24 b0 00 00 	mov    %rax,0xb0(%rsp)
    987a:	00 
    987b:	0f 29 84 24 90 02 00 	movaps %xmm0,0x290(%rsp)
    9882:	00 
    9883:	0f 29 84 24 a0 02 00 	movaps %xmm0,0x2a0(%rsp)
    988a:	00 
    988b:	4c 03 78 e8          	add    -0x18(%rax),%r15
    988f:	48 8b 05 fa 51 00 00 	mov    0x51fa(%rip),%rax        # ea90 <_ZTTSt14basic_ofstreamIcSt11char_traitsIcEE@GLIBCXX_3.4+0x10>
    9896:	48 c7 84 24 80 02 00 	movq   $0x0,0x280(%rsp)
    989d:	00 00 00 00 00 
    98a2:	4c 89 ff             	mov    %r15,%rdi
    98a5:	49 89 07             	mov    %rax,(%r15)
    98a8:	e8 b3 8d ff ff       	call   2660 <_ZNSt9basic_iosIcSt11char_traitsIcEE4initEPSt15basic_streambufIcS1_E@plt>
    98ad:	48 8d 05 c4 52 00 00 	lea    0x52c4(%rip),%rax        # eb78 <_ZTVSt14basic_ofstreamIcSt11char_traitsIcEE@GLIBCXX_3.4+0x18>
    98b4:	48 89 84 24 b0 00 00 	mov    %rax,0xb0(%rsp)
    98bb:	00 
    98bc:	48 83 c0 28          	add    $0x28,%rax
    98c0:	48 89 84 24 a8 01 00 	mov    %rax,0x1a8(%rsp)
    98c7:	00 
    98c8:	48 8d 84 24 b8 00 00 	lea    0xb8(%rsp),%rax
    98cf:	00 
    98d0:	48 89 c7             	mov    %rax,%rdi
    98d3:	48 89 44 24 30       	mov    %rax,0x30(%rsp)
    98d8:	49 89 c7             	mov    %rax,%r15
    98db:	e8 e0 8c ff ff       	call   25c0 <_ZNSt13basic_filebufIcSt11char_traitsIcEEC1Ev@plt>
    98e0:	4c 89 fe             	mov    %r15,%rsi
    98e3:	4c 89 f7             	mov    %r14,%rdi
    98e6:	e8 75 8d ff ff       	call   2660 <_ZNSt9basic_iosIcSt11char_traitsIcEE4initEPSt15basic_streambufIcS1_E@plt>
    98eb:	41 89 df             	mov    %ebx,%r15d
    98ee:	89 dd                	mov    %ebx,%ebp
    98f0:	41 c1 ef 1f          	shr    $0x1f,%r15d
    98f4:	f7 dd                	neg    %ebp
    98f6:	0f 48 eb             	cmovs  %ebx,%ebp
    98f9:	83 fd 09             	cmp    $0x9,%ebp
    98fc:	0f 86 e2 07 00 00    	jbe    a0e4 <_Z12writeVTKFileiPPPPdiiiddd+0x904>
    9902:	83 fd 63             	cmp    $0x63,%ebp
    9905:	0f 86 cf 07 00 00    	jbe    a0da <_Z12writeVTKFileiPPPPdiiiddd+0x8fa>
    990b:	81 fd e7 03 00 00    	cmp    $0x3e7,%ebp
    9911:	0f 86 b9 07 00 00    	jbe    a0d0 <_Z12writeVTKFileiPPPPdiiiddd+0x8f0>
    9917:	89 ea                	mov    %ebp,%edx
    9919:	81 fd 0f 27 00 00    	cmp    $0x270f,%ebp
    991f:	0f 86 c9 07 00 00    	jbe    a0ee <_Z12writeVTKFileiPPPPdiiiddd+0x90e>
    9925:	48 be 4b 59 86 38 d6 	movabs $0x346dc5d63886594b,%rsi
    992c:	c5 6d 34 
    992f:	bb 01 00 00 00       	mov    $0x1,%ebx
    9934:	eb 2b                	jmp    9961 <_Z12writeVTKFileiPPPPdiiiddd+0x181>
    9936:	66 2e 0f 1f 84 00 00 	cs nopw 0x0(%rax,%rax,1)
    993d:	00 00 00 
    9940:	83 fa 63             	cmp    $0x63,%edx
    9943:	0f 86 59 07 00 00    	jbe    a0a2 <_Z12writeVTKFileiPPPPdiiiddd+0x8c2>
    9949:	81 fa e7 03 00 00    	cmp    $0x3e7,%edx
    994f:	0f 86 45 07 00 00    	jbe    a09a <_Z12writeVTKFileiPPPPdiiiddd+0x8ba>
    9955:	81 fa 0f 27 00 00    	cmp    $0x270f,%edx
    995b:	0f 86 31 07 00 00    	jbe    a092 <_Z12writeVTKFileiPPPPdiiiddd+0x8b2>
    9961:	48 89 d0             	mov    %rdx,%rax
    9964:	48 89 d1             	mov    %rdx,%rcx
    9967:	48 f7 e6             	mul    %rsi
    996a:	89 d8                	mov    %ebx,%eax
    996c:	83 c3 04             	add    $0x4,%ebx
    996f:	48 c1 ea 0b          	shr    $0xb,%rdx
    9973:	48 81 f9 9f 86 01 00 	cmp    $0x1869f,%rcx
    997a:	77 c4                	ja     9940 <_Z12writeVTKFileiPPPPdiiiddd+0x160>
    997c:	4c 8d 6c 24 70       	lea    0x70(%rsp),%r13
    9981:	41 8d 34 1f          	lea    (%r15,%rbx,1),%esi
    9985:	ba 2d 00 00 00       	mov    $0x2d,%edx
    998a:	4c 8d b4 24 80 00 00 	lea    0x80(%rsp),%r14
    9991:	00 
    9992:	4c 89 ef             	mov    %r13,%rdi
    9995:	4c 89 74 24 70       	mov    %r14,0x70(%rsp)
    999a:	e8 61 8c ff ff       	call   2600 <_ZNSt7__cxx1112basic_stringIcSt11char_traitsIcESaIcEE12_M_constructEmc@plt>
    999f:	41 0f b6 cf          	movzbl %r15b,%ecx
    99a3:	83 eb 01             	sub    $0x1,%ebx
    99a6:	48 03 4c 24 70       	add    0x70(%rsp),%rcx
    99ab:	83 fd 63             	cmp    $0x63,%ebp
    99ae:	76 4e                	jbe    99fe <_Z12writeVTKFileiPPPPdiiiddd+0x21e>
    99b0:	48 8d 35 a9 21 00 00 	lea    0x21a9(%rip),%rsi        # bb60 <_ZZNSt8__detail18__to_chars_10_implIjEEvPcjT_E8__digits>
    99b7:	66 0f 1f 84 00 00 00 	nopw   0x0(%rax,%rax,1)
    99be:	00 00 
    99c0:	89 ea                	mov    %ebp,%edx
    99c2:	89 e8                	mov    %ebp,%eax
    99c4:	48 69 d2 1f 85 eb 51 	imul   $0x51eb851f,%rdx,%rdx
    99cb:	48 c1 ea 25          	shr    $0x25,%rdx
    99cf:	6b fa 64             	imul   $0x64,%edx,%edi
    99d2:	29 f8                	sub    %edi,%eax
    99d4:	89 ef                	mov    %ebp,%edi
    99d6:	89 d5                	mov    %edx,%ebp
    99d8:	89 da                	mov    %ebx,%edx
    99da:	01 c0                	add    %eax,%eax
    99dc:	44 8d 40 01          	lea    0x1(%rax),%r8d
    99e0:	0f b6 04 06          	movzbl (%rsi,%rax,1),%eax
    99e4:	46 0f b6 04 06       	movzbl (%rsi,%r8,1),%r8d
    99e9:	44 88 04 11          	mov    %r8b,(%rcx,%rdx,1)
    99ed:	8d 53 ff             	lea    -0x1(%rbx),%edx
    99f0:	83 eb 02             	sub    $0x2,%ebx
    99f3:	88 04 11             	mov    %al,(%rcx,%rdx,1)
    99f6:	81 ff 0f 27 00 00    	cmp    $0x270f,%edi
    99fc:	77 c2                	ja     99c0 <_Z12writeVTKFileiPPPPdiiiddd+0x1e0>
    99fe:	8d 45 30             	lea    0x30(%rbp),%eax
    9a01:	83 fd 09             	cmp    $0x9,%ebp
    9a04:	76 17                	jbe    9a1d <_Z12writeVTKFileiPPPPdiiiddd+0x23d>
    9a06:	01 ed                	add    %ebp,%ebp
    9a08:	48 8d 05 51 21 00 00 	lea    0x2151(%rip),%rax        # bb60 <_ZZNSt8__detail18__to_chars_10_implIjEEvPcjT_E8__digits>
    9a0f:	8d 55 01             	lea    0x1(%rbp),%edx
    9a12:	0f b6 14 10          	movzbl (%rax,%rdx,1),%edx
    9a16:	0f b6 04 28          	movzbl (%rax,%rbp,1),%eax
    9a1a:	88 51 01             	mov    %dl,0x1(%rcx)
    9a1d:	88 01                	mov    %al,(%rcx)
    9a1f:	41 b8 07 00 00 00    	mov    $0x7,%r8d
    9a25:	31 d2                	xor    %edx,%edx
    9a27:	31 f6                	xor    %esi,%esi
    9a29:	48 8d 0d c8 1f 00 00 	lea    0x1fc8(%rip),%rcx        # b9f8 <_IO_stdin_used+0x9f8>
    9a30:	4c 89 ef             	mov    %r13,%rdi
    9a33:	e8 78 8c ff ff       	call   26b0 <_ZNSt7__cxx1112basic_stringIcSt11char_traitsIcESaIcEE10_M_replaceEmmPKcm@plt>
    9a38:	48 8d 9c 24 a0 00 00 	lea    0xa0(%rsp),%rbx
    9a3f:	00 
    9a40:	48 8d 50 10          	lea    0x10(%rax),%rdx
    9a44:	48 89 9c 24 90 00 00 	mov    %rbx,0x90(%rsp)
    9a4b:	00 
    9a4c:	48 8b 08             	mov    (%rax),%rcx
    9a4f:	48 39 d1             	cmp    %rdx,%rcx
    9a52:	0f 84 09 06 00 00    	je     a061 <_Z12writeVTKFileiPPPPdiiiddd+0x881>
    9a58:	48 89 8c 24 90 00 00 	mov    %rcx,0x90(%rsp)
    9a5f:	00 
    9a60:	48 8b 48 10          	mov    0x10(%rax),%rcx
    9a64:	48 89 8c 24 a0 00 00 	mov    %rcx,0xa0(%rsp)
    9a6b:	00 
    9a6c:	48 8b 48 08          	mov    0x8(%rax),%rcx
    9a70:	c6 40 10 00          	movb   $0x0,0x10(%rax)
    9a74:	48 89 8c 24 98 00 00 	mov    %rcx,0x98(%rsp)
    9a7b:	00 
    9a7c:	48 c7 40 08 00 00 00 	movq   $0x0,0x8(%rax)
    9a83:	00 
    9a84:	48 89 10             	mov    %rdx,(%rax)
    9a87:	48 b8 ff ff ff ff ff 	movabs $0x3fffffffffffffff,%rax
    9a8e:	ff ff 3f 
    9a91:	48 2b 84 24 98 00 00 	sub    0x98(%rsp),%rax
    9a98:	00 
    9a99:	48 83 f8 03          	cmp    $0x3,%rax
    9a9d:	0f 86 55 06 00 00    	jbe    a0f8 <_Z12writeVTKFileiPPPPdiiiddd+0x918>
    9aa3:	48 8d bc 24 90 00 00 	lea    0x90(%rsp),%rdi
    9aaa:	00 
    9aab:	ba 04 00 00 00       	mov    $0x4,%edx
    9ab0:	48 8d 35 5e 1f 00 00 	lea    0x1f5e(%rip),%rsi        # ba15 <_IO_stdin_used+0xa15>
    9ab7:	e8 74 89 ff ff       	call   2430 <_ZNSt7__cxx1112basic_stringIcSt11char_traitsIcESaIcEE9_M_appendEPKcm@plt>
    9abc:	48 8d 4c 24 60       	lea    0x60(%rsp),%rcx
    9ac1:	48 8d 50 10          	lea    0x10(%rax),%rdx
    9ac5:	48 89 4c 24 40       	mov    %rcx,0x40(%rsp)
    9aca:	48 89 4c 24 50       	mov    %rcx,0x50(%rsp)
    9acf:	48 8b 08             	mov    (%rax),%rcx
    9ad2:	48 39 d1             	cmp    %rdx,%rcx
    9ad5:	0f 84 a8 05 00 00    	je     a083 <_Z12writeVTKFileiPPPPdiiiddd+0x8a3>
    9adb:	48 89 4c 24 50       	mov    %rcx,0x50(%rsp)
    9ae0:	48 8b 48 10          	mov    0x10(%rax),%rcx
    9ae4:	48 89 4c 24 60       	mov    %rcx,0x60(%rsp)
    9ae9:	48 8b 48 08          	mov    0x8(%rax),%rcx
    9aed:	c6 40 10 00          	movb   $0x0,0x10(%rax)
    9af1:	48 89 4c 24 58       	mov    %rcx,0x58(%rsp)
    9af6:	48 89 10             	mov    %rdx,(%rax)
    9af9:	48 8b bc 24 90 00 00 	mov    0x90(%rsp),%rdi
    9b00:	00 
    9b01:	48 c7 40 08 00 00 00 	movq   $0x0,0x8(%rax)
    9b08:	00 
    9b09:	48 39 df             	cmp    %rbx,%rdi
    9b0c:	74 11                	je     9b1f <_Z12writeVTKFileiPPPPdiiiddd+0x33f>
    9b0e:	48 8b 84 24 a0 00 00 	mov    0xa0(%rsp),%rax
    9b15:	00 
    9b16:	48 8d 70 01          	lea    0x1(%rax),%rsi
    9b1a:	e8 91 8a ff ff       	call   25b0 <_ZdlPvm@plt>
    9b1f:	48 8b 7c 24 70       	mov    0x70(%rsp),%rdi
    9b24:	4c 39 f7             	cmp    %r14,%rdi
    9b27:	74 11                	je     9b3a <_Z12writeVTKFileiPPPPdiiiddd+0x35a>
    9b29:	48 8b 84 24 80 00 00 	mov    0x80(%rsp),%rax
    9b30:	00 
    9b31:	48 8d 70 01          	lea    0x1(%rax),%rsi
    9b35:	e8 76 8a ff ff       	call   25b0 <_ZdlPvm@plt>
    9b3a:	48 8b 74 24 50       	mov    0x50(%rsp),%rsi
    9b3f:	48 8b 7c 24 30       	mov    0x30(%rsp),%rdi
    9b44:	ba 10 00 00 00       	mov    $0x10,%edx
    9b49:	e8 22 8a ff ff       	call   2570 <_ZNSt13basic_filebufIcSt11char_traitsIcEE4openEPKcSt13_Ios_Openmode@plt>
    9b4e:	48 8b 94 24 b0 00 00 	mov    0xb0(%rsp),%rdx
    9b55:	00 
    9b56:	48 8b 7c 24 10       	mov    0x10(%rsp),%rdi
    9b5b:	48 03 7a e8          	add    -0x18(%rdx),%rdi
    9b5f:	48 85 c0             	test   %rax,%rax
    9b62:	0f 84 0b 05 00 00    	je     a073 <_Z12writeVTKFileiPPPPdiiiddd+0x893>
    9b68:	31 f6                	xor    %esi,%esi
    9b6a:	e8 91 8b ff ff       	call   2700 <_ZNSt9basic_iosIcSt11char_traitsIcEE5clearESt12_Ios_Iostate@plt>
    9b6f:	48 8b 5c 24 10       	mov    0x10(%rsp),%rbx
    9b74:	ba 1b 00 00 00       	mov    $0x1b,%edx
    9b79:	48 8d 35 9a 1e 00 00 	lea    0x1e9a(%rip),%rsi        # ba1a <_IO_stdin_used+0xa1a>
    9b80:	48 89 df             	mov    %rbx,%rdi
    9b83:	e8 58 8a ff ff       	call   25e0 <_ZSt16__ostream_insertIcSt11char_traitsIcEERSt13basic_ostreamIT_T0_ES6_PKS3_l@plt>
    9b88:	ba 15 00 00 00       	mov    $0x15,%edx
    9b8d:	48 8d 35 a2 1e 00 00 	lea    0x1ea2(%rip),%rsi        # ba36 <_IO_stdin_used+0xa36>
    9b94:	48 89 df             	mov    %rbx,%rdi
    9b97:	e8 44 8a ff ff       	call   25e0 <_ZSt16__ostream_insertIcSt11char_traitsIcEERSt13basic_ostreamIT_T0_ES6_PKS3_l@plt>
    9b9c:	ba 06 00 00 00       	mov    $0x6,%edx
    9ba1:	48 8d 35 a4 1e 00 00 	lea    0x1ea4(%rip),%rsi        # ba4c <_IO_stdin_used+0xa4c>
    9ba8:	48 89 df             	mov    %rbx,%rdi
    9bab:	e8 30 8a ff ff       	call   25e0 <_ZSt16__ostream_insertIcSt11char_traitsIcEERSt13basic_ostreamIT_T0_ES6_PKS3_l@plt>
    9bb0:	ba 1a 00 00 00       	mov    $0x1a,%edx
    9bb5:	48 8d 35 97 1e 00 00 	lea    0x1e97(%rip),%rsi        # ba53 <_IO_stdin_used+0xa53>
    9bbc:	48 89 df             	mov    %rbx,%rdi
    9bbf:	e8 1c 8a ff ff       	call   25e0 <_ZSt16__ostream_insertIcSt11char_traitsIcEERSt13basic_ostreamIT_T0_ES6_PKS3_l@plt>
    9bc4:	ba 0b 00 00 00       	mov    $0xb,%edx
    9bc9:	48 8d 35 9e 1e 00 00 	lea    0x1e9e(%rip),%rsi        # ba6e <_IO_stdin_used+0xa6e>
    9bd0:	48 89 df             	mov    %rbx,%rdi
    9bd3:	e8 08 8a ff ff       	call   25e0 <_ZSt16__ostream_insertIcSt11char_traitsIcEERSt13basic_ostreamIT_T0_ES6_PKS3_l@plt>
    9bd8:	44 8b 74 24 20       	mov    0x20(%rsp),%r14d
    9bdd:	48 89 df             	mov    %rbx,%rdi
    9be0:	44 89 f6             	mov    %r14d,%esi
    9be3:	e8 38 8b ff ff       	call   2720 <_ZNSolsEi@plt>
    9be8:	4c 8d 3d 40 1c 00 00 	lea    0x1c40(%rip),%r15        # b82f <_IO_stdin_used+0x82f>
    9bef:	ba 01 00 00 00       	mov    $0x1,%edx
    9bf4:	48 89 c7             	mov    %rax,%rdi
    9bf7:	48 89 c5             	mov    %rax,%rbp
    9bfa:	4c 89 fe             	mov    %r15,%rsi
    9bfd:	e8 de 89 ff ff       	call   25e0 <_ZSt16__ostream_insertIcSt11char_traitsIcEERSt13basic_ostreamIT_T0_ES6_PKS3_l@plt>
    9c02:	8b 74 24 24          	mov    0x24(%rsp),%esi
    9c06:	48 89 ef             	mov    %rbp,%rdi
    9c09:	e8 12 8b ff ff       	call   2720 <_ZNSolsEi@plt>
    9c0e:	ba 01 00 00 00       	mov    $0x1,%edx
    9c13:	4c 89 fe             	mov    %r15,%rsi
    9c16:	48 89 c7             	mov    %rax,%rdi
    9c19:	48 89 c5             	mov    %rax,%rbp
    9c1c:	e8 bf 89 ff ff       	call   25e0 <_ZSt16__ostream_insertIcSt11char_traitsIcEERSt13basic_ostreamIT_T0_ES6_PKS3_l@plt>
    9c21:	44 8b 6c 24 28       	mov    0x28(%rsp),%r13d
    9c26:	48 89 ef             	mov    %rbp,%rdi
    9c29:	44 89 ee             	mov    %r13d,%esi
    9c2c:	e8 ef 8a ff ff       	call   2720 <_ZNSolsEi@plt>
    9c31:	48 89 c7             	mov    %rax,%rdi
    9c34:	ba 01 00 00 00       	mov    $0x1,%edx
    9c39:	48 8d 35 b8 1e 00 00 	lea    0x1eb8(%rip),%rsi        # baf8 <_IO_stdin_used+0xaf8>
    9c40:	e8 9b 89 ff ff       	call   25e0 <_ZSt16__ostream_insertIcSt11char_traitsIcEERSt13basic_ostreamIT_T0_ES6_PKS3_l@plt>
    9c45:	ba 0d 00 00 00       	mov    $0xd,%edx
    9c4a:	48 8d 35 29 1e 00 00 	lea    0x1e29(%rip),%rsi        # ba7a <_IO_stdin_used+0xa7a>
    9c51:	48 89 df             	mov    %rbx,%rdi
    9c54:	e8 87 89 ff ff       	call   25e0 <_ZSt16__ostream_insertIcSt11char_traitsIcEERSt13basic_ostreamIT_T0_ES6_PKS3_l@plt>
    9c59:	ba 08 00 00 00       	mov    $0x8,%edx
    9c5e:	48 8d 35 23 1e 00 00 	lea    0x1e23(%rip),%rsi        # ba88 <_IO_stdin_used+0xa88>
    9c65:	48 89 df             	mov    %rbx,%rdi
    9c68:	e8 73 89 ff ff       	call   25e0 <_ZSt16__ostream_insertIcSt11char_traitsIcEERSt13basic_ostreamIT_T0_ES6_PKS3_l@plt>
    9c6d:	f2 0f 10 04 24       	movsd  (%rsp),%xmm0
    9c72:	48 89 df             	mov    %rbx,%rdi
    9c75:	e8 56 8a ff ff       	call   26d0 <_ZNSo9_M_insertIdEERSoT_@plt>
    9c7a:	ba 01 00 00 00       	mov    $0x1,%edx
    9c7f:	4c 89 fe             	mov    %r15,%rsi
    9c82:	48 89 c7             	mov    %rax,%rdi
    9c85:	48 89 c5             	mov    %rax,%rbp
    9c88:	e8 53 89 ff ff       	call   25e0 <_ZSt16__ostream_insertIcSt11char_traitsIcEERSt13basic_ostreamIT_T0_ES6_PKS3_l@plt>
    9c8d:	f2 0f 10 44 24 18    	movsd  0x18(%rsp),%xmm0
    9c93:	48 89 ef             	mov    %rbp,%rdi
    9c96:	e8 35 8a ff ff       	call   26d0 <_ZNSo9_M_insertIdEERSoT_@plt>
    9c9b:	ba 01 00 00 00       	mov    $0x1,%edx
    9ca0:	4c 89 fe             	mov    %r15,%rsi
    9ca3:	48 89 c7             	mov    %rax,%rdi
    9ca6:	48 89 c5             	mov    %rax,%rbp
    9ca9:	e8 32 89 ff ff       	call   25e0 <_ZSt16__ostream_insertIcSt11char_traitsIcEERSt13basic_ostreamIT_T0_ES6_PKS3_l@plt>
    9cae:	f2 0f 10 44 24 48    	movsd  0x48(%rsp),%xmm0
    9cb4:	48 89 ef             	mov    %rbp,%rdi
    9cb7:	e8 14 8a ff ff       	call   26d0 <_ZNSo9_M_insertIdEERSoT_@plt>
    9cbc:	48 89 c7             	mov    %rax,%rdi
    9cbf:	ba 01 00 00 00       	mov    $0x1,%edx
    9cc4:	48 8d 35 2d 1e 00 00 	lea    0x1e2d(%rip),%rsi        # baf8 <_IO_stdin_used+0xaf8>
    9ccb:	e8 10 89 ff ff       	call   25e0 <_ZSt16__ostream_insertIcSt11char_traitsIcEERSt13basic_ostreamIT_T0_ES6_PKS3_l@plt>
    9cd0:	ba 0b 00 00 00       	mov    $0xb,%edx
    9cd5:	48 8d 35 b5 1d 00 00 	lea    0x1db5(%rip),%rsi        # ba91 <_IO_stdin_used+0xa91>
    9cdc:	48 89 df             	mov    %rbx,%rdi
    9cdf:	e8 fc 88 ff ff       	call   25e0 <_ZSt16__ostream_insertIcSt11char_traitsIcEERSt13basic_ostreamIT_T0_ES6_PKS3_l@plt>
    9ce4:	8b 6c 24 24          	mov    0x24(%rsp),%ebp
    9ce8:	44 89 f0             	mov    %r14d,%eax
    9ceb:	48 89 df             	mov    %rbx,%rdi
    9cee:	0f af c5             	imul   %ebp,%eax
    9cf1:	89 c6                	mov    %eax,%esi
    9cf3:	41 0f af f5          	imul   %r13d,%esi
    9cf7:	e8 24 8a ff ff       	call   2720 <_ZNSolsEi@plt>
    9cfc:	48 89 c7             	mov    %rax,%rdi
    9cff:	ba 01 00 00 00       	mov    $0x1,%edx
    9d04:	48 8d 35 ed 1d 00 00 	lea    0x1ded(%rip),%rsi        # baf8 <_IO_stdin_used+0xaf8>
    9d0b:	e8 d0 88 ff ff       	call   25e0 <_ZSt16__ostream_insertIcSt11char_traitsIcEERSt13basic_ostreamIT_T0_ES6_PKS3_l@plt>
    9d10:	ba 18 00 00 00       	mov    $0x18,%edx
    9d15:	48 8d 35 81 1d 00 00 	lea    0x1d81(%rip),%rsi        # ba9d <_IO_stdin_used+0xa9d>
    9d1c:	48 89 df             	mov    %rbx,%rdi
    9d1f:	e8 bc 88 ff ff       	call   25e0 <_ZSt16__ostream_insertIcSt11char_traitsIcEERSt13basic_ostreamIT_T0_ES6_PKS3_l@plt>
    9d24:	ba 15 00 00 00       	mov    $0x15,%edx
    9d29:	48 8d 35 86 1d 00 00 	lea    0x1d86(%rip),%rsi        # bab6 <_IO_stdin_used+0xab6>
    9d30:	48 89 df             	mov    %rbx,%rdi
    9d33:	e8 a8 88 ff ff       	call   25e0 <_ZSt16__ostream_insertIcSt11char_traitsIcEERSt13basic_ostreamIT_T0_ES6_PKS3_l@plt>
    9d38:	45 85 ed             	test   %r13d,%r13d
    9d3b:	0f 8e b4 00 00 00    	jle    9df5 <_Z12writeVTKFileiPPPPdiiiddd+0x615>
    9d41:	49 63 c5             	movslq %r13d,%rax
    9d44:	45 31 ed             	xor    %r13d,%r13d
    9d47:	48 c1 e0 03          	shl    $0x3,%rax
    9d4b:	48 89 44 24 18       	mov    %rax,0x18(%rsp)
    9d50:	8d 45 ff             	lea    -0x1(%rbp),%eax
    9d53:	48 8d 04 c5 08 00 00 	lea    0x8(,%rax,8),%rax
    9d5a:	00 
    9d5b:	48 89 04 24          	mov    %rax,(%rsp)
    9d5f:	41 8d 46 ff          	lea    -0x1(%r14),%eax
    9d63:	4c 8d 34 c5 08 00 00 	lea    0x8(,%rax,8),%r14
    9d6a:	00 
    9d6b:	0f 1f 44 00 00       	nopl   0x0(%rax,%rax,1)
    9d70:	8b 4c 24 24          	mov    0x24(%rsp),%ecx
    9d74:	31 ed                	xor    %ebp,%ebp
    9d76:	85 c9                	test   %ecx,%ecx
    9d78:	7e 56                	jle    9dd0 <_Z12writeVTKFileiPPPPdiiiddd+0x5f0>
    9d7a:	66 0f 1f 44 00 00    	nopw   0x0(%rax,%rax,1)
    9d80:	8b 74 24 20          	mov    0x20(%rsp),%esi
    9d84:	31 db                	xor    %ebx,%ebx
    9d86:	85 f6                	test   %esi,%esi
    9d88:	7e 3c                	jle    9dc6 <_Z12writeVTKFileiPPPPdiiiddd+0x5e6>
    9d8a:	66 0f 1f 44 00 00    	nopw   0x0(%rax,%rax,1)
    9d90:	49 8b 44 24 18       	mov    0x18(%r12),%rax
    9d95:	48 8b 7c 24 10       	mov    0x10(%rsp),%rdi
    9d9a:	48 8b 04 18          	mov    (%rax,%rbx,1),%rax
    9d9e:	48 8b 04 28          	mov    (%rax,%rbp,1),%rax
    9da2:	f2 42 0f 10 04 28    	movsd  (%rax,%r13,1),%xmm0
    9da8:	e8 23 89 ff ff       	call   26d0 <_ZNSo9_M_insertIdEERSoT_@plt>
    9dad:	48 89 c7             	mov    %rax,%rdi
    9db0:	ba 01 00 00 00       	mov    $0x1,%edx
    9db5:	4c 89 fe             	mov    %r15,%rsi
    9db8:	e8 23 88 ff ff       	call   25e0 <_ZSt16__ostream_insertIcSt11char_traitsIcEERSt13basic_ostreamIT_T0_ES6_PKS3_l@plt>
    9dbd:	48 83 c3 08          	add    $0x8,%rbx
    9dc1:	49 39 de             	cmp    %rbx,%r14
    9dc4:	75 ca                	jne    9d90 <_Z12writeVTKFileiPPPPdiiiddd+0x5b0>
    9dc6:	48 83 c5 08          	add    $0x8,%rbp
    9dca:	48 39 2c 24          	cmp    %rbp,(%rsp)
    9dce:	75 b0                	jne    9d80 <_Z12writeVTKFileiPPPPdiiiddd+0x5a0>
    9dd0:	48 8b 7c 24 10       	mov    0x10(%rsp),%rdi
    9dd5:	ba 01 00 00 00       	mov    $0x1,%edx
    9dda:	48 8d 35 17 1d 00 00 	lea    0x1d17(%rip),%rsi        # baf8 <_IO_stdin_used+0xaf8>
    9de1:	e8 fa 87 ff ff       	call   25e0 <_ZSt16__ostream_insertIcSt11char_traitsIcEERSt13basic_ostreamIT_T0_ES6_PKS3_l@plt>
    9de6:	49 83 c5 08          	add    $0x8,%r13
    9dea:	4c 39 6c 24 18       	cmp    %r13,0x18(%rsp)
    9def:	0f 85 7b ff ff ff    	jne    9d70 <_Z12writeVTKFileiPPPPdiiiddd+0x590>
    9df5:	48 8b 7c 24 10       	mov    0x10(%rsp),%rdi
    9dfa:	ba 18 00 00 00       	mov    $0x18,%edx
    9dff:	48 8d 35 c6 1c 00 00 	lea    0x1cc6(%rip),%rsi        # bacc <_IO_stdin_used+0xacc>
    9e06:	e8 d5 87 ff ff       	call   25e0 <_ZSt16__ostream_insertIcSt11char_traitsIcEERSt13basic_ostreamIT_T0_ES6_PKS3_l@plt>
    9e0b:	48 63 44 24 28       	movslq 0x28(%rsp),%rax
    9e10:	85 c0                	test   %eax,%eax
    9e12:	0f 8e 10 01 00 00    	jle    9f28 <_Z12writeVTKFileiPPPPdiiiddd+0x748>
    9e18:	48 c1 e0 03          	shl    $0x3,%rax
    9e1c:	45 31 f6             	xor    %r14d,%r14d
    9e1f:	48 89 44 24 28       	mov    %rax,0x28(%rsp)
    9e24:	8b 44 24 24          	mov    0x24(%rsp),%eax
    9e28:	83 e8 01             	sub    $0x1,%eax
    9e2b:	48 8d 04 c5 08 00 00 	lea    0x8(,%rax,8),%rax
    9e32:	00 
    9e33:	48 89 44 24 18       	mov    %rax,0x18(%rsp)
    9e38:	8b 44 24 20          	mov    0x20(%rsp),%eax
    9e3c:	83 e8 01             	sub    $0x1,%eax
    9e3f:	48 8d 04 c5 08 00 00 	lea    0x8(,%rax,8),%rax
    9e46:	00 
    9e47:	48 89 04 24          	mov    %rax,(%rsp)
    9e4b:	0f 1f 44 00 00       	nopl   0x0(%rax,%rax,1)
    9e50:	8b 44 24 24          	mov    0x24(%rsp),%eax
    9e54:	45 31 ed             	xor    %r13d,%r13d
    9e57:	85 c0                	test   %eax,%eax
    9e59:	0f 8e ba 00 00 00    	jle    9f19 <_Z12writeVTKFileiPPPPdiiiddd+0x739>
    9e5f:	90                   	nop
    9e60:	8b 54 24 20          	mov    0x20(%rsp),%edx
    9e64:	31 db                	xor    %ebx,%ebx
    9e66:	85 d2                	test   %edx,%edx
    9e68:	0f 8e 9c 00 00 00    	jle    9f0a <_Z12writeVTKFileiPPPPdiiiddd+0x72a>
    9e6e:	66 90                	xchg   %ax,%ax
    9e70:	49 8b 04 24          	mov    (%r12),%rax
    9e74:	48 8b 7c 24 10       	mov    0x10(%rsp),%rdi
    9e79:	48 8b 04 18          	mov    (%rax,%rbx,1),%rax
    9e7d:	4a 8b 04 28          	mov    (%rax,%r13,1),%rax
    9e81:	f2 42 0f 10 04 30    	movsd  (%rax,%r14,1),%xmm0
    9e87:	e8 44 88 ff ff       	call   26d0 <_ZNSo9_M_insertIdEERSoT_@plt>
    9e8c:	ba 01 00 00 00       	mov    $0x1,%edx
    9e91:	4c 89 fe             	mov    %r15,%rsi
    9e94:	48 89 c7             	mov    %rax,%rdi
    9e97:	48 89 c5             	mov    %rax,%rbp
    9e9a:	e8 41 87 ff ff       	call   25e0 <_ZSt16__ostream_insertIcSt11char_traitsIcEERSt13basic_ostreamIT_T0_ES6_PKS3_l@plt>
    9e9f:	49 8b 44 24 08       	mov    0x8(%r12),%rax
    9ea4:	48 89 ef             	mov    %rbp,%rdi
    9ea7:	48 8b 04 18          	mov    (%rax,%rbx,1),%rax
    9eab:	4a 8b 04 28          	mov    (%rax,%r13,1),%rax
    9eaf:	f2 42 0f 10 04 30    	movsd  (%rax,%r14,1),%xmm0
    9eb5:	e8 16 88 ff ff       	call   26d0 <_ZNSo9_M_insertIdEERSoT_@plt>
    9eba:	ba 01 00 00 00       	mov    $0x1,%edx
    9ebf:	4c 89 fe             	mov    %r15,%rsi
    9ec2:	48 89 c7             	mov    %rax,%rdi
    9ec5:	48 89 c5             	mov    %rax,%rbp
    9ec8:	e8 13 87 ff ff       	call   25e0 <_ZSt16__ostream_insertIcSt11char_traitsIcEERSt13basic_ostreamIT_T0_ES6_PKS3_l@plt>
    9ecd:	49 8b 44 24 10       	mov    0x10(%r12),%rax
    9ed2:	48 89 ef             	mov    %rbp,%rdi
    9ed5:	48 8b 04 18          	mov    (%rax,%rbx,1),%rax
    9ed9:	4a 8b 04 28          	mov    (%rax,%r13,1),%rax
    9edd:	f2 42 0f 10 04 30    	movsd  (%rax,%r14,1),%xmm0
    9ee3:	e8 e8 87 ff ff       	call   26d0 <_ZNSo9_M_insertIdEERSoT_@plt>
    9ee8:	48 89 c7             	mov    %rax,%rdi
    9eeb:	ba 01 00 00 00       	mov    $0x1,%edx
    9ef0:	48 8d 35 01 1c 00 00 	lea    0x1c01(%rip),%rsi        # baf8 <_IO_stdin_used+0xaf8>
    9ef7:	e8 e4 86 ff ff       	call   25e0 <_ZSt16__ostream_insertIcSt11char_traitsIcEERSt13basic_ostreamIT_T0_ES6_PKS3_l@plt>
    9efc:	48 83 c3 08          	add    $0x8,%rbx
    9f00:	48 39 1c 24          	cmp    %rbx,(%rsp)
    9f04:	0f 85 66 ff ff ff    	jne    9e70 <_Z12writeVTKFileiPPPPdiiiddd+0x690>
    9f0a:	49 83 c5 08          	add    $0x8,%r13
    9f0e:	4c 3b 6c 24 18       	cmp    0x18(%rsp),%r13
    9f13:	0f 85 47 ff ff ff    	jne    9e60 <_Z12writeVTKFileiPPPPdiiiddd+0x680>
    9f19:	49 83 c6 08          	add    $0x8,%r14
    9f1d:	4c 39 74 24 28       	cmp    %r14,0x28(%rsp)
    9f22:	0f 85 28 ff ff ff    	jne    9e50 <_Z12writeVTKFileiPPPPdiiiddd+0x670>
    9f28:	48 8b 7c 24 30       	mov    0x30(%rsp),%rdi
    9f2d:	e8 de 84 ff ff       	call   2410 <_ZNSt13basic_filebufIcSt11char_traitsIcEE5closeEv@plt>
    9f32:	48 85 c0             	test   %rax,%rax
    9f35:	0f 84 6f 01 00 00    	je     a0aa <_Z12writeVTKFileiPPPPdiiiddd+0x8ca>
    9f3b:	48 8d 2d fe 50 00 00 	lea    0x50fe(%rip),%rbp        # f040 <_ZSt4cout@GLIBCXX_3.4>
    9f42:	ba 09 00 00 00       	mov    $0x9,%edx
    9f47:	48 8d 35 97 1b 00 00 	lea    0x1b97(%rip),%rsi        # bae5 <_IO_stdin_used+0xae5>
    9f4e:	48 89 ef             	mov    %rbp,%rdi
    9f51:	e8 8a 86 ff ff       	call   25e0 <_ZSt16__ostream_insertIcSt11char_traitsIcEERSt13basic_ostreamIT_T0_ES6_PKS3_l@plt>
    9f56:	48 8b 54 24 58       	mov    0x58(%rsp),%rdx
    9f5b:	48 8b 74 24 50       	mov    0x50(%rsp),%rsi
    9f60:	48 89 ef             	mov    %rbp,%rdi
    9f63:	e8 78 86 ff ff       	call   25e0 <_ZSt16__ostream_insertIcSt11char_traitsIcEERSt13basic_ostreamIT_T0_ES6_PKS3_l@plt>
    9f68:	48 89 c7             	mov    %rax,%rdi
    9f6b:	48 8d 05 7e 4b 00 00 	lea    0x4b7e(%rip),%rax        # eaf0 <_ZTVSt13basic_filebufIcSt11char_traitsIcEE@GLIBCXX_3.4+0x10>
    9f72:	f3 0f 7e 1d 36 4c 00 	movq   0x4c36(%rip),%xmm3        # ebb0 <_ZTVSt14basic_ofstreamIcSt11char_traitsIcEE@GLIBCXX_3.4+0x50>
    9f79:	00 
    9f7a:	ba 0a 00 00 00       	mov    $0xa,%edx
    9f7f:	66 48 0f 6e f0       	movq   %rax,%xmm6
    9f84:	48 8d 35 64 1b 00 00 	lea    0x1b64(%rip),%rsi        # baef <_IO_stdin_used+0xaef>
    9f8b:	66 0f 6c de          	punpcklqdq %xmm6,%xmm3
    9f8f:	0f 29 1c 24          	movaps %xmm3,(%rsp)
    9f93:	e8 48 86 ff ff       	call   25e0 <_ZSt16__ostream_insertIcSt11char_traitsIcEERSt13basic_ostreamIT_T0_ES6_PKS3_l@plt>
    9f98:	48 8b 7c 24 50       	mov    0x50(%rsp),%rdi
    9f9d:	48 3b 7c 24 40       	cmp    0x40(%rsp),%rdi
    9fa2:	74 0e                	je     9fb2 <_Z12writeVTKFileiPPPPdiiiddd+0x7d2>
    9fa4:	48 8b 44 24 60       	mov    0x60(%rsp),%rax
    9fa9:	48 8d 70 01          	lea    0x1(%rax),%rsi
    9fad:	e8 fe 85 ff ff       	call   25b0 <_ZdlPvm@plt>
    9fb2:	66 0f 6f 3c 24       	movdqa (%rsp),%xmm7
    9fb7:	48 8b 7c 24 30       	mov    0x30(%rsp),%rdi
    9fbc:	48 8d 05 dd 4b 00 00 	lea    0x4bdd(%rip),%rax        # eba0 <_ZTVSt14basic_ofstreamIcSt11char_traitsIcEE@GLIBCXX_3.4+0x40>
    9fc3:	48 89 84 24 a8 01 00 	mov    %rax,0x1a8(%rsp)
    9fca:	00 
    9fcb:	0f 29 bc 24 b0 00 00 	movaps %xmm7,0xb0(%rsp)
    9fd2:	00 
    9fd3:	e8 38 84 ff ff       	call   2410 <_ZNSt13basic_filebufIcSt11char_traitsIcEE5closeEv@plt>
    9fd8:	48 8d bc 24 20 01 00 	lea    0x120(%rsp),%rdi
    9fdf:	00 
    9fe0:	e8 7b 87 ff ff       	call   2760 <_ZNSt12__basic_fileIcED1Ev@plt>
    9fe5:	48 8d 05 24 4a 00 00 	lea    0x4a24(%rip),%rax        # ea10 <_ZTVSt15basic_streambufIcSt11char_traitsIcEE@GLIBCXX_3.4+0x10>
    9fec:	48 8d bc 24 f0 00 00 	lea    0xf0(%rsp),%rdi
    9ff3:	00 
    9ff4:	48 89 84 24 b8 00 00 	mov    %rax,0xb8(%rsp)
    9ffb:	00 
    9ffc:	e8 6f 86 ff ff       	call   2670 <_ZNSt6localeD1Ev@plt>
    a001:	48 8b 05 80 4a 00 00 	mov    0x4a80(%rip),%rax        # ea88 <_ZTTSt14basic_ofstreamIcSt11char_traitsIcEE@GLIBCXX_3.4+0x8>
    a008:	48 8b 7c 24 38       	mov    0x38(%rsp),%rdi
    a00d:	48 8b 0d 7c 4a 00 00 	mov    0x4a7c(%rip),%rcx        # ea90 <_ZTTSt14basic_ofstreamIcSt11char_traitsIcEE@GLIBCXX_3.4+0x10>
    a014:	48 89 84 24 b0 00 00 	mov    %rax,0xb0(%rsp)
    a01b:	00 
    a01c:	48 8b 40 e8          	mov    -0x18(%rax),%rax
    a020:	48 89 8c 04 b0 00 00 	mov    %rcx,0xb0(%rsp,%rax,1)
    a027:	00 
    a028:	48 8d 05 c1 49 00 00 	lea    0x49c1(%rip),%rax        # e9f0 <_ZTVSt9basic_iosIcSt11char_traitsIcEE@GLIBCXX_3.4+0x10>
    a02f:	48 89 84 24 a8 01 00 	mov    %rax,0x1a8(%rsp)
    a036:	00 
    a037:	e8 04 84 ff ff       	call   2440 <_ZNSt8ios_baseD2Ev@plt>
    a03c:	48 8b 84 24 b8 02 00 	mov    0x2b8(%rsp),%rax
    a043:	00 
    a044:	64 48 2b 04 25 28 00 	sub    %fs:0x28,%rax
    a04b:	00 00 
    a04d:	75 7c                	jne    a0cb <_Z12writeVTKFileiPPPPdiiiddd+0x8eb>
    a04f:	48 81 c4 c8 02 00 00 	add    $0x2c8,%rsp
    a056:	5b                   	pop    %rbx
    a057:	5d                   	pop    %rbp
    a058:	41 5c                	pop    %r12
    a05a:	41 5d                	pop    %r13
    a05c:	41 5e                	pop    %r14
    a05e:	41 5f                	pop    %r15
    a060:	c3                   	ret    
    a061:	f3 0f 6f 60 10       	movdqu 0x10(%rax),%xmm4
    a066:	0f 29 a4 24 a0 00 00 	movaps %xmm4,0xa0(%rsp)
    a06d:	00 
    a06e:	e9 f9 f9 ff ff       	jmp    9a6c <_Z12writeVTKFileiPPPPdiiiddd+0x28c>
    a073:	8b 77 20             	mov    0x20(%rdi),%esi
    a076:	83 ce 04             	or     $0x4,%esi
    a079:	e8 82 86 ff ff       	call   2700 <_ZNSt9basic_iosIcSt11char_traitsIcEE5clearESt12_Ios_Iostate@plt>
    a07e:	e9 ec fa ff ff       	jmp    9b6f <_Z12writeVTKFileiPPPPdiiiddd+0x38f>
    a083:	f3 0f 6f 68 10       	movdqu 0x10(%rax),%xmm5
    a088:	0f 29 6c 24 60       	movaps %xmm5,0x60(%rsp)
    a08d:	e9 57 fa ff ff       	jmp    9ae9 <_Z12writeVTKFileiPPPPdiiiddd+0x309>
    a092:	8d 58 07             	lea    0x7(%rax),%ebx
    a095:	e9 e2 f8 ff ff       	jmp    997c <_Z12writeVTKFileiPPPPdiiiddd+0x19c>
    a09a:	8d 58 06             	lea    0x6(%rax),%ebx
    a09d:	e9 da f8 ff ff       	jmp    997c <_Z12writeVTKFileiPPPPdiiiddd+0x19c>
    a0a2:	8d 58 05             	lea    0x5(%rax),%ebx
    a0a5:	e9 d2 f8 ff ff       	jmp    997c <_Z12writeVTKFileiPPPPdiiiddd+0x19c>
    a0aa:	48 8b 84 24 b0 00 00 	mov    0xb0(%rsp),%rax
    a0b1:	00 
    a0b2:	48 8b 7c 24 10       	mov    0x10(%rsp),%rdi
    a0b7:	48 03 78 e8          	add    -0x18(%rax),%rdi
    a0bb:	8b 77 20             	mov    0x20(%rdi),%esi
    a0be:	83 ce 04             	or     $0x4,%esi
    a0c1:	e8 3a 86 ff ff       	call   2700 <_ZNSt9basic_iosIcSt11char_traitsIcEE5clearESt12_Ios_Iostate@plt>
    a0c6:	e9 70 fe ff ff       	jmp    9f3b <_Z12writeVTKFileiPPPPdiiiddd+0x75b>
    a0cb:	e8 00 85 ff ff       	call   25d0 <__stack_chk_fail@plt>
    a0d0:	bb 03 00 00 00       	mov    $0x3,%ebx
    a0d5:	e9 a2 f8 ff ff       	jmp    997c <_Z12writeVTKFileiPPPPdiiiddd+0x19c>
    a0da:	bb 02 00 00 00       	mov    $0x2,%ebx
    a0df:	e9 98 f8 ff ff       	jmp    997c <_Z12writeVTKFileiPPPPdiiiddd+0x19c>
    a0e4:	bb 01 00 00 00       	mov    $0x1,%ebx
    a0e9:	e9 8e f8 ff ff       	jmp    997c <_Z12writeVTKFileiPPPPdiiiddd+0x19c>
    a0ee:	bb 04 00 00 00       	mov    $0x4,%ebx
    a0f3:	e9 84 f8 ff ff       	jmp    997c <_Z12writeVTKFileiPPPPdiiiddd+0x19c>
    a0f8:	48 8d 3d 01 19 00 00 	lea    0x1901(%rip),%rdi        # ba00 <_IO_stdin_used+0xa00>
    a0ff:	e8 8c 83 ff ff       	call   2490 <_ZSt20__throw_length_errorPKc@plt>
    a104:	f3 0f 1e fa          	endbr64 
    a108:	48 89 c7             	mov    %rax,%rdi
    a10b:	e9 80 87 ff ff       	jmp    2890 <_Z12writeVTKFileiPPPPdiiiddd.cold>
    a110:	f3 0f 1e fa          	endbr64 
    a114:	48 89 c5             	mov    %rax,%rbp
    a117:	e9 83 87 ff ff       	jmp    289f <_Z12writeVTKFileiPPPPdiiiddd.cold+0xf>
    a11c:	f3 0f 1e fa          	endbr64 
    a120:	48 89 c5             	mov    %rax,%rbp
    a123:	e9 c4 87 ff ff       	jmp    28ec <_Z12writeVTKFileiPPPPdiiiddd.cold+0x5c>
    a128:	f3 0f 1e fa          	endbr64 
    a12c:	48 89 c5             	mov    %rax,%rbp
    a12f:	e9 02 88 ff ff       	jmp    2936 <_Z12writeVTKFileiPPPPdiiiddd.cold+0xa6>
    a134:	f3 0f 1e fa          	endbr64 
    a138:	48 89 c5             	mov    %rax,%rbp
    a13b:	e9 d8 87 ff ff       	jmp    2918 <_Z12writeVTKFileiPPPPdiiiddd.cold+0x88>
    a140:	f3 0f 1e fa          	endbr64 
    a144:	48 89 c5             	mov    %rax,%rbp
    a147:	e9 7f 87 ff ff       	jmp    28cb <_Z12writeVTKFileiPPPPdiiiddd.cold+0x3b>
    a14c:	f3 0f 1e fa          	endbr64 
    a150:	48 89 c5             	mov    %rax,%rbp
    a153:	e9 ae 87 ff ff       	jmp    2906 <_Z12writeVTKFileiPPPPdiiiddd.cold+0x76>
    a158:	f3 0f 1e fa          	endbr64 
    a15c:	48 89 c5             	mov    %rax,%rbp
    a15f:	e9 45 87 ff ff       	jmp    28a9 <_Z12writeVTKFileiPPPPdiiiddd.cold+0x19>
    a164:	66 66 2e 0f 1f 84 00 	data16 cs nopw 0x0(%rax,%rax,1)
    a16b:	00 00 00 00 
    a16f:	90                   	nop

000000000000a170 <_Z14writeVTKFile3DRKNSt7__cxx1112basic_stringIcSt11char_traitsIcESaIcEEERKSt6vectorIS7_IS7_IdSaIdEESaIS9_EESaISB_EESF_SF_SF_ddd>:
    a170:	f3 0f 1e fa          	endbr64 
    a174:	41 57                	push   %r15
    a176:	41 56                	push   %r14
    a178:	41 55                	push   %r13
    a17a:	41 54                	push   %r12
    a17c:	55                   	push   %rbp
    a17d:	53                   	push   %rbx
    a17e:	48 89 fb             	mov    %rdi,%rbx
    a181:	48 81 ec 98 02 00 00 	sub    $0x298,%rsp
    a188:	48 89 74 24 08       	mov    %rsi,0x8(%rsp)
    a18d:	48 8d ac 24 78 01 00 	lea    0x178(%rsp),%rbp
    a194:	00 
    a195:	4c 8d b4 24 80 00 00 	lea    0x80(%rsp),%r14
    a19c:	00 
    a19d:	48 89 54 24 18       	mov    %rdx,0x18(%rsp)
    a1a2:	48 89 ef             	mov    %rbp,%rdi
    a1a5:	48 89 4c 24 20       	mov    %rcx,0x20(%rsp)
    a1aa:	4c 89 44 24 28       	mov    %r8,0x28(%rsp)
    a1af:	f2 0f 11 44 24 48    	movsd  %xmm0,0x48(%rsp)
    a1b5:	f2 0f 11 4c 24 10    	movsd  %xmm1,0x10(%rsp)
    a1bb:	f2 0f 11 54 24 30    	movsd  %xmm2,0x30(%rsp)
    a1c1:	64 48 8b 04 25 28 00 	mov    %fs:0x28,%rax
    a1c8:	00 00 
    a1ca:	48 89 84 24 88 02 00 	mov    %rax,0x288(%rsp)
    a1d1:	00 
    a1d2:	31 c0                	xor    %eax,%eax
    a1d4:	48 89 6c 24 68       	mov    %rbp,0x68(%rsp)
    a1d9:	e8 42 82 ff ff       	call   2420 <_ZNSt8ios_baseC2Ev@plt>
    a1de:	66 0f ef c0          	pxor   %xmm0,%xmm0
    a1e2:	45 31 c9             	xor    %r9d,%r9d
    a1e5:	31 f6                	xor    %esi,%esi
    a1e7:	48 8d 05 02 48 00 00 	lea    0x4802(%rip),%rax        # e9f0 <_ZTVSt9basic_iosIcSt11char_traitsIcEE@GLIBCXX_3.4+0x10>
    a1ee:	0f 29 84 24 60 02 00 	movaps %xmm0,0x260(%rsp)
    a1f5:	00 
    a1f6:	48 89 84 24 78 01 00 	mov    %rax,0x178(%rsp)
    a1fd:	00 
    a1fe:	48 8b 05 83 48 00 00 	mov    0x4883(%rip),%rax        # ea88 <_ZTTSt14basic_ofstreamIcSt11char_traitsIcEE@GLIBCXX_3.4+0x8>
    a205:	66 44 89 8c 24 58 02 	mov    %r9w,0x258(%rsp)
    a20c:	00 00 
    a20e:	0f 29 84 24 70 02 00 	movaps %xmm0,0x270(%rsp)
    a215:	00 
    a216:	48 8b 78 e8          	mov    -0x18(%rax),%rdi
    a21a:	48 89 84 24 80 00 00 	mov    %rax,0x80(%rsp)
    a221:	00 
    a222:	48 8b 05 67 48 00 00 	mov    0x4867(%rip),%rax        # ea90 <_ZTTSt14basic_ofstreamIcSt11char_traitsIcEE@GLIBCXX_3.4+0x10>
    a229:	48 c7 84 24 50 02 00 	movq   $0x0,0x250(%rsp)
    a230:	00 00 00 00 00 
    a235:	4c 01 f7             	add    %r14,%rdi
    a238:	48 89 07             	mov    %rax,(%rdi)
    a23b:	e8 20 84 ff ff       	call   2660 <_ZNSt9basic_iosIcSt11char_traitsIcEE4initEPSt15basic_streambufIcS1_E@plt>
    a240:	48 8d 05 31 49 00 00 	lea    0x4931(%rip),%rax        # eb78 <_ZTVSt14basic_ofstreamIcSt11char_traitsIcEE@GLIBCXX_3.4+0x18>
    a247:	48 89 84 24 80 00 00 	mov    %rax,0x80(%rsp)
    a24e:	00 
    a24f:	48 83 c0 28          	add    $0x28,%rax
    a253:	48 89 84 24 78 01 00 	mov    %rax,0x178(%rsp)
    a25a:	00 
    a25b:	48 8d 84 24 88 00 00 	lea    0x88(%rsp),%rax
    a262:	00 
    a263:	48 89 c7             	mov    %rax,%rdi
    a266:	48 89 44 24 70       	mov    %rax,0x70(%rsp)
    a26b:	49 89 c7             	mov    %rax,%r15
    a26e:	e8 4d 83 ff ff       	call   25c0 <_ZNSt13basic_filebufIcSt11char_traitsIcEEC1Ev@plt>
    a273:	4c 89 fe             	mov    %r15,%rsi
    a276:	48 89 ef             	mov    %rbp,%rdi
    a279:	e8 e2 83 ff ff       	call   2660 <_ZNSt9basic_iosIcSt11char_traitsIcEE4initEPSt15basic_streambufIcS1_E@plt>
    a27e:	48 8b 33             	mov    (%rbx),%rsi
    a281:	ba 10 00 00 00       	mov    $0x10,%edx
    a286:	4c 89 ff             	mov    %r15,%rdi
    a289:	e8 e2 82 ff ff       	call   2570 <_ZNSt13basic_filebufIcSt11char_traitsIcEE4openEPKcSt13_Ios_Openmode@plt>
    a28e:	48 8b 94 24 80 00 00 	mov    0x80(%rsp),%rdx
    a295:	00 
    a296:	48 8b 7a e8          	mov    -0x18(%rdx),%rdi
    a29a:	4c 01 f7             	add    %r14,%rdi
    a29d:	48 85 c0             	test   %rax,%rax
    a2a0:	0f 84 87 05 00 00    	je     a82d <_Z14writeVTKFile3DRKNSt7__cxx1112basic_stringIcSt11char_traitsIcESaIcEEERKSt6vectorIS7_IS7_IdSaIdEESaIS9_EESaISB_EESF_SF_SF_ddd+0x6bd>
    a2a6:	31 f6                	xor    %esi,%esi
    a2a8:	e8 53 84 ff ff       	call   2700 <_ZNSt9basic_iosIcSt11char_traitsIcEE5clearESt12_Ios_Iostate@plt>
    a2ad:	ba 1b 00 00 00       	mov    $0x1b,%edx
    a2b2:	48 8d 35 61 17 00 00 	lea    0x1761(%rip),%rsi        # ba1a <_IO_stdin_used+0xa1a>
    a2b9:	4c 89 f7             	mov    %r14,%rdi
    a2bc:	e8 1f 83 ff ff       	call   25e0 <_ZSt16__ostream_insertIcSt11char_traitsIcEERSt13basic_ostreamIT_T0_ES6_PKS3_l@plt>
    a2c1:	ba 0b 00 00 00       	mov    $0xb,%edx
    a2c6:	48 8d 35 2d 18 00 00 	lea    0x182d(%rip),%rsi        # bafa <_IO_stdin_used+0xafa>
    a2cd:	4c 89 f7             	mov    %r14,%rdi
    a2d0:	e8 0b 83 ff ff       	call   25e0 <_ZSt16__ostream_insertIcSt11char_traitsIcEERSt13basic_ostreamIT_T0_ES6_PKS3_l@plt>
    a2d5:	ba 06 00 00 00       	mov    $0x6,%edx
    a2da:	48 8d 35 6b 17 00 00 	lea    0x176b(%rip),%rsi        # ba4c <_IO_stdin_used+0xa4c>
    a2e1:	4c 89 f7             	mov    %r14,%rdi
    a2e4:	e8 f7 82 ff ff       	call   25e0 <_ZSt16__ostream_insertIcSt11char_traitsIcEERSt13basic_ostreamIT_T0_ES6_PKS3_l@plt>
    a2e9:	ba 18 00 00 00       	mov    $0x18,%edx
    a2ee:	48 8d 35 11 18 00 00 	lea    0x1811(%rip),%rsi        # bb06 <_IO_stdin_used+0xb06>
    a2f5:	4c 89 f7             	mov    %r14,%rdi
    a2f8:	e8 e3 82 ff ff       	call   25e0 <_ZSt16__ostream_insertIcSt11char_traitsIcEERSt13basic_ostreamIT_T0_ES6_PKS3_l@plt>
    a2fd:	48 8b 44 24 08       	mov    0x8(%rsp),%rax
    a302:	4c 89 f7             	mov    %r14,%rdi
    a305:	48 be ab aa aa aa aa 	movabs $0xaaaaaaaaaaaaaaab,%rsi
    a30c:	aa aa aa 
    a30f:	48 8b 08             	mov    (%rax),%rcx
    a312:	48 8b 40 08          	mov    0x8(%rax),%rax
    a316:	48 89 04 24          	mov    %rax,(%rsp)
    a31a:	48 29 c8             	sub    %rcx,%rax
    a31d:	48 8b 11             	mov    (%rcx),%rdx
    a320:	48 c1 f8 03          	sar    $0x3,%rax
    a324:	48 0f af c6          	imul   %rsi,%rax
    a328:	48 89 44 24 58       	mov    %rax,0x58(%rsp)
    a32d:	48 89 c3             	mov    %rax,%rbx
    a330:	89 44 24 78          	mov    %eax,0x78(%rsp)
    a334:	48 8b 41 08          	mov    0x8(%rcx),%rax
    a338:	48 29 d0             	sub    %rdx,%rax
    a33b:	48 c1 f8 03          	sar    $0x3,%rax
    a33f:	48 0f af c6          	imul   %rsi,%rax
    a343:	48 8d 35 24 17 00 00 	lea    0x1724(%rip),%rsi        # ba6e <_IO_stdin_used+0xa6e>
    a34a:	48 89 44 24 60       	mov    %rax,0x60(%rsp)
    a34f:	49 89 c5             	mov    %rax,%r13
    a352:	89 44 24 3c          	mov    %eax,0x3c(%rsp)
    a356:	48 8b 42 08          	mov    0x8(%rdx),%rax
    a35a:	48 2b 02             	sub    (%rdx),%rax
    a35d:	ba 0b 00 00 00       	mov    $0xb,%edx
    a362:	48 c1 f8 03          	sar    $0x3,%rax
    a366:	48 89 44 24 50       	mov    %rax,0x50(%rsp)
    a36b:	89 44 24 38          	mov    %eax,0x38(%rsp)
    a36f:	e8 6c 82 ff ff       	call   25e0 <_ZSt16__ostream_insertIcSt11char_traitsIcEERSt13basic_ostreamIT_T0_ES6_PKS3_l@plt>
    a374:	89 de                	mov    %ebx,%esi
    a376:	4c 89 f7             	mov    %r14,%rdi
    a379:	e8 a2 83 ff ff       	call   2720 <_ZNSolsEi@plt>
    a37e:	4c 8d 25 aa 14 00 00 	lea    0x14aa(%rip),%r12        # b82f <_IO_stdin_used+0x82f>
    a385:	ba 01 00 00 00       	mov    $0x1,%edx
    a38a:	48 89 c7             	mov    %rax,%rdi
    a38d:	48 89 c5             	mov    %rax,%rbp
    a390:	4c 89 e6             	mov    %r12,%rsi
    a393:	e8 48 82 ff ff       	call   25e0 <_ZSt16__ostream_insertIcSt11char_traitsIcEERSt13basic_ostreamIT_T0_ES6_PKS3_l@plt>
    a398:	8b 74 24 3c          	mov    0x3c(%rsp),%esi
    a39c:	48 89 ef             	mov    %rbp,%rdi
    a39f:	e8 7c 83 ff ff       	call   2720 <_ZNSolsEi@plt>
    a3a4:	ba 01 00 00 00       	mov    $0x1,%edx
    a3a9:	4c 89 e6             	mov    %r12,%rsi
    a3ac:	48 89 c7             	mov    %rax,%rdi
    a3af:	48 89 c5             	mov    %rax,%rbp
    a3b2:	e8 29 82 ff ff       	call   25e0 <_ZSt16__ostream_insertIcSt11char_traitsIcEERSt13basic_ostreamIT_T0_ES6_PKS3_l@plt>
    a3b7:	8b 74 24 38          	mov    0x38(%rsp),%esi
    a3bb:	48 89 ef             	mov    %rbp,%rdi
    a3be:	e8 5d 83 ff ff       	call   2720 <_ZNSolsEi@plt>
    a3c3:	4c 8d 3d 2e 17 00 00 	lea    0x172e(%rip),%r15        # baf8 <_IO_stdin_used+0xaf8>
    a3ca:	48 89 c7             	mov    %rax,%rdi
    a3cd:	ba 01 00 00 00       	mov    $0x1,%edx
    a3d2:	4c 89 fe             	mov    %r15,%rsi
    a3d5:	e8 06 82 ff ff       	call   25e0 <_ZSt16__ostream_insertIcSt11char_traitsIcEERSt13basic_ostreamIT_T0_ES6_PKS3_l@plt>
    a3da:	ba 07 00 00 00       	mov    $0x7,%edx
    a3df:	48 8d 35 39 17 00 00 	lea    0x1739(%rip),%rsi        # bb1f <_IO_stdin_used+0xb1f>
    a3e6:	4c 89 f7             	mov    %r14,%rdi
    a3e9:	e8 f2 81 ff ff       	call   25e0 <_ZSt16__ostream_insertIcSt11char_traitsIcEERSt13basic_ostreamIT_T0_ES6_PKS3_l@plt>
    a3ee:	44 89 e9             	mov    %r13d,%ecx
    a3f1:	4c 89 f7             	mov    %r14,%rdi
    a3f4:	0f af cb             	imul   %ebx,%ecx
    a3f7:	0f af 4c 24 50       	imul   0x50(%rsp),%ecx
    a3fc:	89 ce                	mov    %ecx,%esi
    a3fe:	89 4c 24 7c          	mov    %ecx,0x7c(%rsp)
    a402:	e8 19 83 ff ff       	call   2720 <_ZNSolsEi@plt>
    a407:	48 89 c7             	mov    %rax,%rdi
    a40a:	ba 07 00 00 00       	mov    $0x7,%edx
    a40f:	48 8d 35 39 17 00 00 	lea    0x1739(%rip),%rsi        # bb4f <_IO_stdin_used+0xb4f>
    a416:	e8 c5 81 ff ff       	call   25e0 <_ZSt16__ostream_insertIcSt11char_traitsIcEERSt13basic_ostreamIT_T0_ES6_PKS3_l@plt>
    a41b:	c7 44 24 40 00 00 00 	movl   $0x0,0x40(%rsp)
    a422:	00 
    a423:	85 db                	test   %ebx,%ebx
    a425:	0f 8e d8 00 00 00    	jle    a503 <_Z14writeVTKFile3DRKNSt7__cxx1112basic_stringIcSt11char_traitsIcESaIcEEERKSt6vectorIS7_IS7_IdSaIdEESaIS9_EESaISB_EESF_SF_SF_ddd+0x393>
    a42b:	0f 1f 44 00 00       	nopl   0x0(%rax,%rax,1)
    a430:	8b 7c 24 3c          	mov    0x3c(%rsp),%edi
    a434:	45 31 ed             	xor    %r13d,%r13d
    a437:	85 ff                	test   %edi,%edi
    a439:	0f 8e b1 00 00 00    	jle    a4f0 <_Z14writeVTKFile3DRKNSt7__cxx1112basic_stringIcSt11char_traitsIcESaIcEEERKSt6vectorIS7_IS7_IdSaIdEESaIS9_EESaISB_EESF_SF_SF_ddd+0x380>
    a43f:	90                   	nop
    a440:	44 8b 44 24 38       	mov    0x38(%rsp),%r8d
    a445:	45 85 c0             	test   %r8d,%r8d
    a448:	0f 8e 93 00 00 00    	jle    a4e1 <_Z14writeVTKFile3DRKNSt7__cxx1112basic_stringIcSt11char_traitsIcESaIcEEERKSt6vectorIS7_IS7_IdSaIdEESaIS9_EESaISB_EESF_SF_SF_ddd+0x371>
    a44e:	66 0f ef c0          	pxor   %xmm0,%xmm0
    a452:	31 db                	xor    %ebx,%ebx
    a454:	f2 0f 2a 44 24 40    	cvtsi2sdl 0x40(%rsp),%xmm0
    a45a:	f2 0f 59 44 24 48    	mulsd  0x48(%rsp),%xmm0
    a460:	f2 0f 11 04 24       	movsd  %xmm0,(%rsp)
    a465:	0f 1f 00             	nopl   (%rax)
    a468:	f2 0f 10 04 24       	movsd  (%rsp),%xmm0
    a46d:	4c 89 f7             	mov    %r14,%rdi
    a470:	e8 5b 82 ff ff       	call   26d0 <_ZNSo9_M_insertIdEERSoT_@plt>
    a475:	ba 01 00 00 00       	mov    $0x1,%edx
    a47a:	4c 89 e6             	mov    %r12,%rsi
    a47d:	48 89 c7             	mov    %rax,%rdi
    a480:	48 89 c5             	mov    %rax,%rbp
    a483:	e8 58 81 ff ff       	call   25e0 <_ZSt16__ostream_insertIcSt11char_traitsIcEERSt13basic_ostreamIT_T0_ES6_PKS3_l@plt>
    a488:	66 0f ef c0          	pxor   %xmm0,%xmm0
    a48c:	48 89 ef             	mov    %rbp,%rdi
    a48f:	f2 41 0f 2a c5       	cvtsi2sd %r13d,%xmm0
    a494:	f2 0f 59 44 24 10    	mulsd  0x10(%rsp),%xmm0
    a49a:	e8 31 82 ff ff       	call   26d0 <_ZNSo9_M_insertIdEERSoT_@plt>
    a49f:	ba 01 00 00 00       	mov    $0x1,%edx
    a4a4:	4c 89 e6             	mov    %r12,%rsi
    a4a7:	48 89 c7             	mov    %rax,%rdi
    a4aa:	48 89 c5             	mov    %rax,%rbp
    a4ad:	e8 2e 81 ff ff       	call   25e0 <_ZSt16__ostream_insertIcSt11char_traitsIcEERSt13basic_ostreamIT_T0_ES6_PKS3_l@plt>
    a4b2:	66 0f ef c0          	pxor   %xmm0,%xmm0
    a4b6:	48 89 ef             	mov    %rbp,%rdi
    a4b9:	f2 0f 2a c3          	cvtsi2sd %ebx,%xmm0
    a4bd:	f2 0f 59 44 24 30    	mulsd  0x30(%rsp),%xmm0
    a4c3:	e8 08 82 ff ff       	call   26d0 <_ZNSo9_M_insertIdEERSoT_@plt>
    a4c8:	48 89 c7             	mov    %rax,%rdi
    a4cb:	ba 01 00 00 00       	mov    $0x1,%edx
    a4d0:	4c 89 fe             	mov    %r15,%rsi
    a4d3:	e8 08 81 ff ff       	call   25e0 <_ZSt16__ostream_insertIcSt11char_traitsIcEERSt13basic_ostreamIT_T0_ES6_PKS3_l@plt>
    a4d8:	83 c3 01             	add    $0x1,%ebx
    a4db:	39 5c 24 38          	cmp    %ebx,0x38(%rsp)
    a4df:	75 87                	jne    a468 <_Z14writeVTKFile3DRKNSt7__cxx1112basic_stringIcSt11char_traitsIcESaIcEEERKSt6vectorIS7_IS7_IdSaIdEESaIS9_EESaISB_EESF_SF_SF_ddd+0x2f8>
    a4e1:	41 83 c5 01          	add    $0x1,%r13d
    a4e5:	44 39 6c 24 3c       	cmp    %r13d,0x3c(%rsp)
    a4ea:	0f 85 50 ff ff ff    	jne    a440 <_Z14writeVTKFile3DRKNSt7__cxx1112basic_stringIcSt11char_traitsIcESaIcEEERKSt6vectorIS7_IS7_IdSaIdEESaIS9_EESaISB_EESF_SF_SF_ddd+0x2d0>
    a4f0:	83 44 24 40 01       	addl   $0x1,0x40(%rsp)
    a4f5:	8b 44 24 40          	mov    0x40(%rsp),%eax
    a4f9:	39 44 24 78          	cmp    %eax,0x78(%rsp)
    a4fd:	0f 85 2d ff ff ff    	jne    a430 <_Z14writeVTKFile3DRKNSt7__cxx1112basic_stringIcSt11char_traitsIcESaIcEEERKSt6vectorIS7_IS7_IdSaIdEESaIS9_EESaISB_EESF_SF_SF_ddd+0x2c0>
    a503:	ba 0b 00 00 00       	mov    $0xb,%edx
    a508:	48 8d 35 82 15 00 00 	lea    0x1582(%rip),%rsi        # ba91 <_IO_stdin_used+0xa91>
    a50f:	4c 89 f7             	mov    %r14,%rdi
    a512:	e8 c9 80 ff ff       	call   25e0 <_ZSt16__ostream_insertIcSt11char_traitsIcEERSt13basic_ostreamIT_T0_ES6_PKS3_l@plt>
    a517:	8b 74 24 7c          	mov    0x7c(%rsp),%esi
    a51b:	4c 89 f7             	mov    %r14,%rdi
    a51e:	e8 fd 81 ff ff       	call   2720 <_ZNSolsEi@plt>
    a523:	48 89 c7             	mov    %rax,%rdi
    a526:	ba 01 00 00 00       	mov    $0x1,%edx
    a52b:	4c 89 fe             	mov    %r15,%rsi
    a52e:	e8 ad 80 ff ff       	call   25e0 <_ZSt16__ostream_insertIcSt11char_traitsIcEERSt13basic_ostreamIT_T0_ES6_PKS3_l@plt>
    a533:	ba 17 00 00 00       	mov    $0x17,%edx
    a538:	48 8d 35 e8 15 00 00 	lea    0x15e8(%rip),%rsi        # bb27 <_IO_stdin_used+0xb27>
    a53f:	4c 89 f7             	mov    %r14,%rdi
    a542:	e8 99 80 ff ff       	call   25e0 <_ZSt16__ostream_insertIcSt11char_traitsIcEERSt13basic_ostreamIT_T0_ES6_PKS3_l@plt>
    a547:	48 8b 44 24 58       	mov    0x58(%rsp),%rax
    a54c:	85 c0                	test   %eax,%eax
    a54e:	0f 8e 37 01 00 00    	jle    a68b <_Z14writeVTKFile3DRKNSt7__cxx1112basic_stringIcSt11char_traitsIcESaIcEEERKSt6vectorIS7_IS7_IdSaIdEESaIS9_EESaISB_EESF_SF_SF_ddd+0x51b>
    a554:	83 e8 01             	sub    $0x1,%eax
    a557:	48 c7 04 24 00 00 00 	movq   $0x0,(%rsp)
    a55e:	00 
    a55f:	48 8d 44 40 03       	lea    0x3(%rax,%rax,2),%rax
    a564:	48 c1 e0 03          	shl    $0x3,%rax
    a568:	48 89 44 24 40       	mov    %rax,0x40(%rsp)
    a56d:	48 8b 44 24 60       	mov    0x60(%rsp),%rax
    a572:	83 e8 01             	sub    $0x1,%eax
    a575:	48 8d 44 40 03       	lea    0x3(%rax,%rax,2),%rax
    a57a:	48 c1 e0 03          	shl    $0x3,%rax
    a57e:	48 89 44 24 30       	mov    %rax,0x30(%rsp)
    a583:	48 8b 44 24 50       	mov    0x50(%rsp),%rax
    a588:	83 e8 01             	sub    $0x1,%eax
    a58b:	48 8d 04 c5 08 00 00 	lea    0x8(,%rax,8),%rax
    a592:	00 
    a593:	48 89 44 24 10       	mov    %rax,0x10(%rsp)
    a598:	0f 1f 84 00 00 00 00 	nopl   0x0(%rax,%rax,1)
    a59f:	00 
    a5a0:	8b 4c 24 3c          	mov    0x3c(%rsp),%ecx
    a5a4:	45 31 ed             	xor    %r13d,%r13d
    a5a7:	85 c9                	test   %ecx,%ecx
    a5a9:	0f 8e c8 00 00 00    	jle    a677 <_Z14writeVTKFile3DRKNSt7__cxx1112basic_stringIcSt11char_traitsIcESaIcEEERKSt6vectorIS7_IS7_IdSaIdEESaIS9_EESaISB_EESF_SF_SF_ddd+0x507>
    a5af:	90                   	nop
    a5b0:	8b 74 24 38          	mov    0x38(%rsp),%esi
    a5b4:	31 db                	xor    %ebx,%ebx
    a5b6:	85 f6                	test   %esi,%esi
    a5b8:	0f 8e aa 00 00 00    	jle    a668 <_Z14writeVTKFile3DRKNSt7__cxx1112basic_stringIcSt11char_traitsIcESaIcEEERKSt6vectorIS7_IS7_IdSaIdEESaIS9_EESaISB_EESF_SF_SF_ddd+0x4f8>
    a5be:	66 90                	xchg   %ax,%ax
    a5c0:	48 8b 44 24 08       	mov    0x8(%rsp),%rax
    a5c5:	48 8b 0c 24          	mov    (%rsp),%rcx
    a5c9:	4c 89 f7             	mov    %r14,%rdi
    a5cc:	48 8b 00             	mov    (%rax),%rax
    a5cf:	48 8b 04 08          	mov    (%rax,%rcx,1),%rax
    a5d3:	4a 8b 04 28          	mov    (%rax,%r13,1),%rax
    a5d7:	f2 0f 10 04 18       	movsd  (%rax,%rbx,1),%xmm0
    a5dc:	e8 ef 80 ff ff       	call   26d0 <_ZNSo9_M_insertIdEERSoT_@plt>
    a5e1:	ba 01 00 00 00       	mov    $0x1,%edx
    a5e6:	4c 89 e6             	mov    %r12,%rsi
    a5e9:	48 89 c7             	mov    %rax,%rdi
    a5ec:	48 89 c5             	mov    %rax,%rbp
    a5ef:	e8 ec 7f ff ff       	call   25e0 <_ZSt16__ostream_insertIcSt11char_traitsIcEERSt13basic_ostreamIT_T0_ES6_PKS3_l@plt>
    a5f4:	48 8b 44 24 18       	mov    0x18(%rsp),%rax
    a5f9:	48 8b 0c 24          	mov    (%rsp),%rcx
    a5fd:	48 89 ef             	mov    %rbp,%rdi
    a600:	48 8b 00             	mov    (%rax),%rax
    a603:	48 8b 04 08          	mov    (%rax,%rcx,1),%rax
    a607:	4a 8b 04 28          	mov    (%rax,%r13,1),%rax
    a60b:	f2 0f 10 04 18       	movsd  (%rax,%rbx,1),%xmm0
    a610:	e8 bb 80 ff ff       	call   26d0 <_ZNSo9_M_insertIdEERSoT_@plt>
    a615:	ba 01 00 00 00       	mov    $0x1,%edx
    a61a:	4c 89 e6             	mov    %r12,%rsi
    a61d:	48 89 c7             	mov    %rax,%rdi
    a620:	48 89 c5             	mov    %rax,%rbp
    a623:	e8 b8 7f ff ff       	call   25e0 <_ZSt16__ostream_insertIcSt11char_traitsIcEERSt13basic_ostreamIT_T0_ES6_PKS3_l@plt>
    a628:	48 8b 44 24 20       	mov    0x20(%rsp),%rax
    a62d:	48 8b 0c 24          	mov    (%rsp),%rcx
    a631:	48 89 ef             	mov    %rbp,%rdi
    a634:	48 8b 00             	mov    (%rax),%rax
    a637:	48 8b 04 08          	mov    (%rax,%rcx,1),%rax
    a63b:	4a 8b 04 28          	mov    (%rax,%r13,1),%rax
    a63f:	f2 0f 10 04 18       	movsd  (%rax,%rbx,1),%xmm0
    a644:	e8 87 80 ff ff       	call   26d0 <_ZNSo9_M_insertIdEERSoT_@plt>
    a649:	48 89 c7             	mov    %rax,%rdi
    a64c:	ba 01 00 00 00       	mov    $0x1,%edx
    a651:	4c 89 fe             	mov    %r15,%rsi
    a654:	e8 87 7f ff ff       	call   25e0 <_ZSt16__ostream_insertIcSt11char_traitsIcEERSt13basic_ostreamIT_T0_ES6_PKS3_l@plt>
    a659:	48 83 c3 08          	add    $0x8,%rbx
    a65d:	48 39 5c 24 10       	cmp    %rbx,0x10(%rsp)
    a662:	0f 85 58 ff ff ff    	jne    a5c0 <_Z14writeVTKFile3DRKNSt7__cxx1112basic_stringIcSt11char_traitsIcESaIcEEERKSt6vectorIS7_IS7_IdSaIdEESaIS9_EESaISB_EESF_SF_SF_ddd+0x450>
    a668:	49 83 c5 18          	add    $0x18,%r13
    a66c:	4c 39 6c 24 30       	cmp    %r13,0x30(%rsp)
    a671:	0f 85 39 ff ff ff    	jne    a5b0 <_Z14writeVTKFile3DRKNSt7__cxx1112basic_stringIcSt11char_traitsIcESaIcEEERKSt6vectorIS7_IS7_IdSaIdEESaIS9_EESaISB_EESF_SF_SF_ddd+0x440>
    a677:	48 83 04 24 18       	addq   $0x18,(%rsp)
    a67c:	48 8b 04 24          	mov    (%rsp),%rax
    a680:	48 39 44 24 40       	cmp    %rax,0x40(%rsp)
    a685:	0f 85 15 ff ff ff    	jne    a5a0 <_Z14writeVTKFile3DRKNSt7__cxx1112basic_stringIcSt11char_traitsIcESaIcEEERKSt6vectorIS7_IS7_IdSaIdEESaIS9_EESaISB_EESF_SF_SF_ddd+0x430>
    a68b:	ba 17 00 00 00       	mov    $0x17,%edx
    a690:	48 8d 35 a8 14 00 00 	lea    0x14a8(%rip),%rsi        # bb3f <_IO_stdin_used+0xb3f>
    a697:	4c 89 f7             	mov    %r14,%rdi
    a69a:	e8 41 7f ff ff       	call   25e0 <_ZSt16__ostream_insertIcSt11char_traitsIcEERSt13basic_ostreamIT_T0_ES6_PKS3_l@plt>
    a69f:	ba 15 00 00 00       	mov    $0x15,%edx
    a6a4:	48 8d 35 0b 14 00 00 	lea    0x140b(%rip),%rsi        # bab6 <_IO_stdin_used+0xab6>
    a6ab:	4c 89 f7             	mov    %r14,%rdi
    a6ae:	e8 2d 7f ff ff       	call   25e0 <_ZSt16__ostream_insertIcSt11char_traitsIcEERSt13basic_ostreamIT_T0_ES6_PKS3_l@plt>
    a6b3:	48 8b 44 24 58       	mov    0x58(%rsp),%rax
    a6b8:	85 c0                	test   %eax,%eax
    a6ba:	0f 8e ab 00 00 00    	jle    a76b <_Z14writeVTKFile3DRKNSt7__cxx1112basic_stringIcSt11char_traitsIcESaIcEEERKSt6vectorIS7_IS7_IdSaIdEESaIS9_EESaISB_EESF_SF_SF_ddd+0x5fb>
    a6c0:	83 e8 01             	sub    $0x1,%eax
    a6c3:	45 31 e4             	xor    %r12d,%r12d
    a6c6:	48 8d 44 40 03       	lea    0x3(%rax,%rax,2),%rax
    a6cb:	48 c1 e0 03          	shl    $0x3,%rax
    a6cf:	48 89 44 24 08       	mov    %rax,0x8(%rsp)
    a6d4:	48 8b 44 24 60       	mov    0x60(%rsp),%rax
    a6d9:	83 e8 01             	sub    $0x1,%eax
    a6dc:	48 8d 44 40 03       	lea    0x3(%rax,%rax,2),%rax
    a6e1:	48 c1 e0 03          	shl    $0x3,%rax
    a6e5:	48 89 04 24          	mov    %rax,(%rsp)
    a6e9:	48 8b 44 24 50       	mov    0x50(%rsp),%rax
    a6ee:	83 e8 01             	sub    $0x1,%eax
    a6f1:	4c 8d 2c c5 08 00 00 	lea    0x8(,%rax,8),%r13
    a6f8:	00 
    a6f9:	0f 1f 80 00 00 00 00 	nopl   0x0(%rax)
    a700:	8b 44 24 3c          	mov    0x3c(%rsp),%eax
    a704:	31 ed                	xor    %ebp,%ebp
    a706:	85 c0                	test   %eax,%eax
    a708:	7e 56                	jle    a760 <_Z14writeVTKFile3DRKNSt7__cxx1112basic_stringIcSt11char_traitsIcESaIcEEERKSt6vectorIS7_IS7_IdSaIdEESaIS9_EESaISB_EESF_SF_SF_ddd+0x5f0>
    a70a:	66 0f 1f 44 00 00    	nopw   0x0(%rax,%rax,1)
    a710:	8b 54 24 38          	mov    0x38(%rsp),%edx
    a714:	31 db                	xor    %ebx,%ebx
    a716:	85 d2                	test   %edx,%edx
    a718:	7e 3c                	jle    a756 <_Z14writeVTKFile3DRKNSt7__cxx1112basic_stringIcSt11char_traitsIcESaIcEEERKSt6vectorIS7_IS7_IdSaIdEESaIS9_EESaISB_EESF_SF_SF_ddd+0x5e6>
    a71a:	66 0f 1f 44 00 00    	nopw   0x0(%rax,%rax,1)
    a720:	48 8b 44 24 28       	mov    0x28(%rsp),%rax
    a725:	4c 89 f7             	mov    %r14,%rdi
    a728:	48 8b 00             	mov    (%rax),%rax
    a72b:	4a 8b 04 20          	mov    (%rax,%r12,1),%rax
    a72f:	48 8b 04 28          	mov    (%rax,%rbp,1),%rax
    a733:	f2 0f 10 04 18       	movsd  (%rax,%rbx,1),%xmm0
    a738:	e8 93 7f ff ff       	call   26d0 <_ZNSo9_M_insertIdEERSoT_@plt>
    a73d:	48 89 c7             	mov    %rax,%rdi
    a740:	ba 01 00 00 00       	mov    $0x1,%edx
    a745:	4c 89 fe             	mov    %r15,%rsi
    a748:	e8 93 7e ff ff       	call   25e0 <_ZSt16__ostream_insertIcSt11char_traitsIcEERSt13basic_ostreamIT_T0_ES6_PKS3_l@plt>
    a74d:	48 83 c3 08          	add    $0x8,%rbx
    a751:	49 39 dd             	cmp    %rbx,%r13
    a754:	75 ca                	jne    a720 <_Z14writeVTKFile3DRKNSt7__cxx1112basic_stringIcSt11char_traitsIcESaIcEEERKSt6vectorIS7_IS7_IdSaIdEESaIS9_EESaISB_EESF_SF_SF_ddd+0x5b0>
    a756:	48 83 c5 18          	add    $0x18,%rbp
    a75a:	48 39 2c 24          	cmp    %rbp,(%rsp)
    a75e:	75 b0                	jne    a710 <_Z14writeVTKFile3DRKNSt7__cxx1112basic_stringIcSt11char_traitsIcESaIcEEERKSt6vectorIS7_IS7_IdSaIdEESaIS9_EESaISB_EESF_SF_SF_ddd+0x5a0>
    a760:	49 83 c4 18          	add    $0x18,%r12
    a764:	4c 39 64 24 08       	cmp    %r12,0x8(%rsp)
    a769:	75 95                	jne    a700 <_Z14writeVTKFile3DRKNSt7__cxx1112basic_stringIcSt11char_traitsIcESaIcEEERKSt6vectorIS7_IS7_IdSaIdEESaIS9_EESaISB_EESF_SF_SF_ddd+0x590>
    a76b:	48 8d 05 2e 44 00 00 	lea    0x442e(%rip),%rax        # eba0 <_ZTVSt14basic_ofstreamIcSt11char_traitsIcEE@GLIBCXX_3.4+0x40>
    a772:	48 8b 7c 24 70       	mov    0x70(%rsp),%rdi
    a777:	f3 0f 7e 05 31 44 00 	movq   0x4431(%rip),%xmm0        # ebb0 <_ZTVSt14basic_ofstreamIcSt11char_traitsIcEE@GLIBCXX_3.4+0x50>
    a77e:	00 
    a77f:	48 89 84 24 78 01 00 	mov    %rax,0x178(%rsp)
    a786:	00 
    a787:	48 8d 05 62 43 00 00 	lea    0x4362(%rip),%rax        # eaf0 <_ZTVSt13basic_filebufIcSt11char_traitsIcEE@GLIBCXX_3.4+0x10>
    a78e:	66 48 0f 6e f0       	movq   %rax,%xmm6
    a793:	66 0f 6c c6          	punpcklqdq %xmm6,%xmm0
    a797:	0f 29 84 24 80 00 00 	movaps %xmm0,0x80(%rsp)
    a79e:	00 
    a79f:	e8 6c 7c ff ff       	call   2410 <_ZNSt13basic_filebufIcSt11char_traitsIcEE5closeEv@plt>
    a7a4:	48 8d bc 24 f0 00 00 	lea    0xf0(%rsp),%rdi
    a7ab:	00 
    a7ac:	e8 af 7f ff ff       	call   2760 <_ZNSt12__basic_fileIcED1Ev@plt>
    a7b1:	48 8d 05 58 42 00 00 	lea    0x4258(%rip),%rax        # ea10 <_ZTVSt15basic_streambufIcSt11char_traitsIcEE@GLIBCXX_3.4+0x10>
    a7b8:	48 8d bc 24 c0 00 00 	lea    0xc0(%rsp),%rdi
    a7bf:	00 
    a7c0:	48 89 84 24 88 00 00 	mov    %rax,0x88(%rsp)
    a7c7:	00 
    a7c8:	e8 a3 7e ff ff       	call   2670 <_ZNSt6localeD1Ev@plt>
    a7cd:	48 8b 05 b4 42 00 00 	mov    0x42b4(%rip),%rax        # ea88 <_ZTTSt14basic_ofstreamIcSt11char_traitsIcEE@GLIBCXX_3.4+0x8>
    a7d4:	48 8b 7c 24 68       	mov    0x68(%rsp),%rdi
    a7d9:	48 8b 0d b0 42 00 00 	mov    0x42b0(%rip),%rcx        # ea90 <_ZTTSt14basic_ofstreamIcSt11char_traitsIcEE@GLIBCXX_3.4+0x10>
    a7e0:	48 89 84 24 80 00 00 	mov    %rax,0x80(%rsp)
    a7e7:	00 
    a7e8:	48 8b 40 e8          	mov    -0x18(%rax),%rax
    a7ec:	48 89 8c 04 80 00 00 	mov    %rcx,0x80(%rsp,%rax,1)
    a7f3:	00 
    a7f4:	48 8d 05 f5 41 00 00 	lea    0x41f5(%rip),%rax        # e9f0 <_ZTVSt9basic_iosIcSt11char_traitsIcEE@GLIBCXX_3.4+0x10>
    a7fb:	48 89 84 24 78 01 00 	mov    %rax,0x178(%rsp)
    a802:	00 
    a803:	e8 38 7c ff ff       	call   2440 <_ZNSt8ios_baseD2Ev@plt>
    a808:	48 8b 84 24 88 02 00 	mov    0x288(%rsp),%rax
    a80f:	00 
    a810:	64 48 2b 04 25 28 00 	sub    %fs:0x28,%rax
    a817:	00 00 
    a819:	75 22                	jne    a83d <_Z14writeVTKFile3DRKNSt7__cxx1112basic_stringIcSt11char_traitsIcESaIcEEERKSt6vectorIS7_IS7_IdSaIdEESaIS9_EESaISB_EESF_SF_SF_ddd+0x6cd>
    a81b:	48 81 c4 98 02 00 00 	add    $0x298,%rsp
    a822:	5b                   	pop    %rbx
    a823:	5d                   	pop    %rbp
    a824:	41 5c                	pop    %r12
    a826:	41 5d                	pop    %r13
    a828:	41 5e                	pop    %r14
    a82a:	41 5f                	pop    %r15
    a82c:	c3                   	ret    
    a82d:	8b 77 20             	mov    0x20(%rdi),%esi
    a830:	83 ce 04             	or     $0x4,%esi
    a833:	e8 c8 7e ff ff       	call   2700 <_ZNSt9basic_iosIcSt11char_traitsIcEE5clearESt12_Ios_Iostate@plt>
    a838:	e9 70 fa ff ff       	jmp    a2ad <_Z14writeVTKFile3DRKNSt7__cxx1112basic_stringIcSt11char_traitsIcESaIcEEERKSt6vectorIS7_IS7_IdSaIdEESaIS9_EESaISB_EESF_SF_SF_ddd+0x13d>
    a83d:	e8 8e 7d ff ff       	call   25d0 <__stack_chk_fail@plt>
    a842:	f3 0f 1e fa          	endbr64 
    a846:	48 89 c5             	mov    %rax,%rbp
    a849:	e9 31 81 ff ff       	jmp    297f <_Z14writeVTKFile3DRKNSt7__cxx1112basic_stringIcSt11char_traitsIcESaIcEEERKSt6vectorIS7_IS7_IdSaIdEESaIS9_EESaISB_EESF_SF_SF_ddd.cold+0x2c>
    a84e:	f3 0f 1e fa          	endbr64 
    a852:	48 89 c5             	mov    %rax,%rbp
    a855:	e9 f9 80 ff ff       	jmp    2953 <_Z14writeVTKFile3DRKNSt7__cxx1112basic_stringIcSt11char_traitsIcESaIcEEERKSt6vectorIS7_IS7_IdSaIdEESaIS9_EESaISB_EESF_SF_SF_ddd.cold>
    a85a:	f3 0f 1e fa          	endbr64 
    a85e:	48 89 c7             	mov    %rax,%rdi
    a861:	e9 3a 81 ff ff       	jmp    29a0 <_Z14writeVTKFile3DRKNSt7__cxx1112basic_stringIcSt11char_traitsIcESaIcEEERKSt6vectorIS7_IS7_IdSaIdEESaIS9_EESaISB_EESF_SF_SF_ddd.cold+0x4d>
    a866:	f3 0f 1e fa          	endbr64 
    a86a:	48 89 c5             	mov    %rax,%rbp
    a86d:	e9 eb 80 ff ff       	jmp    295d <_Z14writeVTKFile3DRKNSt7__cxx1112basic_stringIcSt11char_traitsIcESaIcEEERKSt6vectorIS7_IS7_IdSaIdEESaIS9_EESaISB_EESF_SF_SF_ddd.cold+0xa>
    a872:	f3 0f 1e fa          	endbr64 
    a876:	48 89 c5             	mov    %rax,%rbp
    a879:	e9 31 81 ff ff       	jmp    29af <_Z14writeVTKFile3DRKNSt7__cxx1112basic_stringIcSt11char_traitsIcESaIcEEERKSt6vectorIS7_IS7_IdSaIdEESaIS9_EESaISB_EESF_SF_SF_ddd.cold+0x5c>
    a87e:	66 90                	xchg   %ax,%ax

000000000000a880 <_Z12writeVTKFileRKNSt7__cxx1112basic_stringIcSt11char_traitsIcESaIcEEERKSt6vectorIS7_IdSaIdEESaIS9_EESD_SD_dd>:
    a880:	f3 0f 1e fa          	endbr64 
    a884:	41 57                	push   %r15
    a886:	49 89 f7             	mov    %rsi,%r15
    a889:	41 56                	push   %r14
    a88b:	41 55                	push   %r13
    a88d:	41 54                	push   %r12
    a88f:	49 89 cc             	mov    %rcx,%r12
    a892:	55                   	push   %rbp
    a893:	53                   	push   %rbx
    a894:	48 81 ec 68 02 00 00 	sub    $0x268,%rsp
    a89b:	48 89 7c 24 30       	mov    %rdi,0x30(%rsp)
    a8a0:	48 8d 9c 24 48 01 00 	lea    0x148(%rsp),%rbx
    a8a7:	00 
    a8a8:	4c 8d 74 24 50       	lea    0x50(%rsp),%r14
    a8ad:	48 89 14 24          	mov    %rdx,(%rsp)
    a8b1:	48 89 df             	mov    %rbx,%rdi
    a8b4:	f2 0f 11 44 24 10    	movsd  %xmm0,0x10(%rsp)
    a8ba:	f2 0f 11 4c 24 20    	movsd  %xmm1,0x20(%rsp)
    a8c0:	64 48 8b 04 25 28 00 	mov    %fs:0x28,%rax
    a8c7:	00 00 
    a8c9:	48 89 84 24 58 02 00 	mov    %rax,0x258(%rsp)
    a8d0:	00 
    a8d1:	31 c0                	xor    %eax,%eax
    a8d3:	48 89 5c 24 48       	mov    %rbx,0x48(%rsp)
    a8d8:	e8 43 7b ff ff       	call   2420 <_ZNSt8ios_baseC2Ev@plt>
    a8dd:	48 8d 05 0c 41 00 00 	lea    0x410c(%rip),%rax        # e9f0 <_ZTVSt9basic_iosIcSt11char_traitsIcEE@GLIBCXX_3.4+0x10>
    a8e4:	31 c9                	xor    %ecx,%ecx
    a8e6:	31 f6                	xor    %esi,%esi
    a8e8:	48 89 84 24 48 01 00 	mov    %rax,0x148(%rsp)
    a8ef:	00 
    a8f0:	66 0f ef c0          	pxor   %xmm0,%xmm0
    a8f4:	48 8b 05 8d 41 00 00 	mov    0x418d(%rip),%rax        # ea88 <_ZTTSt14basic_ofstreamIcSt11char_traitsIcEE@GLIBCXX_3.4+0x8>
    a8fb:	66 89 8c 24 28 02 00 	mov    %cx,0x228(%rsp)
    a902:	00 
    a903:	0f 29 84 24 30 02 00 	movaps %xmm0,0x230(%rsp)
    a90a:	00 
    a90b:	0f 29 84 24 40 02 00 	movaps %xmm0,0x240(%rsp)
    a912:	00 
    a913:	48 8b 78 e8          	mov    -0x18(%rax),%rdi
    a917:	48 89 44 24 50       	mov    %rax,0x50(%rsp)
    a91c:	48 8b 05 6d 41 00 00 	mov    0x416d(%rip),%rax        # ea90 <_ZTTSt14basic_ofstreamIcSt11char_traitsIcEE@GLIBCXX_3.4+0x10>
    a923:	48 c7 84 24 20 02 00 	movq   $0x0,0x220(%rsp)
    a92a:	00 00 00 00 00 
    a92f:	4c 01 f7             	add    %r14,%rdi
    a932:	48 89 07             	mov    %rax,(%rdi)
    a935:	e8 26 7d ff ff       	call   2660 <_ZNSt9basic_iosIcSt11char_traitsIcEE4initEPSt15basic_streambufIcS1_E@plt>
    a93a:	48 8d 05 37 42 00 00 	lea    0x4237(%rip),%rax        # eb78 <_ZTVSt14basic_ofstreamIcSt11char_traitsIcEE@GLIBCXX_3.4+0x18>
    a941:	48 89 44 24 50       	mov    %rax,0x50(%rsp)
    a946:	48 83 c0 28          	add    $0x28,%rax
    a94a:	48 89 84 24 48 01 00 	mov    %rax,0x148(%rsp)
    a951:	00 
    a952:	48 8d 44 24 58       	lea    0x58(%rsp),%rax
    a957:	48 89 c7             	mov    %rax,%rdi
    a95a:	48 89 44 24 28       	mov    %rax,0x28(%rsp)
    a95f:	48 89 c5             	mov    %rax,%rbp
    a962:	e8 59 7c ff ff       	call   25c0 <_ZNSt13basic_filebufIcSt11char_traitsIcEEC1Ev@plt>
    a967:	48 89 ee             	mov    %rbp,%rsi
    a96a:	48 89 df             	mov    %rbx,%rdi
    a96d:	e8 ee 7c ff ff       	call   2660 <_ZNSt9basic_iosIcSt11char_traitsIcEE4initEPSt15basic_streambufIcS1_E@plt>
    a972:	48 8b 44 24 30       	mov    0x30(%rsp),%rax
    a977:	48 8b 7c 24 28       	mov    0x28(%rsp),%rdi
    a97c:	ba 10 00 00 00       	mov    $0x10,%edx
    a981:	48 8b 30             	mov    (%rax),%rsi
    a984:	e8 e7 7b ff ff       	call   2570 <_ZNSt13basic_filebufIcSt11char_traitsIcEE4openEPKcSt13_Ios_Openmode@plt>
    a989:	48 8b 54 24 50       	mov    0x50(%rsp),%rdx
    a98e:	48 8b 7a e8          	mov    -0x18(%rdx),%rdi
    a992:	4c 01 f7             	add    %r14,%rdi
    a995:	48 85 c0             	test   %rax,%rax
    a998:	0f 84 2a 04 00 00    	je     adc8 <_Z12writeVTKFileRKNSt7__cxx1112basic_stringIcSt11char_traitsIcESaIcEEERKSt6vectorIS7_IdSaIdEESaIS9_EESD_SD_dd+0x548>
    a99e:	31 f6                	xor    %esi,%esi
    a9a0:	e8 5b 7d ff ff       	call   2700 <_ZNSt9basic_iosIcSt11char_traitsIcEE5clearESt12_Ios_Iostate@plt>
    a9a5:	49 8b 17             	mov    (%r15),%rdx
    a9a8:	49 8b 47 08          	mov    0x8(%r15),%rax
    a9ac:	4c 89 f7             	mov    %r14,%rdi
    a9af:	48 b9 ab aa aa aa aa 	movabs $0xaaaaaaaaaaaaaaab,%rcx
    a9b6:	aa aa aa 
    a9b9:	48 8d 35 5a 10 00 00 	lea    0x105a(%rip),%rsi        # ba1a <_IO_stdin_used+0xa1a>
    a9c0:	48 29 d0             	sub    %rdx,%rax
    a9c3:	48 c1 f8 03          	sar    $0x3,%rax
    a9c7:	48 0f af c1          	imul   %rcx,%rax
    a9cb:	48 89 44 24 40       	mov    %rax,0x40(%rsp)
    a9d0:	41 89 c5             	mov    %eax,%r13d
    a9d3:	89 44 24 1c          	mov    %eax,0x1c(%rsp)
    a9d7:	48 8b 42 08          	mov    0x8(%rdx),%rax
    a9db:	48 2b 02             	sub    (%rdx),%rax
    a9de:	ba 1b 00 00 00       	mov    $0x1b,%edx
    a9e3:	48 c1 f8 03          	sar    $0x3,%rax
    a9e7:	48 89 44 24 38       	mov    %rax,0x38(%rsp)
    a9ec:	89 c3                	mov    %eax,%ebx
    a9ee:	e8 ed 7b ff ff       	call   25e0 <_ZSt16__ostream_insertIcSt11char_traitsIcEERSt13basic_ostreamIT_T0_ES6_PKS3_l@plt>
    a9f3:	ba 15 00 00 00       	mov    $0x15,%edx
    a9f8:	48 8d 35 37 10 00 00 	lea    0x1037(%rip),%rsi        # ba36 <_IO_stdin_used+0xa36>
    a9ff:	4c 89 f7             	mov    %r14,%rdi
    aa02:	e8 d9 7b ff ff       	call   25e0 <_ZSt16__ostream_insertIcSt11char_traitsIcEERSt13basic_ostreamIT_T0_ES6_PKS3_l@plt>
    aa07:	ba 06 00 00 00       	mov    $0x6,%edx
    aa0c:	48 8d 35 39 10 00 00 	lea    0x1039(%rip),%rsi        # ba4c <_IO_stdin_used+0xa4c>
    aa13:	4c 89 f7             	mov    %r14,%rdi
    aa16:	e8 c5 7b ff ff       	call   25e0 <_ZSt16__ostream_insertIcSt11char_traitsIcEERSt13basic_ostreamIT_T0_ES6_PKS3_l@plt>
    aa1b:	ba 1a 00 00 00       	mov    $0x1a,%edx
    aa20:	48 8d 35 2c 10 00 00 	lea    0x102c(%rip),%rsi        # ba53 <_IO_stdin_used+0xa53>
    aa27:	4c 89 f7             	mov    %r14,%rdi
    aa2a:	e8 b1 7b ff ff       	call   25e0 <_ZSt16__ostream_insertIcSt11char_traitsIcEERSt13basic_ostreamIT_T0_ES6_PKS3_l@plt>
    aa2f:	ba 0b 00 00 00       	mov    $0xb,%edx
    aa34:	48 8d 35 33 10 00 00 	lea    0x1033(%rip),%rsi        # ba6e <_IO_stdin_used+0xa6e>
    aa3b:	4c 89 f7             	mov    %r14,%rdi
    aa3e:	e8 9d 7b ff ff       	call   25e0 <_ZSt16__ostream_insertIcSt11char_traitsIcEERSt13basic_ostreamIT_T0_ES6_PKS3_l@plt>
    aa43:	44 89 ee             	mov    %r13d,%esi
    aa46:	4c 89 f7             	mov    %r14,%rdi
    aa49:	e8 d2 7c ff ff       	call   2720 <_ZNSolsEi@plt>
    aa4e:	4c 8d 2d da 0d 00 00 	lea    0xdda(%rip),%r13        # b82f <_IO_stdin_used+0x82f>
    aa55:	ba 01 00 00 00       	mov    $0x1,%edx
    aa5a:	48 89 c7             	mov    %rax,%rdi
    aa5d:	48 89 c5             	mov    %rax,%rbp
    aa60:	4c 89 ee             	mov    %r13,%rsi
    aa63:	e8 78 7b ff ff       	call   25e0 <_ZSt16__ostream_insertIcSt11char_traitsIcEERSt13basic_ostreamIT_T0_ES6_PKS3_l@plt>
    aa68:	89 de                	mov    %ebx,%esi
    aa6a:	48 89 ef             	mov    %rbp,%rdi
    aa6d:	e8 ae 7c ff ff       	call   2720 <_ZNSolsEi@plt>
    aa72:	48 8d 1d de 10 00 00 	lea    0x10de(%rip),%rbx        # bb57 <_IO_stdin_used+0xb57>
    aa79:	48 89 c7             	mov    %rax,%rdi
    aa7c:	ba 03 00 00 00       	mov    $0x3,%edx
    aa81:	48 89 de             	mov    %rbx,%rsi
    aa84:	e8 57 7b ff ff       	call   25e0 <_ZSt16__ostream_insertIcSt11char_traitsIcEERSt13basic_ostreamIT_T0_ES6_PKS3_l@plt>
    aa89:	ba 0d 00 00 00       	mov    $0xd,%edx
    aa8e:	48 8d 35 e5 0f 00 00 	lea    0xfe5(%rip),%rsi        # ba7a <_IO_stdin_used+0xa7a>
    aa95:	4c 89 f7             	mov    %r14,%rdi
    aa98:	e8 43 7b ff ff       	call   25e0 <_ZSt16__ostream_insertIcSt11char_traitsIcEERSt13basic_ostreamIT_T0_ES6_PKS3_l@plt>
    aa9d:	ba 08 00 00 00       	mov    $0x8,%edx
    aaa2:	48 8d 35 df 0f 00 00 	lea    0xfdf(%rip),%rsi        # ba88 <_IO_stdin_used+0xa88>
    aaa9:	4c 89 f7             	mov    %r14,%rdi
    aaac:	e8 2f 7b ff ff       	call   25e0 <_ZSt16__ostream_insertIcSt11char_traitsIcEERSt13basic_ostreamIT_T0_ES6_PKS3_l@plt>
    aab1:	f2 0f 10 44 24 10    	movsd  0x10(%rsp),%xmm0
    aab7:	4c 89 f7             	mov    %r14,%rdi
    aaba:	e8 11 7c ff ff       	call   26d0 <_ZNSo9_M_insertIdEERSoT_@plt>
    aabf:	ba 01 00 00 00       	mov    $0x1,%edx
    aac4:	4c 89 ee             	mov    %r13,%rsi
    aac7:	48 89 c7             	mov    %rax,%rdi
    aaca:	48 89 c5             	mov    %rax,%rbp
    aacd:	e8 0e 7b ff ff       	call   25e0 <_ZSt16__ostream_insertIcSt11char_traitsIcEERSt13basic_ostreamIT_T0_ES6_PKS3_l@plt>
    aad2:	f2 0f 10 44 24 20    	movsd  0x20(%rsp),%xmm0
    aad8:	48 89 ef             	mov    %rbp,%rdi
    aadb:	e8 f0 7b ff ff       	call   26d0 <_ZNSo9_M_insertIdEERSoT_@plt>
    aae0:	48 89 c7             	mov    %rax,%rdi
    aae3:	ba 03 00 00 00       	mov    $0x3,%edx
    aae8:	48 89 de             	mov    %rbx,%rsi
    aaeb:	e8 f0 7a ff ff       	call   25e0 <_ZSt16__ostream_insertIcSt11char_traitsIcEERSt13basic_ostreamIT_T0_ES6_PKS3_l@plt>
    aaf0:	ba 0b 00 00 00       	mov    $0xb,%edx
    aaf5:	48 8d 35 95 0f 00 00 	lea    0xf95(%rip),%rsi        # ba91 <_IO_stdin_used+0xa91>
    aafc:	4c 89 f7             	mov    %r14,%rdi
    aaff:	e8 dc 7a ff ff       	call   25e0 <_ZSt16__ostream_insertIcSt11char_traitsIcEERSt13basic_ostreamIT_T0_ES6_PKS3_l@plt>
    ab04:	48 8b 5c 24 38       	mov    0x38(%rsp),%rbx
    ab09:	48 8b 6c 24 40       	mov    0x40(%rsp),%rbp
    ab0e:	4c 89 f7             	mov    %r14,%rdi
    ab11:	89 de                	mov    %ebx,%esi
    ab13:	0f af f5             	imul   %ebp,%esi
    ab16:	e8 05 7c ff ff       	call   2720 <_ZNSolsEi@plt>
    ab1b:	48 89 c7             	mov    %rax,%rdi
    ab1e:	ba 01 00 00 00       	mov    $0x1,%edx
    ab23:	48 8d 35 ce 0f 00 00 	lea    0xfce(%rip),%rsi        # baf8 <_IO_stdin_used+0xaf8>
    ab2a:	e8 b1 7a ff ff       	call   25e0 <_ZSt16__ostream_insertIcSt11char_traitsIcEERSt13basic_ostreamIT_T0_ES6_PKS3_l@plt>
    ab2f:	ba 18 00 00 00       	mov    $0x18,%edx
    ab34:	48 8d 35 62 0f 00 00 	lea    0xf62(%rip),%rsi        # ba9d <_IO_stdin_used+0xa9d>
    ab3b:	4c 89 f7             	mov    %r14,%rdi
    ab3e:	e8 9d 7a ff ff       	call   25e0 <_ZSt16__ostream_insertIcSt11char_traitsIcEERSt13basic_ostreamIT_T0_ES6_PKS3_l@plt>
    ab43:	ba 15 00 00 00       	mov    $0x15,%edx
    ab48:	48 8d 35 67 0f 00 00 	lea    0xf67(%rip),%rsi        # bab6 <_IO_stdin_used+0xab6>
    ab4f:	4c 89 f7             	mov    %r14,%rdi
    ab52:	e8 89 7a ff ff       	call   25e0 <_ZSt16__ostream_insertIcSt11char_traitsIcEERSt13basic_ostreamIT_T0_ES6_PKS3_l@plt>
    ab57:	85 db                	test   %ebx,%ebx
    ab59:	0f 8e 88 00 00 00    	jle    abe7 <_Z12writeVTKFileRKNSt7__cxx1112basic_stringIcSt11char_traitsIcESaIcEEERKSt6vectorIS7_IdSaIdEESaIS9_EESD_SD_dd+0x367>
    ab5f:	8d 43 ff             	lea    -0x1(%rbx),%eax
    ab62:	48 8d 04 c5 08 00 00 	lea    0x8(,%rax,8),%rax
    ab69:	00 
    ab6a:	48 89 44 24 20       	mov    %rax,0x20(%rsp)
    ab6f:	8d 45 ff             	lea    -0x1(%rbp),%eax
    ab72:	31 ed                	xor    %ebp,%ebp
    ab74:	48 8d 44 40 03       	lea    0x3(%rax,%rax,2),%rax
    ab79:	48 c1 e0 03          	shl    $0x3,%rax
    ab7d:	48 89 44 24 10       	mov    %rax,0x10(%rsp)
    ab82:	66 0f 1f 44 00 00    	nopw   0x0(%rax,%rax,1)
    ab88:	8b 54 24 1c          	mov    0x1c(%rsp),%edx
    ab8c:	31 db                	xor    %ebx,%ebx
    ab8e:	85 d2                	test   %edx,%edx
    ab90:	7e 36                	jle    abc8 <_Z12writeVTKFileRKNSt7__cxx1112basic_stringIcSt11char_traitsIcESaIcEEERKSt6vectorIS7_IdSaIdEESaIS9_EESD_SD_dd+0x348>
    ab92:	66 0f 1f 44 00 00    	nopw   0x0(%rax,%rax,1)
    ab98:	49 8b 04 24          	mov    (%r12),%rax
    ab9c:	4c 89 f7             	mov    %r14,%rdi
    ab9f:	48 8b 04 18          	mov    (%rax,%rbx,1),%rax
    aba3:	f2 0f 10 04 28       	movsd  (%rax,%rbp,1),%xmm0
    aba8:	e8 23 7b ff ff       	call   26d0 <_ZNSo9_M_insertIdEERSoT_@plt>
    abad:	48 89 c7             	mov    %rax,%rdi
    abb0:	ba 01 00 00 00       	mov    $0x1,%edx
    abb5:	4c 89 ee             	mov    %r13,%rsi
    abb8:	e8 23 7a ff ff       	call   25e0 <_ZSt16__ostream_insertIcSt11char_traitsIcEERSt13basic_ostreamIT_T0_ES6_PKS3_l@plt>
    abbd:	48 83 c3 18          	add    $0x18,%rbx
    abc1:	48 39 5c 24 10       	cmp    %rbx,0x10(%rsp)
    abc6:	75 d0                	jne    ab98 <_Z12writeVTKFileRKNSt7__cxx1112basic_stringIcSt11char_traitsIcESaIcEEERKSt6vectorIS7_IdSaIdEESaIS9_EESD_SD_dd+0x318>
    abc8:	ba 01 00 00 00       	mov    $0x1,%edx
    abcd:	48 8d 35 24 0f 00 00 	lea    0xf24(%rip),%rsi        # baf8 <_IO_stdin_used+0xaf8>
    abd4:	4c 89 f7             	mov    %r14,%rdi
    abd7:	e8 04 7a ff ff       	call   25e0 <_ZSt16__ostream_insertIcSt11char_traitsIcEERSt13basic_ostreamIT_T0_ES6_PKS3_l@plt>
    abdc:	48 83 c5 08          	add    $0x8,%rbp
    abe0:	48 39 6c 24 20       	cmp    %rbp,0x20(%rsp)
    abe5:	75 a1                	jne    ab88 <_Z12writeVTKFileRKNSt7__cxx1112basic_stringIcSt11char_traitsIcESaIcEEERKSt6vectorIS7_IdSaIdEESaIS9_EESD_SD_dd+0x308>
    abe7:	ba 18 00 00 00       	mov    $0x18,%edx
    abec:	48 8d 35 d9 0e 00 00 	lea    0xed9(%rip),%rsi        # bacc <_IO_stdin_used+0xacc>
    abf3:	4c 89 f7             	mov    %r14,%rdi
    abf6:	e8 e5 79 ff ff       	call   25e0 <_ZSt16__ostream_insertIcSt11char_traitsIcEERSt13basic_ostreamIT_T0_ES6_PKS3_l@plt>
    abfb:	48 8b 44 24 38       	mov    0x38(%rsp),%rax
    ac00:	85 c0                	test   %eax,%eax
    ac02:	0f 8e ab 00 00 00    	jle    acb3 <_Z12writeVTKFileRKNSt7__cxx1112basic_stringIcSt11char_traitsIcESaIcEEERKSt6vectorIS7_IdSaIdEESaIS9_EESD_SD_dd+0x433>
    ac08:	83 e8 01             	sub    $0x1,%eax
    ac0b:	45 31 e4             	xor    %r12d,%r12d
    ac0e:	48 8d 04 c5 08 00 00 	lea    0x8(,%rax,8),%rax
    ac15:	00 
    ac16:	48 89 44 24 20       	mov    %rax,0x20(%rsp)
    ac1b:	48 8b 44 24 40       	mov    0x40(%rsp),%rax
    ac20:	83 e8 01             	sub    $0x1,%eax
    ac23:	48 8d 44 40 03       	lea    0x3(%rax,%rax,2),%rax
    ac28:	48 c1 e0 03          	shl    $0x3,%rax
    ac2c:	48 89 44 24 10       	mov    %rax,0x10(%rsp)
    ac31:	0f 1f 80 00 00 00 00 	nopl   0x0(%rax)
    ac38:	8b 44 24 1c          	mov    0x1c(%rsp),%eax
    ac3c:	31 db                	xor    %ebx,%ebx
    ac3e:	85 c0                	test   %eax,%eax
    ac40:	7e 66                	jle    aca8 <_Z12writeVTKFileRKNSt7__cxx1112basic_stringIcSt11char_traitsIcESaIcEEERKSt6vectorIS7_IdSaIdEESaIS9_EESD_SD_dd+0x428>
    ac42:	66 0f 1f 44 00 00    	nopw   0x0(%rax,%rax,1)
    ac48:	49 8b 07             	mov    (%r15),%rax
    ac4b:	4c 89 f7             	mov    %r14,%rdi
    ac4e:	48 8b 04 18          	mov    (%rax,%rbx,1),%rax
    ac52:	f2 42 0f 10 04 20    	movsd  (%rax,%r12,1),%xmm0
    ac58:	e8 73 7a ff ff       	call   26d0 <_ZNSo9_M_insertIdEERSoT_@plt>
    ac5d:	ba 01 00 00 00       	mov    $0x1,%edx
    ac62:	4c 89 ee             	mov    %r13,%rsi
    ac65:	48 89 c7             	mov    %rax,%rdi
    ac68:	48 89 c5             	mov    %rax,%rbp
    ac6b:	e8 70 79 ff ff       	call   25e0 <_ZSt16__ostream_insertIcSt11char_traitsIcEERSt13basic_ostreamIT_T0_ES6_PKS3_l@plt>
    ac70:	48 8b 04 24          	mov    (%rsp),%rax
    ac74:	48 89 ef             	mov    %rbp,%rdi
    ac77:	48 8b 00             	mov    (%rax),%rax
    ac7a:	48 8b 04 18          	mov    (%rax,%rbx,1),%rax
    ac7e:	f2 42 0f 10 04 20    	movsd  (%rax,%r12,1),%xmm0
    ac84:	e8 47 7a ff ff       	call   26d0 <_ZNSo9_M_insertIdEERSoT_@plt>
    ac89:	48 89 c7             	mov    %rax,%rdi
    ac8c:	ba 03 00 00 00       	mov    $0x3,%edx
    ac91:	48 8d 35 ec 0d 00 00 	lea    0xdec(%rip),%rsi        # ba84 <_IO_stdin_used+0xa84>
    ac98:	e8 43 79 ff ff       	call   25e0 <_ZSt16__ostream_insertIcSt11char_traitsIcEERSt13basic_ostreamIT_T0_ES6_PKS3_l@plt>
    ac9d:	48 83 c3 18          	add    $0x18,%rbx
    aca1:	48 39 5c 24 10       	cmp    %rbx,0x10(%rsp)
    aca6:	75 a0                	jne    ac48 <_Z12writeVTKFileRKNSt7__cxx1112basic_stringIcSt11char_traitsIcESaIcEEERKSt6vectorIS7_IdSaIdEESaIS9_EESD_SD_dd+0x3c8>
    aca8:	49 83 c4 08          	add    $0x8,%r12
    acac:	4c 39 64 24 20       	cmp    %r12,0x20(%rsp)
    acb1:	75 85                	jne    ac38 <_Z12writeVTKFileRKNSt7__cxx1112basic_stringIcSt11char_traitsIcESaIcEEERKSt6vectorIS7_IdSaIdEESaIS9_EESD_SD_dd+0x3b8>
    acb3:	48 8b 7c 24 28       	mov    0x28(%rsp),%rdi
    acb8:	e8 53 77 ff ff       	call   2410 <_ZNSt13basic_filebufIcSt11char_traitsIcEE5closeEv@plt>
    acbd:	48 85 c0             	test   %rax,%rax
    acc0:	0f 84 12 01 00 00    	je     add8 <_Z12writeVTKFileRKNSt7__cxx1112basic_stringIcSt11char_traitsIcESaIcEEERKSt6vectorIS7_IdSaIdEESaIS9_EESD_SD_dd+0x558>
    acc6:	48 8d 2d 73 43 00 00 	lea    0x4373(%rip),%rbp        # f040 <_ZSt4cout@GLIBCXX_3.4>
    accd:	ba 09 00 00 00       	mov    $0x9,%edx
    acd2:	48 8d 35 0c 0e 00 00 	lea    0xe0c(%rip),%rsi        # bae5 <_IO_stdin_used+0xae5>
    acd9:	48 89 ef             	mov    %rbp,%rdi
    acdc:	e8 ff 78 ff ff       	call   25e0 <_ZSt16__ostream_insertIcSt11char_traitsIcEERSt13basic_ostreamIT_T0_ES6_PKS3_l@plt>
    ace1:	48 8b 44 24 30       	mov    0x30(%rsp),%rax
    ace6:	48 89 ef             	mov    %rbp,%rdi
    ace9:	48 8b 50 08          	mov    0x8(%rax),%rdx
    aced:	48 8b 30             	mov    (%rax),%rsi
    acf0:	e8 eb 78 ff ff       	call   25e0 <_ZSt16__ostream_insertIcSt11char_traitsIcEERSt13basic_ostreamIT_T0_ES6_PKS3_l@plt>
    acf5:	48 89 c7             	mov    %rax,%rdi
    acf8:	48 8d 05 f1 3d 00 00 	lea    0x3df1(%rip),%rax        # eaf0 <_ZTVSt13basic_filebufIcSt11char_traitsIcEE@GLIBCXX_3.4+0x10>
    acff:	f3 0f 7e 15 a9 3e 00 	movq   0x3ea9(%rip),%xmm2        # ebb0 <_ZTVSt14basic_ofstreamIcSt11char_traitsIcEE@GLIBCXX_3.4+0x50>
    ad06:	00 
    ad07:	ba 0a 00 00 00       	mov    $0xa,%edx
    ad0c:	66 48 0f 6e d8       	movq   %rax,%xmm3
    ad11:	48 8d 35 d7 0d 00 00 	lea    0xdd7(%rip),%rsi        # baef <_IO_stdin_used+0xaef>
    ad18:	66 0f 6c d3          	punpcklqdq %xmm3,%xmm2
    ad1c:	0f 29 14 24          	movaps %xmm2,(%rsp)
    ad20:	e8 bb 78 ff ff       	call   25e0 <_ZSt16__ostream_insertIcSt11char_traitsIcEERSt13basic_ostreamIT_T0_ES6_PKS3_l@plt>
    ad25:	66 0f 6f 14 24       	movdqa (%rsp),%xmm2
    ad2a:	48 8b 7c 24 28       	mov    0x28(%rsp),%rdi
    ad2f:	48 8d 05 6a 3e 00 00 	lea    0x3e6a(%rip),%rax        # eba0 <_ZTVSt14basic_ofstreamIcSt11char_traitsIcEE@GLIBCXX_3.4+0x40>
    ad36:	48 89 84 24 48 01 00 	mov    %rax,0x148(%rsp)
    ad3d:	00 
    ad3e:	0f 29 54 24 50       	movaps %xmm2,0x50(%rsp)
    ad43:	e8 c8 76 ff ff       	call   2410 <_ZNSt13basic_filebufIcSt11char_traitsIcEE5closeEv@plt>
    ad48:	48 8d bc 24 c0 00 00 	lea    0xc0(%rsp),%rdi
    ad4f:	00 
    ad50:	e8 0b 7a ff ff       	call   2760 <_ZNSt12__basic_fileIcED1Ev@plt>
    ad55:	48 8d 05 b4 3c 00 00 	lea    0x3cb4(%rip),%rax        # ea10 <_ZTVSt15basic_streambufIcSt11char_traitsIcEE@GLIBCXX_3.4+0x10>
    ad5c:	48 8d bc 24 90 00 00 	lea    0x90(%rsp),%rdi
    ad63:	00 
    ad64:	48 89 44 24 58       	mov    %rax,0x58(%rsp)
    ad69:	e8 02 79 ff ff       	call   2670 <_ZNSt6localeD1Ev@plt>
    ad6e:	48 8b 05 13 3d 00 00 	mov    0x3d13(%rip),%rax        # ea88 <_ZTTSt14basic_ofstreamIcSt11char_traitsIcEE@GLIBCXX_3.4+0x8>
    ad75:	48 8b 7c 24 48       	mov    0x48(%rsp),%rdi
    ad7a:	48 8b 0d 0f 3d 00 00 	mov    0x3d0f(%rip),%rcx        # ea90 <_ZTTSt14basic_ofstreamIcSt11char_traitsIcEE@GLIBCXX_3.4+0x10>
    ad81:	48 89 44 24 50       	mov    %rax,0x50(%rsp)
    ad86:	48 8b 40 e8          	mov    -0x18(%rax),%rax
    ad8a:	48 89 4c 04 50       	mov    %rcx,0x50(%rsp,%rax,1)
    ad8f:	48 8d 05 5a 3c 00 00 	lea    0x3c5a(%rip),%rax        # e9f0 <_ZTVSt9basic_iosIcSt11char_traitsIcEE@GLIBCXX_3.4+0x10>
    ad96:	48 89 84 24 48 01 00 	mov    %rax,0x148(%rsp)
    ad9d:	00 
    ad9e:	e8 9d 76 ff ff       	call   2440 <_ZNSt8ios_baseD2Ev@plt>
    ada3:	48 8b 84 24 58 02 00 	mov    0x258(%rsp),%rax
    adaa:	00 
    adab:	64 48 2b 04 25 28 00 	sub    %fs:0x28,%rax
    adb2:	00 00 
    adb4:	75 3e                	jne    adf4 <_Z12writeVTKFileRKNSt7__cxx1112basic_stringIcSt11char_traitsIcESaIcEEERKSt6vectorIS7_IdSaIdEESaIS9_EESD_SD_dd+0x574>
    adb6:	48 81 c4 68 02 00 00 	add    $0x268,%rsp
    adbd:	5b                   	pop    %rbx
    adbe:	5d                   	pop    %rbp
    adbf:	41 5c                	pop    %r12
    adc1:	41 5d                	pop    %r13
    adc3:	41 5e                	pop    %r14
    adc5:	41 5f                	pop    %r15
    adc7:	c3                   	ret    
    adc8:	8b 77 20             	mov    0x20(%rdi),%esi
    adcb:	83 ce 04             	or     $0x4,%esi
    adce:	e8 2d 79 ff ff       	call   2700 <_ZNSt9basic_iosIcSt11char_traitsIcEE5clearESt12_Ios_Iostate@plt>
    add3:	e9 cd fb ff ff       	jmp    a9a5 <_Z12writeVTKFileRKNSt7__cxx1112basic_stringIcSt11char_traitsIcESaIcEEERKSt6vectorIS7_IdSaIdEESaIS9_EESD_SD_dd+0x125>
    add8:	48 8b 44 24 50       	mov    0x50(%rsp),%rax
    addd:	48 8b 78 e8          	mov    -0x18(%rax),%rdi
    ade1:	4c 01 f7             	add    %r14,%rdi
    ade4:	8b 77 20             	mov    0x20(%rdi),%esi
    ade7:	83 ce 04             	or     $0x4,%esi
    adea:	e8 11 79 ff ff       	call   2700 <_ZNSt9basic_iosIcSt11char_traitsIcEE5clearESt12_Ios_Iostate@plt>
    adef:	e9 d2 fe ff ff       	jmp    acc6 <_Z12writeVTKFileRKNSt7__cxx1112basic_stringIcSt11char_traitsIcESaIcEEERKSt6vectorIS7_IdSaIdEESaIS9_EESD_SD_dd+0x446>
    adf4:	e8 d7 77 ff ff       	call   25d0 <__stack_chk_fail@plt>
    adf9:	f3 0f 1e fa          	endbr64 
    adfd:	48 89 c5             	mov    %rax,%rbp
    ae00:	e9 ba 7b ff ff       	jmp    29bf <_Z12writeVTKFileRKNSt7__cxx1112basic_stringIcSt11char_traitsIcESaIcEEERKSt6vectorIS7_IdSaIdEESaIS9_EESD_SD_dd.cold>
    ae05:	f3 0f 1e fa          	endbr64 
    ae09:	48 89 c5             	mov    %rax,%rbp
    ae0c:	e9 b8 7b ff ff       	jmp    29c9 <_Z12writeVTKFileRKNSt7__cxx1112basic_stringIcSt11char_traitsIcESaIcEEERKSt6vectorIS7_IdSaIdEESaIS9_EESD_SD_dd.cold+0xa>
    ae11:	f3 0f 1e fa          	endbr64 
    ae15:	48 89 c7             	mov    %rax,%rdi
    ae18:	e9 f9 7b ff ff       	jmp    2a16 <_Z12writeVTKFileRKNSt7__cxx1112basic_stringIcSt11char_traitsIcESaIcEEERKSt6vectorIS7_IdSaIdEESaIS9_EESD_SD_dd.cold+0x57>
    ae1d:	f3 0f 1e fa          	endbr64 
    ae21:	48 89 c5             	mov    %rax,%rbp
    ae24:	e9 dd 7b ff ff       	jmp    2a06 <_Z12writeVTKFileRKNSt7__cxx1112basic_stringIcSt11char_traitsIcESaIcEEERKSt6vectorIS7_IdSaIdEESaIS9_EESD_SD_dd.cold+0x47>
    ae29:	f3 0f 1e fa          	endbr64 
    ae2d:	48 89 c5             	mov    %rax,%rbp
    ae30:	e9 b0 7b ff ff       	jmp    29e5 <_Z12writeVTKFileRKNSt7__cxx1112basic_stringIcSt11char_traitsIcESaIcEEERKSt6vectorIS7_IdSaIdEESaIS9_EESD_SD_dd.cold+0x26>

Disassembly of section .fini:

000000000000ae38 <_fini>:
    ae38:	f3 0f 1e fa          	endbr64 
    ae3c:	48 83 ec 08          	sub    $0x8,%rsp
    ae40:	48 83 c4 08          	add    $0x8,%rsp
    ae44:	c3                   	ret    
