
cubyboxy:     file format elf64-x86-64


Disassembly of section .init:

0000000000002000 <_init>:
    2000:	f3 0f 1e fa          	endbr64 
    2004:	48 83 ec 08          	sub    $0x8,%rsp
    2008:	48 8b 05 d9 8f 00 00 	mov    0x8fd9(%rip),%rax        # afe8 <__gmon_start__@Base>
    200f:	48 85 c0             	test   %rax,%rax
    2012:	74 02                	je     2016 <_init+0x16>
    2014:	ff d0                	call   *%rax
    2016:	48 83 c4 08          	add    $0x8,%rsp
    201a:	c3                   	ret    

Disassembly of section .plt:

0000000000002020 <.plt>:
    2020:	ff 35 ba 8e 00 00    	push   0x8eba(%rip)        # aee0 <_GLOBAL_OFFSET_TABLE_+0x8>
    2026:	f2 ff 25 bb 8e 00 00 	bnd jmp *0x8ebb(%rip)        # aee8 <_GLOBAL_OFFSET_TABLE_+0x10>
    202d:	0f 1f 00             	nopl   (%rax)
    2030:	f3 0f 1e fa          	endbr64 
    2034:	68 00 00 00 00       	push   $0x0
    2039:	f2 e9 e1 ff ff ff    	bnd jmp 2020 <_init+0x20>
    203f:	90                   	nop
    2040:	f3 0f 1e fa          	endbr64 
    2044:	68 01 00 00 00       	push   $0x1
    2049:	f2 e9 d1 ff ff ff    	bnd jmp 2020 <_init+0x20>
    204f:	90                   	nop
    2050:	f3 0f 1e fa          	endbr64 
    2054:	68 02 00 00 00       	push   $0x2
    2059:	f2 e9 c1 ff ff ff    	bnd jmp 2020 <_init+0x20>
    205f:	90                   	nop
    2060:	f3 0f 1e fa          	endbr64 
    2064:	68 03 00 00 00       	push   $0x3
    2069:	f2 e9 b1 ff ff ff    	bnd jmp 2020 <_init+0x20>
    206f:	90                   	nop
    2070:	f3 0f 1e fa          	endbr64 
    2074:	68 04 00 00 00       	push   $0x4
    2079:	f2 e9 a1 ff ff ff    	bnd jmp 2020 <_init+0x20>
    207f:	90                   	nop
    2080:	f3 0f 1e fa          	endbr64 
    2084:	68 05 00 00 00       	push   $0x5
    2089:	f2 e9 91 ff ff ff    	bnd jmp 2020 <_init+0x20>
    208f:	90                   	nop
    2090:	f3 0f 1e fa          	endbr64 
    2094:	68 06 00 00 00       	push   $0x6
    2099:	f2 e9 81 ff ff ff    	bnd jmp 2020 <_init+0x20>
    209f:	90                   	nop
    20a0:	f3 0f 1e fa          	endbr64 
    20a4:	68 07 00 00 00       	push   $0x7
    20a9:	f2 e9 71 ff ff ff    	bnd jmp 2020 <_init+0x20>
    20af:	90                   	nop
    20b0:	f3 0f 1e fa          	endbr64 
    20b4:	68 08 00 00 00       	push   $0x8
    20b9:	f2 e9 61 ff ff ff    	bnd jmp 2020 <_init+0x20>
    20bf:	90                   	nop
    20c0:	f3 0f 1e fa          	endbr64 
    20c4:	68 09 00 00 00       	push   $0x9
    20c9:	f2 e9 51 ff ff ff    	bnd jmp 2020 <_init+0x20>
    20cf:	90                   	nop
    20d0:	f3 0f 1e fa          	endbr64 
    20d4:	68 0a 00 00 00       	push   $0xa
    20d9:	f2 e9 41 ff ff ff    	bnd jmp 2020 <_init+0x20>
    20df:	90                   	nop
    20e0:	f3 0f 1e fa          	endbr64 
    20e4:	68 0b 00 00 00       	push   $0xb
    20e9:	f2 e9 31 ff ff ff    	bnd jmp 2020 <_init+0x20>
    20ef:	90                   	nop
    20f0:	f3 0f 1e fa          	endbr64 
    20f4:	68 0c 00 00 00       	push   $0xc
    20f9:	f2 e9 21 ff ff ff    	bnd jmp 2020 <_init+0x20>
    20ff:	90                   	nop
    2100:	f3 0f 1e fa          	endbr64 
    2104:	68 0d 00 00 00       	push   $0xd
    2109:	f2 e9 11 ff ff ff    	bnd jmp 2020 <_init+0x20>
    210f:	90                   	nop
    2110:	f3 0f 1e fa          	endbr64 
    2114:	68 0e 00 00 00       	push   $0xe
    2119:	f2 e9 01 ff ff ff    	bnd jmp 2020 <_init+0x20>
    211f:	90                   	nop
    2120:	f3 0f 1e fa          	endbr64 
    2124:	68 0f 00 00 00       	push   $0xf
    2129:	f2 e9 f1 fe ff ff    	bnd jmp 2020 <_init+0x20>
    212f:	90                   	nop
    2130:	f3 0f 1e fa          	endbr64 
    2134:	68 10 00 00 00       	push   $0x10
    2139:	f2 e9 e1 fe ff ff    	bnd jmp 2020 <_init+0x20>
    213f:	90                   	nop
    2140:	f3 0f 1e fa          	endbr64 
    2144:	68 11 00 00 00       	push   $0x11
    2149:	f2 e9 d1 fe ff ff    	bnd jmp 2020 <_init+0x20>
    214f:	90                   	nop
    2150:	f3 0f 1e fa          	endbr64 
    2154:	68 12 00 00 00       	push   $0x12
    2159:	f2 e9 c1 fe ff ff    	bnd jmp 2020 <_init+0x20>
    215f:	90                   	nop
    2160:	f3 0f 1e fa          	endbr64 
    2164:	68 13 00 00 00       	push   $0x13
    2169:	f2 e9 b1 fe ff ff    	bnd jmp 2020 <_init+0x20>
    216f:	90                   	nop
    2170:	f3 0f 1e fa          	endbr64 
    2174:	68 14 00 00 00       	push   $0x14
    2179:	f2 e9 a1 fe ff ff    	bnd jmp 2020 <_init+0x20>
    217f:	90                   	nop
    2180:	f3 0f 1e fa          	endbr64 
    2184:	68 15 00 00 00       	push   $0x15
    2189:	f2 e9 91 fe ff ff    	bnd jmp 2020 <_init+0x20>
    218f:	90                   	nop
    2190:	f3 0f 1e fa          	endbr64 
    2194:	68 16 00 00 00       	push   $0x16
    2199:	f2 e9 81 fe ff ff    	bnd jmp 2020 <_init+0x20>
    219f:	90                   	nop
    21a0:	f3 0f 1e fa          	endbr64 
    21a4:	68 17 00 00 00       	push   $0x17
    21a9:	f2 e9 71 fe ff ff    	bnd jmp 2020 <_init+0x20>
    21af:	90                   	nop
    21b0:	f3 0f 1e fa          	endbr64 
    21b4:	68 18 00 00 00       	push   $0x18
    21b9:	f2 e9 61 fe ff ff    	bnd jmp 2020 <_init+0x20>
    21bf:	90                   	nop
    21c0:	f3 0f 1e fa          	endbr64 
    21c4:	68 19 00 00 00       	push   $0x19
    21c9:	f2 e9 51 fe ff ff    	bnd jmp 2020 <_init+0x20>
    21cf:	90                   	nop
    21d0:	f3 0f 1e fa          	endbr64 
    21d4:	68 1a 00 00 00       	push   $0x1a
    21d9:	f2 e9 41 fe ff ff    	bnd jmp 2020 <_init+0x20>
    21df:	90                   	nop
    21e0:	f3 0f 1e fa          	endbr64 
    21e4:	68 1b 00 00 00       	push   $0x1b
    21e9:	f2 e9 31 fe ff ff    	bnd jmp 2020 <_init+0x20>
    21ef:	90                   	nop

Disassembly of section .plt.got:

00000000000021f0 <__cxa_finalize@plt>:
    21f0:	f3 0f 1e fa          	endbr64 
    21f4:	f2 ff 25 d5 8d 00 00 	bnd jmp *0x8dd5(%rip)        # afd0 <__cxa_finalize@GLIBC_2.2.5>
    21fb:	0f 1f 44 00 00       	nopl   0x0(%rax,%rax,1)

Disassembly of section .plt.sec:

0000000000002200 <_Znam@plt>:
    2200:	f3 0f 1e fa          	endbr64 
    2204:	f2 ff 25 e5 8c 00 00 	bnd jmp *0x8ce5(%rip)        # aef0 <_Znam@GLIBCXX_3.4>
    220b:	0f 1f 44 00 00       	nopl   0x0(%rax,%rax,1)

0000000000002210 <_ZNSo3putEc@plt>:
    2210:	f3 0f 1e fa          	endbr64 
    2214:	f2 ff 25 dd 8c 00 00 	bnd jmp *0x8cdd(%rip)        # aef8 <_ZNSo3putEc@GLIBCXX_3.4>
    221b:	0f 1f 44 00 00       	nopl   0x0(%rax,%rax,1)

0000000000002220 <_ZSt20__throw_length_errorPKc@plt>:
    2220:	f3 0f 1e fa          	endbr64 
    2224:	f2 ff 25 d5 8c 00 00 	bnd jmp *0x8cd5(%rip)        # af00 <_ZSt20__throw_length_errorPKc@GLIBCXX_3.4>
    222b:	0f 1f 44 00 00       	nopl   0x0(%rax,%rax,1)

0000000000002230 <sincos@plt>:
    2230:	f3 0f 1e fa          	endbr64 
    2234:	f2 ff 25 cd 8c 00 00 	bnd jmp *0x8ccd(%rip)        # af08 <sincos@GLIBC_2.2.5>
    223b:	0f 1f 44 00 00       	nopl   0x0(%rax,%rax,1)

0000000000002240 <_ZNSirsERi@plt>:
    2240:	f3 0f 1e fa          	endbr64 
    2244:	f2 ff 25 c5 8c 00 00 	bnd jmp *0x8cc5(%rip)        # af10 <_ZNSirsERi@GLIBCXX_3.4>
    224b:	0f 1f 44 00 00       	nopl   0x0(%rax,%rax,1)

0000000000002250 <__assert_fail@plt>:
    2250:	f3 0f 1e fa          	endbr64 
    2254:	f2 ff 25 bd 8c 00 00 	bnd jmp *0x8cbd(%rip)        # af18 <__assert_fail@GLIBC_2.2.5>
    225b:	0f 1f 44 00 00       	nopl   0x0(%rax,%rax,1)

0000000000002260 <_ZNSi10_M_extractIdEERSiRT_@plt>:
    2260:	f3 0f 1e fa          	endbr64 
    2264:	f2 ff 25 b5 8c 00 00 	bnd jmp *0x8cb5(%rip)        # af20 <_ZNSi10_M_extractIdEERSiRT_@GLIBCXX_3.4.9>
    226b:	0f 1f 44 00 00       	nopl   0x0(%rax,%rax,1)

0000000000002270 <_ZNSo9_M_insertImEERSoT_@plt>:
    2270:	f3 0f 1e fa          	endbr64 
    2274:	f2 ff 25 ad 8c 00 00 	bnd jmp *0x8cad(%rip)        # af28 <_ZNSo9_M_insertImEERSoT_@GLIBCXX_3.4.9>
    227b:	0f 1f 44 00 00       	nopl   0x0(%rax,%rax,1)

0000000000002280 <_ZNSo5flushEv@plt>:
    2280:	f3 0f 1e fa          	endbr64 
    2284:	f2 ff 25 a5 8c 00 00 	bnd jmp *0x8ca5(%rip)        # af30 <_ZNSo5flushEv@GLIBCXX_3.4>
    228b:	0f 1f 44 00 00       	nopl   0x0(%rax,%rax,1)

0000000000002290 <sqrt@plt>:
    2290:	f3 0f 1e fa          	endbr64 
    2294:	f2 ff 25 9d 8c 00 00 	bnd jmp *0x8c9d(%rip)        # af38 <sqrt@GLIBC_2.2.5>
    229b:	0f 1f 44 00 00       	nopl   0x0(%rax,%rax,1)

00000000000022a0 <memcpy@plt>:
    22a0:	f3 0f 1e fa          	endbr64 
    22a4:	f2 ff 25 95 8c 00 00 	bnd jmp *0x8c95(%rip)        # af40 <memcpy@GLIBC_2.14>
    22ab:	0f 1f 44 00 00       	nopl   0x0(%rax,%rax,1)

00000000000022b0 <atan@plt>:
    22b0:	f3 0f 1e fa          	endbr64 
    22b4:	f2 ff 25 8d 8c 00 00 	bnd jmp *0x8c8d(%rip)        # af48 <atan@GLIBC_2.2.5>
    22bb:	0f 1f 44 00 00       	nopl   0x0(%rax,%rax,1)

00000000000022c0 <__cxa_atexit@plt>:
    22c0:	f3 0f 1e fa          	endbr64 
    22c4:	f2 ff 25 85 8c 00 00 	bnd jmp *0x8c85(%rip)        # af50 <__cxa_atexit@GLIBC_2.2.5>
    22cb:	0f 1f 44 00 00       	nopl   0x0(%rax,%rax,1)

00000000000022d0 <acos@plt>:
    22d0:	f3 0f 1e fa          	endbr64 
    22d4:	f2 ff 25 7d 8c 00 00 	bnd jmp *0x8c7d(%rip)        # af58 <acos@GLIBC_2.2.5>
    22db:	0f 1f 44 00 00       	nopl   0x0(%rax,%rax,1)

00000000000022e0 <_Znwm@plt>:
    22e0:	f3 0f 1e fa          	endbr64 
    22e4:	f2 ff 25 75 8c 00 00 	bnd jmp *0x8c75(%rip)        # af60 <_Znwm@GLIBCXX_3.4>
    22eb:	0f 1f 44 00 00       	nopl   0x0(%rax,%rax,1)

00000000000022f0 <_ZdlPvm@plt>:
    22f0:	f3 0f 1e fa          	endbr64 
    22f4:	f2 ff 25 6d 8c 00 00 	bnd jmp *0x8c6d(%rip)        # af68 <_ZdlPvm@CXXABI_1.3.9>
    22fb:	0f 1f 44 00 00       	nopl   0x0(%rax,%rax,1)

0000000000002300 <__stack_chk_fail@plt>:
    2300:	f3 0f 1e fa          	endbr64 
    2304:	f2 ff 25 65 8c 00 00 	bnd jmp *0x8c65(%rip)        # af70 <__stack_chk_fail@GLIBC_2.4>
    230b:	0f 1f 44 00 00       	nopl   0x0(%rax,%rax,1)

0000000000002310 <sincosl@plt>:
    2310:	f3 0f 1e fa          	endbr64 
    2314:	f2 ff 25 5d 8c 00 00 	bnd jmp *0x8c5d(%rip)        # af78 <sincosl@GLIBC_2.2.5>
    231b:	0f 1f 44 00 00       	nopl   0x0(%rax,%rax,1)

0000000000002320 <_ZSt16__ostream_insertIcSt11char_traitsIcEERSt13basic_ostreamIT_T0_ES6_PKS3_l@plt>:
    2320:	f3 0f 1e fa          	endbr64 
    2324:	f2 ff 25 55 8c 00 00 	bnd jmp *0x8c55(%rip)        # af80 <_ZSt16__ostream_insertIcSt11char_traitsIcEERSt13basic_ostreamIT_T0_ES6_PKS3_l@GLIBCXX_3.4.9>
    232b:	0f 1f 44 00 00       	nopl   0x0(%rax,%rax,1)

0000000000002330 <_ZNKSt5ctypeIcE13_M_widen_initEv@plt>:
    2330:	f3 0f 1e fa          	endbr64 
    2334:	f2 ff 25 4d 8c 00 00 	bnd jmp *0x8c4d(%rip)        # af88 <_ZNKSt5ctypeIcE13_M_widen_initEv@GLIBCXX_3.4.11>
    233b:	0f 1f 44 00 00       	nopl   0x0(%rax,%rax,1)

0000000000002340 <cosl@plt>:
    2340:	f3 0f 1e fa          	endbr64 
    2344:	f2 ff 25 45 8c 00 00 	bnd jmp *0x8c45(%rip)        # af90 <cosl@GLIBC_2.2.5>
    234b:	0f 1f 44 00 00       	nopl   0x0(%rax,%rax,1)

0000000000002350 <_ZNSi10_M_extractIeEERSiRT_@plt>:
    2350:	f3 0f 1e fa          	endbr64 
    2354:	f2 ff 25 3d 8c 00 00 	bnd jmp *0x8c3d(%rip)        # af98 <_ZNSi10_M_extractIeEERSiRT_@GLIBCXX_3.4.9>
    235b:	0f 1f 44 00 00       	nopl   0x0(%rax,%rax,1)

0000000000002360 <_ZSt16__throw_bad_castv@plt>:
    2360:	f3 0f 1e fa          	endbr64 
    2364:	f2 ff 25 35 8c 00 00 	bnd jmp *0x8c35(%rip)        # afa0 <_ZSt16__throw_bad_castv@GLIBCXX_3.4>
    236b:	0f 1f 44 00 00       	nopl   0x0(%rax,%rax,1)

0000000000002370 <__cxa_throw_bad_array_new_length@plt>:
    2370:	f3 0f 1e fa          	endbr64 
    2374:	f2 ff 25 2d 8c 00 00 	bnd jmp *0x8c2d(%rip)        # afa8 <__cxa_throw_bad_array_new_length@CXXABI_1.3.8>
    237b:	0f 1f 44 00 00       	nopl   0x0(%rax,%rax,1)

0000000000002380 <_ZNSt8ios_base4InitC1Ev@plt>:
    2380:	f3 0f 1e fa          	endbr64 
    2384:	f2 ff 25 25 8c 00 00 	bnd jmp *0x8c25(%rip)        # afb0 <_ZNSt8ios_base4InitC1Ev@GLIBCXX_3.4>
    238b:	0f 1f 44 00 00       	nopl   0x0(%rax,%rax,1)

0000000000002390 <_ZNSo9_M_insertIdEERSoT_@plt>:
    2390:	f3 0f 1e fa          	endbr64 
    2394:	f2 ff 25 1d 8c 00 00 	bnd jmp *0x8c1d(%rip)        # afb8 <_ZNSo9_M_insertIdEERSoT_@GLIBCXX_3.4.9>
    239b:	0f 1f 44 00 00       	nopl   0x0(%rax,%rax,1)

00000000000023a0 <memmove@plt>:
    23a0:	f3 0f 1e fa          	endbr64 
    23a4:	f2 ff 25 15 8c 00 00 	bnd jmp *0x8c15(%rip)        # afc0 <memmove@GLIBC_2.2.5>
    23ab:	0f 1f 44 00 00       	nopl   0x0(%rax,%rax,1)

00000000000023b0 <_Unwind_Resume@plt>:
    23b0:	f3 0f 1e fa          	endbr64 
    23b4:	f2 ff 25 0d 8c 00 00 	bnd jmp *0x8c0d(%rip)        # afc8 <_Unwind_Resume@GCC_3.0>
    23bb:	0f 1f 44 00 00       	nopl   0x0(%rax,%rax,1)

Disassembly of section .text:

00000000000023c0 <_Z7blearghv.cold>:
    23c0:	48 8b bd 40 ff ff ff 	mov    -0xc0(%rbp),%rdi
    23c7:	48 8b b5 50 ff ff ff 	mov    -0xb0(%rbp),%rsi
    23ce:	48 29 fe             	sub    %rdi,%rsi
    23d1:	48 85 ff             	test   %rdi,%rdi
    23d4:	74 05                	je     23db <_Z7blearghv.cold+0x1b>
    23d6:	e8 15 ff ff ff       	call   22f0 <_ZdlPvm@plt>
    23db:	48 89 df             	mov    %rbx,%rdi
    23de:	e8 cd ff ff ff       	call   23b0 <_Unwind_Resume@plt>

00000000000023e3 <main.cold>:
    23e3:	48 8b bd 70 ff ff ff 	mov    -0x90(%rbp),%rdi
    23ea:	48 8b 75 80          	mov    -0x80(%rbp),%rsi
    23ee:	48 29 fe             	sub    %rdi,%rsi
    23f1:	48 85 ff             	test   %rdi,%rdi
    23f4:	74 05                	je     23fb <main.cold+0x18>
    23f6:	e8 f5 fe ff ff       	call   22f0 <_ZdlPvm@plt>
    23fb:	48 89 df             	mov    %rbx,%rdi
    23fe:	e8 ad ff ff ff       	call   23b0 <_Unwind_Resume@plt>

0000000000002403 <_Z10allocate3djjj.cold>:
    2403:	e8 68 ff ff ff       	call   2370 <__cxa_throw_bad_array_new_length@plt>

0000000000002408 <_Z11allocate3dtjjj.cold>:
    2408:	e8 63 ff ff ff       	call   2370 <__cxa_throw_bad_array_new_length@plt>
    240d:	0f 1f 00             	nopl   (%rax)

0000000000002410 <main>:
    2410:	f3 0f 1e fa          	endbr64 
    2414:	55                   	push   %rbp
    2415:	31 f6                	xor    %esi,%esi
    2417:	bf 50 00 00 00       	mov    $0x50,%edi
    241c:	48 89 e5             	mov    %rsp,%rbp
    241f:	41 57                	push   %r15
    2421:	41 56                	push   %r14
    2423:	41 55                	push   %r13
    2425:	41 54                	push   %r12
    2427:	53                   	push   %rbx
    2428:	48 81 ec e8 00 00 00 	sub    $0xe8,%rsp
    242f:	f2 0f 10 05 41 60 00 	movsd  0x6041(%rip),%xmm0        # 8478 <_IO_stdin_used+0x478>
    2436:	00 
    2437:	64 48 8b 04 25 28 00 	mov    %fs:0x28,%rax
    243e:	00 00 
    2440:	48 89 45 c8          	mov    %rax,-0x38(%rbp)
    2444:	31 c0                	xor    %eax,%eax
    2446:	e8 f5 37 00 00       	call   5c40 <_Z13compute_cubesdjPPe>
    244b:	66 0f ef c0          	pxor   %xmm0,%xmm0
    244f:	48 c7 45 80 00 00 00 	movq   $0x0,-0x80(%rbp)
    2456:	00 
    2457:	48 89 85 60 ff ff ff 	mov    %rax,-0xa0(%rbp)
    245e:	48 8b 05 0b 60 00 00 	mov    0x600b(%rip),%rax        # 8470 <_IO_stdin_used+0x470>
    2465:	0f 29 85 70 ff ff ff 	movaps %xmm0,-0x90(%rbp)
    246c:	66 48 0f 6e c0       	movq   %rax,%xmm0
    2471:	e8 4a 08 00 00       	call   2cc0 <_Z18compute_spheremeshdjj.constprop.0>
    2476:	c7 85 f4 fe ff ff 19 	movl   $0x19,-0x10c(%rbp)
    247d:	00 00 00 
    2480:	49 89 c4             	mov    %rax,%r12
    2483:	48 8b 05 e6 5f 00 00 	mov    0x5fe6(%rip),%rax        # 8470 <_IO_stdin_used+0x470>
    248a:	48 89 85 68 ff ff ff 	mov    %rax,-0x98(%rbp)
    2491:	0f 1f 80 00 00 00 00 	nopl   0x0(%rax)
    2498:	31 db                	xor    %ebx,%ebx
    249a:	eb 30                	jmp    24cc <main+0xbc>
    249c:	0f 1f 40 00          	nopl   0x0(%rax)
    24a0:	89 1e                	mov    %ebx,(%rsi)
    24a2:	48 83 c6 04          	add    $0x4,%rsi
    24a6:	48 89 b5 78 ff ff ff 	mov    %rsi,-0x88(%rbp)
    24ad:	48 83 c3 01          	add    $0x1,%rbx
    24b1:	66 0f ef c0          	pxor   %xmm0,%xmm0
    24b5:	f2 0f 10 2d cb 5f 00 	movsd  0x5fcb(%rip),%xmm5        # 8488 <_IO_stdin_used+0x488>
    24bc:	00 
    24bd:	f2 48 0f 2a c3       	cvtsi2sd %rbx,%xmm0
    24c2:	66 0f 2f e8          	comisd %xmm0,%xmm5
    24c6:	0f 86 c4 00 00 00    	jbe    2590 <main+0x180>
    24cc:	48 8b 85 60 ff ff ff 	mov    -0xa0(%rbp),%rax
    24d3:	66 0f ef e4          	pxor   %xmm4,%xmm4
    24d7:	48 8b 04 d8          	mov    (%rax,%rbx,8),%rax
    24db:	db 68 20             	fldt   0x20(%rax)
    24de:	dd 9d 58 ff ff ff    	fstpl  -0xa8(%rbp)
    24e4:	db 68 10             	fldt   0x10(%rax)
    24e7:	f2 0f 10 85 58 ff ff 	movsd  -0xa8(%rbp),%xmm0
    24ee:	ff 
    24ef:	f2 0f 59 c0          	mulsd  %xmm0,%xmm0
    24f3:	dd 9d 58 ff ff ff    	fstpl  -0xa8(%rbp)
    24f9:	db 28                	fldt   (%rax)
    24fb:	f2 0f 10 95 58 ff ff 	movsd  -0xa8(%rbp),%xmm2
    2502:	ff 
    2503:	f2 0f 59 d2          	mulsd  %xmm2,%xmm2
    2507:	dd 9d 58 ff ff ff    	fstpl  -0xa8(%rbp)
    250d:	f2 0f 10 8d 58 ff ff 	movsd  -0xa8(%rbp),%xmm1
    2514:	ff 
    2515:	f2 0f 59 c9          	mulsd  %xmm1,%xmm1
    2519:	f2 0f 58 ca          	addsd  %xmm2,%xmm1
    251d:	f2 0f 58 c8          	addsd  %xmm0,%xmm1
    2521:	66 0f 2e e1          	ucomisd %xmm1,%xmm4
    2525:	0f 87 98 05 00 00    	ja     2ac3 <main+0x6b3>
    252b:	f2 0f 51 c9          	sqrtsd %xmm1,%xmm1
    252f:	f2 0f 10 05 49 5f 00 	movsd  0x5f49(%rip),%xmm0        # 8480 <_IO_stdin_used+0x480>
    2536:	00 
    2537:	f2 0f 10 b5 68 ff ff 	movsd  -0x98(%rbp),%xmm6
    253e:	ff 
    253f:	f2 0f 58 c1          	addsd  %xmm1,%xmm0
    2543:	66 0f 2f f0          	comisd %xmm0,%xmm6
    2547:	0f 87 60 ff ff ff    	ja     24ad <main+0x9d>
    254d:	f2 0f 5c 0d 2b 5f 00 	subsd  0x5f2b(%rip),%xmm1        # 8480 <_IO_stdin_used+0x480>
    2554:	00 
    2555:	66 0f 2f 8d 68 ff ff 	comisd -0x98(%rbp),%xmm1
    255c:	ff 
    255d:	0f 87 4a ff ff ff    	ja     24ad <main+0x9d>
    2563:	89 5d b0             	mov    %ebx,-0x50(%rbp)
    2566:	48 8b b5 78 ff ff ff 	mov    -0x88(%rbp),%rsi
    256d:	48 3b 75 80          	cmp    -0x80(%rbp),%rsi
    2571:	0f 85 29 ff ff ff    	jne    24a0 <main+0x90>
    2577:	4c 8d 6d b0          	lea    -0x50(%rbp),%r13
    257b:	48 8d bd 70 ff ff ff 	lea    -0x90(%rbp),%rdi
    2582:	4c 89 ea             	mov    %r13,%rdx
    2585:	e8 86 4a 00 00       	call   7010 <_ZNSt6vectorIiSaIiEE17_M_realloc_insertIJiEEEvN9__gnu_cxx17__normal_iteratorIPiS1_EEDpOT_>
    258a:	e9 1e ff ff ff       	jmp    24ad <main+0x9d>
    258f:	90                   	nop
    2590:	4d 85 e4             	test   %r12,%r12
    2593:	0f 84 6f 05 00 00    	je     2b08 <main+0x6f8>
    2599:	48 8b 85 70 ff ff ff 	mov    -0x90(%rbp),%rax
    25a0:	4c 8b b5 78 ff ff ff 	mov    -0x88(%rbp),%r14
    25a7:	48 89 85 f8 fe ff ff 	mov    %rax,-0x108(%rbp)
    25ae:	4c 39 f0             	cmp    %r14,%rax
    25b1:	0f 84 e1 04 00 00    	je     2a98 <main+0x688>
    25b7:	f2 0f 10 2d 99 5e 00 	movsd  0x5e99(%rip),%xmm5        # 8458 <_IO_stdin_used+0x458>
    25be:	00 
    25bf:	48 89 c3             	mov    %rax,%rbx
    25c2:	48 c7 85 58 ff ff ff 	movq   $0x0,-0xa8(%rbp)
    25c9:	00 00 00 00 
    25cd:	49 89 c5             	mov    %rax,%r13
    25d0:	48 c7 85 30 ff ff ff 	movq   $0x0,-0xd0(%rbp)
    25d7:	00 00 00 00 
    25db:	4c 8d 7d 90          	lea    -0x70(%rbp),%r15
    25df:	48 c7 85 48 ff ff ff 	movq   $0x0,-0xb8(%rbp)
    25e6:	00 00 00 00 
    25ea:	f2 0f 11 ad 50 ff ff 	movsd  %xmm5,-0xb0(%rbp)
    25f1:	ff 
    25f2:	66 0f 1f 44 00 00    	nopw   0x0(%rax,%rax,1)
    25f8:	49 63 45 00          	movslq 0x0(%r13),%rax
    25fc:	48 83 ec 08          	sub    $0x8,%rsp
    2600:	ba e2 04 00 00       	mov    $0x4e2,%edx
    2605:	4c 89 ff             	mov    %r15,%rdi
    2608:	48 8b 8d 60 ff ff ff 	mov    -0xa0(%rbp),%rcx
    260f:	f2 0f 10 85 68 ff ff 	movsd  -0x98(%rbp),%xmm0
    2616:	ff 
    2617:	be e2 04 00 00       	mov    $0x4e2,%esi
    261c:	48 8b 04 c1          	mov    (%rcx,%rax,8),%rax
    2620:	4c 89 e1             	mov    %r12,%rcx
    2623:	db 28                	fldt   (%rax)
    2625:	db 68 10             	fldt   0x10(%rax)
    2628:	db 68 20             	fldt   0x20(%rax)
    262b:	d9 05 83 5e 00 00    	flds   0x5e83(%rip)        # 84b4 <_IO_stdin_used+0x4b4>
    2631:	6a 00                	push   $0x0
    2633:	48 8b 05 56 5e 00 00 	mov    0x5e56(%rip),%rax        # 8490 <_IO_stdin_used+0x490>
    263a:	ff b5 50 ff ff ff    	push   -0xb0(%rbp)
    2640:	6a 00                	push   $0x0
    2642:	d8 c1                	fadd   %st(1),%st
    2644:	66 48 0f 6e f8       	movq   %rax,%xmm7
    2649:	dd 9d 40 ff ff ff    	fstpl  -0xc0(%rbp)
    264f:	d8 25 5f 5e 00 00    	fsubs  0x5e5f(%rip)        # 84b4 <_IO_stdin_used+0x4b4>
    2655:	f2 0f 10 b5 40 ff ff 	movsd  -0xc0(%rbp),%xmm6
    265c:	ff 
    265d:	dd 9d 38 ff ff ff    	fstpl  -0xc8(%rbp)
    2663:	d9 05 4b 5e 00 00    	flds   0x5e4b(%rip)        # 84b4 <_IO_stdin_used+0x4b4>
    2669:	f2 0f 10 ad 38 ff ff 	movsd  -0xc8(%rbp),%xmm5
    2670:	ff 
    2671:	d8 c1                	fadd   %st(1),%st
    2673:	dd 9d 28 ff ff ff    	fstpl  -0xd8(%rbp)
    2679:	d8 25 35 5e 00 00    	fsubs  0x5e35(%rip)        # 84b4 <_IO_stdin_used+0x4b4>
    267f:	f2 0f 10 a5 28 ff ff 	movsd  -0xd8(%rbp),%xmm4
    2686:	ff 
    2687:	dd 9d 20 ff ff ff    	fstpl  -0xe0(%rbp)
    268d:	d9 05 21 5e 00 00    	flds   0x5e21(%rip)        # 84b4 <_IO_stdin_used+0x4b4>
    2693:	f2 0f 10 9d 20 ff ff 	movsd  -0xe0(%rbp),%xmm3
    269a:	ff 
    269b:	d8 c1                	fadd   %st(1),%st
    269d:	dd 9d 18 ff ff ff    	fstpl  -0xe8(%rbp)
    26a3:	d8 25 0b 5e 00 00    	fsubs  0x5e0b(%rip)        # 84b4 <_IO_stdin_used+0x4b4>
    26a9:	f2 0f 10 95 18 ff ff 	movsd  -0xe8(%rbp),%xmm2
    26b0:	ff 
    26b1:	dd 9d 10 ff ff ff    	fstpl  -0xf0(%rbp)
    26b7:	f2 0f 10 8d 10 ff ff 	movsd  -0xf0(%rbp),%xmm1
    26be:	ff 
    26bf:	e8 4c 1e 00 00       	call   4510 <_ZL7torqueldddddddjjPPPedddd>
    26c4:	f2 0f 10 9d 58 ff ff 	movsd  -0xa8(%rbp),%xmm3
    26cb:	ff 
    26cc:	f2 0f 10 a5 30 ff ff 	movsd  -0xd0(%rbp),%xmm4
    26d3:	ff 
    26d4:	49 83 c5 04          	add    $0x4,%r13
    26d8:	48 83 c4 20          	add    $0x20,%rsp
    26dc:	f2 0f 10 ad 48 ff ff 	movsd  -0xb8(%rbp),%xmm5
    26e3:	ff 
    26e4:	f2 0f 58 5d a0       	addsd  -0x60(%rbp),%xmm3
    26e9:	f2 0f 58 65 98       	addsd  -0x68(%rbp),%xmm4
    26ee:	f2 0f 58 6d 90       	addsd  -0x70(%rbp),%xmm5
    26f3:	f2 0f 11 9d 58 ff ff 	movsd  %xmm3,-0xa8(%rbp)
    26fa:	ff 
    26fb:	f2 0f 11 a5 30 ff ff 	movsd  %xmm4,-0xd0(%rbp)
    2702:	ff 
    2703:	f2 0f 11 ad 48 ff ff 	movsd  %xmm5,-0xb8(%rbp)
    270a:	ff 
    270b:	4d 39 ee             	cmp    %r13,%r14
    270e:	0f 85 e4 fe ff ff    	jne    25f8 <main+0x1e8>
    2714:	48 c7 85 40 ff ff ff 	movq   $0x0,-0xc0(%rbp)
    271b:	00 00 00 00 
    271f:	45 31 ff             	xor    %r15d,%r15d
    2722:	4c 8d 6d b0          	lea    -0x50(%rbp),%r13
    2726:	48 c7 85 38 ff ff ff 	movq   $0x0,-0xc8(%rbp)
    272d:	00 00 00 00 
    2731:	0f 1f 80 00 00 00 00 	nopl   0x0(%rax)
    2738:	48 63 03             	movslq (%rbx),%rax
    273b:	48 8b 95 60 ff ff ff 	mov    -0xa0(%rbp),%rdx
    2742:	4c 89 e1             	mov    %r12,%rcx
    2745:	4c 89 ef             	mov    %r13,%rdi
    2748:	48 83 ec 08          	sub    $0x8,%rsp
    274c:	f2 0f 10 85 68 ff ff 	movsd  -0x98(%rbp),%xmm0
    2753:	ff 
    2754:	be e2 04 00 00       	mov    $0x4e2,%esi
    2759:	48 8b 04 c2          	mov    (%rdx,%rax,8),%rax
    275d:	ba e2 04 00 00       	mov    $0x4e2,%edx
    2762:	db 28                	fldt   (%rax)
    2764:	db 68 10             	fldt   0x10(%rax)
    2767:	db 68 20             	fldt   0x20(%rax)
    276a:	d9 05 44 5d 00 00    	flds   0x5d44(%rip)        # 84b4 <_IO_stdin_used+0x4b4>
    2770:	6a 00                	push   $0x0
    2772:	48 8b 05 17 5d 00 00 	mov    0x5d17(%rip),%rax        # 8490 <_IO_stdin_used+0x490>
    2779:	ff b5 50 ff ff ff    	push   -0xb0(%rbp)
    277f:	6a 00                	push   $0x0
    2781:	d8 c1                	fadd   %st(1),%st
    2783:	66 48 0f 6e f8       	movq   %rax,%xmm7
    2788:	dd 9d 28 ff ff ff    	fstpl  -0xd8(%rbp)
    278e:	d8 25 20 5d 00 00    	fsubs  0x5d20(%rip)        # 84b4 <_IO_stdin_used+0x4b4>
    2794:	f2 0f 10 b5 28 ff ff 	movsd  -0xd8(%rbp),%xmm6
    279b:	ff 
    279c:	dd 9d 20 ff ff ff    	fstpl  -0xe0(%rbp)
    27a2:	d9 05 0c 5d 00 00    	flds   0x5d0c(%rip)        # 84b4 <_IO_stdin_used+0x4b4>
    27a8:	f2 0f 10 ad 20 ff ff 	movsd  -0xe0(%rbp),%xmm5
    27af:	ff 
    27b0:	d8 c1                	fadd   %st(1),%st
    27b2:	dd 9d 18 ff ff ff    	fstpl  -0xe8(%rbp)
    27b8:	d8 25 f6 5c 00 00    	fsubs  0x5cf6(%rip)        # 84b4 <_IO_stdin_used+0x4b4>
    27be:	f2 0f 10 a5 18 ff ff 	movsd  -0xe8(%rbp),%xmm4
    27c5:	ff 
    27c6:	dd 9d 10 ff ff ff    	fstpl  -0xf0(%rbp)
    27cc:	d9 05 e2 5c 00 00    	flds   0x5ce2(%rip)        # 84b4 <_IO_stdin_used+0x4b4>
    27d2:	f2 0f 10 9d 10 ff ff 	movsd  -0xf0(%rbp),%xmm3
    27d9:	ff 
    27da:	d8 c1                	fadd   %st(1),%st
    27dc:	dd 9d 08 ff ff ff    	fstpl  -0xf8(%rbp)
    27e2:	d8 25 cc 5c 00 00    	fsubs  0x5ccc(%rip)        # 84b4 <_IO_stdin_used+0x4b4>
    27e8:	f2 0f 10 95 08 ff ff 	movsd  -0xf8(%rbp),%xmm2
    27ef:	ff 
    27f0:	dd 9d 00 ff ff ff    	fstpl  -0x100(%rbp)
    27f6:	f2 0f 10 8d 00 ff ff 	movsd  -0x100(%rbp),%xmm1
    27fd:	ff 
    27fe:	e8 0d 0a 00 00       	call   3210 <_ZL6forceldddddddjjPPPedddd>
    2803:	f2 0f 10 b5 40 ff ff 	movsd  -0xc0(%rbp),%xmm6
    280a:	ff 
    280b:	f2 0f 10 bd 38 ff ff 	movsd  -0xc8(%rbp),%xmm7
    2812:	ff 
    2813:	48 83 c3 04          	add    $0x4,%rbx
    2817:	48 83 c4 20          	add    $0x20,%rsp
    281b:	66 49 0f 6e df       	movq   %r15,%xmm3
    2820:	f2 0f 58 75 c0       	addsd  -0x40(%rbp),%xmm6
    2825:	f2 0f 58 7d b8       	addsd  -0x48(%rbp),%xmm7
    282a:	f2 0f 58 5d b0       	addsd  -0x50(%rbp),%xmm3
    282f:	f2 0f 11 b5 40 ff ff 	movsd  %xmm6,-0xc0(%rbp)
    2836:	ff 
    2837:	f2 0f 11 bd 38 ff ff 	movsd  %xmm7,-0xc8(%rbp)
    283e:	ff 
    283f:	66 49 0f 7e df       	movq   %xmm3,%r15
    2844:	49 39 de             	cmp    %rbx,%r14
    2847:	0f 85 eb fe ff ff    	jne    2738 <main+0x328>
    284d:	48 8b 85 f8 fe ff ff 	mov    -0x108(%rbp),%rax
    2854:	48 89 85 78 ff ff ff 	mov    %rax,-0x88(%rbp)
    285b:	f2 0f 10 85 68 ff ff 	movsd  -0x98(%rbp),%xmm0
    2862:	ff 
    2863:	48 8d 3d d6 87 00 00 	lea    0x87d6(%rip),%rdi        # b040 <_ZSt4cout@GLIBCXX_3.4>
    286a:	e8 21 fb ff ff       	call   2390 <_ZNSo9_M_insertIdEERSoT_@plt>
    286f:	4c 8d 25 1e 5b 00 00 	lea    0x5b1e(%rip),%r12        # 8394 <_IO_stdin_used+0x394>
    2876:	ba 01 00 00 00       	mov    $0x1,%edx
    287b:	48 89 c7             	mov    %rax,%rdi
    287e:	49 89 c5             	mov    %rax,%r13
    2881:	4c 89 e6             	mov    %r12,%rsi
    2884:	e8 97 fa ff ff       	call   2320 <_ZSt16__ostream_insertIcSt11char_traitsIcEERSt13basic_ostreamIT_T0_ES6_PKS3_l@plt>
    2889:	66 49 0f 6e c7       	movq   %r15,%xmm0
    288e:	4c 89 ef             	mov    %r13,%rdi
    2891:	e8 fa fa ff ff       	call   2390 <_ZNSo9_M_insertIdEERSoT_@plt>
    2896:	ba 01 00 00 00       	mov    $0x1,%edx
    289b:	4c 89 e6             	mov    %r12,%rsi
    289e:	48 89 c7             	mov    %rax,%rdi
    28a1:	49 89 c5             	mov    %rax,%r13
    28a4:	e8 77 fa ff ff       	call   2320 <_ZSt16__ostream_insertIcSt11char_traitsIcEERSt13basic_ostreamIT_T0_ES6_PKS3_l@plt>
    28a9:	f2 0f 10 85 38 ff ff 	movsd  -0xc8(%rbp),%xmm0
    28b0:	ff 
    28b1:	4c 89 ef             	mov    %r13,%rdi
    28b4:	e8 d7 fa ff ff       	call   2390 <_ZNSo9_M_insertIdEERSoT_@plt>
    28b9:	ba 01 00 00 00       	mov    $0x1,%edx
    28be:	4c 89 e6             	mov    %r12,%rsi
    28c1:	48 89 c7             	mov    %rax,%rdi
    28c4:	49 89 c5             	mov    %rax,%r13
    28c7:	e8 54 fa ff ff       	call   2320 <_ZSt16__ostream_insertIcSt11char_traitsIcEERSt13basic_ostreamIT_T0_ES6_PKS3_l@plt>
    28cc:	f2 0f 10 85 40 ff ff 	movsd  -0xc0(%rbp),%xmm0
    28d3:	ff 
    28d4:	4c 89 ef             	mov    %r13,%rdi
    28d7:	e8 b4 fa ff ff       	call   2390 <_ZNSo9_M_insertIdEERSoT_@plt>
    28dc:	ba 02 00 00 00       	mov    $0x2,%edx
    28e1:	48 8d 35 ab 5a 00 00 	lea    0x5aab(%rip),%rsi        # 8393 <_IO_stdin_used+0x393>
    28e8:	48 89 c7             	mov    %rax,%rdi
    28eb:	49 89 c5             	mov    %rax,%r13
    28ee:	e8 2d fa ff ff       	call   2320 <_ZSt16__ostream_insertIcSt11char_traitsIcEERSt13basic_ostreamIT_T0_ES6_PKS3_l@plt>
    28f3:	f2 0f 10 85 48 ff ff 	movsd  -0xb8(%rbp),%xmm0
    28fa:	ff 
    28fb:	4c 89 ef             	mov    %r13,%rdi
    28fe:	e8 8d fa ff ff       	call   2390 <_ZNSo9_M_insertIdEERSoT_@plt>
    2903:	ba 01 00 00 00       	mov    $0x1,%edx
    2908:	4c 89 e6             	mov    %r12,%rsi
    290b:	48 89 c7             	mov    %rax,%rdi
    290e:	49 89 c5             	mov    %rax,%r13
    2911:	e8 0a fa ff ff       	call   2320 <_ZSt16__ostream_insertIcSt11char_traitsIcEERSt13basic_ostreamIT_T0_ES6_PKS3_l@plt>
    2916:	f2 0f 10 85 30 ff ff 	movsd  -0xd0(%rbp),%xmm0
    291d:	ff 
    291e:	4c 89 ef             	mov    %r13,%rdi
    2921:	e8 6a fa ff ff       	call   2390 <_ZNSo9_M_insertIdEERSoT_@plt>
    2926:	ba 01 00 00 00       	mov    $0x1,%edx
    292b:	4c 89 e6             	mov    %r12,%rsi
    292e:	48 89 c7             	mov    %rax,%rdi
    2931:	49 89 c5             	mov    %rax,%r13
    2934:	e8 e7 f9 ff ff       	call   2320 <_ZSt16__ostream_insertIcSt11char_traitsIcEERSt13basic_ostreamIT_T0_ES6_PKS3_l@plt>
    2939:	f2 0f 10 85 58 ff ff 	movsd  -0xa8(%rbp),%xmm0
    2940:	ff 
    2941:	4c 89 ef             	mov    %r13,%rdi
    2944:	e8 47 fa ff ff       	call   2390 <_ZNSo9_M_insertIdEERSoT_@plt>
    2949:	ba 01 00 00 00       	mov    $0x1,%edx
    294e:	4c 89 e6             	mov    %r12,%rsi
    2951:	48 89 c7             	mov    %rax,%rdi
    2954:	49 89 c5             	mov    %rax,%r13
    2957:	e8 c4 f9 ff ff       	call   2320 <_ZSt16__ostream_insertIcSt11char_traitsIcEERSt13basic_ostreamIT_T0_ES6_PKS3_l@plt>
    295c:	f2 0f 10 95 68 ff ff 	movsd  -0x98(%rbp),%xmm2
    2963:	ff 
    2964:	66 49 0f 6e cf       	movq   %r15,%xmm1
    2969:	4c 89 ef             	mov    %r13,%rdi
    296c:	f2 0f 10 05 24 5b 00 	movsd  0x5b24(%rip),%xmm0        # 8498 <_IO_stdin_used+0x498>
    2973:	00 
    2974:	f2 0f 10 35 dc 5a 00 	movsd  0x5adc(%rip),%xmm6        # 8458 <_IO_stdin_used+0x458>
    297b:	00 
    297c:	f2 0f 59 c2          	mulsd  %xmm2,%xmm0
    2980:	f2 0f 11 b5 50 ff ff 	movsd  %xmm6,-0xb0(%rbp)
    2987:	ff 
    2988:	f2 0f 59 c2          	mulsd  %xmm2,%xmm0
    298c:	f2 0f 59 c2          	mulsd  %xmm2,%xmm0
    2990:	f2 0f 59 05 08 5b 00 	mulsd  0x5b08(%rip),%xmm0        # 84a0 <_IO_stdin_used+0x4a0>
    2997:	00 
    2998:	66 0f 28 f8          	movapd %xmm0,%xmm7
    299c:	f2 0f 5e 3d 04 5b 00 	divsd  0x5b04(%rip),%xmm7        # 84a8 <_IO_stdin_used+0x4a8>
    29a3:	00 
    29a4:	66 0f 28 c6          	movapd %xmm6,%xmm0
    29a8:	f2 0f 11 bd 48 ff ff 	movsd  %xmm7,-0xb8(%rbp)
    29af:	ff 
    29b0:	f2 0f 5e cf          	divsd  %xmm7,%xmm1
    29b4:	f2 0f 5c c1          	subsd  %xmm1,%xmm0
    29b8:	66 0f 54 05 40 5a 00 	andpd  0x5a40(%rip),%xmm0        # 8400 <_IO_stdin_used+0x400>
    29bf:	00 
    29c0:	f2 0f 59 05 a0 5a 00 	mulsd  0x5aa0(%rip),%xmm0        # 8468 <_IO_stdin_used+0x468>
    29c7:	00 
    29c8:	e8 c3 f9 ff ff       	call   2390 <_ZNSo9_M_insertIdEERSoT_@plt>
    29cd:	ba 01 00 00 00       	mov    $0x1,%edx
    29d2:	4c 89 e6             	mov    %r12,%rsi
    29d5:	48 89 c7             	mov    %rax,%rdi
    29d8:	49 89 c5             	mov    %rax,%r13
    29db:	e8 40 f9 ff ff       	call   2320 <_ZSt16__ostream_insertIcSt11char_traitsIcEERSt13basic_ostreamIT_T0_ES6_PKS3_l@plt>
    29e0:	f2 0f 10 85 50 ff ff 	movsd  -0xb0(%rbp),%xmm0
    29e7:	ff 
    29e8:	f2 0f 10 ad 58 ff ff 	movsd  -0xa8(%rbp),%xmm5
    29ef:	ff 
    29f0:	4c 89 ef             	mov    %r13,%rdi
    29f3:	f2 0f 5e ad 48 ff ff 	divsd  -0xb8(%rbp),%xmm5
    29fa:	ff 
    29fb:	f2 0f 58 c5          	addsd  %xmm5,%xmm0
    29ff:	66 0f 54 05 f9 59 00 	andpd  0x59f9(%rip),%xmm0        # 8400 <_IO_stdin_used+0x400>
    2a06:	00 
    2a07:	f2 0f 59 05 59 5a 00 	mulsd  0x5a59(%rip),%xmm0        # 8468 <_IO_stdin_used+0x468>
    2a0e:	00 
    2a0f:	e8 7c f9 ff ff       	call   2390 <_ZNSo9_M_insertIdEERSoT_@plt>
    2a14:	48 89 c7             	mov    %rax,%rdi
    2a17:	ba 01 00 00 00       	mov    $0x1,%edx
    2a1c:	48 8d 35 73 59 00 00 	lea    0x5973(%rip),%rsi        # 8396 <_IO_stdin_used+0x396>
    2a23:	e8 f8 f8 ff ff       	call   2320 <_ZSt16__ostream_insertIcSt11char_traitsIcEERSt13basic_ostreamIT_T0_ES6_PKS3_l@plt>
    2a28:	f2 0f 10 25 40 5a 00 	movsd  0x5a40(%rip),%xmm4        # 8470 <_IO_stdin_used+0x470>
    2a2f:	00 
    2a30:	f2 0f 58 a5 68 ff ff 	addsd  -0x98(%rbp),%xmm4
    2a37:	ff 
    2a38:	66 0f 28 c4          	movapd %xmm4,%xmm0
    2a3c:	f2 0f 11 a5 68 ff ff 	movsd  %xmm4,-0x98(%rbp)
    2a43:	ff 
    2a44:	e8 77 02 00 00       	call   2cc0 <_Z18compute_spheremeshdjj.constprop.0>
    2a49:	83 ad f4 fe ff ff 01 	subl   $0x1,-0x10c(%rbp)
    2a50:	49 89 c4             	mov    %rax,%r12
    2a53:	0f 85 3f fa ff ff    	jne    2498 <main+0x88>
    2a59:	48 8b bd f8 fe ff ff 	mov    -0x108(%rbp),%rdi
    2a60:	48 85 ff             	test   %rdi,%rdi
    2a63:	74 0c                	je     2a71 <main+0x661>
    2a65:	48 8b 75 80          	mov    -0x80(%rbp),%rsi
    2a69:	48 29 fe             	sub    %rdi,%rsi
    2a6c:	e8 7f f8 ff ff       	call   22f0 <_ZdlPvm@plt>
    2a71:	48 8b 45 c8          	mov    -0x38(%rbp),%rax
    2a75:	64 48 2b 04 25 28 00 	sub    %fs:0x28,%rax
    2a7c:	00 00 
    2a7e:	0f 85 a3 00 00 00    	jne    2b27 <main+0x717>
    2a84:	48 8d 65 d8          	lea    -0x28(%rbp),%rsp
    2a88:	31 c0                	xor    %eax,%eax
    2a8a:	5b                   	pop    %rbx
    2a8b:	41 5c                	pop    %r12
    2a8d:	41 5d                	pop    %r13
    2a8f:	41 5e                	pop    %r14
    2a91:	41 5f                	pop    %r15
    2a93:	5d                   	pop    %rbp
    2a94:	c3                   	ret    
    2a95:	0f 1f 00             	nopl   (%rax)
    2a98:	45 31 ff             	xor    %r15d,%r15d
    2a9b:	4c 89 bd 40 ff ff ff 	mov    %r15,-0xc0(%rbp)
    2aa2:	4c 89 bd 48 ff ff ff 	mov    %r15,-0xb8(%rbp)
    2aa9:	4c 89 bd 58 ff ff ff 	mov    %r15,-0xa8(%rbp)
    2ab0:	4c 89 bd 30 ff ff ff 	mov    %r15,-0xd0(%rbp)
    2ab7:	4c 89 bd 38 ff ff ff 	mov    %r15,-0xc8(%rbp)
    2abe:	e9 98 fd ff ff       	jmp    285b <main+0x44b>
    2ac3:	66 0f 28 c1          	movapd %xmm1,%xmm0
    2ac7:	f2 0f 11 8d 58 ff ff 	movsd  %xmm1,-0xa8(%rbp)
    2ace:	ff 
    2acf:	e8 bc f7 ff ff       	call   2290 <sqrt@plt>
    2ad4:	f2 0f 58 05 a4 59 00 	addsd  0x59a4(%rip),%xmm0        # 8480 <_IO_stdin_used+0x480>
    2adb:	00 
    2adc:	f2 0f 10 95 68 ff ff 	movsd  -0x98(%rbp),%xmm2
    2ae3:	ff 
    2ae4:	f2 0f 10 8d 58 ff ff 	movsd  -0xa8(%rbp),%xmm1
    2aeb:	ff 
    2aec:	66 0f 2f d0          	comisd %xmm0,%xmm2
    2af0:	0f 87 b7 f9 ff ff    	ja     24ad <main+0x9d>
    2af6:	66 0f 28 c1          	movapd %xmm1,%xmm0
    2afa:	e8 91 f7 ff ff       	call   2290 <sqrt@plt>
    2aff:	66 0f 28 c8          	movapd %xmm0,%xmm1
    2b03:	e9 45 fa ff ff       	jmp    254d <main+0x13d>
    2b08:	48 8d 0d 99 55 00 00 	lea    0x5599(%rip),%rcx        # 80a8 <_IO_stdin_used+0xa8>
    2b0f:	ba 7e 01 00 00       	mov    $0x17e,%edx
    2b14:	48 8d 35 f5 57 00 00 	lea    0x57f5(%rip),%rsi        # 8310 <_IO_stdin_used+0x310>
    2b1b:	48 8d 3d fb 57 00 00 	lea    0x57fb(%rip),%rdi        # 831d <_IO_stdin_used+0x31d>
    2b22:	e8 29 f7 ff ff       	call   2250 <__assert_fail@plt>
    2b27:	e8 d4 f7 ff ff       	call   2300 <__stack_chk_fail@plt>
    2b2c:	f3 0f 1e fa          	endbr64 
    2b30:	48 89 c3             	mov    %rax,%rbx
    2b33:	e9 ab f8 ff ff       	jmp    23e3 <main.cold>
    2b38:	0f 1f 84 00 00 00 00 	nopl   0x0(%rax,%rax,1)
    2b3f:	00 

0000000000002b40 <_GLOBAL__sub_I__Z7angleofdd>:
    2b40:	f3 0f 1e fa          	endbr64 
    2b44:	55                   	push   %rbp
    2b45:	48 8d 2d 2d 87 00 00 	lea    0x872d(%rip),%rbp        # b279 <_ZStL8__ioinit>
    2b4c:	48 89 ef             	mov    %rbp,%rdi
    2b4f:	e8 2c f8 ff ff       	call   2380 <_ZNSt8ios_base4InitC1Ev@plt>
    2b54:	48 8b 3d 9d 84 00 00 	mov    0x849d(%rip),%rdi        # aff8 <_ZNSt8ios_base4InitD1Ev@GLIBCXX_3.4>
    2b5b:	48 89 ee             	mov    %rbp,%rsi
    2b5e:	5d                   	pop    %rbp
    2b5f:	48 8d 15 a2 84 00 00 	lea    0x84a2(%rip),%rdx        # b008 <__dso_handle>
    2b66:	e9 55 f7 ff ff       	jmp    22c0 <__cxa_atexit@plt>
    2b6b:	0f 1f 44 00 00       	nopl   0x0(%rax,%rax,1)

0000000000002b70 <_GLOBAL__sub_I__Z10allocate2djjPPe>:
    2b70:	f3 0f 1e fa          	endbr64 
    2b74:	55                   	push   %rbp
    2b75:	48 8d 2d fe 86 00 00 	lea    0x86fe(%rip),%rbp        # b27a <_ZStL8__ioinit>
    2b7c:	48 89 ef             	mov    %rbp,%rdi
    2b7f:	e8 fc f7 ff ff       	call   2380 <_ZNSt8ios_base4InitC1Ev@plt>
    2b84:	48 8b 3d 6d 84 00 00 	mov    0x846d(%rip),%rdi        # aff8 <_ZNSt8ios_base4InitD1Ev@GLIBCXX_3.4>
    2b8b:	48 89 ee             	mov    %rbp,%rsi
    2b8e:	5d                   	pop    %rbp
    2b8f:	48 8d 15 72 84 00 00 	lea    0x8472(%rip),%rdx        # b008 <__dso_handle>
    2b96:	e9 25 f7 ff ff       	jmp    22c0 <__cxa_atexit@plt>
    2b9b:	0f 1f 44 00 00       	nopl   0x0(%rax,%rax,1)

0000000000002ba0 <_GLOBAL__sub_I__Z5shearddd>:
    2ba0:	f3 0f 1e fa          	endbr64 
    2ba4:	55                   	push   %rbp
    2ba5:	48 8d 2d cf 86 00 00 	lea    0x86cf(%rip),%rbp        # b27b <_ZStL8__ioinit>
    2bac:	48 89 ef             	mov    %rbp,%rdi
    2baf:	e8 cc f7 ff ff       	call   2380 <_ZNSt8ios_base4InitC1Ev@plt>
    2bb4:	48 8b 3d 3d 84 00 00 	mov    0x843d(%rip),%rdi        # aff8 <_ZNSt8ios_base4InitD1Ev@GLIBCXX_3.4>
    2bbb:	48 89 ee             	mov    %rbp,%rsi
    2bbe:	5d                   	pop    %rbp
    2bbf:	48 8d 15 42 84 00 00 	lea    0x8442(%rip),%rdx        # b008 <__dso_handle>
    2bc6:	e9 f5 f6 ff ff       	jmp    22c0 <__cxa_atexit@plt>
    2bcb:	0f 1f 44 00 00       	nopl   0x0(%rax,%rax,1)

0000000000002bd0 <_start>:
    2bd0:	f3 0f 1e fa          	endbr64 
    2bd4:	31 ed                	xor    %ebp,%ebp
    2bd6:	49 89 d1             	mov    %rdx,%r9
    2bd9:	5e                   	pop    %rsi
    2bda:	48 89 e2             	mov    %rsp,%rdx
    2bdd:	48 83 e4 f0          	and    $0xfffffffffffffff0,%rsp
    2be1:	50                   	push   %rax
    2be2:	54                   	push   %rsp
    2be3:	45 31 c0             	xor    %r8d,%r8d
    2be6:	31 c9                	xor    %ecx,%ecx
    2be8:	48 8d 3d 21 f8 ff ff 	lea    -0x7df(%rip),%rdi        # 2410 <main>
    2bef:	ff 15 e3 83 00 00    	call   *0x83e3(%rip)        # afd8 <__libc_start_main@GLIBC_2.34>
    2bf5:	f4                   	hlt    
    2bf6:	66 2e 0f 1f 84 00 00 	cs nopw 0x0(%rax,%rax,1)
    2bfd:	00 00 00 

0000000000002c00 <deregister_tm_clones>:
    2c00:	48 8d 3d 11 84 00 00 	lea    0x8411(%rip),%rdi        # b018 <__TMC_END__>
    2c07:	48 8d 05 0a 84 00 00 	lea    0x840a(%rip),%rax        # b018 <__TMC_END__>
    2c0e:	48 39 f8             	cmp    %rdi,%rax
    2c11:	74 15                	je     2c28 <deregister_tm_clones+0x28>
    2c13:	48 8b 05 c6 83 00 00 	mov    0x83c6(%rip),%rax        # afe0 <_ITM_deregisterTMCloneTable@Base>
    2c1a:	48 85 c0             	test   %rax,%rax
    2c1d:	74 09                	je     2c28 <deregister_tm_clones+0x28>
    2c1f:	ff e0                	jmp    *%rax
    2c21:	0f 1f 80 00 00 00 00 	nopl   0x0(%rax)
    2c28:	c3                   	ret    
    2c29:	0f 1f 80 00 00 00 00 	nopl   0x0(%rax)

0000000000002c30 <register_tm_clones>:
    2c30:	48 8d 3d e1 83 00 00 	lea    0x83e1(%rip),%rdi        # b018 <__TMC_END__>
    2c37:	48 8d 35 da 83 00 00 	lea    0x83da(%rip),%rsi        # b018 <__TMC_END__>
    2c3e:	48 29 fe             	sub    %rdi,%rsi
    2c41:	48 89 f0             	mov    %rsi,%rax
    2c44:	48 c1 ee 3f          	shr    $0x3f,%rsi
    2c48:	48 c1 f8 03          	sar    $0x3,%rax
    2c4c:	48 01 c6             	add    %rax,%rsi
    2c4f:	48 d1 fe             	sar    %rsi
    2c52:	74 14                	je     2c68 <register_tm_clones+0x38>
    2c54:	48 8b 05 95 83 00 00 	mov    0x8395(%rip),%rax        # aff0 <_ITM_registerTMCloneTable@Base>
    2c5b:	48 85 c0             	test   %rax,%rax
    2c5e:	74 08                	je     2c68 <register_tm_clones+0x38>
    2c60:	ff e0                	jmp    *%rax
    2c62:	66 0f 1f 44 00 00    	nopw   0x0(%rax,%rax,1)
    2c68:	c3                   	ret    
    2c69:	0f 1f 80 00 00 00 00 	nopl   0x0(%rax)

0000000000002c70 <__do_global_dtors_aux>:
    2c70:	f3 0f 1e fa          	endbr64 
    2c74:	80 3d fd 85 00 00 00 	cmpb   $0x0,0x85fd(%rip)        # b278 <completed.0>
    2c7b:	75 2b                	jne    2ca8 <__do_global_dtors_aux+0x38>
    2c7d:	55                   	push   %rbp
    2c7e:	48 83 3d 4a 83 00 00 	cmpq   $0x0,0x834a(%rip)        # afd0 <__cxa_finalize@GLIBC_2.2.5>
    2c85:	00 
    2c86:	48 89 e5             	mov    %rsp,%rbp
    2c89:	74 0c                	je     2c97 <__do_global_dtors_aux+0x27>
    2c8b:	48 8b 3d 76 83 00 00 	mov    0x8376(%rip),%rdi        # b008 <__dso_handle>
    2c92:	e8 59 f5 ff ff       	call   21f0 <__cxa_finalize@plt>
    2c97:	e8 64 ff ff ff       	call   2c00 <deregister_tm_clones>
    2c9c:	c6 05 d5 85 00 00 01 	movb   $0x1,0x85d5(%rip)        # b278 <completed.0>
    2ca3:	5d                   	pop    %rbp
    2ca4:	c3                   	ret    
    2ca5:	0f 1f 00             	nopl   (%rax)
    2ca8:	c3                   	ret    
    2ca9:	0f 1f 80 00 00 00 00 	nopl   0x0(%rax)

0000000000002cb0 <frame_dummy>:
    2cb0:	f3 0f 1e fa          	endbr64 
    2cb4:	e9 77 ff ff ff       	jmp    2c30 <register_tm_clones>
    2cb9:	0f 1f 80 00 00 00 00 	nopl   0x0(%rax)

0000000000002cc0 <_Z18compute_spheremeshdjj.constprop.0>:
    2cc0:	41 57                	push   %r15
    2cc2:	ba 04 00 00 00       	mov    $0x4,%edx
    2cc7:	be e2 04 00 00       	mov    $0x4e2,%esi
    2ccc:	bf e2 04 00 00       	mov    $0x4e2,%edi
    2cd1:	41 56                	push   %r14
    2cd3:	41 55                	push   %r13
    2cd5:	41 54                	push   %r12
    2cd7:	55                   	push   %rbp
    2cd8:	53                   	push   %rbx
    2cd9:	48 81 ec b8 00 00 00 	sub    $0xb8,%rsp
    2ce0:	f2 0f 11 04 24       	movsd  %xmm0,(%rsp)
    2ce5:	4c 8d a4 24 a8 00 00 	lea    0xa8(%rsp),%r12
    2cec:	00 
    2ced:	48 8d ac 24 a0 00 00 	lea    0xa0(%rsp),%rbp
    2cf4:	00 
    2cf5:	e8 c6 44 00 00       	call   71c0 <_Z10allocate3djjj>
    2cfa:	f2 0f 10 14 24       	movsd  (%rsp),%xmm2
    2cff:	4c 8d bc 24 90 00 00 	lea    0x90(%rsp),%r15
    2d06:	00 
    2d07:	48 89 44 24 78       	mov    %rax,0x78(%rsp)
    2d0c:	49 89 c5             	mov    %rax,%r13
    2d0f:	48 05 10 27 00 00    	add    $0x2710,%rax
    2d15:	66 0f 28 ca          	movapd %xmm2,%xmm1
    2d19:	48 89 44 24 70       	mov    %rax,0x70(%rsp)
    2d1e:	f2 0f 59 ca          	mulsd  %xmm2,%xmm1
    2d22:	f2 0f 11 4c 24 10    	movsd  %xmm1,0x10(%rsp)
    2d28:	dd 44 24 10          	fldl   0x10(%rsp)
    2d2c:	db 7c 24 50          	fstpt  0x50(%rsp)
    2d30:	dd 04 24             	fldl   (%rsp)
    2d33:	db 7c 24 60          	fstpt  0x60(%rsp)
    2d37:	db 2d 83 56 00 00    	fldt   0x5683(%rip)        # 83c0 <_IO_stdin_used+0x3c0>
    2d3d:	d9 e8                	fld1   
    2d3f:	db 2d 8b 56 00 00    	fldt   0x568b(%rip)        # 83d0 <_IO_stdin_used+0x3d0>
    2d45:	db 2d 95 56 00 00    	fldt   0x5695(%rip)        # 83e0 <_IO_stdin_used+0x3e0>
    2d4b:	dd 05 cf 56 00 00    	fldl   0x56cf(%rip)        # 8420 <_IO_stdin_used+0x420>
    2d51:	db 7c 24 40          	fstpt  0x40(%rsp)
    2d55:	0f 1f 00             	nopl   (%rax)
    2d58:	49 8b 5d 00          	mov    0x0(%r13),%rbx
    2d5c:	db 6c 24 60          	fldt   0x60(%rsp)
    2d60:	48 8b 03             	mov    (%rbx),%rax
    2d63:	4c 8d 73 08          	lea    0x8(%rbx),%r14
    2d67:	48 81 c3 10 27 00 00 	add    $0x2710,%rbx
    2d6e:	dc ca                	fmul   %st,%st(2)
    2d70:	d9 ca                	fxch   %st(2)
    2d72:	d9 c0                	fld    %st(0)
    2d74:	db 7c 24 20          	fstpt  0x20(%rsp)
    2d78:	d9 cc                	fxch   %st(4)
    2d7a:	de eb                	fsubrp %st,%st(3)
    2d7c:	db 6c 24 50          	fldt   0x50(%rsp)
    2d80:	de cb                	fmulp  %st,%st(3)
    2d82:	d9 ca                	fxch   %st(2)
    2d84:	dc 0d 9e 56 00 00    	fmull  0x569e(%rip)        # 8428 <_IO_stdin_used+0x428>
    2d8a:	d9 c0                	fld    %st(0)
    2d8c:	db 7c 24 30          	fstpt  0x30(%rsp)
    2d90:	d9 ca                	fxch   %st(2)
    2d92:	de c9                	fmulp  %st,%st(1)
    2d94:	d9 c0                	fld    %st(0)
    2d96:	db 38                	fstpt  (%rax)
    2d98:	d9 ee                	fldz   
    2d9a:	d8 c9                	fmul   %st(1),%st
    2d9c:	db 78 10             	fstpt  0x10(%rax)
    2d9f:	d9 ca                	fxch   %st(2)
    2da1:	db 78 20             	fstpt  0x20(%rax)
    2da4:	db 78 30             	fstpt  0x30(%rax)
    2da7:	48 8b 05 7a 56 00 00 	mov    0x567a(%rip),%rax        # 8428 <_IO_stdin_used+0x428>
    2dae:	66 48 0f 6e c0       	movq   %rax,%xmm0
    2db3:	0f 1f 44 00 00       	nopl   0x0(%rax,%rax,1)
    2db8:	48 89 ee             	mov    %rbp,%rsi
    2dbb:	4c 89 e7             	mov    %r12,%rdi
    2dbe:	db 7c 24 10          	fstpt  0x10(%rsp)
    2dc2:	49 83 c6 08          	add    $0x8,%r14
    2dc6:	f2 0f 11 04 24       	movsd  %xmm0,(%rsp)
    2dcb:	e8 60 f4 ff ff       	call   2230 <sincos@plt>
    2dd0:	dd 84 24 a8 00 00 00 	fldl   0xa8(%rsp)
    2dd7:	db 6c 24 10          	fldt   0x10(%rsp)
    2ddb:	49 8b 46 f8          	mov    -0x8(%r14),%rax
    2ddf:	f2 0f 10 04 24       	movsd  (%rsp),%xmm0
    2de4:	f2 0f 58 05 3c 56 00 	addsd  0x563c(%rip),%xmm0        # 8428 <_IO_stdin_used+0x428>
    2deb:	00 
    2dec:	d9 c0                	fld    %st(0)
    2dee:	dc 8c 24 a0 00 00 00 	fmull  0xa0(%rsp)
    2df5:	db 38                	fstpt  (%rax)
    2df7:	dc c9                	fmul   %st,%st(1)
    2df9:	d9 c9                	fxch   %st(1)
    2dfb:	db 78 10             	fstpt  0x10(%rax)
    2dfe:	db 6c 24 20          	fldt   0x20(%rsp)
    2e02:	db 78 20             	fstpt  0x20(%rax)
    2e05:	db 6c 24 30          	fldt   0x30(%rsp)
    2e09:	db 78 30             	fstpt  0x30(%rax)
    2e0c:	49 39 de             	cmp    %rbx,%r14
    2e0f:	75 a7                	jne    2db8 <_Z18compute_spheremeshdjj.constprop.0+0xf8>
    2e11:	dd d8                	fstp   %st(0)
    2e13:	db 6c 24 40          	fldt   0x40(%rsp)
    2e17:	dc 05 13 56 00 00    	faddl  0x5613(%rip)        # 8430 <_IO_stdin_used+0x430>
    2e1d:	49 83 c5 08          	add    $0x8,%r13
    2e21:	4c 39 6c 24 70       	cmp    %r13,0x70(%rsp)
    2e26:	74 78                	je     2ea0 <_Z18compute_spheremeshdjj.constprop.0+0x1e0>
    2e28:	d9 c0                	fld    %st(0)
    2e2a:	db 7c 24 40          	fstpt  0x40(%rsp)
    2e2e:	48 8d b4 24 80 00 00 	lea    0x80(%rsp),%rsi
    2e35:	00 
    2e36:	4c 89 ff             	mov    %r15,%rdi
    2e39:	48 83 ec 10          	sub    $0x10,%rsp
    2e3d:	db 3c 24             	fstpt  (%rsp)
    2e40:	e8 cb f4 ff ff       	call   2310 <sincosl@plt>
    2e45:	db ac 24 90 00 00 00 	fldt   0x90(%rsp)
    2e4c:	48 83 ec 10          	sub    $0x10,%rsp
    2e50:	db 7c 24 40          	fstpt  0x40(%rsp)
    2e54:	db ac 24 b0 00 00 00 	fldt   0xb0(%rsp)
    2e5b:	db 7c 24 30          	fstpt  0x30(%rsp)
    2e5f:	db 6c 24 60          	fldt   0x60(%rsp)
    2e63:	dc 25 b7 55 00 00    	fsubl  0x55b7(%rip)        # 8420 <_IO_stdin_used+0x420>
    2e69:	db 3c 24             	fstpt  (%rsp)
    2e6c:	e8 cf f4 ff ff       	call   2340 <cosl@plt>
    2e71:	db 7c 24 20          	fstpt  0x20(%rsp)
    2e75:	dd 05 a5 55 00 00    	fldl   0x55a5(%rip)        # 8420 <_IO_stdin_used+0x420>
    2e7b:	db 6c 24 60          	fldt   0x60(%rsp)
    2e7f:	de c1                	faddp  %st,%st(1)
    2e81:	db 3c 24             	fstpt  (%rsp)
    2e84:	e8 b7 f4 ff ff       	call   2340 <cosl@plt>
    2e89:	db 6c 24 20          	fldt   0x20(%rsp)
    2e8d:	48 83 c4 20          	add    $0x20,%rsp
    2e91:	db 6c 24 20          	fldt   0x20(%rsp)
    2e95:	db 6c 24 10          	fldt   0x10(%rsp)
    2e99:	e9 ba fe ff ff       	jmp    2d58 <_Z18compute_spheremeshdjj.constprop.0+0x98>
    2e9e:	66 90                	xchg   %ax,%ax
    2ea0:	dd d8                	fstp   %st(0)
    2ea2:	48 8b 44 24 78       	mov    0x78(%rsp),%rax
    2ea7:	48 81 c4 b8 00 00 00 	add    $0xb8,%rsp
    2eae:	5b                   	pop    %rbx
    2eaf:	5d                   	pop    %rbp
    2eb0:	41 5c                	pop    %r12
    2eb2:	41 5d                	pop    %r13
    2eb4:	41 5e                	pop    %r14
    2eb6:	41 5f                	pop    %r15
    2eb8:	c3                   	ret    
    2eb9:	0f 1f 80 00 00 00 00 	nopl   0x0(%rax)

0000000000002ec0 <_ZSt13__adjust_heapIPeleN9__gnu_cxx5__ops15_Iter_less_iterEEvT_T0_S5_T1_T2_.isra.0>:
    2ec0:	48 8d 42 ff          	lea    -0x1(%rdx),%rax
    2ec4:	49 89 d3             	mov    %rdx,%r11
    2ec7:	48 89 f9             	mov    %rdi,%rcx
    2eca:	49 89 d2             	mov    %rdx,%r10
    2ecd:	db 6c 24 08          	fldt   0x8(%rsp)
    2ed1:	49 89 c1             	mov    %rax,%r9
    2ed4:	48 89 f7             	mov    %rsi,%rdi
    2ed7:	41 83 e3 01          	and    $0x1,%r11d
    2edb:	49 c1 e9 3f          	shr    $0x3f,%r9
    2edf:	49 01 c1             	add    %rax,%r9
    2ee2:	49 d1 f9             	sar    %r9
    2ee5:	4c 39 ce             	cmp    %r9,%rsi
    2ee8:	7c 27                	jl     2f11 <_ZSt13__adjust_heapIPeleN9__gnu_cxx5__ops15_Iter_less_iterEEvT_T0_S5_T1_T2_.isra.0+0x51>
    2eea:	e9 b1 00 00 00       	jmp    2fa0 <_ZSt13__adjust_heapIPeleN9__gnu_cxx5__ops15_Iter_less_iterEEvT_T0_S5_T1_T2_.isra.0+0xe0>
    2eef:	90                   	nop
    2ef0:	dd d8                	fstp   %st(0)
    2ef2:	49 83 e8 01          	sub    $0x1,%r8
    2ef6:	48 c1 e6 04          	shl    $0x4,%rsi
    2efa:	4c 89 c0             	mov    %r8,%rax
    2efd:	48 c1 e0 04          	shl    $0x4,%rax
    2f01:	48 01 c8             	add    %rcx,%rax
    2f04:	db 28                	fldt   (%rax)
    2f06:	db 3c 31             	fstpt  (%rcx,%rsi,1)
    2f09:	4d 39 c8             	cmp    %r9,%r8
    2f0c:	7d 29                	jge    2f37 <_ZSt13__adjust_heapIPeleN9__gnu_cxx5__ops15_Iter_less_iterEEvT_T0_S5_T1_T2_.isra.0+0x77>
    2f0e:	4c 89 c6             	mov    %r8,%rsi
    2f11:	48 8d 56 01          	lea    0x1(%rsi),%rdx
    2f15:	4c 8d 04 12          	lea    (%rdx,%rdx,1),%r8
    2f19:	48 c1 e2 05          	shl    $0x5,%rdx
    2f1d:	48 8d 04 11          	lea    (%rcx,%rdx,1),%rax
    2f21:	db 28                	fldt   (%rax)
    2f23:	db 6c 11 f0          	fldt   -0x10(%rcx,%rdx,1)
    2f27:	df f1                	fcomip %st(1),%st
    2f29:	77 c5                	ja     2ef0 <_ZSt13__adjust_heapIPeleN9__gnu_cxx5__ops15_Iter_less_iterEEvT_T0_S5_T1_T2_.isra.0+0x30>
    2f2b:	48 c1 e6 04          	shl    $0x4,%rsi
    2f2f:	db 3c 31             	fstpt  (%rcx,%rsi,1)
    2f32:	4d 39 c8             	cmp    %r9,%r8
    2f35:	7c d7                	jl     2f0e <_ZSt13__adjust_heapIPeleN9__gnu_cxx5__ops15_Iter_less_iterEEvT_T0_S5_T1_T2_.isra.0+0x4e>
    2f37:	4d 85 db             	test   %r11,%r11
    2f3a:	74 7c                	je     2fb8 <_ZSt13__adjust_heapIPeleN9__gnu_cxx5__ops15_Iter_less_iterEEvT_T0_S5_T1_T2_.isra.0+0xf8>
    2f3c:	49 8d 70 ff          	lea    -0x1(%r8),%rsi
    2f40:	48 89 f2             	mov    %rsi,%rdx
    2f43:	48 c1 ea 3f          	shr    $0x3f,%rdx
    2f47:	48 01 f2             	add    %rsi,%rdx
    2f4a:	48 d1 fa             	sar    %rdx
    2f4d:	49 39 f8             	cmp    %rdi,%r8
    2f50:	7f 2a                	jg     2f7c <_ZSt13__adjust_heapIPeleN9__gnu_cxx5__ops15_Iter_less_iterEEvT_T0_S5_T1_T2_.isra.0+0xbc>
    2f52:	eb 46                	jmp    2f9a <_ZSt13__adjust_heapIPeleN9__gnu_cxx5__ops15_Iter_less_iterEEvT_T0_S5_T1_T2_.isra.0+0xda>
    2f54:	0f 1f 40 00          	nopl   0x0(%rax)
    2f58:	d9 c9                	fxch   %st(1)
    2f5a:	4c 8d 42 ff          	lea    -0x1(%rdx),%r8
    2f5e:	db 38                	fstpt  (%rax)
    2f60:	4c 89 c0             	mov    %r8,%rax
    2f63:	48 c1 e8 3f          	shr    $0x3f,%rax
    2f67:	4c 01 c0             	add    %r8,%rax
    2f6a:	49 89 d0             	mov    %rdx,%r8
    2f6d:	48 d1 f8             	sar    %rax
    2f70:	48 39 d7             	cmp    %rdx,%rdi
    2f73:	0f 8d 87 00 00 00    	jge    3000 <_ZSt13__adjust_heapIPeleN9__gnu_cxx5__ops15_Iter_less_iterEEvT_T0_S5_T1_T2_.isra.0+0x140>
    2f79:	48 89 c2             	mov    %rax,%rdx
    2f7c:	48 89 d6             	mov    %rdx,%rsi
    2f7f:	4c 89 c0             	mov    %r8,%rax
    2f82:	48 c1 e6 04          	shl    $0x4,%rsi
    2f86:	48 c1 e0 04          	shl    $0x4,%rax
    2f8a:	48 01 ce             	add    %rcx,%rsi
    2f8d:	48 01 c8             	add    %rcx,%rax
    2f90:	db 2e                	fldt   (%rsi)
    2f92:	d9 c9                	fxch   %st(1)
    2f94:	db f1                	fcomi  %st(1),%st
    2f96:	77 c0                	ja     2f58 <_ZSt13__adjust_heapIPeleN9__gnu_cxx5__ops15_Iter_less_iterEEvT_T0_S5_T1_T2_.isra.0+0x98>
    2f98:	dd d9                	fstp   %st(1)
    2f9a:	db 38                	fstpt  (%rax)
    2f9c:	c3                   	ret    
    2f9d:	0f 1f 00             	nopl   (%rax)
    2fa0:	48 89 f0             	mov    %rsi,%rax
    2fa3:	48 c1 e0 04          	shl    $0x4,%rax
    2fa7:	48 01 c8             	add    %rcx,%rax
    2faa:	4d 85 db             	test   %r11,%r11
    2fad:	75 eb                	jne    2f9a <_ZSt13__adjust_heapIPeleN9__gnu_cxx5__ops15_Iter_less_iterEEvT_T0_S5_T1_T2_.isra.0+0xda>
    2faf:	49 89 f8             	mov    %rdi,%r8
    2fb2:	66 0f 1f 44 00 00    	nopw   0x0(%rax,%rax,1)
    2fb8:	49 83 ea 02          	sub    $0x2,%r10
    2fbc:	4c 89 d2             	mov    %r10,%rdx
    2fbf:	48 c1 ea 3f          	shr    $0x3f,%rdx
    2fc3:	4c 01 d2             	add    %r10,%rdx
    2fc6:	48 d1 fa             	sar    %rdx
    2fc9:	49 39 d0             	cmp    %rdx,%r8
    2fcc:	0f 85 6a ff ff ff    	jne    2f3c <_ZSt13__adjust_heapIPeleN9__gnu_cxx5__ops15_Iter_less_iterEEvT_T0_S5_T1_T2_.isra.0+0x7c>
    2fd2:	49 83 c0 01          	add    $0x1,%r8
    2fd6:	4c 89 c2             	mov    %r8,%rdx
    2fd9:	4f 8d 44 00 ff       	lea    -0x1(%r8,%r8,1),%r8
    2fde:	48 c1 e2 05          	shl    $0x5,%rdx
    2fe2:	db 6c 11 f0          	fldt   -0x10(%rcx,%rdx,1)
    2fe6:	db 38                	fstpt  (%rax)
    2fe8:	4c 89 c0             	mov    %r8,%rax
    2feb:	48 c1 e0 04          	shl    $0x4,%rax
    2fef:	48 01 c8             	add    %rcx,%rax
    2ff2:	e9 45 ff ff ff       	jmp    2f3c <_ZSt13__adjust_heapIPeleN9__gnu_cxx5__ops15_Iter_less_iterEEvT_T0_S5_T1_T2_.isra.0+0x7c>
    2ff7:	66 0f 1f 84 00 00 00 	nopw   0x0(%rax,%rax,1)
    2ffe:	00 00 
    3000:	48 89 f0             	mov    %rsi,%rax
    3003:	db 38                	fstpt  (%rax)
    3005:	c3                   	ret    
    3006:	66 2e 0f 1f 84 00 00 	cs nopw 0x0(%rax,%rax,1)
    300d:	00 00 00 

0000000000003010 <_ZSt16__introsort_loopIPelN9__gnu_cxx5__ops15_Iter_less_iterEEvT_S4_T0_T1_.isra.0>:
    3010:	48 89 f0             	mov    %rsi,%rax
    3013:	48 29 f8             	sub    %rdi,%rax
    3016:	48 3d 00 01 00 00    	cmp    $0x100,%rax
    301c:	0f 8e eb 01 00 00    	jle    320d <_ZSt16__introsort_loopIPelN9__gnu_cxx5__ops15_Iter_less_iterEEvT_S4_T0_T1_.isra.0+0x1fd>
    3022:	41 55                	push   %r13
    3024:	49 89 d5             	mov    %rdx,%r13
    3027:	41 54                	push   %r12
    3029:	4c 8d 67 10          	lea    0x10(%rdi),%r12
    302d:	55                   	push   %rbp
    302e:	48 89 fd             	mov    %rdi,%rbp
    3031:	53                   	push   %rbx
    3032:	48 83 ec 08          	sub    $0x8,%rsp
    3036:	48 85 d2             	test   %rdx,%rdx
    3039:	0f 84 38 01 00 00    	je     3177 <_ZSt16__introsort_loopIPelN9__gnu_cxx5__ops15_Iter_less_iterEEvT_S4_T0_T1_.isra.0+0x167>
    303f:	db 6d 10             	fldt   0x10(%rbp)
    3042:	48 c1 f8 05          	sar    $0x5,%rax
    3046:	49 83 ed 01          	sub    $0x1,%r13
    304a:	48 c1 e0 04          	shl    $0x4,%rax
    304e:	48 01 e8             	add    %rbp,%rax
    3051:	db 28                	fldt   (%rax)
    3053:	db 6e f0             	fldt   -0x10(%rsi)
    3056:	db 6d 00             	fldt   0x0(%rbp)
    3059:	d9 ca                	fxch   %st(2)
    305b:	db f3                	fcomi  %st(3),%st
    305d:	0f 86 94 00 00 00    	jbe    30f7 <_ZSt16__introsort_loopIPelN9__gnu_cxx5__ops15_Iter_less_iterEEvT_S4_T0_T1_.isra.0+0xe7>
    3063:	d9 c9                	fxch   %st(1)
    3065:	db f1                	fcomi  %st(1),%st
    3067:	0f 87 e9 00 00 00    	ja     3156 <_ZSt16__introsort_loopIPelN9__gnu_cxx5__ops15_Iter_less_iterEEvT_S4_T0_T1_.isra.0+0x146>
    306d:	dd d9                	fstp   %st(1)
    306f:	db f2                	fcomi  %st(2),%st
    3071:	0f 87 94 00 00 00    	ja     310b <_ZSt16__introsort_loopIPelN9__gnu_cxx5__ops15_Iter_less_iterEEvT_S4_T0_T1_.isra.0+0xfb>
    3077:	dd d8                	fstp   %st(0)
    3079:	d9 c9                	fxch   %st(1)
    307b:	eb 06                	jmp    3083 <_ZSt16__introsort_loopIPelN9__gnu_cxx5__ops15_Iter_less_iterEEvT_S4_T0_T1_.isra.0+0x73>
    307d:	dd d8                	fstp   %st(0)
    307f:	dd d8                	fstp   %st(0)
    3081:	d9 c9                	fxch   %st(1)
    3083:	d9 c0                	fld    %st(0)
    3085:	db 7d 00             	fstpt  0x0(%rbp)
    3088:	d9 c9                	fxch   %st(1)
    308a:	d9 c0                	fld    %st(0)
    308c:	db 7d 10             	fstpt  0x10(%rbp)
    308f:	db 6e f0             	fldt   -0x10(%rsi)
    3092:	d9 ca                	fxch   %st(2)
    3094:	48 89 f0             	mov    %rsi,%rax
    3097:	4c 89 e3             	mov    %r12,%rbx
    309a:	eb 0f                	jmp    30ab <_ZSt16__introsort_loopIPelN9__gnu_cxx5__ops15_Iter_less_iterEEvT_S4_T0_T1_.isra.0+0x9b>
    309c:	0f 1f 40 00          	nopl   0x0(%rax)
    30a0:	dd d9                	fstp   %st(1)
    30a2:	db 6b 10             	fldt   0x10(%rbx)
    30a5:	d9 c9                	fxch   %st(1)
    30a7:	48 83 c3 10          	add    $0x10,%rbx
    30ab:	db f1                	fcomi  %st(1),%st
    30ad:	77 f1                	ja     30a0 <_ZSt16__introsort_loopIPelN9__gnu_cxx5__ops15_Iter_less_iterEEvT_S4_T0_T1_.isra.0+0x90>
    30af:	d9 ca                	fxch   %st(2)
    30b1:	48 83 e8 10          	sub    $0x10,%rax
    30b5:	db f2                	fcomi  %st(2),%st
    30b7:	76 1f                	jbe    30d8 <_ZSt16__introsort_loopIPelN9__gnu_cxx5__ops15_Iter_less_iterEEvT_S4_T0_T1_.isra.0+0xc8>
    30b9:	dd d8                	fstp   %st(0)
    30bb:	eb 05                	jmp    30c2 <_ZSt16__introsort_loopIPelN9__gnu_cxx5__ops15_Iter_less_iterEEvT_S4_T0_T1_.isra.0+0xb2>
    30bd:	0f 1f 00             	nopl   (%rax)
    30c0:	dd d8                	fstp   %st(0)
    30c2:	db 68 f0             	fldt   -0x10(%rax)
    30c5:	48 83 e8 10          	sub    $0x10,%rax
    30c9:	db f2                	fcomi  %st(2),%st
    30cb:	77 f3                	ja     30c0 <_ZSt16__introsort_loopIPelN9__gnu_cxx5__ops15_Iter_less_iterEEvT_S4_T0_T1_.isra.0+0xb0>
    30cd:	dd da                	fstp   %st(2)
    30cf:	d9 c9                	fxch   %st(1)
    30d1:	eb 0d                	jmp    30e0 <_ZSt16__introsort_loopIPelN9__gnu_cxx5__ops15_Iter_less_iterEEvT_S4_T0_T1_.isra.0+0xd0>
    30d3:	0f 1f 44 00 00       	nopl   0x0(%rax,%rax,1)
    30d8:	dd da                	fstp   %st(2)
    30da:	d9 c9                	fxch   %st(1)
    30dc:	0f 1f 40 00          	nopl   0x0(%rax)
    30e0:	48 39 d8             	cmp    %rbx,%rax
    30e3:	76 43                	jbe    3128 <_ZSt16__introsort_loopIPelN9__gnu_cxx5__ops15_Iter_less_iterEEvT_S4_T0_T1_.isra.0+0x118>
    30e5:	db 3b                	fstpt  (%rbx)
    30e7:	48 83 c3 10          	add    $0x10,%rbx
    30eb:	db 38                	fstpt  (%rax)
    30ed:	db 68 f0             	fldt   -0x10(%rax)
    30f0:	db 2b                	fldt   (%rbx)
    30f2:	db 6d 00             	fldt   0x0(%rbp)
    30f5:	eb b4                	jmp    30ab <_ZSt16__introsort_loopIPelN9__gnu_cxx5__ops15_Iter_less_iterEEvT_S4_T0_T1_.isra.0+0x9b>
    30f7:	d9 c9                	fxch   %st(1)
    30f9:	db f3                	fcomi  %st(3),%st
    30fb:	77 80                	ja     307d <_ZSt16__introsort_loopIPelN9__gnu_cxx5__ops15_Iter_less_iterEEvT_S4_T0_T1_.isra.0+0x6d>
    30fd:	dd db                	fstp   %st(3)
    30ff:	d9 c9                	fxch   %st(1)
    3101:	d9 ca                	fxch   %st(2)
    3103:	db f1                	fcomi  %st(1),%st
    3105:	76 57                	jbe    315e <_ZSt16__introsort_loopIPelN9__gnu_cxx5__ops15_Iter_less_iterEEvT_S4_T0_T1_.isra.0+0x14e>
    3107:	dd d9                	fstp   %st(1)
    3109:	eb 04                	jmp    310f <_ZSt16__introsort_loopIPelN9__gnu_cxx5__ops15_Iter_less_iterEEvT_S4_T0_T1_.isra.0+0xff>
    310b:	dd da                	fstp   %st(2)
    310d:	d9 c9                	fxch   %st(1)
    310f:	db 7d 00             	fstpt  0x0(%rbp)
    3112:	d9 c0                	fld    %st(0)
    3114:	db 7e f0             	fstpt  -0x10(%rsi)
    3117:	db 6d 10             	fldt   0x10(%rbp)
    311a:	db 6d 00             	fldt   0x0(%rbp)
    311d:	d9 ca                	fxch   %st(2)
    311f:	e9 6e ff ff ff       	jmp    3092 <_ZSt16__introsort_loopIPelN9__gnu_cxx5__ops15_Iter_less_iterEEvT_S4_T0_T1_.isra.0+0x82>
    3124:	0f 1f 40 00          	nopl   0x0(%rax)
    3128:	dd d8                	fstp   %st(0)
    312a:	dd d8                	fstp   %st(0)
    312c:	4c 89 ea             	mov    %r13,%rdx
    312f:	48 89 df             	mov    %rbx,%rdi
    3132:	e8 d9 fe ff ff       	call   3010 <_ZSt16__introsort_loopIPelN9__gnu_cxx5__ops15_Iter_less_iterEEvT_S4_T0_T1_.isra.0>
    3137:	48 89 d8             	mov    %rbx,%rax
    313a:	48 29 e8             	sub    %rbp,%rax
    313d:	48 3d 00 01 00 00    	cmp    $0x100,%rax
    3143:	0f 8e b9 00 00 00    	jle    3202 <_ZSt16__introsort_loopIPelN9__gnu_cxx5__ops15_Iter_less_iterEEvT_S4_T0_T1_.isra.0+0x1f2>
    3149:	4d 85 ed             	test   %r13,%r13
    314c:	74 2c                	je     317a <_ZSt16__introsort_loopIPelN9__gnu_cxx5__ops15_Iter_less_iterEEvT_S4_T0_T1_.isra.0+0x16a>
    314e:	48 89 de             	mov    %rbx,%rsi
    3151:	e9 e9 fe ff ff       	jmp    303f <_ZSt16__introsort_loopIPelN9__gnu_cxx5__ops15_Iter_less_iterEEvT_S4_T0_T1_.isra.0+0x2f>
    3156:	dd d8                	fstp   %st(0)
    3158:	dd da                	fstp   %st(2)
    315a:	d9 c9                	fxch   %st(1)
    315c:	eb 02                	jmp    3160 <_ZSt16__introsort_loopIPelN9__gnu_cxx5__ops15_Iter_less_iterEEvT_S4_T0_T1_.isra.0+0x150>
    315e:	dd d8                	fstp   %st(0)
    3160:	db 7d 00             	fstpt  0x0(%rbp)
    3163:	db 38                	fstpt  (%rax)
    3165:	db 6d 10             	fldt   0x10(%rbp)
    3168:	db 6e f0             	fldt   -0x10(%rsi)
    316b:	db 6d 00             	fldt   0x0(%rbp)
    316e:	d9 ca                	fxch   %st(2)
    3170:	d9 c9                	fxch   %st(1)
    3172:	e9 1b ff ff ff       	jmp    3092 <_ZSt16__introsort_loopIPelN9__gnu_cxx5__ops15_Iter_less_iterEEvT_S4_T0_T1_.isra.0+0x82>
    3177:	48 89 f3             	mov    %rsi,%rbx
    317a:	48 c1 f8 04          	sar    $0x4,%rax
    317e:	48 89 ef             	mov    %rbp,%rdi
    3181:	4c 8d 68 fe          	lea    -0x2(%rax),%r13
    3185:	49 89 c4             	mov    %rax,%r12
    3188:	49 d1 fd             	sar    %r13
    318b:	4c 89 e2             	mov    %r12,%rdx
    318e:	4c 89 e8             	mov    %r13,%rax
    3191:	4c 89 ee             	mov    %r13,%rsi
    3194:	48 c1 e0 04          	shl    $0x4,%rax
    3198:	ff 74 05 08          	push   0x8(%rbp,%rax,1)
    319c:	ff 74 05 00          	push   0x0(%rbp,%rax,1)
    31a0:	e8 1b fd ff ff       	call   2ec0 <_ZSt13__adjust_heapIPeleN9__gnu_cxx5__ops15_Iter_less_iterEEvT_T0_S5_T1_T2_.isra.0>
    31a5:	5f                   	pop    %rdi
    31a6:	41 58                	pop    %r8
    31a8:	49 83 ed 01          	sub    $0x1,%r13
    31ac:	4c 89 e2             	mov    %r12,%rdx
    31af:	48 89 ef             	mov    %rbp,%rdi
    31b2:	4c 89 e8             	mov    %r13,%rax
    31b5:	4c 89 ee             	mov    %r13,%rsi
    31b8:	48 c1 e0 04          	shl    $0x4,%rax
    31bc:	ff 74 05 08          	push   0x8(%rbp,%rax,1)
    31c0:	ff 74 05 00          	push   0x0(%rbp,%rax,1)
    31c4:	e8 f7 fc ff ff       	call   2ec0 <_ZSt13__adjust_heapIPeleN9__gnu_cxx5__ops15_Iter_less_iterEEvT_T0_S5_T1_T2_.isra.0>
    31c9:	59                   	pop    %rcx
    31ca:	5e                   	pop    %rsi
    31cb:	4d 85 ed             	test   %r13,%r13
    31ce:	75 d8                	jne    31a8 <_ZSt16__introsort_loopIPelN9__gnu_cxx5__ops15_Iter_less_iterEEvT_S4_T0_T1_.isra.0+0x198>
    31d0:	db 6b f0             	fldt   -0x10(%rbx)
    31d3:	48 83 eb 10          	sub    $0x10,%rbx
    31d7:	48 83 ec 10          	sub    $0x10,%rsp
    31db:	31 f6                	xor    %esi,%esi
    31dd:	49 89 dc             	mov    %rbx,%r12
    31e0:	48 89 ef             	mov    %rbp,%rdi
    31e3:	db 6d 00             	fldt   0x0(%rbp)
    31e6:	49 29 ec             	sub    %rbp,%r12
    31e9:	4c 89 e2             	mov    %r12,%rdx
    31ec:	48 c1 fa 04          	sar    $0x4,%rdx
    31f0:	db 3b                	fstpt  (%rbx)
    31f2:	db 3c 24             	fstpt  (%rsp)
    31f5:	e8 c6 fc ff ff       	call   2ec0 <_ZSt13__adjust_heapIPeleN9__gnu_cxx5__ops15_Iter_less_iterEEvT_T0_S5_T1_T2_.isra.0>
    31fa:	58                   	pop    %rax
    31fb:	5a                   	pop    %rdx
    31fc:	49 83 fc 10          	cmp    $0x10,%r12
    3200:	7f ce                	jg     31d0 <_ZSt16__introsort_loopIPelN9__gnu_cxx5__ops15_Iter_less_iterEEvT_S4_T0_T1_.isra.0+0x1c0>
    3202:	48 83 c4 08          	add    $0x8,%rsp
    3206:	5b                   	pop    %rbx
    3207:	5d                   	pop    %rbp
    3208:	41 5c                	pop    %r12
    320a:	41 5d                	pop    %r13
    320c:	c3                   	ret    
    320d:	c3                   	ret    
    320e:	66 90                	xchg   %ax,%ax

0000000000003210 <_ZL6forceldddddddjjPPPedddd>:
    3210:	41 57                	push   %r15
    3212:	66 44 0f 28 c0       	movapd %xmm0,%xmm8
    3217:	49 89 ff             	mov    %rdi,%r15
    321a:	41 56                	push   %r14
    321c:	41 55                	push   %r13
    321e:	41 54                	push   %r12
    3220:	55                   	push   %rbp
    3221:	48 89 cd             	mov    %rcx,%rbp
    3224:	53                   	push   %rbx
    3225:	89 f3                	mov    %esi,%ebx
    3227:	48 81 ec c8 01 00 00 	sub    $0x1c8,%rsp
    322e:	89 54 24 38          	mov    %edx,0x38(%rsp)
    3232:	f2 0f 11 4c 24 30    	movsd  %xmm1,0x30(%rsp)
    3238:	66 41 0f 28 c8       	movapd %xmm8,%xmm1
    323d:	66 0f 57 0d ab 51 00 	xorpd  0x51ab(%rip),%xmm1        # 83f0 <_IO_stdin_used+0x3f0>
    3244:	00 
    3245:	f2 0f 11 14 24       	movsd  %xmm2,(%rsp)
    324a:	dd 04 24             	fldl   (%rsp)
    324d:	f2 0f 11 7c 24 68    	movsd  %xmm7,0x68(%rsp)
    3253:	66 0f 28 f8          	movapd %xmm0,%xmm7
    3257:	66 0f ef c0          	pxor   %xmm0,%xmm0
    325b:	f2 0f 11 1c 24       	movsd  %xmm3,(%rsp)
    3260:	66 0f 14 ff          	unpcklpd %xmm7,%xmm7
    3264:	f2 0f 11 64 24 08    	movsd  %xmm4,0x8(%rsp)
    326a:	f2 0f 11 6c 24 18    	movsd  %xmm5,0x18(%rsp)
    3270:	f2 0f 11 74 24 10    	movsd  %xmm6,0x10(%rsp)
    3276:	64 48 8b 04 25 28 00 	mov    %fs:0x28,%rax
    327d:	00 00 
    327f:	48 89 84 24 b8 01 00 	mov    %rax,0x1b8(%rsp)
    3286:	00 
    3287:	31 c0                	xor    %eax,%eax
    3289:	66 0f 2f e9          	comisd %xmm1,%xmm5
    328d:	48 c7 47 10 00 00 00 	movq   $0x0,0x10(%rdi)
    3294:	00 
    3295:	0f 29 7c 24 50       	movaps %xmm7,0x50(%rsp)
    329a:	0f 11 07             	movups %xmm0,(%rdi)
    329d:	0f 87 85 02 00 00    	ja     3528 <_ZL6forceldddddddjjPPPedddd+0x318>
    32a3:	89 74 24 60          	mov    %esi,0x60(%rsp)
    32a7:	45 31 f6             	xor    %r14d,%r14d
    32aa:	66 44 0f 2f 44 24 10 	comisd 0x10(%rsp),%xmm8
    32b1:	0f 87 d9 01 00 00    	ja     3490 <_ZL6forceldddddddjjPPPedddd+0x280>
    32b7:	66 0f 2f 4c 24 10    	comisd 0x10(%rsp),%xmm1
    32bd:	77 11                	ja     32d0 <_ZL6forceldddddddjjPPPedddd+0xc0>
    32bf:	f2 0f 10 64 24 18    	movsd  0x18(%rsp),%xmm4
    32c5:	66 41 0f 2f e0       	comisd %xmm8,%xmm4
    32ca:	76 44                	jbe    3310 <_ZL6forceldddddddjjPPPedddd+0x100>
    32cc:	dd d8                	fstp   %st(0)
    32ce:	eb 10                	jmp    32e0 <_ZL6forceldddddddjjPPPedddd+0xd0>
    32d0:	dd d8                	fstp   %st(0)
    32d2:	eb 0c                	jmp    32e0 <_ZL6forceldddddddjjPPPedddd+0xd0>
    32d4:	dd d8                	fstp   %st(0)
    32d6:	eb 08                	jmp    32e0 <_ZL6forceldddddddjjPPPedddd+0xd0>
    32d8:	dd d8                	fstp   %st(0)
    32da:	eb 04                	jmp    32e0 <_ZL6forceldddddddjjPPPedddd+0xd0>
    32dc:	dd d8                	fstp   %st(0)
    32de:	66 90                	xchg   %ax,%ax
    32e0:	48 8b 84 24 b8 01 00 	mov    0x1b8(%rsp),%rax
    32e7:	00 
    32e8:	64 48 2b 04 25 28 00 	sub    %fs:0x28,%rax
    32ef:	00 00 
    32f1:	0f 85 0b 12 00 00    	jne    4502 <_ZL6forceldddddddjjPPPedddd+0x12f2>
    32f7:	48 81 c4 c8 01 00 00 	add    $0x1c8,%rsp
    32fe:	4c 89 f8             	mov    %r15,%rax
    3301:	5b                   	pop    %rbx
    3302:	5d                   	pop    %rbp
    3303:	41 5c                	pop    %r12
    3305:	41 5d                	pop    %r13
    3307:	41 5e                	pop    %r14
    3309:	41 5f                	pop    %r15
    330b:	c3                   	ret    
    330c:	0f 1f 40 00          	nopl   0x0(%rax)
    3310:	f2 0f 10 74 24 30    	movsd  0x30(%rsp),%xmm6
    3316:	66 0f ef ff          	pxor   %xmm7,%xmm7
    331a:	66 0f 2e f7          	ucomisd %xmm7,%xmm6
    331e:	0f 8a 19 03 00 00    	jp     363d <_ZL6forceldddddddjjPPPedddd+0x42d>
    3324:	0f 85 13 03 00 00    	jne    363d <_ZL6forceldddddddjjPPPedddd+0x42d>
    332a:	66 0f 28 e7          	movapd %xmm7,%xmm4
    332e:	f2 0f 10 3c 24       	movsd  (%rsp),%xmm7
    3333:	66 0f 2f fc          	comisd %xmm4,%xmm7
    3337:	0f 86 c9 0b 00 00    	jbe    3f06 <_ZL6forceldddddddjjPPPedddd+0xcf6>
    333d:	dd 05 f5 50 00 00    	fldl   0x50f5(%rip)        # 8438 <_IO_stdin_used+0x438>
    3343:	66 0f 28 fc          	movapd %xmm4,%xmm7
    3347:	f2 0f 10 5c 24 08    	movsd  0x8(%rsp),%xmm3
    334d:	db bc 24 70 01 00 00 	fstpt  0x170(%rsp)
    3354:	66 0f 2f df          	comisd %xmm7,%xmm3
    3358:	0f 86 4d 0b 00 00    	jbe    3eab <_ZL6forceldddddddjjPPPedddd+0xc9b>
    335e:	dd 05 d4 50 00 00    	fldl   0x50d4(%rip)        # 8438 <_IO_stdin_used+0x438>
    3364:	eb 0a                	jmp    3370 <_ZL6forceldddddddjjPPPedddd+0x160>
    3366:	d9 c9                	fxch   %st(1)
    3368:	0f 1f 84 00 00 00 00 	nopl   0x0(%rax,%rax,1)
    336f:	00 
    3370:	db bc 24 80 01 00 00 	fstpt  0x180(%rsp)
    3377:	66 0f ef ff          	pxor   %xmm7,%xmm7
    337b:	dd 54 24 20          	fstl   0x20(%rsp)
    337f:	f2 0f 10 74 24 20    	movsd  0x20(%rsp),%xmm6
    3385:	66 0f 2e f7          	ucomisd %xmm7,%xmm6
    3389:	7a 06                	jp     3391 <_ZL6forceldddddddjjPPPedddd+0x181>
    338b:	0f 84 83 03 00 00    	je     3714 <_ZL6forceldddddddjjPPPedddd+0x504>
    3391:	dd 54 24 20          	fstl   0x20(%rsp)
    3395:	f2 0f 10 04 24       	movsd  (%rsp),%xmm0
    339a:	f2 0f 10 74 24 20    	movsd  0x20(%rsp),%xmm6
    33a0:	dd 5c 24 40          	fstpl  0x40(%rsp)
    33a4:	f2 0f 5e c6          	divsd  %xmm6,%xmm0
    33a8:	f2 44 0f 11 44 24 70 	movsd  %xmm8,0x70(%rsp)
    33af:	e8 fc ee ff ff       	call   22b0 <atan@plt>
    33b4:	66 0f ef ed          	pxor   %xmm5,%xmm5
    33b8:	66 0f 2f 2c 24       	comisd (%rsp),%xmm5
    33bd:	f2 44 0f 10 44 24 70 	movsd  0x70(%rsp),%xmm8
    33c4:	f2 0f 11 44 24 20    	movsd  %xmm0,0x20(%rsp)
    33ca:	dd 44 24 20          	fldl   0x20(%rsp)
    33ce:	dd 44 24 40          	fldl   0x40(%rsp)
    33d2:	0f 87 10 0b 00 00    	ja     3ee8 <_ZL6forceldddddddjjPPPedddd+0xcd8>
    33d8:	f2 0f 10 34 24       	movsd  (%rsp),%xmm6
    33dd:	66 0f 2f f5          	comisd %xmm5,%xmm6
    33e1:	0f 86 53 0b 00 00    	jbe    3f3a <_ZL6forceldddddddjjPPPedddd+0xd2a>
    33e7:	66 0f 28 f5          	movapd %xmm5,%xmm6
    33eb:	dd 54 24 20          	fstl   0x20(%rsp)
    33ef:	f2 0f 10 6c 24 20    	movsd  0x20(%rsp),%xmm5
    33f5:	66 0f 2f f5          	comisd %xmm5,%xmm6
    33f9:	0f 87 30 0c 00 00    	ja     402f <_ZL6forceldddddddjjPPPedddd+0xe1f>
    33ff:	d9 c9                	fxch   %st(1)
    3401:	db bc 24 90 01 00 00 	fstpt  0x190(%rsp)
    3408:	f2 0f 10 44 24 08    	movsd  0x8(%rsp),%xmm0
    340e:	f2 44 0f 11 44 24 70 	movsd  %xmm8,0x70(%rsp)
    3415:	dd 54 24 20          	fstl   0x20(%rsp)
    3419:	f2 0f 10 64 24 20    	movsd  0x20(%rsp),%xmm4
    341f:	dd 5c 24 40          	fstpl  0x40(%rsp)
    3423:	f2 0f 5e c4          	divsd  %xmm4,%xmm0
    3427:	e8 84 ee ff ff       	call   22b0 <atan@plt>
    342c:	66 0f ef f6          	pxor   %xmm6,%xmm6
    3430:	66 0f 2f 74 24 08    	comisd 0x8(%rsp),%xmm6
    3436:	f2 44 0f 10 44 24 70 	movsd  0x70(%rsp),%xmm8
    343d:	f2 0f 11 44 24 20    	movsd  %xmm0,0x20(%rsp)
    3443:	dd 44 24 20          	fldl   0x20(%rsp)
    3447:	dd 44 24 40          	fldl   0x40(%rsp)
    344b:	0f 87 3d 0c 00 00    	ja     408e <_ZL6forceldddddddjjPPPedddd+0xe7e>
    3451:	f2 0f 10 5c 24 08    	movsd  0x8(%rsp),%xmm3
    3457:	66 0f ef ff          	pxor   %xmm7,%xmm7
    345b:	66 0f 2f df          	comisd %xmm7,%xmm3
    345f:	0f 86 61 0c 00 00    	jbe    40c6 <_ZL6forceldddddddjjPPPedddd+0xeb6>
    3465:	dd 54 24 20          	fstl   0x20(%rsp)
    3469:	f2 0f 10 5c 24 20    	movsd  0x20(%rsp),%xmm3
    346f:	66 0f 2f fb          	comisd %xmm3,%xmm7
    3473:	0f 86 d7 02 00 00    	jbe    3750 <_ZL6forceldddddddjjPPPedddd+0x540>
    3479:	d9 c9                	fxch   %st(1)
    347b:	eb 02                	jmp    347f <_ZL6forceldddddddjjPPPedddd+0x26f>
    347d:	d9 c9                	fxch   %st(1)
    347f:	dc 05 c3 4f 00 00    	faddl  0x4fc3(%rip)        # 8448 <_IO_stdin_used+0x448>
    3485:	d9 c9                	fxch   %st(1)
    3487:	e9 c4 02 00 00       	jmp    3750 <_ZL6forceldddddddjjPPPedddd+0x540>
    348c:	0f 1f 40 00          	nopl   0x0(%rax)
    3490:	f2 0f 10 44 24 10    	movsd  0x10(%rsp),%xmm0
    3496:	dd 5c 24 70          	fstpl  0x70(%rsp)
    349a:	f2 0f 11 4c 24 40    	movsd  %xmm1,0x40(%rsp)
    34a0:	f2 41 0f 5e c0       	divsd  %xmm8,%xmm0
    34a5:	f2 44 0f 11 44 24 20 	movsd  %xmm8,0x20(%rsp)
    34ac:	e8 1f ee ff ff       	call   22d0 <acos@plt>
    34b1:	8d 04 1b             	lea    (%rbx,%rbx,1),%eax
    34b4:	66 0f ef e4          	pxor   %xmm4,%xmm4
    34b8:	dd 44 24 70          	fldl   0x70(%rsp)
    34bc:	f2 48 0f 2a e0       	cvtsi2sd %rax,%xmm4
    34c1:	f2 0f 10 15 7f 4f 00 	movsd  0x4f7f(%rip),%xmm2        # 8448 <_IO_stdin_used+0x448>
    34c8:	00 
    34c9:	89 d8                	mov    %ebx,%eax
    34cb:	f2 44 0f 10 44 24 20 	movsd  0x20(%rsp),%xmm8
    34d2:	f2 0f 10 4c 24 40    	movsd  0x40(%rsp),%xmm1
    34d8:	66 0f 28 da          	movapd %xmm2,%xmm3
    34dc:	f2 0f 5e dc          	divsd  %xmm4,%xmm3
    34e0:	f2 0f 10 25 68 4f 00 	movsd  0x4f68(%rip),%xmm4        # 8450 <_IO_stdin_used+0x450>
    34e7:	00 
    34e8:	f2 0f 5c c3          	subsd  %xmm3,%xmm0
    34ec:	66 0f ef db          	pxor   %xmm3,%xmm3
    34f0:	f2 48 0f 2a d8       	cvtsi2sd %rax,%xmm3
    34f5:	f2 0f 5e d3          	divsd  %xmm3,%xmm2
    34f9:	f2 0f 10 1d ff 4e 00 	movsd  0x4eff(%rip),%xmm3        # 8400 <_IO_stdin_used+0x400>
    3500:	00 
    3501:	f2 0f 5e c2          	divsd  %xmm2,%xmm0
    3505:	66 0f 28 d0          	movapd %xmm0,%xmm2
    3509:	66 0f 54 d3          	andpd  %xmm3,%xmm2
    350d:	66 0f 2e e2          	ucomisd %xmm2,%xmm4
    3511:	0f 87 e9 00 00 00    	ja     3600 <_ZL6forceldddddddjjPPPedddd+0x3f0>
    3517:	f2 44 0f 2c f0       	cvttsd2si %xmm0,%r14d
    351c:	e9 96 fd ff ff       	jmp    32b7 <_ZL6forceldddddddjjPPPedddd+0xa7>
    3521:	0f 1f 80 00 00 00 00 	nopl   0x0(%rax)
    3528:	66 0f 28 c5          	movapd %xmm5,%xmm0
    352c:	dd 5c 24 40          	fstpl  0x40(%rsp)
    3530:	f2 41 0f 5e c0       	divsd  %xmm8,%xmm0
    3535:	f2 0f 11 4c 24 60    	movsd  %xmm1,0x60(%rsp)
    353b:	f2 44 0f 11 44 24 20 	movsd  %xmm8,0x20(%rsp)
    3542:	e8 89 ed ff ff       	call   22d0 <acos@plt>
    3547:	8d 04 1b             	lea    (%rbx,%rbx,1),%eax
    354a:	66 0f ef e4          	pxor   %xmm4,%xmm4
    354e:	dd 44 24 40          	fldl   0x40(%rsp)
    3552:	f2 48 0f 2a e0       	cvtsi2sd %rax,%xmm4
    3557:	f2 0f 10 15 e9 4e 00 	movsd  0x4ee9(%rip),%xmm2        # 8448 <_IO_stdin_used+0x448>
    355e:	00 
    355f:	89 d8                	mov    %ebx,%eax
    3561:	f2 44 0f 10 44 24 20 	movsd  0x20(%rsp),%xmm8
    3568:	f2 0f 10 4c 24 60    	movsd  0x60(%rsp),%xmm1
    356e:	66 0f 28 da          	movapd %xmm2,%xmm3
    3572:	f2 0f 5e dc          	divsd  %xmm4,%xmm3
    3576:	f2 0f 10 25 d2 4e 00 	movsd  0x4ed2(%rip),%xmm4        # 8450 <_IO_stdin_used+0x450>
    357d:	00 
    357e:	f2 0f 5c c3          	subsd  %xmm3,%xmm0
    3582:	66 0f ef db          	pxor   %xmm3,%xmm3
    3586:	f2 48 0f 2a d8       	cvtsi2sd %rax,%xmm3
    358b:	f2 0f 5e d3          	divsd  %xmm3,%xmm2
    358f:	f2 0f 10 1d 69 4e 00 	movsd  0x4e69(%rip),%xmm3        # 8400 <_IO_stdin_used+0x400>
    3596:	00 
    3597:	f2 0f 5e c2          	divsd  %xmm2,%xmm0
    359b:	66 0f 28 d0          	movapd %xmm0,%xmm2
    359f:	66 0f 54 d3          	andpd  %xmm3,%xmm2
    35a3:	66 0f 2e e2          	ucomisd %xmm2,%xmm4
    35a7:	77 17                	ja     35c0 <_ZL6forceldddddddjjPPPedddd+0x3b0>
    35a9:	f2 0f 2c c0          	cvttsd2si %xmm0,%eax
    35ad:	89 44 24 60          	mov    %eax,0x60(%rsp)
    35b1:	e9 f1 fc ff ff       	jmp    32a7 <_ZL6forceldddddddjjPPPedddd+0x97>
    35b6:	66 2e 0f 1f 84 00 00 	cs nopw 0x0(%rax,%rax,1)
    35bd:	00 00 00 
    35c0:	f2 48 0f 2c c0       	cvttsd2si %xmm0,%rax
    35c5:	66 0f ef d2          	pxor   %xmm2,%xmm2
    35c9:	66 0f 28 e0          	movapd %xmm0,%xmm4
    35cd:	f2 0f 10 2d 83 4e 00 	movsd  0x4e83(%rip),%xmm5        # 8458 <_IO_stdin_used+0x458>
    35d4:	00 
    35d5:	66 0f 55 d8          	andnpd %xmm0,%xmm3
    35d9:	f2 48 0f 2a d0       	cvtsi2sd %rax,%xmm2
    35de:	f2 0f c2 e2 06       	cmpnlesd %xmm2,%xmm4
    35e3:	66 0f 54 e5          	andpd  %xmm5,%xmm4
    35e7:	f2 0f 58 d4          	addsd  %xmm4,%xmm2
    35eb:	66 0f 56 d3          	orpd   %xmm3,%xmm2
    35ef:	66 0f 28 c2          	movapd %xmm2,%xmm0
    35f3:	f2 0f 2c c0          	cvttsd2si %xmm0,%eax
    35f7:	89 44 24 60          	mov    %eax,0x60(%rsp)
    35fb:	e9 a7 fc ff ff       	jmp    32a7 <_ZL6forceldddddddjjPPPedddd+0x97>
    3600:	f2 48 0f 2c c0       	cvttsd2si %xmm0,%rax
    3605:	66 0f ef d2          	pxor   %xmm2,%xmm2
    3609:	f2 0f 10 2d 47 4e 00 	movsd  0x4e47(%rip),%xmm5        # 8458 <_IO_stdin_used+0x458>
    3610:	00 
    3611:	66 0f 55 d8          	andnpd %xmm0,%xmm3
    3615:	f2 48 0f 2a d0       	cvtsi2sd %rax,%xmm2
    361a:	66 0f 28 e2          	movapd %xmm2,%xmm4
    361e:	f2 0f c2 e0 06       	cmpnlesd %xmm0,%xmm4
    3623:	66 0f 54 e5          	andpd  %xmm5,%xmm4
    3627:	f2 0f 5c d4          	subsd  %xmm4,%xmm2
    362b:	66 0f 56 d3          	orpd   %xmm3,%xmm2
    362f:	66 0f 28 c2          	movapd %xmm2,%xmm0
    3633:	f2 44 0f 2c f0       	cvttsd2si %xmm0,%r14d
    3638:	e9 7a fc ff ff       	jmp    32b7 <_ZL6forceldddddddjjPPPedddd+0xa7>
    363d:	dd 5c 24 70          	fstpl  0x70(%rsp)
    3641:	f2 0f 10 04 24       	movsd  (%rsp),%xmm0
    3646:	f2 0f 5e 44 24 30    	divsd  0x30(%rsp),%xmm0
    364c:	f2 44 0f 11 44 24 40 	movsd  %xmm8,0x40(%rsp)
    3653:	e8 58 ec ff ff       	call   22b0 <atan@plt>
    3658:	66 0f ef f6          	pxor   %xmm6,%xmm6
    365c:	66 0f 2f 34 24       	comisd (%rsp),%xmm6
    3661:	f2 44 0f 10 44 24 40 	movsd  0x40(%rsp),%xmm8
    3668:	f2 0f 11 44 24 20    	movsd  %xmm0,0x20(%rsp)
    366e:	dd 44 24 20          	fldl   0x20(%rsp)
    3672:	dd 44 24 70          	fldl   0x70(%rsp)
    3676:	0f 87 9f 08 00 00    	ja     3f1b <_ZL6forceldddddddjjPPPedddd+0xd0b>
    367c:	f2 0f 10 2c 24       	movsd  (%rsp),%xmm5
    3681:	66 0f 28 de          	movapd %xmm6,%xmm3
    3685:	66 0f 2f ee          	comisd %xmm6,%xmm5
    3689:	0f 86 22 09 00 00    	jbe    3fb1 <_ZL6forceldddddddjjPPPedddd+0xda1>
    368f:	66 0f 2f 74 24 30    	comisd 0x30(%rsp),%xmm6
    3695:	0f 87 81 09 00 00    	ja     401c <_ZL6forceldddddddjjPPPedddd+0xe0c>
    369b:	dd 5c 24 70          	fstpl  0x70(%rsp)
    369f:	f2 0f 10 44 24 08    	movsd  0x8(%rsp),%xmm0
    36a5:	f2 0f 5e 44 24 30    	divsd  0x30(%rsp),%xmm0
    36ab:	db bc 24 70 01 00 00 	fstpt  0x170(%rsp)
    36b2:	f2 44 0f 11 44 24 40 	movsd  %xmm8,0x40(%rsp)
    36b9:	e8 f2 eb ff ff       	call   22b0 <atan@plt>
    36be:	66 0f ef ff          	pxor   %xmm7,%xmm7
    36c2:	66 0f 2f 7c 24 08    	comisd 0x8(%rsp),%xmm7
    36c8:	f2 44 0f 10 44 24 40 	movsd  0x40(%rsp),%xmm8
    36cf:	f2 0f 11 44 24 20    	movsd  %xmm0,0x20(%rsp)
    36d5:	dd 44 24 20          	fldl   0x20(%rsp)
    36d9:	dd 44 24 70          	fldl   0x70(%rsp)
    36dd:	0f 87 93 09 00 00    	ja     4076 <_ZL6forceldddddddjjPPPedddd+0xe66>
    36e3:	f2 0f 10 7c 24 08    	movsd  0x8(%rsp),%xmm7
    36e9:	66 0f ef e4          	pxor   %xmm4,%xmm4
    36ed:	66 0f 2f fc          	comisd %xmm4,%xmm7
    36f1:	0f 86 b2 09 00 00    	jbe    40a9 <_ZL6forceldddddddjjPPPedddd+0xe99>
    36f7:	66 0f 2f 64 24 30    	comisd 0x30(%rsp),%xmm4
    36fd:	0f 86 63 fc ff ff    	jbe    3366 <_ZL6forceldddddddjjPPPedddd+0x156>
    3703:	d9 c9                	fxch   %st(1)
    3705:	eb 02                	jmp    3709 <_ZL6forceldddddddjjPPPedddd+0x4f9>
    3707:	d9 c9                	fxch   %st(1)
    3709:	dc 05 39 4d 00 00    	faddl  0x4d39(%rip)        # 8448 <_IO_stdin_used+0x448>
    370f:	e9 5c fc ff ff       	jmp    3370 <_ZL6forceldddddddjjPPPedddd+0x160>
    3714:	66 0f 28 e7          	movapd %xmm7,%xmm4
    3718:	f2 0f 10 3c 24       	movsd  (%rsp),%xmm7
    371d:	66 0f 2f fc          	comisd %xmm4,%xmm7
    3721:	0f 86 ac 07 00 00    	jbe    3ed3 <_ZL6forceldddddddjjPPPedddd+0xcc3>
    3727:	dd 05 0b 4d 00 00    	fldl   0x4d0b(%rip)        # 8438 <_IO_stdin_used+0x438>
    372d:	66 0f 28 ec          	movapd %xmm4,%xmm5
    3731:	f2 0f 10 74 24 08    	movsd  0x8(%rsp),%xmm6
    3737:	db bc 24 90 01 00 00 	fstpt  0x190(%rsp)
    373e:	66 0f 2f f5          	comisd %xmm5,%xmm6
    3742:	0f 86 76 07 00 00    	jbe    3ebe <_ZL6forceldddddddjjPPPedddd+0xcae>
    3748:	dd 05 ea 4c 00 00    	fldl   0x4cea(%rip)        # 8438 <_IO_stdin_used+0x438>
    374e:	d9 c9                	fxch   %st(1)
    3750:	4c 8d ac 24 70 01 00 	lea    0x170(%rsp),%r13
    3757:	00 
    3758:	dd 5c 24 20          	fstpl  0x20(%rsp)
    375c:	ba 04 00 00 00       	mov    $0x4,%edx
    3761:	48 8d b4 24 b0 01 00 	lea    0x1b0(%rsp),%rsi
    3768:	00 
    3769:	4c 89 ef             	mov    %r13,%rdi
    376c:	db bc 24 a0 01 00 00 	fstpt  0x1a0(%rsp)
    3773:	4d 89 ec             	mov    %r13,%r12
    3776:	e8 95 f8 ff ff       	call   3010 <_ZSt16__introsort_loopIPelN9__gnu_cxx5__ops15_Iter_less_iterEEvT_S4_T0_T1_.isra.0>
    377b:	dd 44 24 20          	fldl   0x20(%rsp)
    377f:	48 8d 84 24 a0 01 00 	lea    0x1a0(%rsp),%rax
    3786:	00 
    3787:	48 89 44 24 40       	mov    %rax,0x40(%rsp)
    378c:	f2 44 0f 11 44 24 70 	movsd  %xmm8,0x70(%rsp)
    3793:	dd 9c 24 80 00 00 00 	fstpl  0x80(%rsp)
    379a:	eb 2f                	jmp    37cb <_ZL6forceldddddddjjPPPedddd+0x5bb>
    379c:	0f 1f 40 00          	nopl   0x0(%rax)
    37a0:	b8 10 00 00 00       	mov    $0x10,%eax
    37a5:	4c 29 ea             	sub    %r13,%rdx
    37a8:	4c 89 ee             	mov    %r13,%rsi
    37ab:	db 7c 24 20          	fstpt  0x20(%rsp)
    37af:	49 8d 7c 05 00       	lea    0x0(%r13,%rax,1),%rdi
    37b4:	e8 e7 eb ff ff       	call   23a0 <memmove@plt>
    37b9:	db 6c 24 20          	fldt   0x20(%rsp)
    37bd:	db bc 24 70 01 00 00 	fstpt  0x170(%rsp)
    37c4:	4c 39 64 24 40       	cmp    %r12,0x40(%rsp)
    37c9:	74 4e                	je     3819 <_ZL6forceldddddddjjPPPedddd+0x609>
    37cb:	4c 89 e6             	mov    %r12,%rsi
    37ce:	49 83 c4 10          	add    $0x10,%r12
    37d2:	db 6e 10             	fldt   0x10(%rsi)
    37d5:	4c 89 e2             	mov    %r12,%rdx
    37d8:	48 89 f0             	mov    %rsi,%rax
    37db:	db ac 24 70 01 00 00 	fldt   0x170(%rsp)
    37e2:	df f1                	fcomip %st(1),%st
    37e4:	77 ba                	ja     37a0 <_ZL6forceldddddddjjPPPedddd+0x590>
    37e6:	db 2e                	fldt   (%rsi)
    37e8:	db f1                	fcomi  %st(1),%st
    37ea:	76 18                	jbe    3804 <_ZL6forceldddddddjjPPPedddd+0x5f4>
    37ec:	0f 1f 40 00          	nopl   0x0(%rax)
    37f0:	db 78 10             	fstpt  0x10(%rax)
    37f3:	48 89 c2             	mov    %rax,%rdx
    37f6:	48 83 e8 10          	sub    $0x10,%rax
    37fa:	db 28                	fldt   (%rax)
    37fc:	db f1                	fcomi  %st(1),%st
    37fe:	77 f0                	ja     37f0 <_ZL6forceldddddddjjPPPedddd+0x5e0>
    3800:	dd d8                	fstp   %st(0)
    3802:	eb 0c                	jmp    3810 <_ZL6forceldddddddjjPPPedddd+0x600>
    3804:	dd d8                	fstp   %st(0)
    3806:	66 2e 0f 1f 84 00 00 	cs nopw 0x0(%rax,%rax,1)
    380d:	00 00 00 
    3810:	db 3a                	fstpt  (%rdx)
    3812:	4c 39 64 24 40       	cmp    %r12,0x40(%rsp)
    3817:	75 b2                	jne    37cb <_ZL6forceldddddddjjPPPedddd+0x5bb>
    3819:	66 0f ef f6          	pxor   %xmm6,%xmm6
    381d:	66 0f 2f 74 24 30    	comisd 0x30(%rsp),%xmm6
    3823:	dd 84 24 80 00 00 00 	fldl   0x80(%rsp)
    382a:	f2 44 0f 10 44 24 70 	movsd  0x70(%rsp),%xmm8
    3831:	0f 83 93 03 00 00    	jae    3bca <_ZL6forceldddddddjjPPPedddd+0x9ba>
    3837:	8b 44 24 38          	mov    0x38(%rsp),%eax
    383b:	66 0f ef c9          	pxor   %xmm1,%xmm1
    383f:	f2 0f 10 05 19 4c 00 	movsd  0x4c19(%rip),%xmm0        # 8460 <_IO_stdin_used+0x460>
    3846:	00 
    3847:	d9 bc 24 1e 01 00 00 	fnstcw 0x11e(%rsp)
    384e:	f2 48 0f 2a c8       	cvtsi2sd %rax,%xmm1
    3853:	0f b7 84 24 1e 01 00 	movzwl 0x11e(%rsp),%eax
    385a:	00 
    385b:	80 e4 f3             	and    $0xf3,%ah
    385e:	f2 0f 5e c1          	divsd  %xmm1,%xmm0
    3862:	80 cc 04             	or     $0x4,%ah
    3865:	66 89 84 24 1c 01 00 	mov    %ax,0x11c(%rsp)
    386c:	00 
    386d:	0f b7 84 24 1e 01 00 	movzwl 0x11e(%rsp),%eax
    3874:	00 
    3875:	80 cc 0c             	or     $0xc,%ah
    3878:	66 89 84 24 1a 01 00 	mov    %ax,0x11a(%rsp)
    387f:	00 
    3880:	0f b7 84 24 1e 01 00 	movzwl 0x11e(%rsp),%eax
    3887:	00 
    3888:	80 e4 f3             	and    $0xf3,%ah
    388b:	80 cc 08             	or     $0x8,%ah
    388e:	66 89 84 24 18 01 00 	mov    %ax,0x118(%rsp)
    3895:	00 
    3896:	f2 0f 11 44 24 20    	movsd  %xmm0,0x20(%rsp)
    389c:	dd 44 24 20          	fldl   0x20(%rsp)
    38a0:	db ac 24 70 01 00 00 	fldt   0x170(%rsp)
    38a7:	d8 f1                	fdiv   %st(1),%st
    38a9:	d9 ac 24 1c 01 00 00 	fldcw  0x11c(%rsp)
    38b0:	d9 fc                	frndint 
    38b2:	d9 ac 24 1e 01 00 00 	fldcw  0x11e(%rsp)
    38b9:	d9 ac 24 1a 01 00 00 	fldcw  0x11a(%rsp)
    38c0:	db 5c 24 20          	fistpl 0x20(%rsp)
    38c4:	d9 ac 24 1e 01 00 00 	fldcw  0x11e(%rsp)
    38cb:	db ac 24 a0 01 00 00 	fldt   0x1a0(%rsp)
    38d2:	8b 54 24 20          	mov    0x20(%rsp),%edx
    38d6:	de f1                	fdivp  %st,%st(1)
    38d8:	d9 ac 24 18 01 00 00 	fldcw  0x118(%rsp)
    38df:	d9 fc                	frndint 
    38e1:	d9 ac 24 1e 01 00 00 	fldcw  0x11e(%rsp)
    38e8:	d9 ac 24 1a 01 00 00 	fldcw  0x11a(%rsp)
    38ef:	db 5c 24 20          	fistpl 0x20(%rsp)
    38f3:	d9 ac 24 1e 01 00 00 	fldcw  0x11e(%rsp)
    38fa:	8b 44 24 20          	mov    0x20(%rsp),%eax
    38fe:	f2 0f 10 74 24 30    	movsd  0x30(%rsp),%xmm6
    3904:	66 0f ef ff          	pxor   %xmm7,%xmm7
    3908:	66 0f 2f f7          	comisd %xmm7,%xmm6
    390c:	76 0b                	jbe    3919 <_ZL6forceldddddddjjPPPedddd+0x709>
    390e:	66 0f 2f 3c 24       	comisd (%rsp),%xmm7
    3913:	0f 87 ef 02 00 00    	ja     3c08 <_ZL6forceldddddddjjPPPedddd+0x9f8>
    3919:	8b 7c 24 60          	mov    0x60(%rsp),%edi
    391d:	44 39 f7             	cmp    %r14d,%edi
    3920:	0f 86 ae f9 ff ff    	jbe    32d4 <_ZL6forceldddddddjjPPPedddd+0xc4>
    3926:	39 c2                	cmp    %eax,%edx
    3928:	0f 83 aa f9 ff ff    	jae    32d8 <_ZL6forceldddddddjjPPPedddd+0xc8>
    392e:	83 ef 01             	sub    $0x1,%edi
    3931:	44 89 f1             	mov    %r14d,%ecx
    3934:	83 e8 01             	sub    $0x1,%eax
    3937:	dd 44 24 30          	fldl   0x30(%rsp)
    393b:	41 89 fd             	mov    %edi,%r13d
    393e:	4c 8d 64 cd 00       	lea    0x0(%rbp,%rcx,8),%r12
    3943:	29 d0                	sub    %edx,%eax
    3945:	45 29 f5             	sub    %r14d,%r13d
    3948:	4c 01 e9             	add    %r13,%rcx
    394b:	4c 8d 74 cd 08       	lea    0x8(%rbp,%rcx,8),%r14
    3950:	89 d1                	mov    %edx,%ecx
    3952:	48 8d 94 24 20 01 00 	lea    0x120(%rsp),%rdx
    3959:	00 
    395a:	48 8d 6c 01 01       	lea    0x1(%rcx,%rax,1),%rbp
    395f:	4c 8d 2c cd 00 00 00 	lea    0x0(,%rcx,8),%r13
    3966:	00 
    3967:	48 c1 e5 03          	shl    $0x3,%rbp
    396b:	0f 1f 44 00 00       	nopl   0x0(%rax,%rax,1)
    3970:	4c 89 eb             	mov    %r13,%rbx
    3973:	0f 1f 44 00 00       	nopl   0x0(%rax,%rax,1)
    3978:	49 8b 04 24          	mov    (%r12),%rax
    397c:	48 8b 04 18          	mov    (%rax,%rbx,1),%rax
    3980:	db 28                	fldt   (%rax)
    3982:	db f1                	fcomi  %st(1),%st
    3984:	72 3a                	jb     39c0 <_ZL6forceldddddddjjPPPedddd+0x7b0>
    3986:	d9 c2                	fld    %st(2)
    3988:	df f1                	fcomip %st(1),%st
    398a:	72 3c                	jb     39c8 <_ZL6forceldddddddjjPPPedddd+0x7b8>
    398c:	dd 04 24             	fldl   (%rsp)
    398f:	db 68 10             	fldt   0x10(%rax)
    3992:	db f1                	fcomi  %st(1),%st
    3994:	dd d9                	fstp   %st(1)
    3996:	72 38                	jb     39d0 <_ZL6forceldddddddjjPPPedddd+0x7c0>
    3998:	dd 44 24 08          	fldl   0x8(%rsp)
    399c:	df f1                	fcomip %st(1),%st
    399e:	72 40                	jb     39e0 <_ZL6forceldddddddjjPPPedddd+0x7d0>
    39a0:	dd 44 24 18          	fldl   0x18(%rsp)
    39a4:	db 68 20             	fldt   0x20(%rax)
    39a7:	db f1                	fcomi  %st(1),%st
    39a9:	dd d9                	fstp   %st(1)
    39ab:	72 43                	jb     39f0 <_ZL6forceldddddddjjPPPedddd+0x7e0>
    39ad:	dd 44 24 10          	fldl   0x10(%rsp)
    39b1:	df f1                	fcomip %st(1),%st
    39b3:	73 6e                	jae    3a23 <_ZL6forceldddddddjjPPPedddd+0x813>
    39b5:	dd d8                	fstp   %st(0)
    39b7:	dd d8                	fstp   %st(0)
    39b9:	dd d8                	fstp   %st(0)
    39bb:	eb 43                	jmp    3a00 <_ZL6forceldddddddjjPPPedddd+0x7f0>
    39bd:	0f 1f 00             	nopl   (%rax)
    39c0:	dd d8                	fstp   %st(0)
    39c2:	eb 3c                	jmp    3a00 <_ZL6forceldddddddjjPPPedddd+0x7f0>
    39c4:	0f 1f 40 00          	nopl   0x0(%rax)
    39c8:	dd d8                	fstp   %st(0)
    39ca:	eb 34                	jmp    3a00 <_ZL6forceldddddddjjPPPedddd+0x7f0>
    39cc:	0f 1f 40 00          	nopl   0x0(%rax)
    39d0:	dd d8                	fstp   %st(0)
    39d2:	dd d8                	fstp   %st(0)
    39d4:	eb 2a                	jmp    3a00 <_ZL6forceldddddddjjPPPedddd+0x7f0>
    39d6:	66 2e 0f 1f 84 00 00 	cs nopw 0x0(%rax,%rax,1)
    39dd:	00 00 00 
    39e0:	dd d8                	fstp   %st(0)
    39e2:	dd d8                	fstp   %st(0)
    39e4:	eb 1a                	jmp    3a00 <_ZL6forceldddddddjjPPPedddd+0x7f0>
    39e6:	66 2e 0f 1f 84 00 00 	cs nopw 0x0(%rax,%rax,1)
    39ed:	00 00 00 
    39f0:	dd d8                	fstp   %st(0)
    39f2:	dd d8                	fstp   %st(0)
    39f4:	dd d8                	fstp   %st(0)
    39f6:	66 2e 0f 1f 84 00 00 	cs nopw 0x0(%rax,%rax,1)
    39fd:	00 00 00 
    3a00:	48 83 c3 08          	add    $0x8,%rbx
    3a04:	48 39 dd             	cmp    %rbx,%rbp
    3a07:	0f 85 6b ff ff ff    	jne    3978 <_ZL6forceldddddddjjPPPedddd+0x768>
    3a0d:	49 83 c4 08          	add    $0x8,%r12
    3a11:	4d 39 e6             	cmp    %r12,%r14
    3a14:	0f 85 56 ff ff ff    	jne    3970 <_ZL6forceldddddddjjPPPedddd+0x760>
    3a1a:	dd d8                	fstp   %st(0)
    3a1c:	dd d8                	fstp   %st(0)
    3a1e:	e9 bd f8 ff ff       	jmp    32e0 <_ZL6forceldddddddjjPPPedddd+0xd0>
    3a23:	d9 cb                	fxch   %st(3)
    3a25:	db bc 24 d0 00 00 00 	fstpt  0xd0(%rsp)
    3a2c:	d9 cb                	fxch   %st(3)
    3a2e:	48 89 d7             	mov    %rdx,%rdi
    3a31:	f2 44 0f 11 84 24 e0 	movsd  %xmm8,0xe0(%rsp)
    3a38:	00 00 00 
    3a3b:	dd 9c 24 c0 00 00 00 	fstpl  0xc0(%rsp)
    3a42:	d9 c9                	fxch   %st(1)
    3a44:	dd 54 24 30          	fstl   0x30(%rsp)
    3a48:	d9 ca                	fxch   %st(2)
    3a4a:	f2 0f 10 4c 24 30    	movsd  0x30(%rsp),%xmm1
    3a50:	dd 54 24 20          	fstl   0x20(%rsp)
    3a54:	d9 c9                	fxch   %st(1)
    3a56:	dd 54 24 38          	fstl   0x38(%rsp)
    3a5a:	db 68 30             	fldt   0x30(%rax)
    3a5d:	66 0f 28 e1          	movapd %xmm1,%xmm4
    3a61:	f2 0f 10 44 24 38    	movsd  0x38(%rsp),%xmm0
    3a67:	66 0f 14 e4          	unpcklpd %xmm4,%xmm4
    3a6b:	f2 0f 10 4c 24 20    	movsd  0x20(%rsp),%xmm1
    3a71:	0f 29 a4 24 b0 00 00 	movaps %xmm4,0xb0(%rsp)
    3a78:	00 
    3a79:	66 0f 28 e8          	movapd %xmm0,%xmm5
    3a7d:	f2 0f 10 44 24 68    	movsd  0x68(%rsp),%xmm0
    3a83:	dd 5c 24 60          	fstpl  0x60(%rsp)
    3a87:	d9 ca                	fxch   %st(2)
    3a89:	dc 84 24 10 02 00 00 	faddl  0x210(%rsp)
    3a90:	66 0f 28 f1          	movapd %xmm1,%xmm6
    3a94:	66 0f 14 ed          	unpcklpd %xmm5,%xmm5
    3a98:	f2 0f 10 64 24 60    	movsd  0x60(%rsp),%xmm4
    3a9e:	66 0f 14 f6          	unpcklpd %xmm6,%xmm6
    3aa2:	0f 29 ac 24 90 00 00 	movaps %xmm5,0x90(%rsp)
    3aa9:	00 
    3aaa:	0f 29 b4 24 a0 00 00 	movaps %xmm6,0xa0(%rsp)
    3ab1:	00 
    3ab2:	66 0f 28 fc          	movapd %xmm4,%xmm7
    3ab6:	66 0f 14 ff          	unpcklpd %xmm7,%xmm7
    3aba:	dd 5c 24 70          	fstpl  0x70(%rsp)
    3abe:	dc 84 24 08 02 00 00 	faddl  0x208(%rsp)
    3ac5:	f2 0f 10 5c 24 70    	movsd  0x70(%rsp),%xmm3
    3acb:	0f 29 7c 24 40       	movaps %xmm7,0x40(%rsp)
    3ad0:	48 89 54 24 70       	mov    %rdx,0x70(%rsp)
    3ad5:	dd 9c 24 80 00 00 00 	fstpl  0x80(%rsp)
    3adc:	dc 84 24 00 02 00 00 	faddl  0x200(%rsp)
    3ae3:	f2 0f 10 94 24 80 00 	movsd  0x80(%rsp),%xmm2
    3aea:	00 00 
    3aec:	dd 9c 24 88 00 00 00 	fstpl  0x88(%rsp)
    3af3:	f2 0f 10 8c 24 88 00 	movsd  0x88(%rsp),%xmm1
    3afa:	00 00 
    3afc:	e8 5f 3c 00 00       	call   7760 <_Z6stressdddd>
    3b01:	f2 0f 10 44 24 38    	movsd  0x38(%rsp),%xmm0
    3b07:	f2 0f 10 4c 24 20    	movsd  0x20(%rsp),%xmm1
    3b0d:	f2 0f 59 84 24 30 01 	mulsd  0x130(%rsp),%xmm0
    3b14:	00 00 
    3b16:	66 41 0f 10 3f       	movupd (%r15),%xmm7
    3b1b:	f2 0f 59 8c 24 48 01 	mulsd  0x148(%rsp),%xmm1
    3b22:	00 00 
    3b24:	48 8b 54 24 70       	mov    0x70(%rsp),%rdx
    3b29:	66 0f 28 b4 24 a0 00 	movapd 0xa0(%rsp),%xmm6
    3b30:	00 00 
    3b32:	dd 84 24 c0 00 00 00 	fldl   0xc0(%rsp)
    3b39:	db ac 24 d0 00 00 00 	fldt   0xd0(%rsp)
    3b40:	f2 44 0f 10 84 24 e0 	movsd  0xe0(%rsp),%xmm8
    3b47:	00 00 00 
    3b4a:	66 0f 28 ac 24 90 00 	movapd 0x90(%rsp),%xmm5
    3b51:	00 00 
    3b53:	66 0f 59 ac 24 20 01 	mulpd  0x120(%rsp),%xmm5
    3b5a:	00 00 
    3b5c:	66 0f 28 a4 24 b0 00 	movapd 0xb0(%rsp),%xmm4
    3b63:	00 00 
    3b65:	66 0f 59 a4 24 50 01 	mulpd  0x150(%rsp),%xmm4
    3b6c:	00 00 
    3b6e:	f2 0f 58 c1          	addsd  %xmm1,%xmm0
    3b72:	f2 0f 10 4c 24 30    	movsd  0x30(%rsp),%xmm1
    3b78:	f2 0f 59 8c 24 60 01 	mulsd  0x160(%rsp),%xmm1
    3b7f:	00 00 
    3b81:	f2 0f 58 c1          	addsd  %xmm1,%xmm0
    3b85:	f2 0f 59 44 24 60    	mulsd  0x60(%rsp),%xmm0
    3b8b:	66 0f 10 8c 24 38 01 	movupd 0x138(%rsp),%xmm1
    3b92:	00 00 
    3b94:	66 0f 59 ce          	mulpd  %xmm6,%xmm1
    3b98:	f2 41 0f 5e c0       	divsd  %xmm8,%xmm0
    3b9d:	66 0f 58 cd          	addpd  %xmm5,%xmm1
    3ba1:	66 0f 58 cc          	addpd  %xmm4,%xmm1
    3ba5:	66 0f 59 4c 24 40    	mulpd  0x40(%rsp),%xmm1
    3bab:	66 0f 5e 4c 24 50    	divpd  0x50(%rsp),%xmm1
    3bb1:	66 0f 58 cf          	addpd  %xmm7,%xmm1
    3bb5:	41 0f 11 0f          	movups %xmm1,(%r15)
    3bb9:	f2 41 0f 58 47 10    	addsd  0x10(%r15),%xmm0
    3bbf:	f2 41 0f 11 47 10    	movsd  %xmm0,0x10(%r15)
    3bc5:	e9 36 fe ff ff       	jmp    3a00 <_ZL6forceldddddddjjPPPedddd+0x7f0>
    3bca:	66 0f 2f 34 24       	comisd (%rsp),%xmm6
    3bcf:	66 0f 28 e6          	movapd %xmm6,%xmm4
    3bd3:	0f 82 5e fc ff ff    	jb     3837 <_ZL6forceldddddddjjPPPedddd+0x627>
    3bd9:	dd 54 24 20          	fstl   0x20(%rsp)
    3bdd:	f2 0f 10 74 24 20    	movsd  0x20(%rsp),%xmm6
    3be3:	66 0f 2f f4          	comisd %xmm4,%xmm6
    3be7:	0f 82 4a fc ff ff    	jb     3837 <_ZL6forceldddddddjjPPPedddd+0x627>
    3bed:	f2 0f 10 7c 24 08    	movsd  0x8(%rsp),%xmm7
    3bf3:	31 d2                	xor    %edx,%edx
    3bf5:	8b 44 24 38          	mov    0x38(%rsp),%eax
    3bf9:	66 0f 2f fc          	comisd %xmm4,%xmm7
    3bfd:	0f 83 fb fc ff ff    	jae    38fe <_ZL6forceldddddddjjPPPedddd+0x6ee>
    3c03:	e9 2f fc ff ff       	jmp    3837 <_ZL6forceldddddddjjPPPedddd+0x627>
    3c08:	f2 0f 10 6c 24 08    	movsd  0x8(%rsp),%xmm5
    3c0e:	66 0f 2f ef          	comisd %xmm7,%xmm5
    3c12:	0f 82 01 fd ff ff    	jb     3919 <_ZL6forceldddddddjjPPPedddd+0x709>
    3c18:	44 8b 64 24 38       	mov    0x38(%rsp),%r12d
    3c1d:	66 0f ef c0          	pxor   %xmm0,%xmm0
    3c21:	66 0f ef e4          	pxor   %xmm4,%xmm4
    3c25:	f2 0f 10 0d 33 48 00 	movsd  0x4833(%rip),%xmm1        # 8460 <_IO_stdin_used+0x460>
    3c2c:	00 
    3c2d:	db ac 24 80 01 00 00 	fldt   0x180(%rsp)
    3c34:	66 0f 2e ec          	ucomisd %xmm4,%xmm5
    3c38:	f2 49 0f 2a c4       	cvtsi2sd %r12,%xmm0
    3c3d:	f2 0f 5e c8          	divsd  %xmm0,%xmm1
    3c41:	f2 0f 11 4c 24 20    	movsd  %xmm1,0x20(%rsp)
    3c47:	dd 44 24 20          	fldl   0x20(%rsp)
    3c4b:	7a 0b                	jp     3c58 <_ZL6forceldddddddjjPPPedddd+0xa48>
    3c4d:	ba 01 00 00 00       	mov    $0x1,%edx
    3c52:	0f 84 71 08 00 00    	je     44c9 <_ZL6forceldddddddjjPPPedddd+0x12b9>
    3c58:	d9 bc 24 1e 01 00 00 	fnstcw 0x11e(%rsp)
    3c5f:	dc f9                	fdivr  %st,%st(1)
    3c61:	d9 c9                	fxch   %st(1)
    3c63:	0f b7 84 24 1e 01 00 	movzwl 0x11e(%rsp),%eax
    3c6a:	00 
    3c6b:	80 e4 f3             	and    $0xf3,%ah
    3c6e:	80 cc 08             	or     $0x8,%ah
    3c71:	66 89 84 24 18 01 00 	mov    %ax,0x118(%rsp)
    3c78:	00 
    3c79:	0f b7 84 24 1e 01 00 	movzwl 0x11e(%rsp),%eax
    3c80:	00 
    3c81:	80 cc 0c             	or     $0xc,%ah
    3c84:	66 89 84 24 1a 01 00 	mov    %ax,0x11a(%rsp)
    3c8b:	00 
    3c8c:	d9 ac 24 18 01 00 00 	fldcw  0x118(%rsp)
    3c93:	d9 fc                	frndint 
    3c95:	d9 ac 24 1e 01 00 00 	fldcw  0x11e(%rsp)
    3c9c:	d9 ac 24 1a 01 00 00 	fldcw  0x11a(%rsp)
    3ca3:	db 5c 24 20          	fistpl 0x20(%rsp)
    3ca7:	d9 ac 24 1e 01 00 00 	fldcw  0x11e(%rsp)
    3cae:	8b 54 24 20          	mov    0x20(%rsp),%edx
    3cb2:	d9 bc 24 1e 01 00 00 	fnstcw 0x11e(%rsp)
    3cb9:	db ac 24 90 01 00 00 	fldt   0x190(%rsp)
    3cc0:	0f b7 84 24 1e 01 00 	movzwl 0x11e(%rsp),%eax
    3cc7:	00 
    3cc8:	de f1                	fdivp  %st,%st(1)
    3cca:	80 e4 f3             	and    $0xf3,%ah
    3ccd:	80 cc 04             	or     $0x4,%ah
    3cd0:	66 89 84 24 1c 01 00 	mov    %ax,0x11c(%rsp)
    3cd7:	00 
    3cd8:	d9 ac 24 1c 01 00 00 	fldcw  0x11c(%rsp)
    3cdf:	d9 fc                	frndint 
    3ce1:	d9 ac 24 1e 01 00 00 	fldcw  0x11e(%rsp)
    3ce8:	d9 ac 24 1a 01 00 00 	fldcw  0x11a(%rsp)
    3cef:	db 5c 24 20          	fistpl 0x20(%rsp)
    3cf3:	d9 ac 24 1e 01 00 00 	fldcw  0x11e(%rsp)
    3cfa:	44 8b 44 24 20       	mov    0x20(%rsp),%r8d
    3cff:	44 39 74 24 60       	cmp    %r14d,0x60(%rsp)
    3d04:	0f 86 d2 f5 ff ff    	jbe    32dc <_ZL6forceldddddddjjPPPedddd+0xcc>
    3d0a:	8b 44 24 60          	mov    0x60(%rsp),%eax
    3d0e:	44 89 f1             	mov    %r14d,%ecx
    3d11:	44 89 c7             	mov    %r8d,%edi
    3d14:	4c 8d 64 cd 00       	lea    0x0(%rbp,%rcx,8),%r12
    3d19:	48 8d 34 fd 00 00 00 	lea    0x0(,%rdi,8),%rsi
    3d20:	00 
    3d21:	83 e8 01             	sub    $0x1,%eax
    3d24:	44 29 f0             	sub    %r14d,%eax
    3d27:	48 01 c8             	add    %rcx,%rax
    3d2a:	48 8d 4c c5 08       	lea    0x8(%rbp,%rax,8),%rcx
    3d2f:	8d 42 ff             	lea    -0x1(%rdx),%eax
    3d32:	4c 8d 34 c5 08 00 00 	lea    0x8(,%rax,8),%r14
    3d39:	00 
    3d3a:	8d 43 ff             	lea    -0x1(%rbx),%eax
    3d3d:	44 29 c0             	sub    %r8d,%eax
    3d40:	4c 8d 6c 07 01       	lea    0x1(%rdi,%rax,1),%r13
    3d45:	48 8d bc 24 20 01 00 	lea    0x120(%rsp),%rdi
    3d4c:	00 
    3d4d:	49 c1 e5 03          	shl    $0x3,%r13
    3d51:	0f 1f 80 00 00 00 00 	nopl   0x0(%rax)
    3d58:	85 d2                	test   %edx,%edx
    3d5a:	0f 84 97 00 00 00    	je     3df7 <_ZL6forceldddddddjjPPPedddd+0xbe7>
    3d60:	dd 44 24 30          	fldl   0x30(%rsp)
    3d64:	31 ed                	xor    %ebp,%ebp
    3d66:	66 2e 0f 1f 84 00 00 	cs nopw 0x0(%rax,%rax,1)
    3d6d:	00 00 00 
    3d70:	49 8b 04 24          	mov    (%r12),%rax
    3d74:	48 8b 04 28          	mov    (%rax,%rbp,1),%rax
    3d78:	db 28                	fldt   (%rax)
    3d7a:	db f1                	fcomi  %st(1),%st
    3d7c:	72 42                	jb     3dc0 <_ZL6forceldddddddjjPPPedddd+0xbb0>
    3d7e:	d9 c2                	fld    %st(2)
    3d80:	df f1                	fcomip %st(1),%st
    3d82:	72 44                	jb     3dc8 <_ZL6forceldddddddjjPPPedddd+0xbb8>
    3d84:	dd 04 24             	fldl   (%rsp)
    3d87:	db 68 10             	fldt   0x10(%rax)
    3d8a:	db f1                	fcomi  %st(1),%st
    3d8c:	dd d9                	fstp   %st(1)
    3d8e:	72 40                	jb     3dd0 <_ZL6forceldddddddjjPPPedddd+0xbc0>
    3d90:	dd 44 24 08          	fldl   0x8(%rsp)
    3d94:	df f1                	fcomip %st(1),%st
    3d96:	72 3e                	jb     3dd6 <_ZL6forceldddddddjjPPPedddd+0xbc6>
    3d98:	dd 44 24 18          	fldl   0x18(%rsp)
    3d9c:	db 68 20             	fldt   0x20(%rax)
    3d9f:	db f1                	fcomi  %st(1),%st
    3da1:	dd d9                	fstp   %st(1)
    3da3:	72 37                	jb     3ddc <_ZL6forceldddddddjjPPPedddd+0xbcc>
    3da5:	dd 44 24 10          	fldl   0x10(%rsp)
    3da9:	df f1                	fcomip %st(1),%st
    3dab:	0f 83 38 03 00 00    	jae    40e9 <_ZL6forceldddddddjjPPPedddd+0xed9>
    3db1:	dd d8                	fstp   %st(0)
    3db3:	dd d8                	fstp   %st(0)
    3db5:	dd d8                	fstp   %st(0)
    3db7:	eb 2f                	jmp    3de8 <_ZL6forceldddddddjjPPPedddd+0xbd8>
    3db9:	0f 1f 80 00 00 00 00 	nopl   0x0(%rax)
    3dc0:	dd d8                	fstp   %st(0)
    3dc2:	eb 24                	jmp    3de8 <_ZL6forceldddddddjjPPPedddd+0xbd8>
    3dc4:	0f 1f 40 00          	nopl   0x0(%rax)
    3dc8:	dd d8                	fstp   %st(0)
    3dca:	eb 1c                	jmp    3de8 <_ZL6forceldddddddjjPPPedddd+0xbd8>
    3dcc:	0f 1f 40 00          	nopl   0x0(%rax)
    3dd0:	dd d8                	fstp   %st(0)
    3dd2:	dd d8                	fstp   %st(0)
    3dd4:	eb 12                	jmp    3de8 <_ZL6forceldddddddjjPPPedddd+0xbd8>
    3dd6:	dd d8                	fstp   %st(0)
    3dd8:	dd d8                	fstp   %st(0)
    3dda:	eb 0c                	jmp    3de8 <_ZL6forceldddddddjjPPPedddd+0xbd8>
    3ddc:	dd d8                	fstp   %st(0)
    3dde:	dd d8                	fstp   %st(0)
    3de0:	dd d8                	fstp   %st(0)
    3de2:	66 0f 1f 44 00 00    	nopw   0x0(%rax,%rax,1)
    3de8:	48 83 c5 08          	add    $0x8,%rbp
    3dec:	49 39 ee             	cmp    %rbp,%r14
    3def:	0f 85 7b ff ff ff    	jne    3d70 <_ZL6forceldddddddjjPPPedddd+0xb60>
    3df5:	dd d8                	fstp   %st(0)
    3df7:	44 39 c3             	cmp    %r8d,%ebx
    3dfa:	0f 86 97 00 00 00    	jbe    3e97 <_ZL6forceldddddddjjPPPedddd+0xc87>
    3e00:	dd 44 24 30          	fldl   0x30(%rsp)
    3e04:	48 89 f5             	mov    %rsi,%rbp
    3e07:	66 0f 1f 84 00 00 00 	nopw   0x0(%rax,%rax,1)
    3e0e:	00 00 
    3e10:	49 8b 04 24          	mov    (%r12),%rax
    3e14:	48 8b 04 28          	mov    (%rax,%rbp,1),%rax
    3e18:	db 28                	fldt   (%rax)
    3e1a:	db f1                	fcomi  %st(1),%st
    3e1c:	72 42                	jb     3e60 <_ZL6forceldddddddjjPPPedddd+0xc50>
    3e1e:	d9 c2                	fld    %st(2)
    3e20:	df f1                	fcomip %st(1),%st
    3e22:	72 44                	jb     3e68 <_ZL6forceldddddddjjPPPedddd+0xc58>
    3e24:	dd 04 24             	fldl   (%rsp)
    3e27:	db 68 10             	fldt   0x10(%rax)
    3e2a:	db f1                	fcomi  %st(1),%st
    3e2c:	dd d9                	fstp   %st(1)
    3e2e:	72 40                	jb     3e70 <_ZL6forceldddddddjjPPPedddd+0xc60>
    3e30:	dd 44 24 08          	fldl   0x8(%rsp)
    3e34:	df f1                	fcomip %st(1),%st
    3e36:	72 3e                	jb     3e76 <_ZL6forceldddddddjjPPPedddd+0xc66>
    3e38:	dd 44 24 18          	fldl   0x18(%rsp)
    3e3c:	db 68 20             	fldt   0x20(%rax)
    3e3f:	db f1                	fcomi  %st(1),%st
    3e41:	dd d9                	fstp   %st(1)
    3e43:	72 37                	jb     3e7c <_ZL6forceldddddddjjPPPedddd+0xc6c>
    3e45:	dd 44 24 10          	fldl   0x10(%rsp)
    3e49:	df f1                	fcomip %st(1),%st
    3e4b:	0f 83 88 04 00 00    	jae    42d9 <_ZL6forceldddddddjjPPPedddd+0x10c9>
    3e51:	dd d8                	fstp   %st(0)
    3e53:	dd d8                	fstp   %st(0)
    3e55:	dd d8                	fstp   %st(0)
    3e57:	eb 2f                	jmp    3e88 <_ZL6forceldddddddjjPPPedddd+0xc78>
    3e59:	0f 1f 80 00 00 00 00 	nopl   0x0(%rax)
    3e60:	dd d8                	fstp   %st(0)
    3e62:	eb 24                	jmp    3e88 <_ZL6forceldddddddjjPPPedddd+0xc78>
    3e64:	0f 1f 40 00          	nopl   0x0(%rax)
    3e68:	dd d8                	fstp   %st(0)
    3e6a:	eb 1c                	jmp    3e88 <_ZL6forceldddddddjjPPPedddd+0xc78>
    3e6c:	0f 1f 40 00          	nopl   0x0(%rax)
    3e70:	dd d8                	fstp   %st(0)
    3e72:	dd d8                	fstp   %st(0)
    3e74:	eb 12                	jmp    3e88 <_ZL6forceldddddddjjPPPedddd+0xc78>
    3e76:	dd d8                	fstp   %st(0)
    3e78:	dd d8                	fstp   %st(0)
    3e7a:	eb 0c                	jmp    3e88 <_ZL6forceldddddddjjPPPedddd+0xc78>
    3e7c:	dd d8                	fstp   %st(0)
    3e7e:	dd d8                	fstp   %st(0)
    3e80:	dd d8                	fstp   %st(0)
    3e82:	66 0f 1f 44 00 00    	nopw   0x0(%rax,%rax,1)
    3e88:	48 83 c5 08          	add    $0x8,%rbp
    3e8c:	49 39 ed             	cmp    %rbp,%r13
    3e8f:	0f 85 7b ff ff ff    	jne    3e10 <_ZL6forceldddddddjjPPPedddd+0xc00>
    3e95:	dd d8                	fstp   %st(0)
    3e97:	49 83 c4 08          	add    $0x8,%r12
    3e9b:	49 39 cc             	cmp    %rcx,%r12
    3e9e:	0f 85 b4 fe ff ff    	jne    3d58 <_ZL6forceldddddddjjPPPedddd+0xb48>
    3ea4:	dd d8                	fstp   %st(0)
    3ea6:	e9 35 f4 ff ff       	jmp    32e0 <_ZL6forceldddddddjjPPPedddd+0xd0>
    3eab:	66 0f 2f 7c 24 08    	comisd 0x8(%rsp),%xmm7
    3eb1:	0f 87 98 01 00 00    	ja     404f <_ZL6forceldddddddjjPPPedddd+0xe3f>
    3eb7:	d9 ee                	fldz   
    3eb9:	e9 b2 f4 ff ff       	jmp    3370 <_ZL6forceldddddddjjPPPedddd+0x160>
    3ebe:	66 0f 2f 6c 24 08    	comisd 0x8(%rsp),%xmm5
    3ec4:	0f 87 9f 01 00 00    	ja     4069 <_ZL6forceldddddddjjPPPedddd+0xe59>
    3eca:	d9 ee                	fldz   
    3ecc:	d9 c9                	fxch   %st(1)
    3ece:	e9 7d f8 ff ff       	jmp    3750 <_ZL6forceldddddddjjPPPedddd+0x540>
    3ed3:	66 0f 2f e7          	comisd %xmm7,%xmm4
    3ed7:	0f 87 7d 01 00 00    	ja     405a <_ZL6forceldddddddjjPPPedddd+0xe4a>
    3edd:	d9 ee                	fldz   
    3edf:	66 0f 28 ec          	movapd %xmm4,%xmm5
    3ee3:	e9 49 f8 ff ff       	jmp    3731 <_ZL6forceldddddddjjPPPedddd+0x521>
    3ee8:	dd 54 24 20          	fstl   0x20(%rsp)
    3eec:	f2 0f 10 74 24 20    	movsd  0x20(%rsp),%xmm6
    3ef2:	66 0f 2f f5          	comisd %xmm5,%xmm6
    3ef6:	0f 86 37 01 00 00    	jbe    4033 <_ZL6forceldddddddjjPPPedddd+0xe23>
    3efc:	d9 c9                	fxch   %st(1)
    3efe:	dc 05 5c 45 00 00    	faddl  0x455c(%rip)        # 8460 <_IO_stdin_used+0x460>
    3f04:	eb 4c                	jmp    3f52 <_ZL6forceldddddddjjPPPedddd+0xd42>
    3f06:	66 0f 2f e7          	comisd %xmm7,%xmm4
    3f0a:	0f 87 30 01 00 00    	ja     4040 <_ZL6forceldddddddjjPPPedddd+0xe30>
    3f10:	d9 ee                	fldz   
    3f12:	66 0f 28 fc          	movapd %xmm4,%xmm7
    3f16:	e9 2c f4 ff ff       	jmp    3347 <_ZL6forceldddddddjjPPPedddd+0x137>
    3f1b:	f2 0f 10 5c 24 30    	movsd  0x30(%rsp),%xmm3
    3f21:	66 0f 2f de          	comisd %xmm6,%xmm3
    3f25:	0f 86 f5 00 00 00    	jbe    4020 <_ZL6forceldddddddjjPPPedddd+0xe10>
    3f2b:	d9 c9                	fxch   %st(1)
    3f2d:	dc 05 2d 45 00 00    	faddl  0x452d(%rip)        # 8460 <_IO_stdin_used+0x460>
    3f33:	d9 c9                	fxch   %st(1)
    3f35:	e9 8d 00 00 00       	jmp    3fc7 <_ZL6forceldddddddjjPPPedddd+0xdb7>
    3f3a:	dd d9                	fstp   %st(1)
    3f3c:	dd 54 24 20          	fstl   0x20(%rsp)
    3f40:	f2 0f 10 74 24 20    	movsd  0x20(%rsp),%xmm6
    3f46:	66 0f 2f f5          	comisd %xmm5,%xmm6
    3f4a:	0f 86 9a 05 00 00    	jbe    44ea <_ZL6forceldddddddjjPPPedddd+0x12da>
    3f50:	d9 ee                	fldz   
    3f52:	db bc 24 90 01 00 00 	fstpt  0x190(%rsp)
    3f59:	f2 0f 10 44 24 08    	movsd  0x8(%rsp),%xmm0
    3f5f:	f2 44 0f 11 44 24 70 	movsd  %xmm8,0x70(%rsp)
    3f66:	dd 54 24 20          	fstl   0x20(%rsp)
    3f6a:	f2 0f 10 7c 24 20    	movsd  0x20(%rsp),%xmm7
    3f70:	dd 5c 24 40          	fstpl  0x40(%rsp)
    3f74:	f2 0f 5e c7          	divsd  %xmm7,%xmm0
    3f78:	e8 33 e3 ff ff       	call   22b0 <atan@plt>
    3f7d:	66 0f ef e4          	pxor   %xmm4,%xmm4
    3f81:	66 0f 2f 64 24 08    	comisd 0x8(%rsp),%xmm4
    3f87:	f2 44 0f 10 44 24 70 	movsd  0x70(%rsp),%xmm8
    3f8e:	f2 0f 11 44 24 20    	movsd  %xmm0,0x20(%rsp)
    3f94:	dd 44 24 20          	fldl   0x20(%rsp)
    3f98:	dd 44 24 40          	fldl   0x40(%rsp)
    3f9c:	0f 86 af f4 ff ff    	jbe    3451 <_ZL6forceldddddddjjPPPedddd+0x241>
    3fa2:	d9 c9                	fxch   %st(1)
    3fa4:	dc 05 b6 44 00 00    	faddl  0x44b6(%rip)        # 8460 <_IO_stdin_used+0x460>
    3faa:	d9 c9                	fxch   %st(1)
    3fac:	e9 9f f7 ff ff       	jmp    3750 <_ZL6forceldddddddjjPPPedddd+0x540>
    3fb1:	dd d9                	fstp   %st(1)
    3fb3:	f2 0f 10 74 24 30    	movsd  0x30(%rsp),%xmm6
    3fb9:	66 0f 2f f3          	comisd %xmm3,%xmm6
    3fbd:	0f 86 32 05 00 00    	jbe    44f5 <_ZL6forceldddddddjjPPPedddd+0x12e5>
    3fc3:	d9 ee                	fldz   
    3fc5:	d9 c9                	fxch   %st(1)
    3fc7:	dd 5c 24 70          	fstpl  0x70(%rsp)
    3fcb:	f2 0f 10 44 24 08    	movsd  0x8(%rsp),%xmm0
    3fd1:	f2 0f 5e 44 24 30    	divsd  0x30(%rsp),%xmm0
    3fd7:	db bc 24 70 01 00 00 	fstpt  0x170(%rsp)
    3fde:	f2 44 0f 11 44 24 40 	movsd  %xmm8,0x40(%rsp)
    3fe5:	e8 c6 e2 ff ff       	call   22b0 <atan@plt>
    3fea:	66 0f ef db          	pxor   %xmm3,%xmm3
    3fee:	66 0f 2f 5c 24 08    	comisd 0x8(%rsp),%xmm3
    3ff4:	f2 44 0f 10 44 24 40 	movsd  0x40(%rsp),%xmm8
    3ffb:	f2 0f 11 44 24 20    	movsd  %xmm0,0x20(%rsp)
    4001:	dd 44 24 20          	fldl   0x20(%rsp)
    4005:	dd 44 24 70          	fldl   0x70(%rsp)
    4009:	0f 86 d4 f6 ff ff    	jbe    36e3 <_ZL6forceldddddddjjPPPedddd+0x4d3>
    400f:	d9 c9                	fxch   %st(1)
    4011:	dc 05 49 44 00 00    	faddl  0x4449(%rip)        # 8460 <_IO_stdin_used+0x460>
    4017:	e9 54 f3 ff ff       	jmp    3370 <_ZL6forceldddddddjjPPPedddd+0x160>
    401c:	d9 c9                	fxch   %st(1)
    401e:	eb 02                	jmp    4022 <_ZL6forceldddddddjjPPPedddd+0xe12>
    4020:	d9 c9                	fxch   %st(1)
    4022:	dc 05 20 44 00 00    	faddl  0x4420(%rip)        # 8448 <_IO_stdin_used+0x448>
    4028:	d9 c9                	fxch   %st(1)
    402a:	e9 6c f6 ff ff       	jmp    369b <_ZL6forceldddddddjjPPPedddd+0x48b>
    402f:	d9 c9                	fxch   %st(1)
    4031:	eb 02                	jmp    4035 <_ZL6forceldddddddjjPPPedddd+0xe25>
    4033:	d9 c9                	fxch   %st(1)
    4035:	dc 05 0d 44 00 00    	faddl  0x440d(%rip)        # 8448 <_IO_stdin_used+0x448>
    403b:	e9 c1 f3 ff ff       	jmp    3401 <_ZL6forceldddddddjjPPPedddd+0x1f1>
    4040:	dd 05 fa 43 00 00    	fldl   0x43fa(%rip)        # 8440 <_IO_stdin_used+0x440>
    4046:	66 0f 28 fc          	movapd %xmm4,%xmm7
    404a:	e9 f8 f2 ff ff       	jmp    3347 <_ZL6forceldddddddjjPPPedddd+0x137>
    404f:	dd 05 eb 43 00 00    	fldl   0x43eb(%rip)        # 8440 <_IO_stdin_used+0x440>
    4055:	e9 16 f3 ff ff       	jmp    3370 <_ZL6forceldddddddjjPPPedddd+0x160>
    405a:	dd 05 e0 43 00 00    	fldl   0x43e0(%rip)        # 8440 <_IO_stdin_used+0x440>
    4060:	66 0f 28 ec          	movapd %xmm4,%xmm5
    4064:	e9 c8 f6 ff ff       	jmp    3731 <_ZL6forceldddddddjjPPPedddd+0x521>
    4069:	dd 05 d1 43 00 00    	fldl   0x43d1(%rip)        # 8440 <_IO_stdin_used+0x440>
    406f:	d9 c9                	fxch   %st(1)
    4071:	e9 da f6 ff ff       	jmp    3750 <_ZL6forceldddddddjjPPPedddd+0x540>
    4076:	66 0f 28 e7          	movapd %xmm7,%xmm4
    407a:	f2 0f 10 7c 24 30    	movsd  0x30(%rsp),%xmm7
    4080:	66 0f 2f fc          	comisd %xmm4,%xmm7
    4084:	0f 86 7d f6 ff ff    	jbe    3707 <_ZL6forceldddddddjjPPPedddd+0x4f7>
    408a:	d9 c9                	fxch   %st(1)
    408c:	eb 83                	jmp    4011 <_ZL6forceldddddddjjPPPedddd+0xe01>
    408e:	dd 54 24 20          	fstl   0x20(%rsp)
    4092:	f2 0f 10 7c 24 20    	movsd  0x20(%rsp),%xmm7
    4098:	66 0f 2f fe          	comisd %xmm6,%xmm7
    409c:	0f 86 db f3 ff ff    	jbe    347d <_ZL6forceldddddddjjPPPedddd+0x26d>
    40a2:	d9 c9                	fxch   %st(1)
    40a4:	e9 fb fe ff ff       	jmp    3fa4 <_ZL6forceldddddddjjPPPedddd+0xd94>
    40a9:	dd d9                	fstp   %st(1)
    40ab:	f2 0f 10 7c 24 30    	movsd  0x30(%rsp),%xmm7
    40b1:	66 0f 2f fc          	comisd %xmm4,%xmm7
    40b5:	0f 87 fc fd ff ff    	ja     3eb7 <_ZL6forceldddddddjjPPPedddd+0xca7>
    40bb:	dd 05 87 43 00 00    	fldl   0x4387(%rip)        # 8448 <_IO_stdin_used+0x448>
    40c1:	e9 aa f2 ff ff       	jmp    3370 <_ZL6forceldddddddjjPPPedddd+0x160>
    40c6:	dd d9                	fstp   %st(1)
    40c8:	dd 54 24 20          	fstl   0x20(%rsp)
    40cc:	f2 0f 10 5c 24 20    	movsd  0x20(%rsp),%xmm3
    40d2:	66 0f 2f df          	comisd %xmm7,%xmm3
    40d6:	0f 87 ee fd ff ff    	ja     3eca <_ZL6forceldddddddjjPPPedddd+0xcba>
    40dc:	dd 05 66 43 00 00    	fldl   0x4366(%rip)        # 8448 <_IO_stdin_used+0x448>
    40e2:	d9 c9                	fxch   %st(1)
    40e4:	e9 67 f6 ff ff       	jmp    3750 <_ZL6forceldddddddjjPPPedddd+0x540>
    40e9:	d9 cc                	fxch   %st(4)
    40eb:	dd 9c 24 08 01 00 00 	fstpl  0x108(%rsp)
    40f2:	d9 ca                	fxch   %st(2)
    40f4:	db bc 24 f0 00 00 00 	fstpt  0xf0(%rsp)
    40fb:	d9 ca                	fxch   %st(2)
    40fd:	48 89 8c 24 00 01 00 	mov    %rcx,0x100(%rsp)
    4104:	00 
    4105:	dd 54 24 20          	fstl   0x20(%rsp)
    4109:	d9 c9                	fxch   %st(1)
    410b:	f2 0f 10 4c 24 20    	movsd  0x20(%rsp),%xmm1
    4111:	dd 54 24 38          	fstl   0x38(%rsp)
    4115:	d9 ca                	fxch   %st(2)
    4117:	dd 54 24 60          	fstl   0x60(%rsp)
    411b:	db 68 30             	fldt   0x30(%rax)
    411e:	f2 0f 10 44 24 60    	movsd  0x60(%rsp),%xmm0
    4124:	66 0f 28 e1          	movapd %xmm1,%xmm4
    4128:	f2 0f 10 4c 24 38    	movsd  0x38(%rsp),%xmm1
    412e:	66 0f 14 e4          	unpcklpd %xmm4,%xmm4
    4132:	48 89 b4 24 e8 00 00 	mov    %rsi,0xe8(%rsp)
    4139:	00 
    413a:	66 0f 28 e8          	movapd %xmm0,%xmm5
    413e:	f2 0f 10 44 24 68    	movsd  0x68(%rsp),%xmm0
    4144:	44 89 84 24 e0 00 00 	mov    %r8d,0xe0(%rsp)
    414b:	00 
    414c:	dd 5c 24 40          	fstpl  0x40(%rsp)
    4150:	d9 c9                	fxch   %st(1)
    4152:	66 0f 28 f1          	movapd %xmm1,%xmm6
    4156:	66 0f 14 ed          	unpcklpd %xmm5,%xmm5
    415a:	f2 0f 10 5c 24 40    	movsd  0x40(%rsp),%xmm3
    4160:	dc 84 24 10 02 00 00 	faddl  0x210(%rsp)
    4167:	66 0f 14 f6          	unpcklpd %xmm6,%xmm6
    416b:	89 94 24 d0 00 00 00 	mov    %edx,0xd0(%rsp)
    4172:	66 0f 28 d3          	movapd %xmm3,%xmm2
    4176:	0f 29 a4 24 c0 00 00 	movaps %xmm4,0xc0(%rsp)
    417d:	00 
    417e:	66 0f 14 d2          	unpcklpd %xmm2,%xmm2
    4182:	0f 29 b4 24 b0 00 00 	movaps %xmm6,0xb0(%rsp)
    4189:	00 
    418a:	0f 29 54 24 70       	movaps %xmm2,0x70(%rsp)
    418f:	f2 44 0f 11 84 24 10 	movsd  %xmm8,0x110(%rsp)
    4196:	01 00 00 
    4199:	dd 9c 24 80 00 00 00 	fstpl  0x80(%rsp)
    41a0:	d9 c9                	fxch   %st(1)
    41a2:	dc 84 24 08 02 00 00 	faddl  0x208(%rsp)
    41a9:	f2 0f 10 9c 24 80 00 	movsd  0x80(%rsp),%xmm3
    41b0:	00 00 
    41b2:	0f 29 ac 24 a0 00 00 	movaps %xmm5,0xa0(%rsp)
    41b9:	00 
    41ba:	48 89 bc 24 80 00 00 	mov    %rdi,0x80(%rsp)
    41c1:	00 
    41c2:	dd 9c 24 88 00 00 00 	fstpl  0x88(%rsp)
    41c9:	dc 84 24 00 02 00 00 	faddl  0x200(%rsp)
    41d0:	f2 0f 10 94 24 88 00 	movsd  0x88(%rsp),%xmm2
    41d7:	00 00 
    41d9:	dd 9c 24 90 00 00 00 	fstpl  0x90(%rsp)
    41e0:	f2 0f 10 8c 24 90 00 	movsd  0x90(%rsp),%xmm1
    41e7:	00 00 
    41e9:	e8 72 35 00 00       	call   7760 <_Z6stressdddd>
    41ee:	f2 0f 10 44 24 60    	movsd  0x60(%rsp),%xmm0
    41f4:	f2 0f 10 4c 24 38    	movsd  0x38(%rsp),%xmm1
    41fa:	f2 0f 59 84 24 30 01 	mulsd  0x130(%rsp),%xmm0
    4201:	00 00 
    4203:	66 41 0f 10 17       	movupd (%r15),%xmm2
    4208:	f2 0f 59 8c 24 48 01 	mulsd  0x148(%rsp),%xmm1
    420f:	00 00 
    4211:	dd 84 24 08 01 00 00 	fldl   0x108(%rsp)
    4218:	66 0f 28 b4 24 b0 00 	movapd 0xb0(%rsp),%xmm6
    421f:	00 00 
    4221:	db ac 24 f0 00 00 00 	fldt   0xf0(%rsp)
    4228:	f2 44 0f 10 84 24 10 	movsd  0x110(%rsp),%xmm8
    422f:	01 00 00 
    4232:	66 0f 28 ac 24 a0 00 	movapd 0xa0(%rsp),%xmm5
    4239:	00 00 
    423b:	48 8b 8c 24 00 01 00 	mov    0x100(%rsp),%rcx
    4242:	00 
    4243:	66 0f 59 ac 24 20 01 	mulpd  0x120(%rsp),%xmm5
    424a:	00 00 
    424c:	48 8b b4 24 e8 00 00 	mov    0xe8(%rsp),%rsi
    4253:	00 
    4254:	f2 0f 58 c1          	addsd  %xmm1,%xmm0
    4258:	f2 0f 10 4c 24 20    	movsd  0x20(%rsp),%xmm1
    425e:	f2 0f 59 8c 24 60 01 	mulsd  0x160(%rsp),%xmm1
    4265:	00 00 
    4267:	66 0f 28 a4 24 c0 00 	movapd 0xc0(%rsp),%xmm4
    426e:	00 00 
    4270:	44 8b 84 24 e0 00 00 	mov    0xe0(%rsp),%r8d
    4277:	00 
    4278:	66 0f 59 a4 24 50 01 	mulpd  0x150(%rsp),%xmm4
    427f:	00 00 
    4281:	8b 94 24 d0 00 00 00 	mov    0xd0(%rsp),%edx
    4288:	48 8b bc 24 80 00 00 	mov    0x80(%rsp),%rdi
    428f:	00 
    4290:	f2 0f 58 c1          	addsd  %xmm1,%xmm0
    4294:	f2 0f 59 44 24 40    	mulsd  0x40(%rsp),%xmm0
    429a:	66 0f 10 8c 24 38 01 	movupd 0x138(%rsp),%xmm1
    42a1:	00 00 
    42a3:	66 0f 59 ce          	mulpd  %xmm6,%xmm1
    42a7:	f2 41 0f 5e c0       	divsd  %xmm8,%xmm0
    42ac:	66 0f 58 cd          	addpd  %xmm5,%xmm1
    42b0:	66 0f 58 cc          	addpd  %xmm4,%xmm1
    42b4:	66 0f 59 4c 24 70    	mulpd  0x70(%rsp),%xmm1
    42ba:	66 0f 5e 4c 24 50    	divpd  0x50(%rsp),%xmm1
    42c0:	66 0f 58 ca          	addpd  %xmm2,%xmm1
    42c4:	41 0f 11 0f          	movups %xmm1,(%r15)
    42c8:	f2 41 0f 58 47 10    	addsd  0x10(%r15),%xmm0
    42ce:	f2 41 0f 11 47 10    	movsd  %xmm0,0x10(%r15)
    42d4:	e9 0f fb ff ff       	jmp    3de8 <_ZL6forceldddddddjjPPPedddd+0xbd8>
    42d9:	d9 cc                	fxch   %st(4)
    42db:	dd 9c 24 08 01 00 00 	fstpl  0x108(%rsp)
    42e2:	d9 ca                	fxch   %st(2)
    42e4:	db bc 24 f0 00 00 00 	fstpt  0xf0(%rsp)
    42eb:	d9 ca                	fxch   %st(2)
    42ed:	48 89 8c 24 00 01 00 	mov    %rcx,0x100(%rsp)
    42f4:	00 
    42f5:	dd 54 24 20          	fstl   0x20(%rsp)
    42f9:	d9 c9                	fxch   %st(1)
    42fb:	f2 0f 10 4c 24 20    	movsd  0x20(%rsp),%xmm1
    4301:	dd 54 24 38          	fstl   0x38(%rsp)
    4305:	d9 ca                	fxch   %st(2)
    4307:	dd 54 24 60          	fstl   0x60(%rsp)
    430b:	db 68 30             	fldt   0x30(%rax)
    430e:	f2 0f 10 44 24 60    	movsd  0x60(%rsp),%xmm0
    4314:	66 0f 28 e1          	movapd %xmm1,%xmm4
    4318:	f2 0f 10 4c 24 38    	movsd  0x38(%rsp),%xmm1
    431e:	66 0f 14 e4          	unpcklpd %xmm4,%xmm4
    4322:	48 89 b4 24 e8 00 00 	mov    %rsi,0xe8(%rsp)
    4329:	00 
    432a:	66 0f 28 e8          	movapd %xmm0,%xmm5
    432e:	f2 0f 10 44 24 68    	movsd  0x68(%rsp),%xmm0
    4334:	44 89 84 24 e0 00 00 	mov    %r8d,0xe0(%rsp)
    433b:	00 
    433c:	dd 5c 24 40          	fstpl  0x40(%rsp)
    4340:	d9 c9                	fxch   %st(1)
    4342:	66 0f 28 f1          	movapd %xmm1,%xmm6
    4346:	66 0f 14 ed          	unpcklpd %xmm5,%xmm5
    434a:	f2 0f 10 54 24 40    	movsd  0x40(%rsp),%xmm2
    4350:	dc 84 24 10 02 00 00 	faddl  0x210(%rsp)
    4357:	66 0f 14 f6          	unpcklpd %xmm6,%xmm6
    435b:	89 94 24 d0 00 00 00 	mov    %edx,0xd0(%rsp)
    4362:	66 0f 28 da          	movapd %xmm2,%xmm3
    4366:	0f 29 a4 24 c0 00 00 	movaps %xmm4,0xc0(%rsp)
    436d:	00 
    436e:	66 0f 14 db          	unpcklpd %xmm3,%xmm3
    4372:	0f 29 b4 24 b0 00 00 	movaps %xmm6,0xb0(%rsp)
    4379:	00 
    437a:	0f 29 5c 24 70       	movaps %xmm3,0x70(%rsp)
    437f:	f2 44 0f 11 84 24 10 	movsd  %xmm8,0x110(%rsp)
    4386:	01 00 00 
    4389:	dd 9c 24 80 00 00 00 	fstpl  0x80(%rsp)
    4390:	d9 c9                	fxch   %st(1)
    4392:	dc 84 24 08 02 00 00 	faddl  0x208(%rsp)
    4399:	f2 0f 10 9c 24 80 00 	movsd  0x80(%rsp),%xmm3
    43a0:	00 00 
    43a2:	0f 29 ac 24 a0 00 00 	movaps %xmm5,0xa0(%rsp)
    43a9:	00 
    43aa:	48 89 bc 24 80 00 00 	mov    %rdi,0x80(%rsp)
    43b1:	00 
    43b2:	dd 9c 24 88 00 00 00 	fstpl  0x88(%rsp)
    43b9:	dc 84 24 00 02 00 00 	faddl  0x200(%rsp)
    43c0:	f2 0f 10 94 24 88 00 	movsd  0x88(%rsp),%xmm2
    43c7:	00 00 
    43c9:	dd 9c 24 90 00 00 00 	fstpl  0x90(%rsp)
    43d0:	f2 0f 10 8c 24 90 00 	movsd  0x90(%rsp),%xmm1
    43d7:	00 00 
    43d9:	e8 82 33 00 00       	call   7760 <_Z6stressdddd>
    43de:	f2 0f 10 44 24 60    	movsd  0x60(%rsp),%xmm0
    43e4:	f2 0f 10 4c 24 38    	movsd  0x38(%rsp),%xmm1
    43ea:	f2 0f 59 84 24 30 01 	mulsd  0x130(%rsp),%xmm0
    43f1:	00 00 
    43f3:	dd 84 24 08 01 00 00 	fldl   0x108(%rsp)
    43fa:	f2 0f 59 8c 24 48 01 	mulsd  0x148(%rsp),%xmm1
    4401:	00 00 
    4403:	8b 94 24 d0 00 00 00 	mov    0xd0(%rsp),%edx
    440a:	66 0f 28 b4 24 b0 00 	movapd 0xb0(%rsp),%xmm6
    4411:	00 00 
    4413:	db ac 24 f0 00 00 00 	fldt   0xf0(%rsp)
    441a:	f2 44 0f 10 84 24 10 	movsd  0x110(%rsp),%xmm8
    4421:	01 00 00 
    4424:	48 8b 8c 24 00 01 00 	mov    0x100(%rsp),%rcx
    442b:	00 
    442c:	48 8b b4 24 e8 00 00 	mov    0xe8(%rsp),%rsi
    4433:	00 
    4434:	44 8b 84 24 e0 00 00 	mov    0xe0(%rsp),%r8d
    443b:	00 
    443c:	48 8b bc 24 80 00 00 	mov    0x80(%rsp),%rdi
    4443:	00 
    4444:	66 0f 28 ac 24 a0 00 	movapd 0xa0(%rsp),%xmm5
    444b:	00 00 
    444d:	f2 0f 58 c1          	addsd  %xmm1,%xmm0
    4451:	f2 0f 10 4c 24 20    	movsd  0x20(%rsp),%xmm1
    4457:	f2 0f 59 8c 24 60 01 	mulsd  0x160(%rsp),%xmm1
    445e:	00 00 
    4460:	66 0f 28 a4 24 c0 00 	movapd 0xc0(%rsp),%xmm4
    4467:	00 00 
    4469:	66 0f 59 ac 24 20 01 	mulpd  0x120(%rsp),%xmm5
    4470:	00 00 
    4472:	66 0f 59 a4 24 50 01 	mulpd  0x150(%rsp),%xmm4
    4479:	00 00 
    447b:	f2 0f 58 c1          	addsd  %xmm1,%xmm0
    447f:	f2 0f 59 44 24 40    	mulsd  0x40(%rsp),%xmm0
    4485:	66 0f 10 8c 24 38 01 	movupd 0x138(%rsp),%xmm1
    448c:	00 00 
    448e:	66 0f 59 ce          	mulpd  %xmm6,%xmm1
    4492:	f2 41 0f 5e c0       	divsd  %xmm8,%xmm0
    4497:	66 0f 58 cd          	addpd  %xmm5,%xmm1
    449b:	66 41 0f 10 2f       	movupd (%r15),%xmm5
    44a0:	66 0f 58 cc          	addpd  %xmm4,%xmm1
    44a4:	66 0f 59 4c 24 70    	mulpd  0x70(%rsp),%xmm1
    44aa:	66 0f 5e 4c 24 50    	divpd  0x50(%rsp),%xmm1
    44b0:	66 0f 58 cd          	addpd  %xmm5,%xmm1
    44b4:	41 0f 11 0f          	movups %xmm1,(%r15)
    44b8:	f2 41 0f 58 47 10    	addsd  0x10(%r15),%xmm0
    44be:	f2 41 0f 11 47 10    	movsd  %xmm0,0x10(%r15)
    44c4:	e9 bf f9 ff ff       	jmp    3e88 <_ZL6forceldddddddjjPPPedddd+0xc78>
    44c9:	dd d9                	fstp   %st(1)
    44cb:	d9 bc 24 1e 01 00 00 	fnstcw 0x11e(%rsp)
    44d2:	0f b7 84 24 1e 01 00 	movzwl 0x11e(%rsp),%eax
    44d9:	00 
    44da:	80 cc 0c             	or     $0xc,%ah
    44dd:	66 89 84 24 1a 01 00 	mov    %ax,0x11a(%rsp)
    44e4:	00 
    44e5:	e9 c8 f7 ff ff       	jmp    3cb2 <_ZL6forceldddddddjjPPPedddd+0xaa2>
    44ea:	dd 05 58 3f 00 00    	fldl   0x3f58(%rip)        # 8448 <_IO_stdin_used+0x448>
    44f0:	e9 0c ef ff ff       	jmp    3401 <_ZL6forceldddddddjjPPPedddd+0x1f1>
    44f5:	dd 05 4d 3f 00 00    	fldl   0x3f4d(%rip)        # 8448 <_IO_stdin_used+0x448>
    44fb:	d9 c9                	fxch   %st(1)
    44fd:	e9 99 f1 ff ff       	jmp    369b <_ZL6forceldddddddjjPPPedddd+0x48b>
    4502:	e8 f9 dd ff ff       	call   2300 <__stack_chk_fail@plt>
    4507:	66 0f 1f 84 00 00 00 	nopw   0x0(%rax,%rax,1)
    450e:	00 00 

0000000000004510 <_ZL7torqueldddddddjjPPPedddd>:
    4510:	41 57                	push   %r15
    4512:	66 44 0f 28 c8       	movapd %xmm0,%xmm9
    4517:	49 89 ff             	mov    %rdi,%r15
    451a:	41 56                	push   %r14
    451c:	41 89 f6             	mov    %esi,%r14d
    451f:	41 55                	push   %r13
    4521:	41 54                	push   %r12
    4523:	55                   	push   %rbp
    4524:	53                   	push   %rbx
    4525:	48 89 cb             	mov    %rcx,%rbx
    4528:	48 81 ec 78 01 00 00 	sub    $0x178,%rsp
    452f:	89 54 24 40          	mov    %edx,0x40(%rsp)
    4533:	f2 0f 11 4c 24 28    	movsd  %xmm1,0x28(%rsp)
    4539:	66 41 0f 28 c9       	movapd %xmm9,%xmm1
    453e:	66 0f 57 0d aa 3e 00 	xorpd  0x3eaa(%rip),%xmm1        # 83f0 <_IO_stdin_used+0x3f0>
    4545:	00 
    4546:	f2 0f 11 14 24       	movsd  %xmm2,(%rsp)
    454b:	dd 04 24             	fldl   (%rsp)
    454e:	f2 0f 11 44 24 18    	movsd  %xmm0,0x18(%rsp)
    4554:	66 0f ef c0          	pxor   %xmm0,%xmm0
    4558:	f2 0f 11 1c 24       	movsd  %xmm3,(%rsp)
    455d:	f2 0f 11 64 24 08    	movsd  %xmm4,0x8(%rsp)
    4563:	f2 0f 11 6c 24 20    	movsd  %xmm5,0x20(%rsp)
    4569:	f2 0f 11 74 24 10    	movsd  %xmm6,0x10(%rsp)
    456f:	f2 0f 11 7c 24 58    	movsd  %xmm7,0x58(%rsp)
    4575:	64 48 8b 04 25 28 00 	mov    %fs:0x28,%rax
    457c:	00 00 
    457e:	48 89 84 24 68 01 00 	mov    %rax,0x168(%rsp)
    4585:	00 
    4586:	31 c0                	xor    %eax,%eax
    4588:	66 0f 2f e9          	comisd %xmm1,%xmm5
    458c:	48 c7 47 10 00 00 00 	movq   $0x0,0x10(%rdi)
    4593:	00 
    4594:	0f 11 07             	movups %xmm0,(%rdi)
    4597:	0f 87 5b 02 00 00    	ja     47f8 <_ZL7torqueldddddddjjPPPedddd+0x2e8>
    459d:	89 74 24 50          	mov    %esi,0x50(%rsp)
    45a1:	f2 0f 10 7c 24 18    	movsd  0x18(%rsp),%xmm7
    45a7:	45 31 ed             	xor    %r13d,%r13d
    45aa:	66 0f 2f 7c 24 10    	comisd 0x10(%rsp),%xmm7
    45b0:	0f 87 ba 01 00 00    	ja     4770 <_ZL7torqueldddddddjjPPPedddd+0x260>
    45b6:	66 0f 2f 4c 24 10    	comisd 0x10(%rsp),%xmm1
    45bc:	77 12                	ja     45d0 <_ZL7torqueldddddddjjPPPedddd+0xc0>
    45be:	f2 0f 10 74 24 20    	movsd  0x20(%rsp),%xmm6
    45c4:	66 0f 2f 74 24 18    	comisd 0x18(%rsp),%xmm6
    45ca:	76 44                	jbe    4610 <_ZL7torqueldddddddjjPPPedddd+0x100>
    45cc:	dd d8                	fstp   %st(0)
    45ce:	eb 10                	jmp    45e0 <_ZL7torqueldddddddjjPPPedddd+0xd0>
    45d0:	dd d8                	fstp   %st(0)
    45d2:	eb 0c                	jmp    45e0 <_ZL7torqueldddddddjjPPPedddd+0xd0>
    45d4:	dd d8                	fstp   %st(0)
    45d6:	eb 08                	jmp    45e0 <_ZL7torqueldddddddjjPPPedddd+0xd0>
    45d8:	dd d8                	fstp   %st(0)
    45da:	eb 04                	jmp    45e0 <_ZL7torqueldddddddjjPPPedddd+0xd0>
    45dc:	dd d8                	fstp   %st(0)
    45de:	66 90                	xchg   %ax,%ax
    45e0:	48 8b 84 24 68 01 00 	mov    0x168(%rsp),%rax
    45e7:	00 
    45e8:	64 48 2b 04 25 28 00 	sub    %fs:0x28,%rax
    45ef:	00 00 
    45f1:	0f 85 97 12 00 00    	jne    588e <_ZL7torqueldddddddjjPPPedddd+0x137e>
    45f7:	48 81 c4 78 01 00 00 	add    $0x178,%rsp
    45fe:	4c 89 f8             	mov    %r15,%rax
    4601:	5b                   	pop    %rbx
    4602:	5d                   	pop    %rbp
    4603:	41 5c                	pop    %r12
    4605:	41 5d                	pop    %r13
    4607:	41 5e                	pop    %r14
    4609:	41 5f                	pop    %r15
    460b:	c3                   	ret    
    460c:	0f 1f 40 00          	nopl   0x0(%rax)
    4610:	f2 0f 10 7c 24 28    	movsd  0x28(%rsp),%xmm7
    4616:	66 0f ef ed          	pxor   %xmm5,%xmm5
    461a:	66 0f 2e fd          	ucomisd %xmm5,%xmm7
    461e:	0f 8a d9 02 00 00    	jp     48fd <_ZL7torqueldddddddjjPPPedddd+0x3ed>
    4624:	0f 85 d3 02 00 00    	jne    48fd <_ZL7torqueldddddddjjPPPedddd+0x3ed>
    462a:	f2 0f 10 34 24       	movsd  (%rsp),%xmm6
    462f:	66 0f 2f f5          	comisd %xmm5,%xmm6
    4633:	0f 86 c0 0b 00 00    	jbe    51f9 <_ZL7torqueldddddddjjPPPedddd+0xce9>
    4639:	dd 05 f9 3d 00 00    	fldl   0x3df9(%rip)        # 8438 <_IO_stdin_used+0x438>
    463f:	66 0f 28 fd          	movapd %xmm5,%xmm7
    4643:	f2 0f 10 5c 24 08    	movsd  0x8(%rsp),%xmm3
    4649:	db bc 24 20 01 00 00 	fstpt  0x120(%rsp)
    4650:	66 0f 2f df          	comisd %xmm7,%xmm3
    4654:	0f 86 44 0b 00 00    	jbe    519e <_ZL7torqueldddddddjjPPPedddd+0xc8e>
    465a:	dd 05 d8 3d 00 00    	fldl   0x3dd8(%rip)        # 8438 <_IO_stdin_used+0x438>
    4660:	eb 06                	jmp    4668 <_ZL7torqueldddddddjjPPPedddd+0x158>
    4662:	d9 c9                	fxch   %st(1)
    4664:	0f 1f 40 00          	nopl   0x0(%rax)
    4668:	db bc 24 30 01 00 00 	fstpt  0x130(%rsp)
    466f:	66 0f ef ed          	pxor   %xmm5,%xmm5
    4673:	dd 54 24 30          	fstl   0x30(%rsp)
    4677:	f2 0f 10 7c 24 30    	movsd  0x30(%rsp),%xmm7
    467d:	66 0f 2e fd          	ucomisd %xmm5,%xmm7
    4681:	7a 06                	jp     4689 <_ZL7torqueldddddddjjPPPedddd+0x179>
    4683:	0f 84 2b 03 00 00    	je     49b4 <_ZL7torqueldddddddjjPPPedddd+0x4a4>
    4689:	dd 54 24 30          	fstl   0x30(%rsp)
    468d:	f2 0f 10 04 24       	movsd  (%rsp),%xmm0
    4692:	f2 0f 10 74 24 30    	movsd  0x30(%rsp),%xmm6
    4698:	dd 5c 24 60          	fstpl  0x60(%rsp)
    469c:	f2 0f 5e c6          	divsd  %xmm6,%xmm0
    46a0:	e8 0b dc ff ff       	call   22b0 <atan@plt>
    46a5:	66 0f ef e4          	pxor   %xmm4,%xmm4
    46a9:	66 0f 2f 24 24       	comisd (%rsp),%xmm4
    46ae:	f2 0f 11 44 24 30    	movsd  %xmm0,0x30(%rsp)
    46b4:	dd 44 24 30          	fldl   0x30(%rsp)
    46b8:	dd 44 24 60          	fldl   0x60(%rsp)
    46bc:	0f 87 19 0b 00 00    	ja     51db <_ZL7torqueldddddddjjPPPedddd+0xccb>
    46c2:	f2 0f 10 2c 24       	movsd  (%rsp),%xmm5
    46c7:	66 0f 28 f4          	movapd %xmm4,%xmm6
    46cb:	66 0f 2f ec          	comisd %xmm4,%xmm5
    46cf:	0f 86 59 0b 00 00    	jbe    522e <_ZL7torqueldddddddjjPPPedddd+0xd1e>
    46d5:	dd 54 24 30          	fstl   0x30(%rsp)
    46d9:	f2 0f 10 64 24 30    	movsd  0x30(%rsp),%xmm4
    46df:	66 0f 2f f4          	comisd %xmm4,%xmm6
    46e3:	0f 87 22 0c 00 00    	ja     530b <_ZL7torqueldddddddjjPPPedddd+0xdfb>
    46e9:	d9 c9                	fxch   %st(1)
    46eb:	db bc 24 40 01 00 00 	fstpt  0x140(%rsp)
    46f2:	f2 0f 10 44 24 08    	movsd  0x8(%rsp),%xmm0
    46f8:	dd 54 24 30          	fstl   0x30(%rsp)
    46fc:	f2 0f 10 64 24 30    	movsd  0x30(%rsp),%xmm4
    4702:	dd 5c 24 60          	fstpl  0x60(%rsp)
    4706:	f2 0f 5e c4          	divsd  %xmm4,%xmm0
    470a:	e8 a1 db ff ff       	call   22b0 <atan@plt>
    470f:	66 0f ef ed          	pxor   %xmm5,%xmm5
    4713:	66 0f 2f 6c 24 08    	comisd 0x8(%rsp),%xmm5
    4719:	f2 0f 11 44 24 30    	movsd  %xmm0,0x30(%rsp)
    471f:	dd 44 24 30          	fldl   0x30(%rsp)
    4723:	dd 44 24 60          	fldl   0x60(%rsp)
    4727:	0f 87 39 0c 00 00    	ja     5366 <_ZL7torqueldddddddjjPPPedddd+0xe56>
    472d:	f2 0f 10 5c 24 08    	movsd  0x8(%rsp),%xmm3
    4733:	66 0f ef ff          	pxor   %xmm7,%xmm7
    4737:	66 0f 2f df          	comisd %xmm7,%xmm3
    473b:	0f 86 5d 0c 00 00    	jbe    539e <_ZL7torqueldddddddjjPPPedddd+0xe8e>
    4741:	dd 54 24 30          	fstl   0x30(%rsp)
    4745:	f2 0f 10 4c 24 30    	movsd  0x30(%rsp),%xmm1
    474b:	66 0f 2f f9          	comisd %xmm1,%xmm7
    474f:	0f 86 97 02 00 00    	jbe    49ec <_ZL7torqueldddddddjjPPPedddd+0x4dc>
    4755:	d9 c9                	fxch   %st(1)
    4757:	eb 02                	jmp    475b <_ZL7torqueldddddddjjPPPedddd+0x24b>
    4759:	d9 c9                	fxch   %st(1)
    475b:	dc 05 e7 3c 00 00    	faddl  0x3ce7(%rip)        # 8448 <_IO_stdin_used+0x448>
    4761:	d9 c9                	fxch   %st(1)
    4763:	e9 84 02 00 00       	jmp    49ec <_ZL7torqueldddddddjjPPPedddd+0x4dc>
    4768:	0f 1f 84 00 00 00 00 	nopl   0x0(%rax,%rax,1)
    476f:	00 
    4770:	f2 0f 10 44 24 10    	movsd  0x10(%rsp),%xmm0
    4776:	dd 5c 24 60          	fstpl  0x60(%rsp)
    477a:	f2 0f 11 4c 24 30    	movsd  %xmm1,0x30(%rsp)
    4780:	f2 0f 5e c7          	divsd  %xmm7,%xmm0
    4784:	e8 47 db ff ff       	call   22d0 <acos@plt>
    4789:	43 8d 04 36          	lea    (%r14,%r14,1),%eax
    478d:	66 0f ef e4          	pxor   %xmm4,%xmm4
    4791:	f2 0f 10 15 af 3c 00 	movsd  0x3caf(%rip),%xmm2        # 8448 <_IO_stdin_used+0x448>
    4798:	00 
    4799:	f2 48 0f 2a e0       	cvtsi2sd %rax,%xmm4
    479e:	44 89 f0             	mov    %r14d,%eax
    47a1:	dd 44 24 60          	fldl   0x60(%rsp)
    47a5:	f2 0f 10 4c 24 30    	movsd  0x30(%rsp),%xmm1
    47ab:	66 0f 28 da          	movapd %xmm2,%xmm3
    47af:	f2 0f 5e dc          	divsd  %xmm4,%xmm3
    47b3:	f2 0f 10 25 95 3c 00 	movsd  0x3c95(%rip),%xmm4        # 8450 <_IO_stdin_used+0x450>
    47ba:	00 
    47bb:	f2 0f 5c c3          	subsd  %xmm3,%xmm0
    47bf:	66 0f ef db          	pxor   %xmm3,%xmm3
    47c3:	f2 48 0f 2a d8       	cvtsi2sd %rax,%xmm3
    47c8:	f2 0f 5e d3          	divsd  %xmm3,%xmm2
    47cc:	f2 0f 10 1d 2c 3c 00 	movsd  0x3c2c(%rip),%xmm3        # 8400 <_IO_stdin_used+0x400>
    47d3:	00 
    47d4:	f2 0f 5e c2          	divsd  %xmm2,%xmm0
    47d8:	66 0f 28 d0          	movapd %xmm0,%xmm2
    47dc:	66 0f 54 d3          	andpd  %xmm3,%xmm2
    47e0:	66 0f 2e e2          	ucomisd %xmm2,%xmm4
    47e4:	0f 87 d6 00 00 00    	ja     48c0 <_ZL7torqueldddddddjjPPPedddd+0x3b0>
    47ea:	f2 44 0f 2c e8       	cvttsd2si %xmm0,%r13d
    47ef:	e9 c2 fd ff ff       	jmp    45b6 <_ZL7torqueldddddddjjPPPedddd+0xa6>
    47f4:	0f 1f 40 00          	nopl   0x0(%rax)
    47f8:	66 0f 28 c5          	movapd %xmm5,%xmm0
    47fc:	dd 5c 24 50          	fstpl  0x50(%rsp)
    4800:	f2 41 0f 5e c1       	divsd  %xmm9,%xmm0
    4805:	f2 0f 11 4c 24 30    	movsd  %xmm1,0x30(%rsp)
    480b:	e8 c0 da ff ff       	call   22d0 <acos@plt>
    4810:	43 8d 04 36          	lea    (%r14,%r14,1),%eax
    4814:	66 0f ef e4          	pxor   %xmm4,%xmm4
    4818:	f2 0f 10 15 28 3c 00 	movsd  0x3c28(%rip),%xmm2        # 8448 <_IO_stdin_used+0x448>
    481f:	00 
    4820:	f2 48 0f 2a e0       	cvtsi2sd %rax,%xmm4
    4825:	44 89 f0             	mov    %r14d,%eax
    4828:	dd 44 24 50          	fldl   0x50(%rsp)
    482c:	f2 0f 10 4c 24 30    	movsd  0x30(%rsp),%xmm1
    4832:	66 0f 28 da          	movapd %xmm2,%xmm3
    4836:	f2 0f 5e dc          	divsd  %xmm4,%xmm3
    483a:	f2 0f 10 25 0e 3c 00 	movsd  0x3c0e(%rip),%xmm4        # 8450 <_IO_stdin_used+0x450>
    4841:	00 
    4842:	f2 0f 5c c3          	subsd  %xmm3,%xmm0
    4846:	66 0f ef db          	pxor   %xmm3,%xmm3
    484a:	f2 48 0f 2a d8       	cvtsi2sd %rax,%xmm3
    484f:	f2 0f 5e d3          	divsd  %xmm3,%xmm2
    4853:	f2 0f 10 1d a5 3b 00 	movsd  0x3ba5(%rip),%xmm3        # 8400 <_IO_stdin_used+0x400>
    485a:	00 
    485b:	f2 0f 5e c2          	divsd  %xmm2,%xmm0
    485f:	66 0f 28 d0          	movapd %xmm0,%xmm2
    4863:	66 0f 54 d3          	andpd  %xmm3,%xmm2
    4867:	66 0f 2e e2          	ucomisd %xmm2,%xmm4
    486b:	77 13                	ja     4880 <_ZL7torqueldddddddjjPPPedddd+0x370>
    486d:	f2 0f 2c c0          	cvttsd2si %xmm0,%eax
    4871:	89 44 24 50          	mov    %eax,0x50(%rsp)
    4875:	e9 27 fd ff ff       	jmp    45a1 <_ZL7torqueldddddddjjPPPedddd+0x91>
    487a:	66 0f 1f 44 00 00    	nopw   0x0(%rax,%rax,1)
    4880:	f2 48 0f 2c c0       	cvttsd2si %xmm0,%rax
    4885:	66 0f ef d2          	pxor   %xmm2,%xmm2
    4889:	66 0f 28 e0          	movapd %xmm0,%xmm4
    488d:	f2 0f 10 2d c3 3b 00 	movsd  0x3bc3(%rip),%xmm5        # 8458 <_IO_stdin_used+0x458>
    4894:	00 
    4895:	66 0f 55 d8          	andnpd %xmm0,%xmm3
    4899:	f2 48 0f 2a d0       	cvtsi2sd %rax,%xmm2
    489e:	f2 0f c2 e2 06       	cmpnlesd %xmm2,%xmm4
    48a3:	66 0f 54 e5          	andpd  %xmm5,%xmm4
    48a7:	f2 0f 58 d4          	addsd  %xmm4,%xmm2
    48ab:	66 0f 56 d3          	orpd   %xmm3,%xmm2
    48af:	66 0f 28 c2          	movapd %xmm2,%xmm0
    48b3:	f2 0f 2c c0          	cvttsd2si %xmm0,%eax
    48b7:	89 44 24 50          	mov    %eax,0x50(%rsp)
    48bb:	e9 e1 fc ff ff       	jmp    45a1 <_ZL7torqueldddddddjjPPPedddd+0x91>
    48c0:	f2 48 0f 2c c0       	cvttsd2si %xmm0,%rax
    48c5:	66 0f ef d2          	pxor   %xmm2,%xmm2
    48c9:	f2 0f 10 2d 87 3b 00 	movsd  0x3b87(%rip),%xmm5        # 8458 <_IO_stdin_used+0x458>
    48d0:	00 
    48d1:	66 0f 55 d8          	andnpd %xmm0,%xmm3
    48d5:	f2 48 0f 2a d0       	cvtsi2sd %rax,%xmm2
    48da:	66 0f 28 e2          	movapd %xmm2,%xmm4
    48de:	f2 0f c2 e0 06       	cmpnlesd %xmm0,%xmm4
    48e3:	66 0f 54 e5          	andpd  %xmm5,%xmm4
    48e7:	f2 0f 5c d4          	subsd  %xmm4,%xmm2
    48eb:	66 0f 56 d3          	orpd   %xmm3,%xmm2
    48ef:	66 0f 28 c2          	movapd %xmm2,%xmm0
    48f3:	f2 44 0f 2c e8       	cvttsd2si %xmm0,%r13d
    48f8:	e9 b9 fc ff ff       	jmp    45b6 <_ZL7torqueldddddddjjPPPedddd+0xa6>
    48fd:	dd 5c 24 60          	fstpl  0x60(%rsp)
    4901:	f2 0f 10 04 24       	movsd  (%rsp),%xmm0
    4906:	f2 0f 5e 44 24 28    	divsd  0x28(%rsp),%xmm0
    490c:	e8 9f d9 ff ff       	call   22b0 <atan@plt>
    4911:	66 0f ef db          	pxor   %xmm3,%xmm3
    4915:	66 0f 2f 1c 24       	comisd (%rsp),%xmm3
    491a:	f2 0f 11 44 24 30    	movsd  %xmm0,0x30(%rsp)
    4920:	dd 44 24 30          	fldl   0x30(%rsp)
    4924:	dd 44 24 60          	fldl   0x60(%rsp)
    4928:	0f 87 e1 08 00 00    	ja     520f <_ZL7torqueldddddddjjPPPedddd+0xcff>
    492e:	f2 0f 10 24 24       	movsd  (%rsp),%xmm4
    4933:	66 0f 2f e3          	comisd %xmm3,%xmm4
    4937:	0f 86 5a 09 00 00    	jbe    5297 <_ZL7torqueldddddddjjPPPedddd+0xd87>
    493d:	66 0f 2f 5c 24 28    	comisd 0x28(%rsp),%xmm3
    4943:	0f 87 af 09 00 00    	ja     52f8 <_ZL7torqueldddddddjjPPPedddd+0xde8>
    4949:	dd 5c 24 60          	fstpl  0x60(%rsp)
    494d:	f2 0f 10 44 24 08    	movsd  0x8(%rsp),%xmm0
    4953:	f2 0f 5e 44 24 28    	divsd  0x28(%rsp),%xmm0
    4959:	db bc 24 20 01 00 00 	fstpt  0x120(%rsp)
    4960:	e8 4b d9 ff ff       	call   22b0 <atan@plt>
    4965:	66 0f ef ff          	pxor   %xmm7,%xmm7
    4969:	66 0f 2f 7c 24 08    	comisd 0x8(%rsp),%xmm7
    496f:	f2 0f 11 44 24 30    	movsd  %xmm0,0x30(%rsp)
    4975:	dd 44 24 30          	fldl   0x30(%rsp)
    4979:	dd 44 24 60          	fldl   0x60(%rsp)
    497d:	0f 87 cf 09 00 00    	ja     5352 <_ZL7torqueldddddddjjPPPedddd+0xe42>
    4983:	f2 0f 10 7c 24 08    	movsd  0x8(%rsp),%xmm7
    4989:	66 0f ef e4          	pxor   %xmm4,%xmm4
    498d:	66 0f 2f fc          	comisd %xmm4,%xmm7
    4991:	0f 86 ea 09 00 00    	jbe    5381 <_ZL7torqueldddddddjjPPPedddd+0xe71>
    4997:	66 0f 2f 64 24 28    	comisd 0x28(%rsp),%xmm4
    499d:	0f 86 bf fc ff ff    	jbe    4662 <_ZL7torqueldddddddjjPPPedddd+0x152>
    49a3:	d9 c9                	fxch   %st(1)
    49a5:	eb 02                	jmp    49a9 <_ZL7torqueldddddddjjPPPedddd+0x499>
    49a7:	d9 c9                	fxch   %st(1)
    49a9:	dc 05 99 3a 00 00    	faddl  0x3a99(%rip)        # 8448 <_IO_stdin_used+0x448>
    49af:	e9 b4 fc ff ff       	jmp    4668 <_ZL7torqueldddddddjjPPPedddd+0x158>
    49b4:	f2 0f 10 3c 24       	movsd  (%rsp),%xmm7
    49b9:	66 0f 2f fd          	comisd %xmm5,%xmm7
    49bd:	0f 86 03 08 00 00    	jbe    51c6 <_ZL7torqueldddddddjjPPPedddd+0xcb6>
    49c3:	dd 05 6f 3a 00 00    	fldl   0x3a6f(%rip)        # 8438 <_IO_stdin_used+0x438>
    49c9:	66 0f 28 e5          	movapd %xmm5,%xmm4
    49cd:	f2 0f 10 74 24 08    	movsd  0x8(%rsp),%xmm6
    49d3:	db bc 24 40 01 00 00 	fstpt  0x140(%rsp)
    49da:	66 0f 2f f4          	comisd %xmm4,%xmm6
    49de:	0f 86 cd 07 00 00    	jbe    51b1 <_ZL7torqueldddddddjjPPPedddd+0xca1>
    49e4:	dd 05 4e 3a 00 00    	fldl   0x3a4e(%rip)        # 8438 <_IO_stdin_used+0x438>
    49ea:	d9 c9                	fxch   %st(1)
    49ec:	4c 8d a4 24 20 01 00 	lea    0x120(%rsp),%r12
    49f3:	00 
    49f4:	dd 5c 24 30          	fstpl  0x30(%rsp)
    49f8:	ba 04 00 00 00       	mov    $0x4,%edx
    49fd:	48 8d b4 24 60 01 00 	lea    0x160(%rsp),%rsi
    4a04:	00 
    4a05:	4c 89 e7             	mov    %r12,%rdi
    4a08:	db bc 24 50 01 00 00 	fstpt  0x150(%rsp)
    4a0f:	e8 fc e5 ff ff       	call   3010 <_ZSt16__introsort_loopIPelN9__gnu_cxx5__ops15_Iter_less_iterEEvT_S4_T0_T1_.isra.0>
    4a14:	dd 44 24 30          	fldl   0x30(%rsp)
    4a18:	48 8d 84 24 50 01 00 	lea    0x150(%rsp),%rax
    4a1f:	00 
    4a20:	48 89 5c 24 68       	mov    %rbx,0x68(%rsp)
    4a25:	48 89 c5             	mov    %rax,%rbp
    4a28:	4c 89 e3             	mov    %r12,%rbx
    4a2b:	dd 5c 24 60          	fstpl  0x60(%rsp)
    4a2f:	eb 2f                	jmp    4a60 <_ZL7torqueldddddddjjPPPedddd+0x550>
    4a31:	0f 1f 80 00 00 00 00 	nopl   0x0(%rax)
    4a38:	b8 10 00 00 00       	mov    $0x10,%eax
    4a3d:	48 29 da             	sub    %rbx,%rdx
    4a40:	48 89 de             	mov    %rbx,%rsi
    4a43:	db 7c 24 30          	fstpt  0x30(%rsp)
    4a47:	48 8d 3c 03          	lea    (%rbx,%rax,1),%rdi
    4a4b:	e8 50 d9 ff ff       	call   23a0 <memmove@plt>
    4a50:	db 6c 24 30          	fldt   0x30(%rsp)
    4a54:	db bc 24 20 01 00 00 	fstpt  0x120(%rsp)
    4a5b:	49 39 ec             	cmp    %rbp,%r12
    4a5e:	74 47                	je     4aa7 <_ZL7torqueldddddddjjPPPedddd+0x597>
    4a60:	4c 89 e1             	mov    %r12,%rcx
    4a63:	49 83 c4 10          	add    $0x10,%r12
    4a67:	db 69 10             	fldt   0x10(%rcx)
    4a6a:	4c 89 e2             	mov    %r12,%rdx
    4a6d:	48 89 c8             	mov    %rcx,%rax
    4a70:	db ac 24 20 01 00 00 	fldt   0x120(%rsp)
    4a77:	df f1                	fcomip %st(1),%st
    4a79:	77 bd                	ja     4a38 <_ZL7torqueldddddddjjPPPedddd+0x528>
    4a7b:	db 29                	fldt   (%rcx)
    4a7d:	db f1                	fcomi  %st(1),%st
    4a7f:	76 1b                	jbe    4a9c <_ZL7torqueldddddddjjPPPedddd+0x58c>
    4a81:	0f 1f 80 00 00 00 00 	nopl   0x0(%rax)
    4a88:	db 78 10             	fstpt  0x10(%rax)
    4a8b:	48 89 c2             	mov    %rax,%rdx
    4a8e:	48 83 e8 10          	sub    $0x10,%rax
    4a92:	db 28                	fldt   (%rax)
    4a94:	db f1                	fcomi  %st(1),%st
    4a96:	77 f0                	ja     4a88 <_ZL7torqueldddddddjjPPPedddd+0x578>
    4a98:	dd d8                	fstp   %st(0)
    4a9a:	eb 04                	jmp    4aa0 <_ZL7torqueldddddddjjPPPedddd+0x590>
    4a9c:	dd d8                	fstp   %st(0)
    4a9e:	66 90                	xchg   %ax,%ax
    4aa0:	db 3a                	fstpt  (%rdx)
    4aa2:	49 39 ec             	cmp    %rbp,%r12
    4aa5:	75 b9                	jne    4a60 <_ZL7torqueldddddddjjPPPedddd+0x550>
    4aa7:	66 0f ef f6          	pxor   %xmm6,%xmm6
    4aab:	66 0f 2f 74 24 28    	comisd 0x28(%rsp),%xmm6
    4ab1:	dd 44 24 60          	fldl   0x60(%rsp)
    4ab5:	48 8b 5c 24 68       	mov    0x68(%rsp),%rbx
    4aba:	0f 83 f7 03 00 00    	jae    4eb7 <_ZL7torqueldddddddjjPPPedddd+0x9a7>
    4ac0:	8b 44 24 40          	mov    0x40(%rsp),%eax
    4ac4:	66 0f ef c9          	pxor   %xmm1,%xmm1
    4ac8:	f2 0f 10 05 90 39 00 	movsd  0x3990(%rip),%xmm0        # 8460 <_IO_stdin_used+0x460>
    4acf:	00 
    4ad0:	d9 bc 24 ce 00 00 00 	fnstcw 0xce(%rsp)
    4ad7:	f2 48 0f 2a c8       	cvtsi2sd %rax,%xmm1
    4adc:	0f b7 84 24 ce 00 00 	movzwl 0xce(%rsp),%eax
    4ae3:	00 
    4ae4:	80 e4 f3             	and    $0xf3,%ah
    4ae7:	f2 0f 5e c1          	divsd  %xmm1,%xmm0
    4aeb:	80 cc 04             	or     $0x4,%ah
    4aee:	66 89 84 24 cc 00 00 	mov    %ax,0xcc(%rsp)
    4af5:	00 
    4af6:	0f b7 84 24 ce 00 00 	movzwl 0xce(%rsp),%eax
    4afd:	00 
    4afe:	80 cc 0c             	or     $0xc,%ah
    4b01:	66 89 84 24 ca 00 00 	mov    %ax,0xca(%rsp)
    4b08:	00 
    4b09:	0f b7 84 24 ce 00 00 	movzwl 0xce(%rsp),%eax
    4b10:	00 
    4b11:	80 e4 f3             	and    $0xf3,%ah
    4b14:	80 cc 08             	or     $0x8,%ah
    4b17:	66 89 84 24 c8 00 00 	mov    %ax,0xc8(%rsp)
    4b1e:	00 
    4b1f:	f2 0f 11 44 24 30    	movsd  %xmm0,0x30(%rsp)
    4b25:	dd 44 24 30          	fldl   0x30(%rsp)
    4b29:	db ac 24 20 01 00 00 	fldt   0x120(%rsp)
    4b30:	d8 f1                	fdiv   %st(1),%st
    4b32:	d9 ac 24 cc 00 00 00 	fldcw  0xcc(%rsp)
    4b39:	d9 fc                	frndint 
    4b3b:	d9 ac 24 ce 00 00 00 	fldcw  0xce(%rsp)
    4b42:	d9 ac 24 ca 00 00 00 	fldcw  0xca(%rsp)
    4b49:	db 5c 24 30          	fistpl 0x30(%rsp)
    4b4d:	d9 ac 24 ce 00 00 00 	fldcw  0xce(%rsp)
    4b54:	db ac 24 50 01 00 00 	fldt   0x150(%rsp)
    4b5b:	8b 54 24 30          	mov    0x30(%rsp),%edx
    4b5f:	de f1                	fdivp  %st,%st(1)
    4b61:	d9 ac 24 c8 00 00 00 	fldcw  0xc8(%rsp)
    4b68:	d9 fc                	frndint 
    4b6a:	d9 ac 24 ce 00 00 00 	fldcw  0xce(%rsp)
    4b71:	d9 ac 24 ca 00 00 00 	fldcw  0xca(%rsp)
    4b78:	db 5c 24 30          	fistpl 0x30(%rsp)
    4b7c:	d9 ac 24 ce 00 00 00 	fldcw  0xce(%rsp)
    4b83:	8b 44 24 30          	mov    0x30(%rsp),%eax
    4b87:	f2 0f 10 64 24 28    	movsd  0x28(%rsp),%xmm4
    4b8d:	66 0f ef ed          	pxor   %xmm5,%xmm5
    4b91:	66 0f 2f e5          	comisd %xmm5,%xmm4
    4b95:	76 0f                	jbe    4ba6 <_ZL7torqueldddddddjjPPPedddd+0x696>
    4b97:	66 0f 2f 2c 24       	comisd (%rsp),%xmm5
    4b9c:	66 0f 28 f5          	movapd %xmm5,%xmm6
    4ba0:	0f 87 4b 03 00 00    	ja     4ef1 <_ZL7torqueldddddddjjPPPedddd+0x9e1>
    4ba6:	8b 74 24 50          	mov    0x50(%rsp),%esi
    4baa:	44 39 ee             	cmp    %r13d,%esi
    4bad:	0f 86 21 fa ff ff    	jbe    45d4 <_ZL7torqueldddddddjjPPPedddd+0xc4>
    4bb3:	39 c2                	cmp    %eax,%edx
    4bb5:	0f 83 1d fa ff ff    	jae    45d8 <_ZL7torqueldddddddjjPPPedddd+0xc8>
    4bbb:	83 ee 01             	sub    $0x1,%esi
    4bbe:	44 89 e9             	mov    %r13d,%ecx
    4bc1:	83 e8 01             	sub    $0x1,%eax
    4bc4:	dd 44 24 28          	fldl   0x28(%rsp)
    4bc8:	41 89 f4             	mov    %esi,%r12d
    4bcb:	48 8d 2c cb          	lea    (%rbx,%rcx,8),%rbp
    4bcf:	29 d0                	sub    %edx,%eax
    4bd1:	45 29 ec             	sub    %r13d,%r12d
    4bd4:	4c 01 e1             	add    %r12,%rcx
    4bd7:	4c 8d 74 cb 08       	lea    0x8(%rbx,%rcx,8),%r14
    4bdc:	89 d1                	mov    %edx,%ecx
    4bde:	48 8d 94 24 d0 00 00 	lea    0xd0(%rsp),%rdx
    4be5:	00 
    4be6:	4c 8d 64 01 01       	lea    0x1(%rcx,%rax,1),%r12
    4beb:	4c 8d 2c cd 00 00 00 	lea    0x0(,%rcx,8),%r13
    4bf2:	00 
    4bf3:	49 c1 e4 03          	shl    $0x3,%r12
    4bf7:	66 0f 1f 84 00 00 00 	nopw   0x0(%rax,%rax,1)
    4bfe:	00 00 
    4c00:	4c 89 eb             	mov    %r13,%rbx
    4c03:	0f 1f 44 00 00       	nopl   0x0(%rax,%rax,1)
    4c08:	48 8b 45 00          	mov    0x0(%rbp),%rax
    4c0c:	48 8b 04 18          	mov    (%rax,%rbx,1),%rax
    4c10:	db 28                	fldt   (%rax)
    4c12:	db f1                	fcomi  %st(1),%st
    4c14:	72 3a                	jb     4c50 <_ZL7torqueldddddddjjPPPedddd+0x740>
    4c16:	d9 c2                	fld    %st(2)
    4c18:	df f1                	fcomip %st(1),%st
    4c1a:	72 3c                	jb     4c58 <_ZL7torqueldddddddjjPPPedddd+0x748>
    4c1c:	dd 04 24             	fldl   (%rsp)
    4c1f:	db 68 10             	fldt   0x10(%rax)
    4c22:	db f1                	fcomi  %st(1),%st
    4c24:	dd d9                	fstp   %st(1)
    4c26:	72 38                	jb     4c60 <_ZL7torqueldddddddjjPPPedddd+0x750>
    4c28:	dd 44 24 08          	fldl   0x8(%rsp)
    4c2c:	df f1                	fcomip %st(1),%st
    4c2e:	72 40                	jb     4c70 <_ZL7torqueldddddddjjPPPedddd+0x760>
    4c30:	dd 44 24 20          	fldl   0x20(%rsp)
    4c34:	db 68 20             	fldt   0x20(%rax)
    4c37:	db f1                	fcomi  %st(1),%st
    4c39:	dd d9                	fstp   %st(1)
    4c3b:	72 43                	jb     4c80 <_ZL7torqueldddddddjjPPPedddd+0x770>
    4c3d:	dd 44 24 10          	fldl   0x10(%rsp)
    4c41:	df f1                	fcomip %st(1),%st
    4c43:	73 6e                	jae    4cb3 <_ZL7torqueldddddddjjPPPedddd+0x7a3>
    4c45:	dd d8                	fstp   %st(0)
    4c47:	dd d8                	fstp   %st(0)
    4c49:	dd d8                	fstp   %st(0)
    4c4b:	eb 43                	jmp    4c90 <_ZL7torqueldddddddjjPPPedddd+0x780>
    4c4d:	0f 1f 00             	nopl   (%rax)
    4c50:	dd d8                	fstp   %st(0)
    4c52:	eb 3c                	jmp    4c90 <_ZL7torqueldddddddjjPPPedddd+0x780>
    4c54:	0f 1f 40 00          	nopl   0x0(%rax)
    4c58:	dd d8                	fstp   %st(0)
    4c5a:	eb 34                	jmp    4c90 <_ZL7torqueldddddddjjPPPedddd+0x780>
    4c5c:	0f 1f 40 00          	nopl   0x0(%rax)
    4c60:	dd d8                	fstp   %st(0)
    4c62:	dd d8                	fstp   %st(0)
    4c64:	eb 2a                	jmp    4c90 <_ZL7torqueldddddddjjPPPedddd+0x780>
    4c66:	66 2e 0f 1f 84 00 00 	cs nopw 0x0(%rax,%rax,1)
    4c6d:	00 00 00 
    4c70:	dd d8                	fstp   %st(0)
    4c72:	dd d8                	fstp   %st(0)
    4c74:	eb 1a                	jmp    4c90 <_ZL7torqueldddddddjjPPPedddd+0x780>
    4c76:	66 2e 0f 1f 84 00 00 	cs nopw 0x0(%rax,%rax,1)
    4c7d:	00 00 00 
    4c80:	dd d8                	fstp   %st(0)
    4c82:	dd d8                	fstp   %st(0)
    4c84:	dd d8                	fstp   %st(0)
    4c86:	66 2e 0f 1f 84 00 00 	cs nopw 0x0(%rax,%rax,1)
    4c8d:	00 00 00 
    4c90:	48 83 c3 08          	add    $0x8,%rbx
    4c94:	49 39 dc             	cmp    %rbx,%r12
    4c97:	0f 85 6b ff ff ff    	jne    4c08 <_ZL7torqueldddddddjjPPPedddd+0x6f8>
    4c9d:	48 83 c5 08          	add    $0x8,%rbp
    4ca1:	4c 39 f5             	cmp    %r14,%rbp
    4ca4:	0f 85 56 ff ff ff    	jne    4c00 <_ZL7torqueldddddddjjPPPedddd+0x6f0>
    4caa:	dd d8                	fstp   %st(0)
    4cac:	dd d8                	fstp   %st(0)
    4cae:	e9 2d f9 ff ff       	jmp    45e0 <_ZL7torqueldddddddjjPPPedddd+0xd0>
    4cb3:	d9 cb                	fxch   %st(3)
    4cb5:	db bc 24 90 00 00 00 	fstpt  0x90(%rsp)
    4cbc:	d9 cb                	fxch   %st(3)
    4cbe:	f2 0f 10 64 24 18    	movsd  0x18(%rsp),%xmm4
    4cc4:	f2 0f 10 44 24 58    	movsd  0x58(%rsp),%xmm0
    4cca:	48 89 d7             	mov    %rdx,%rdi
    4ccd:	48 89 54 24 40       	mov    %rdx,0x40(%rsp)
    4cd2:	dd 9c 24 88 00 00 00 	fstpl  0x88(%rsp)
    4cd9:	d9 c1                	fld    %st(1)
    4cdb:	dc 84 24 c0 01 00 00 	faddl  0x1c0(%rsp)
    4ce2:	dd 5c 24 28          	fstpl  0x28(%rsp)
    4ce6:	f2 0f 10 5c 24 28    	movsd  0x28(%rsp),%xmm3
    4cec:	d9 c2                	fld    %st(2)
    4cee:	dc 84 24 b8 01 00 00 	faddl  0x1b8(%rsp)
    4cf5:	f2 0f 11 5c 24 68    	movsd  %xmm3,0x68(%rsp)
    4cfb:	dd 5c 24 28          	fstpl  0x28(%rsp)
    4cff:	f2 0f 10 54 24 28    	movsd  0x28(%rsp),%xmm2
    4d05:	d9 c0                	fld    %st(0)
    4d07:	dc 84 24 b0 01 00 00 	faddl  0x1b0(%rsp)
    4d0e:	f2 0f 11 54 24 60    	movsd  %xmm2,0x60(%rsp)
    4d14:	dd 5c 24 28          	fstpl  0x28(%rsp)
    4d18:	d9 c9                	fxch   %st(1)
    4d1a:	f2 0f 10 4c 24 28    	movsd  0x28(%rsp),%xmm1
    4d20:	dd 5c 24 28          	fstpl  0x28(%rsp)
    4d24:	d9 c9                	fxch   %st(1)
    4d26:	f2 0f 10 74 24 28    	movsd  0x28(%rsp),%xmm6
    4d2c:	dd 5c 24 28          	fstpl  0x28(%rsp)
    4d30:	f2 44 0f 10 44 24 28 	movsd  0x28(%rsp),%xmm8
    4d37:	f2 0f 5e f4          	divsd  %xmm4,%xmm6
    4d3b:	dd 5c 24 28          	fstpl  0x28(%rsp)
    4d3f:	db 68 30             	fldt   0x30(%rax)
    4d42:	f2 0f 11 4c 24 50    	movsd  %xmm1,0x50(%rsp)
    4d48:	f2 44 0f 5e c4       	divsd  %xmm4,%xmm8
    4d4d:	f2 0f 11 b4 24 80 00 	movsd  %xmm6,0x80(%rsp)
    4d54:	00 00 
    4d56:	66 0f 28 f4          	movapd %xmm4,%xmm6
    4d5a:	f2 0f 10 64 24 28    	movsd  0x28(%rsp),%xmm4
    4d60:	dd 5c 24 28          	fstpl  0x28(%rsp)
    4d64:	f2 0f 5e e6          	divsd  %xmm6,%xmm4
    4d68:	f2 44 0f 11 44 24 78 	movsd  %xmm8,0x78(%rsp)
    4d6f:	f2 0f 11 64 24 70    	movsd  %xmm4,0x70(%rsp)
    4d75:	f2 0f 10 64 24 28    	movsd  0x28(%rsp),%xmm4
    4d7b:	66 0f 28 f4          	movapd %xmm4,%xmm6
    4d7f:	66 0f 14 f6          	unpcklpd %xmm6,%xmm6
    4d83:	0f 29 74 24 30       	movaps %xmm6,0x30(%rsp)
    4d88:	e8 d3 29 00 00       	call   7760 <_Z6stressdddd>
    4d8d:	f2 0f 10 64 24 70    	movsd  0x70(%rsp),%xmm4
    4d93:	48 8b 54 24 40       	mov    0x40(%rsp),%rdx
    4d98:	f2 44 0f 10 44 24 78 	movsd  0x78(%rsp),%xmm8
    4d9f:	f2 0f 10 4c 24 50    	movsd  0x50(%rsp),%xmm1
    4da5:	f2 0f 10 bc 24 e0 00 	movsd  0xe0(%rsp),%xmm7
    4dac:	00 00 
    4dae:	f2 0f 10 54 24 60    	movsd  0x60(%rsp),%xmm2
    4db4:	f2 0f 10 84 24 f8 00 	movsd  0xf8(%rsp),%xmm0
    4dbb:	00 00 
    4dbd:	dd 84 24 88 00 00 00 	fldl   0x88(%rsp)
    4dc4:	db ac 24 90 00 00 00 	fldt   0x90(%rsp)
    4dcb:	f2 0f 10 b4 24 80 00 	movsd  0x80(%rsp),%xmm6
    4dd2:	00 00 
    4dd4:	66 0f 28 da          	movapd %xmm2,%xmm3
    4dd8:	f2 41 0f 59 c0       	mulsd  %xmm8,%xmm0
    4ddd:	f2 0f 10 ac 24 d8 00 	movsd  0xd8(%rsp),%xmm5
    4de4:	00 00 
    4de6:	f2 0f 59 fc          	mulsd  %xmm4,%xmm7
    4dea:	f2 0f 59 ec          	mulsd  %xmm4,%xmm5
    4dee:	f2 0f 59 a4 24 d0 00 	mulsd  0xd0(%rsp),%xmm4
    4df5:	00 00 
    4df7:	f2 0f 58 f8          	addsd  %xmm0,%xmm7
    4dfb:	f2 0f 10 84 24 10 01 	movsd  0x110(%rsp),%xmm0
    4e02:	00 00 
    4e04:	f2 0f 59 c6          	mulsd  %xmm6,%xmm0
    4e08:	f2 0f 58 f8          	addsd  %xmm0,%xmm7
    4e0c:	f2 0f 10 84 24 f0 00 	movsd  0xf0(%rsp),%xmm0
    4e13:	00 00 
    4e15:	f2 41 0f 59 c0       	mulsd  %xmm8,%xmm0
    4e1a:	f2 44 0f 59 84 24 e8 	mulsd  0xe8(%rsp),%xmm8
    4e21:	00 00 00 
    4e24:	f2 0f 59 d7          	mulsd  %xmm7,%xmm2
    4e28:	f2 0f 58 e8          	addsd  %xmm0,%xmm5
    4e2c:	f2 0f 10 84 24 08 01 	movsd  0x108(%rsp),%xmm0
    4e33:	00 00 
    4e35:	f2 41 0f 58 e0       	addsd  %xmm8,%xmm4
    4e3a:	f2 0f 59 c6          	mulsd  %xmm6,%xmm0
    4e3e:	f2 0f 59 b4 24 00 01 	mulsd  0x100(%rsp),%xmm6
    4e45:	00 00 
    4e47:	f2 0f 58 e8          	addsd  %xmm0,%xmm5
    4e4b:	66 0f 28 c1          	movapd %xmm1,%xmm0
    4e4f:	f2 0f 58 e6          	addsd  %xmm6,%xmm4
    4e53:	f2 0f 59 cf          	mulsd  %xmm7,%xmm1
    4e57:	f2 0f 59 c5          	mulsd  %xmm5,%xmm0
    4e5b:	f2 0f 59 dc          	mulsd  %xmm4,%xmm3
    4e5f:	f2 0f 5c c3          	subsd  %xmm3,%xmm0
    4e63:	f2 0f 10 5c 24 68    	movsd  0x68(%rsp),%xmm3
    4e69:	f2 0f 59 44 24 28    	mulsd  0x28(%rsp),%xmm0
    4e6f:	f2 41 0f 58 47 10    	addsd  0x10(%r15),%xmm0
    4e75:	f2 0f 59 eb          	mulsd  %xmm3,%xmm5
    4e79:	f2 0f 59 dc          	mulsd  %xmm4,%xmm3
    4e7d:	66 41 0f 10 27       	movupd (%r15),%xmm4
    4e82:	66 0f 28 f0          	movapd %xmm0,%xmm6
    4e86:	66 0f 28 c2          	movapd %xmm2,%xmm0
    4e8a:	f2 41 0f 11 77 10    	movsd  %xmm6,0x10(%r15)
    4e90:	f2 0f 5c c5          	subsd  %xmm5,%xmm0
    4e94:	f2 0f 5c cb          	subsd  %xmm3,%xmm1
    4e98:	66 0f 57 0d 50 35 00 	xorpd  0x3550(%rip),%xmm1        # 83f0 <_IO_stdin_used+0x3f0>
    4e9f:	00 
    4ea0:	66 0f 14 c1          	unpcklpd %xmm1,%xmm0
    4ea4:	66 0f 59 44 24 30    	mulpd  0x30(%rsp),%xmm0
    4eaa:	66 0f 58 c4          	addpd  %xmm4,%xmm0
    4eae:	41 0f 11 07          	movups %xmm0,(%r15)
    4eb2:	e9 d9 fd ff ff       	jmp    4c90 <_ZL7torqueldddddddjjPPPedddd+0x780>
    4eb7:	66 0f 2f 34 24       	comisd (%rsp),%xmm6
    4ebc:	0f 82 fe fb ff ff    	jb     4ac0 <_ZL7torqueldddddddjjPPPedddd+0x5b0>
    4ec2:	dd 54 24 30          	fstl   0x30(%rsp)
    4ec6:	f2 0f 10 5c 24 30    	movsd  0x30(%rsp),%xmm3
    4ecc:	66 0f 2f de          	comisd %xmm6,%xmm3
    4ed0:	0f 82 ea fb ff ff    	jb     4ac0 <_ZL7torqueldddddddjjPPPedddd+0x5b0>
    4ed6:	f2 0f 10 5c 24 08    	movsd  0x8(%rsp),%xmm3
    4edc:	31 d2                	xor    %edx,%edx
    4ede:	8b 44 24 40          	mov    0x40(%rsp),%eax
    4ee2:	66 0f 2f de          	comisd %xmm6,%xmm3
    4ee6:	0f 83 9b fc ff ff    	jae    4b87 <_ZL7torqueldddddddjjPPPedddd+0x677>
    4eec:	e9 cf fb ff ff       	jmp    4ac0 <_ZL7torqueldddddddjjPPPedddd+0x5b0>
    4ef1:	f2 0f 10 6c 24 08    	movsd  0x8(%rsp),%xmm5
    4ef7:	66 0f 2f ee          	comisd %xmm6,%xmm5
    4efb:	0f 82 a5 fc ff ff    	jb     4ba6 <_ZL7torqueldddddddjjPPPedddd+0x696>
    4f01:	8b 6c 24 40          	mov    0x40(%rsp),%ebp
    4f05:	66 0f ef c0          	pxor   %xmm0,%xmm0
    4f09:	66 0f ef ff          	pxor   %xmm7,%xmm7
    4f0d:	f2 0f 10 0d 4b 35 00 	movsd  0x354b(%rip),%xmm1        # 8460 <_IO_stdin_used+0x460>
    4f14:	00 
    4f15:	db ac 24 30 01 00 00 	fldt   0x130(%rsp)
    4f1c:	66 0f 2e ef          	ucomisd %xmm7,%xmm5
    4f20:	f2 48 0f 2a c5       	cvtsi2sd %rbp,%xmm0
    4f25:	f2 0f 5e c8          	divsd  %xmm0,%xmm1
    4f29:	f2 0f 11 4c 24 30    	movsd  %xmm1,0x30(%rsp)
    4f2f:	dd 44 24 30          	fldl   0x30(%rsp)
    4f33:	7a 0c                	jp     4f41 <_ZL7torqueldddddddjjPPPedddd+0xa31>
    4f35:	41 b9 01 00 00 00    	mov    $0x1,%r9d
    4f3b:	0f 84 14 09 00 00    	je     5855 <_ZL7torqueldddddddjjPPPedddd+0x1345>
    4f41:	d9 bc 24 ce 00 00 00 	fnstcw 0xce(%rsp)
    4f48:	dc f9                	fdivr  %st,%st(1)
    4f4a:	d9 c9                	fxch   %st(1)
    4f4c:	0f b7 84 24 ce 00 00 	movzwl 0xce(%rsp),%eax
    4f53:	00 
    4f54:	80 e4 f3             	and    $0xf3,%ah
    4f57:	80 cc 08             	or     $0x8,%ah
    4f5a:	66 89 84 24 c8 00 00 	mov    %ax,0xc8(%rsp)
    4f61:	00 
    4f62:	0f b7 84 24 ce 00 00 	movzwl 0xce(%rsp),%eax
    4f69:	00 
    4f6a:	80 cc 0c             	or     $0xc,%ah
    4f6d:	66 89 84 24 ca 00 00 	mov    %ax,0xca(%rsp)
    4f74:	00 
    4f75:	d9 ac 24 c8 00 00 00 	fldcw  0xc8(%rsp)
    4f7c:	d9 fc                	frndint 
    4f7e:	d9 ac 24 ce 00 00 00 	fldcw  0xce(%rsp)
    4f85:	d9 ac 24 ca 00 00 00 	fldcw  0xca(%rsp)
    4f8c:	db 5c 24 30          	fistpl 0x30(%rsp)
    4f90:	d9 ac 24 ce 00 00 00 	fldcw  0xce(%rsp)
    4f97:	44 8b 4c 24 30       	mov    0x30(%rsp),%r9d
    4f9c:	d9 bc 24 ce 00 00 00 	fnstcw 0xce(%rsp)
    4fa3:	db ac 24 40 01 00 00 	fldt   0x140(%rsp)
    4faa:	0f b7 84 24 ce 00 00 	movzwl 0xce(%rsp),%eax
    4fb1:	00 
    4fb2:	de f1                	fdivp  %st,%st(1)
    4fb4:	80 e4 f3             	and    $0xf3,%ah
    4fb7:	80 cc 04             	or     $0x4,%ah
    4fba:	66 89 84 24 cc 00 00 	mov    %ax,0xcc(%rsp)
    4fc1:	00 
    4fc2:	d9 ac 24 cc 00 00 00 	fldcw  0xcc(%rsp)
    4fc9:	d9 fc                	frndint 
    4fcb:	d9 ac 24 ce 00 00 00 	fldcw  0xce(%rsp)
    4fd2:	d9 ac 24 ca 00 00 00 	fldcw  0xca(%rsp)
    4fd9:	db 5c 24 30          	fistpl 0x30(%rsp)
    4fdd:	d9 ac 24 ce 00 00 00 	fldcw  0xce(%rsp)
    4fe4:	44 8b 44 24 30       	mov    0x30(%rsp),%r8d
    4fe9:	44 39 6c 24 50       	cmp    %r13d,0x50(%rsp)
    4fee:	0f 86 e8 f5 ff ff    	jbe    45dc <_ZL7torqueldddddddjjPPPedddd+0xcc>
    4ff4:	8b 44 24 50          	mov    0x50(%rsp),%eax
    4ff8:	44 89 ea             	mov    %r13d,%edx
    4ffb:	44 89 c6             	mov    %r8d,%esi
    4ffe:	48 8d 2c d3          	lea    (%rbx,%rdx,8),%rbp
    5002:	48 8d 0c f5 00 00 00 	lea    0x0(,%rsi,8),%rcx
    5009:	00 
    500a:	83 e8 01             	sub    $0x1,%eax
    500d:	44 29 e8             	sub    %r13d,%eax
    5010:	48 01 d0             	add    %rdx,%rax
    5013:	48 8d 54 c3 08       	lea    0x8(%rbx,%rax,8),%rdx
    5018:	41 8d 41 ff          	lea    -0x1(%r9),%eax
    501c:	4c 8d 2c c5 08 00 00 	lea    0x8(,%rax,8),%r13
    5023:	00 
    5024:	41 8d 46 ff          	lea    -0x1(%r14),%eax
    5028:	44 29 c0             	sub    %r8d,%eax
    502b:	4c 8d 64 06 01       	lea    0x1(%rsi,%rax,1),%r12
    5030:	44 89 f0             	mov    %r14d,%eax
    5033:	48 8d b4 24 d0 00 00 	lea    0xd0(%rsp),%rsi
    503a:	00 
    503b:	45 89 ce             	mov    %r9d,%r14d
    503e:	49 c1 e4 03          	shl    $0x3,%r12
    5042:	4d 89 f9             	mov    %r15,%r9
    5045:	45 89 c7             	mov    %r8d,%r15d
    5048:	41 89 c0             	mov    %eax,%r8d
    504b:	0f 1f 44 00 00       	nopl   0x0(%rax,%rax,1)
    5050:	45 85 f6             	test   %r14d,%r14d
    5053:	0f 84 8e 00 00 00    	je     50e7 <_ZL7torqueldddddddjjPPPedddd+0xbd7>
    5059:	dd 44 24 28          	fldl   0x28(%rsp)
    505d:	31 db                	xor    %ebx,%ebx
    505f:	90                   	nop
    5060:	48 8b 45 00          	mov    0x0(%rbp),%rax
    5064:	48 8b 04 18          	mov    (%rax,%rbx,1),%rax
    5068:	db 28                	fldt   (%rax)
    506a:	db f1                	fcomi  %st(1),%st
    506c:	72 42                	jb     50b0 <_ZL7torqueldddddddjjPPPedddd+0xba0>
    506e:	d9 c2                	fld    %st(2)
    5070:	df f1                	fcomip %st(1),%st
    5072:	72 44                	jb     50b8 <_ZL7torqueldddddddjjPPPedddd+0xba8>
    5074:	dd 04 24             	fldl   (%rsp)
    5077:	db 68 10             	fldt   0x10(%rax)
    507a:	db f1                	fcomi  %st(1),%st
    507c:	dd d9                	fstp   %st(1)
    507e:	72 40                	jb     50c0 <_ZL7torqueldddddddjjPPPedddd+0xbb0>
    5080:	dd 44 24 08          	fldl   0x8(%rsp)
    5084:	df f1                	fcomip %st(1),%st
    5086:	72 3e                	jb     50c6 <_ZL7torqueldddddddjjPPPedddd+0xbb6>
    5088:	dd 44 24 20          	fldl   0x20(%rsp)
    508c:	db 68 20             	fldt   0x20(%rax)
    508f:	db f1                	fcomi  %st(1),%st
    5091:	dd d9                	fstp   %st(1)
    5093:	72 37                	jb     50cc <_ZL7torqueldddddddjjPPPedddd+0xbbc>
    5095:	dd 44 24 10          	fldl   0x10(%rsp)
    5099:	df f1                	fcomip %st(1),%st
    509b:	0f 83 20 03 00 00    	jae    53c1 <_ZL7torqueldddddddjjPPPedddd+0xeb1>
    50a1:	dd d8                	fstp   %st(0)
    50a3:	dd d8                	fstp   %st(0)
    50a5:	dd d8                	fstp   %st(0)
    50a7:	eb 2f                	jmp    50d8 <_ZL7torqueldddddddjjPPPedddd+0xbc8>
    50a9:	0f 1f 80 00 00 00 00 	nopl   0x0(%rax)
    50b0:	dd d8                	fstp   %st(0)
    50b2:	eb 24                	jmp    50d8 <_ZL7torqueldddddddjjPPPedddd+0xbc8>
    50b4:	0f 1f 40 00          	nopl   0x0(%rax)
    50b8:	dd d8                	fstp   %st(0)
    50ba:	eb 1c                	jmp    50d8 <_ZL7torqueldddddddjjPPPedddd+0xbc8>
    50bc:	0f 1f 40 00          	nopl   0x0(%rax)
    50c0:	dd d8                	fstp   %st(0)
    50c2:	dd d8                	fstp   %st(0)
    50c4:	eb 12                	jmp    50d8 <_ZL7torqueldddddddjjPPPedddd+0xbc8>
    50c6:	dd d8                	fstp   %st(0)
    50c8:	dd d8                	fstp   %st(0)
    50ca:	eb 0c                	jmp    50d8 <_ZL7torqueldddddddjjPPPedddd+0xbc8>
    50cc:	dd d8                	fstp   %st(0)
    50ce:	dd d8                	fstp   %st(0)
    50d0:	dd d8                	fstp   %st(0)
    50d2:	66 0f 1f 44 00 00    	nopw   0x0(%rax,%rax,1)
    50d8:	48 83 c3 08          	add    $0x8,%rbx
    50dc:	49 39 dd             	cmp    %rbx,%r13
    50df:	0f 85 7b ff ff ff    	jne    5060 <_ZL7torqueldddddddjjPPPedddd+0xb50>
    50e5:	dd d8                	fstp   %st(0)
    50e7:	45 39 f8             	cmp    %r15d,%r8d
    50ea:	0f 86 97 00 00 00    	jbe    5187 <_ZL7torqueldddddddjjPPPedddd+0xc77>
    50f0:	dd 44 24 28          	fldl   0x28(%rsp)
    50f4:	48 89 cb             	mov    %rcx,%rbx
    50f7:	66 0f 1f 84 00 00 00 	nopw   0x0(%rax,%rax,1)
    50fe:	00 00 
    5100:	48 8b 45 00          	mov    0x0(%rbp),%rax
    5104:	48 8b 04 18          	mov    (%rax,%rbx,1),%rax
    5108:	db 28                	fldt   (%rax)
    510a:	db f1                	fcomi  %st(1),%st
    510c:	72 42                	jb     5150 <_ZL7torqueldddddddjjPPPedddd+0xc40>
    510e:	d9 c2                	fld    %st(2)
    5110:	df f1                	fcomip %st(1),%st
    5112:	72 44                	jb     5158 <_ZL7torqueldddddddjjPPPedddd+0xc48>
    5114:	dd 04 24             	fldl   (%rsp)
    5117:	db 68 10             	fldt   0x10(%rax)
    511a:	db f1                	fcomi  %st(1),%st
    511c:	dd d9                	fstp   %st(1)
    511e:	72 40                	jb     5160 <_ZL7torqueldddddddjjPPPedddd+0xc50>
    5120:	dd 44 24 08          	fldl   0x8(%rsp)
    5124:	df f1                	fcomip %st(1),%st
    5126:	72 3e                	jb     5166 <_ZL7torqueldddddddjjPPPedddd+0xc56>
    5128:	dd 44 24 20          	fldl   0x20(%rsp)
    512c:	db 68 20             	fldt   0x20(%rax)
    512f:	db f1                	fcomi  %st(1),%st
    5131:	dd d9                	fstp   %st(1)
    5133:	72 37                	jb     516c <_ZL7torqueldddddddjjPPPedddd+0xc5c>
    5135:	dd 44 24 10          	fldl   0x10(%rsp)
    5139:	df f1                	fcomip %st(1),%st
    513b:	0f 83 c8 04 00 00    	jae    5609 <_ZL7torqueldddddddjjPPPedddd+0x10f9>
    5141:	dd d8                	fstp   %st(0)
    5143:	dd d8                	fstp   %st(0)
    5145:	dd d8                	fstp   %st(0)
    5147:	eb 2f                	jmp    5178 <_ZL7torqueldddddddjjPPPedddd+0xc68>
    5149:	0f 1f 80 00 00 00 00 	nopl   0x0(%rax)
    5150:	dd d8                	fstp   %st(0)
    5152:	eb 24                	jmp    5178 <_ZL7torqueldddddddjjPPPedddd+0xc68>
    5154:	0f 1f 40 00          	nopl   0x0(%rax)
    5158:	dd d8                	fstp   %st(0)
    515a:	eb 1c                	jmp    5178 <_ZL7torqueldddddddjjPPPedddd+0xc68>
    515c:	0f 1f 40 00          	nopl   0x0(%rax)
    5160:	dd d8                	fstp   %st(0)
    5162:	dd d8                	fstp   %st(0)
    5164:	eb 12                	jmp    5178 <_ZL7torqueldddddddjjPPPedddd+0xc68>
    5166:	dd d8                	fstp   %st(0)
    5168:	dd d8                	fstp   %st(0)
    516a:	eb 0c                	jmp    5178 <_ZL7torqueldddddddjjPPPedddd+0xc68>
    516c:	dd d8                	fstp   %st(0)
    516e:	dd d8                	fstp   %st(0)
    5170:	dd d8                	fstp   %st(0)
    5172:	66 0f 1f 44 00 00    	nopw   0x0(%rax,%rax,1)
    5178:	48 83 c3 08          	add    $0x8,%rbx
    517c:	49 39 dc             	cmp    %rbx,%r12
    517f:	0f 85 7b ff ff ff    	jne    5100 <_ZL7torqueldddddddjjPPPedddd+0xbf0>
    5185:	dd d8                	fstp   %st(0)
    5187:	48 83 c5 08          	add    $0x8,%rbp
    518b:	48 39 ea             	cmp    %rbp,%rdx
    518e:	0f 85 bc fe ff ff    	jne    5050 <_ZL7torqueldddddddjjPPPedddd+0xb40>
    5194:	dd d8                	fstp   %st(0)
    5196:	4d 89 cf             	mov    %r9,%r15
    5199:	e9 42 f4 ff ff       	jmp    45e0 <_ZL7torqueldddddddjjPPPedddd+0xd0>
    519e:	66 0f 2f 7c 24 08    	comisd 0x8(%rsp),%xmm7
    51a4:	0f 87 81 01 00 00    	ja     532b <_ZL7torqueldddddddjjPPPedddd+0xe1b>
    51aa:	d9 ee                	fldz   
    51ac:	e9 b7 f4 ff ff       	jmp    4668 <_ZL7torqueldddddddjjPPPedddd+0x158>
    51b1:	66 0f 2f 64 24 08    	comisd 0x8(%rsp),%xmm4
    51b7:	0f 87 88 01 00 00    	ja     5345 <_ZL7torqueldddddddjjPPPedddd+0xe35>
    51bd:	d9 ee                	fldz   
    51bf:	d9 c9                	fxch   %st(1)
    51c1:	e9 26 f8 ff ff       	jmp    49ec <_ZL7torqueldddddddjjPPPedddd+0x4dc>
    51c6:	66 0f 2f ef          	comisd %xmm7,%xmm5
    51ca:	0f 87 66 01 00 00    	ja     5336 <_ZL7torqueldddddddjjPPPedddd+0xe26>
    51d0:	d9 ee                	fldz   
    51d2:	66 0f 28 e5          	movapd %xmm5,%xmm4
    51d6:	e9 f2 f7 ff ff       	jmp    49cd <_ZL7torqueldddddddjjPPPedddd+0x4bd>
    51db:	dd 54 24 30          	fstl   0x30(%rsp)
    51df:	f2 0f 10 6c 24 30    	movsd  0x30(%rsp),%xmm5
    51e5:	66 0f 2f ec          	comisd %xmm4,%xmm5
    51e9:	0f 86 20 01 00 00    	jbe    530f <_ZL7torqueldddddddjjPPPedddd+0xdff>
    51ef:	d9 c9                	fxch   %st(1)
    51f1:	dc 05 69 32 00 00    	faddl  0x3269(%rip)        # 8460 <_IO_stdin_used+0x460>
    51f7:	eb 4d                	jmp    5246 <_ZL7torqueldddddddjjPPPedddd+0xd36>
    51f9:	66 0f 2f 2c 24       	comisd (%rsp),%xmm5
    51fe:	0f 87 18 01 00 00    	ja     531c <_ZL7torqueldddddddjjPPPedddd+0xe0c>
    5204:	d9 ee                	fldz   
    5206:	66 0f 28 fd          	movapd %xmm5,%xmm7
    520a:	e9 34 f4 ff ff       	jmp    4643 <_ZL7torqueldddddddjjPPPedddd+0x133>
    520f:	f2 0f 10 74 24 28    	movsd  0x28(%rsp),%xmm6
    5215:	66 0f 2f f3          	comisd %xmm3,%xmm6
    5219:	0f 86 dd 00 00 00    	jbe    52fc <_ZL7torqueldddddddjjPPPedddd+0xdec>
    521f:	d9 c9                	fxch   %st(1)
    5221:	dc 05 39 32 00 00    	faddl  0x3239(%rip)        # 8460 <_IO_stdin_used+0x460>
    5227:	d9 c9                	fxch   %st(1)
    5229:	e9 83 00 00 00       	jmp    52b1 <_ZL7torqueldddddddjjPPPedddd+0xda1>
    522e:	dd d9                	fstp   %st(1)
    5230:	dd 54 24 30          	fstl   0x30(%rsp)
    5234:	f2 0f 10 7c 24 30    	movsd  0x30(%rsp),%xmm7
    523a:	66 0f 2f fc          	comisd %xmm4,%xmm7
    523e:	0f 86 32 06 00 00    	jbe    5876 <_ZL7torqueldddddddjjPPPedddd+0x1366>
    5244:	d9 ee                	fldz   
    5246:	db bc 24 40 01 00 00 	fstpt  0x140(%rsp)
    524d:	f2 0f 10 44 24 08    	movsd  0x8(%rsp),%xmm0
    5253:	dd 54 24 30          	fstl   0x30(%rsp)
    5257:	f2 0f 10 74 24 30    	movsd  0x30(%rsp),%xmm6
    525d:	dd 5c 24 60          	fstpl  0x60(%rsp)
    5261:	f2 0f 5e c6          	divsd  %xmm6,%xmm0
    5265:	e8 46 d0 ff ff       	call   22b0 <atan@plt>
    526a:	66 0f ef db          	pxor   %xmm3,%xmm3
    526e:	66 0f 2f 5c 24 08    	comisd 0x8(%rsp),%xmm3
    5274:	f2 0f 11 44 24 30    	movsd  %xmm0,0x30(%rsp)
    527a:	dd 44 24 30          	fldl   0x30(%rsp)
    527e:	dd 44 24 60          	fldl   0x60(%rsp)
    5282:	0f 86 a5 f4 ff ff    	jbe    472d <_ZL7torqueldddddddjjPPPedddd+0x21d>
    5288:	d9 c9                	fxch   %st(1)
    528a:	dc 05 d0 31 00 00    	faddl  0x31d0(%rip)        # 8460 <_IO_stdin_used+0x460>
    5290:	d9 c9                	fxch   %st(1)
    5292:	e9 55 f7 ff ff       	jmp    49ec <_ZL7torqueldddddddjjPPPedddd+0x4dc>
    5297:	dd d9                	fstp   %st(1)
    5299:	66 0f 28 cb          	movapd %xmm3,%xmm1
    529d:	f2 0f 10 5c 24 28    	movsd  0x28(%rsp),%xmm3
    52a3:	66 0f 2f d9          	comisd %xmm1,%xmm3
    52a7:	0f 86 d4 05 00 00    	jbe    5881 <_ZL7torqueldddddddjjPPPedddd+0x1371>
    52ad:	d9 ee                	fldz   
    52af:	d9 c9                	fxch   %st(1)
    52b1:	dd 5c 24 60          	fstpl  0x60(%rsp)
    52b5:	f2 0f 10 44 24 08    	movsd  0x8(%rsp),%xmm0
    52bb:	f2 0f 5e 44 24 28    	divsd  0x28(%rsp),%xmm0
    52c1:	db bc 24 20 01 00 00 	fstpt  0x120(%rsp)
    52c8:	e8 e3 cf ff ff       	call   22b0 <atan@plt>
    52cd:	66 0f ef e4          	pxor   %xmm4,%xmm4
    52d1:	66 0f 2f 64 24 08    	comisd 0x8(%rsp),%xmm4
    52d7:	f2 0f 11 44 24 30    	movsd  %xmm0,0x30(%rsp)
    52dd:	dd 44 24 30          	fldl   0x30(%rsp)
    52e1:	dd 44 24 60          	fldl   0x60(%rsp)
    52e5:	0f 86 98 f6 ff ff    	jbe    4983 <_ZL7torqueldddddddjjPPPedddd+0x473>
    52eb:	d9 c9                	fxch   %st(1)
    52ed:	dc 05 6d 31 00 00    	faddl  0x316d(%rip)        # 8460 <_IO_stdin_used+0x460>
    52f3:	e9 70 f3 ff ff       	jmp    4668 <_ZL7torqueldddddddjjPPPedddd+0x158>
    52f8:	d9 c9                	fxch   %st(1)
    52fa:	eb 02                	jmp    52fe <_ZL7torqueldddddddjjPPPedddd+0xdee>
    52fc:	d9 c9                	fxch   %st(1)
    52fe:	dc 05 44 31 00 00    	faddl  0x3144(%rip)        # 8448 <_IO_stdin_used+0x448>
    5304:	d9 c9                	fxch   %st(1)
    5306:	e9 3e f6 ff ff       	jmp    4949 <_ZL7torqueldddddddjjPPPedddd+0x439>
    530b:	d9 c9                	fxch   %st(1)
    530d:	eb 02                	jmp    5311 <_ZL7torqueldddddddjjPPPedddd+0xe01>
    530f:	d9 c9                	fxch   %st(1)
    5311:	dc 05 31 31 00 00    	faddl  0x3131(%rip)        # 8448 <_IO_stdin_used+0x448>
    5317:	e9 cf f3 ff ff       	jmp    46eb <_ZL7torqueldddddddjjPPPedddd+0x1db>
    531c:	dd 05 1e 31 00 00    	fldl   0x311e(%rip)        # 8440 <_IO_stdin_used+0x440>
    5322:	66 0f 28 fd          	movapd %xmm5,%xmm7
    5326:	e9 18 f3 ff ff       	jmp    4643 <_ZL7torqueldddddddjjPPPedddd+0x133>
    532b:	dd 05 0f 31 00 00    	fldl   0x310f(%rip)        # 8440 <_IO_stdin_used+0x440>
    5331:	e9 32 f3 ff ff       	jmp    4668 <_ZL7torqueldddddddjjPPPedddd+0x158>
    5336:	dd 05 04 31 00 00    	fldl   0x3104(%rip)        # 8440 <_IO_stdin_used+0x440>
    533c:	66 0f 28 e5          	movapd %xmm5,%xmm4
    5340:	e9 88 f6 ff ff       	jmp    49cd <_ZL7torqueldddddddjjPPPedddd+0x4bd>
    5345:	dd 05 f5 30 00 00    	fldl   0x30f5(%rip)        # 8440 <_IO_stdin_used+0x440>
    534b:	d9 c9                	fxch   %st(1)
    534d:	e9 9a f6 ff ff       	jmp    49ec <_ZL7torqueldddddddjjPPPedddd+0x4dc>
    5352:	f2 0f 10 5c 24 28    	movsd  0x28(%rsp),%xmm3
    5358:	66 0f 2f df          	comisd %xmm7,%xmm3
    535c:	0f 86 45 f6 ff ff    	jbe    49a7 <_ZL7torqueldddddddjjPPPedddd+0x497>
    5362:	d9 c9                	fxch   %st(1)
    5364:	eb 87                	jmp    52ed <_ZL7torqueldddddddjjPPPedddd+0xddd>
    5366:	dd 54 24 30          	fstl   0x30(%rsp)
    536a:	f2 0f 10 74 24 30    	movsd  0x30(%rsp),%xmm6
    5370:	66 0f 2f f5          	comisd %xmm5,%xmm6
    5374:	0f 86 df f3 ff ff    	jbe    4759 <_ZL7torqueldddddddjjPPPedddd+0x249>
    537a:	d9 c9                	fxch   %st(1)
    537c:	e9 09 ff ff ff       	jmp    528a <_ZL7torqueldddddddjjPPPedddd+0xd7a>
    5381:	dd d9                	fstp   %st(1)
    5383:	f2 0f 10 54 24 28    	movsd  0x28(%rsp),%xmm2
    5389:	66 0f 2f d4          	comisd %xmm4,%xmm2
    538d:	0f 87 17 fe ff ff    	ja     51aa <_ZL7torqueldddddddjjPPPedddd+0xc9a>
    5393:	dd 05 af 30 00 00    	fldl   0x30af(%rip)        # 8448 <_IO_stdin_used+0x448>
    5399:	e9 ca f2 ff ff       	jmp    4668 <_ZL7torqueldddddddjjPPPedddd+0x158>
    539e:	dd d9                	fstp   %st(1)
    53a0:	dd 54 24 30          	fstl   0x30(%rsp)
    53a4:	f2 0f 10 64 24 30    	movsd  0x30(%rsp),%xmm4
    53aa:	66 0f 2f e7          	comisd %xmm7,%xmm4
    53ae:	0f 87 09 fe ff ff    	ja     51bd <_ZL7torqueldddddddjjPPPedddd+0xcad>
    53b4:	dd 05 8e 30 00 00    	fldl   0x308e(%rip)        # 8448 <_IO_stdin_used+0x448>
    53ba:	d9 c9                	fxch   %st(1)
    53bc:	e9 2b f6 ff ff       	jmp    49ec <_ZL7torqueldddddddjjPPPedddd+0x4dc>
    53c1:	d9 cc                	fxch   %st(4)
    53c3:	dd 9c 24 a0 00 00 00 	fstpl  0xa0(%rsp)
    53ca:	d9 ca                	fxch   %st(2)
    53cc:	f2 0f 10 6c 24 18    	movsd  0x18(%rsp),%xmm5
    53d2:	48 89 f7             	mov    %rsi,%rdi
    53d5:	db bc 24 90 00 00 00 	fstpt  0x90(%rsp)
    53dc:	44 89 84 24 c4 00 00 	mov    %r8d,0xc4(%rsp)
    53e3:	00 
    53e4:	d9 c2                	fld    %st(2)
    53e6:	dc 84 24 c0 01 00 00 	faddl  0x1c0(%rsp)
    53ed:	4c 89 8c 24 b8 00 00 	mov    %r9,0xb8(%rsp)
    53f4:	00 
    53f5:	48 89 8c 24 b0 00 00 	mov    %rcx,0xb0(%rsp)
    53fc:	00 
    53fd:	48 89 94 24 a8 00 00 	mov    %rdx,0xa8(%rsp)
    5404:	00 
    5405:	dd 5c 24 30          	fstpl  0x30(%rsp)
    5409:	f2 0f 10 5c 24 30    	movsd  0x30(%rsp),%xmm3
    540f:	d9 c1                	fld    %st(1)
    5411:	dc 84 24 b8 01 00 00 	faddl  0x1b8(%rsp)
    5418:	f2 0f 11 5c 24 70    	movsd  %xmm3,0x70(%rsp)
    541e:	dd 5c 24 30          	fstpl  0x30(%rsp)
    5422:	f2 0f 10 54 24 30    	movsd  0x30(%rsp),%xmm2
    5428:	d9 c0                	fld    %st(0)
    542a:	dc 84 24 b0 01 00 00 	faddl  0x1b0(%rsp)
    5431:	f2 0f 11 54 24 68    	movsd  %xmm2,0x68(%rsp)
    5437:	dd 5c 24 30          	fstpl  0x30(%rsp)
    543b:	d9 ca                	fxch   %st(2)
    543d:	f2 0f 10 4c 24 30    	movsd  0x30(%rsp),%xmm1
    5443:	dd 5c 24 30          	fstpl  0x30(%rsp)
    5447:	f2 0f 10 74 24 30    	movsd  0x30(%rsp),%xmm6
    544d:	dd 5c 24 30          	fstpl  0x30(%rsp)
    5451:	f2 44 0f 10 44 24 30 	movsd  0x30(%rsp),%xmm8
    5458:	dd 5c 24 30          	fstpl  0x30(%rsp)
    545c:	f2 0f 10 64 24 30    	movsd  0x30(%rsp),%xmm4
    5462:	f2 0f 5e f5          	divsd  %xmm5,%xmm6
    5466:	db 68 30             	fldt   0x30(%rax)
    5469:	f2 0f 11 4c 24 60    	movsd  %xmm1,0x60(%rsp)
    546f:	dd 5c 24 30          	fstpl  0x30(%rsp)
    5473:	f2 0f 5e e5          	divsd  %xmm5,%xmm4
    5477:	f2 0f 11 b4 24 88 00 	movsd  %xmm6,0x88(%rsp)
    547e:	00 00 
    5480:	f2 44 0f 5e c5       	divsd  %xmm5,%xmm8
    5485:	f2 0f 11 64 24 78    	movsd  %xmm4,0x78(%rsp)
    548b:	f2 0f 10 64 24 30    	movsd  0x30(%rsp),%xmm4
    5491:	66 0f 28 fc          	movapd %xmm4,%xmm7
    5495:	66 0f 14 ff          	unpcklpd %xmm7,%xmm7
    5499:	0f 29 7c 24 40       	movaps %xmm7,0x40(%rsp)
    549e:	f2 44 0f 11 84 24 80 	movsd  %xmm8,0x80(%rsp)
    54a5:	00 00 00 
    54a8:	f2 0f 10 44 24 58    	movsd  0x58(%rsp),%xmm0
    54ae:	48 89 74 24 50       	mov    %rsi,0x50(%rsp)
    54b3:	e8 a8 22 00 00       	call   7760 <_Z6stressdddd>
    54b8:	f2 0f 10 64 24 78    	movsd  0x78(%rsp),%xmm4
    54be:	f2 0f 10 8c 24 e0 00 	movsd  0xe0(%rsp),%xmm1
    54c5:	00 00 
    54c7:	f2 44 0f 10 84 24 80 	movsd  0x80(%rsp),%xmm8
    54ce:	00 00 00 
    54d1:	f2 0f 10 54 24 68    	movsd  0x68(%rsp),%xmm2
    54d7:	f2 0f 59 cc          	mulsd  %xmm4,%xmm1
    54db:	f2 0f 10 5c 24 70    	movsd  0x70(%rsp),%xmm3
    54e1:	f2 0f 10 84 24 f8 00 	movsd  0xf8(%rsp),%xmm0
    54e8:	00 00 
    54ea:	f2 0f 10 b4 24 88 00 	movsd  0x88(%rsp),%xmm6
    54f1:	00 00 
    54f3:	4c 8b 8c 24 b8 00 00 	mov    0xb8(%rsp),%r9
    54fa:	00 
    54fb:	f2 41 0f 59 c0       	mulsd  %xmm8,%xmm0
    5500:	dd 84 24 a0 00 00 00 	fldl   0xa0(%rsp)
    5507:	f2 0f 10 ac 24 d8 00 	movsd  0xd8(%rsp),%xmm5
    550e:	00 00 
    5510:	db ac 24 90 00 00 00 	fldt   0x90(%rsp)
    5517:	44 8b 84 24 c4 00 00 	mov    0xc4(%rsp),%r8d
    551e:	00 
    551f:	48 8b 8c 24 b0 00 00 	mov    0xb0(%rsp),%rcx
    5526:	00 
    5527:	f2 0f 59 ec          	mulsd  %xmm4,%xmm5
    552b:	66 0f 28 f9          	movapd %xmm1,%xmm7
    552f:	f2 0f 10 4c 24 60    	movsd  0x60(%rsp),%xmm1
    5535:	48 8b 94 24 a8 00 00 	mov    0xa8(%rsp),%rdx
    553c:	00 
    553d:	f2 0f 59 a4 24 d0 00 	mulsd  0xd0(%rsp),%xmm4
    5544:	00 00 
    5546:	48 8b 74 24 50       	mov    0x50(%rsp),%rsi
    554b:	f2 0f 58 f8          	addsd  %xmm0,%xmm7
    554f:	f2 0f 10 84 24 10 01 	movsd  0x110(%rsp),%xmm0
    5556:	00 00 
    5558:	f2 0f 59 c6          	mulsd  %xmm6,%xmm0
    555c:	f2 0f 58 f8          	addsd  %xmm0,%xmm7
    5560:	f2 0f 10 84 24 f0 00 	movsd  0xf0(%rsp),%xmm0
    5567:	00 00 
    5569:	f2 41 0f 59 c0       	mulsd  %xmm8,%xmm0
    556e:	f2 44 0f 59 84 24 e8 	mulsd  0xe8(%rsp),%xmm8
    5575:	00 00 00 
    5578:	f2 0f 58 e8          	addsd  %xmm0,%xmm5
    557c:	f2 0f 10 84 24 08 01 	movsd  0x108(%rsp),%xmm0
    5583:	00 00 
    5585:	f2 41 0f 58 e0       	addsd  %xmm8,%xmm4
    558a:	f2 0f 59 c6          	mulsd  %xmm6,%xmm0
    558e:	f2 0f 59 b4 24 00 01 	mulsd  0x100(%rsp),%xmm6
    5595:	00 00 
    5597:	f2 0f 58 e8          	addsd  %xmm0,%xmm5
    559b:	66 0f 28 c1          	movapd %xmm1,%xmm0
    559f:	f2 0f 58 e6          	addsd  %xmm6,%xmm4
    55a3:	f2 0f 59 cf          	mulsd  %xmm7,%xmm1
    55a7:	66 0f 28 f2          	movapd %xmm2,%xmm6
    55ab:	f2 0f 59 d7          	mulsd  %xmm7,%xmm2
    55af:	f2 0f 59 c5          	mulsd  %xmm5,%xmm0
    55b3:	f2 0f 59 f4          	mulsd  %xmm4,%xmm6
    55b7:	f2 0f 59 eb          	mulsd  %xmm3,%xmm5
    55bb:	f2 0f 59 dc          	mulsd  %xmm4,%xmm3
    55bf:	f2 0f 5c c6          	subsd  %xmm6,%xmm0
    55c3:	f2 0f 59 44 24 30    	mulsd  0x30(%rsp),%xmm0
    55c9:	f2 0f 5c cb          	subsd  %xmm3,%xmm1
    55cd:	66 0f 57 0d 1b 2e 00 	xorpd  0x2e1b(%rip),%xmm1        # 83f0 <_IO_stdin_used+0x3f0>
    55d4:	00 
    55d5:	66 0f 28 f0          	movapd %xmm0,%xmm6
    55d9:	66 0f 28 c2          	movapd %xmm2,%xmm0
    55dd:	f2 41 0f 58 71 10    	addsd  0x10(%r9),%xmm6
    55e3:	f2 0f 5c c5          	subsd  %xmm5,%xmm0
    55e7:	f2 41 0f 11 71 10    	movsd  %xmm6,0x10(%r9)
    55ed:	66 0f 14 c1          	unpcklpd %xmm1,%xmm0
    55f1:	66 41 0f 10 09       	movupd (%r9),%xmm1
    55f6:	66 0f 59 44 24 40    	mulpd  0x40(%rsp),%xmm0
    55fc:	66 0f 58 c1          	addpd  %xmm1,%xmm0
    5600:	41 0f 11 01          	movups %xmm0,(%r9)
    5604:	e9 cf fa ff ff       	jmp    50d8 <_ZL7torqueldddddddjjPPPedddd+0xbc8>
    5609:	d9 cc                	fxch   %st(4)
    560b:	dd 9c 24 a0 00 00 00 	fstpl  0xa0(%rsp)
    5612:	d9 ca                	fxch   %st(2)
    5614:	f2 0f 10 64 24 18    	movsd  0x18(%rsp),%xmm4
    561a:	48 89 f7             	mov    %rsi,%rdi
    561d:	db bc 24 90 00 00 00 	fstpt  0x90(%rsp)
    5624:	44 89 84 24 c4 00 00 	mov    %r8d,0xc4(%rsp)
    562b:	00 
    562c:	d9 c2                	fld    %st(2)
    562e:	dc 84 24 c0 01 00 00 	faddl  0x1c0(%rsp)
    5635:	4c 89 8c 24 b8 00 00 	mov    %r9,0xb8(%rsp)
    563c:	00 
    563d:	48 89 8c 24 b0 00 00 	mov    %rcx,0xb0(%rsp)
    5644:	00 
    5645:	48 89 94 24 a8 00 00 	mov    %rdx,0xa8(%rsp)
    564c:	00 
    564d:	dd 5c 24 30          	fstpl  0x30(%rsp)
    5651:	f2 0f 10 5c 24 30    	movsd  0x30(%rsp),%xmm3
    5657:	d9 c1                	fld    %st(1)
    5659:	dc 84 24 b8 01 00 00 	faddl  0x1b8(%rsp)
    5660:	f2 0f 11 5c 24 70    	movsd  %xmm3,0x70(%rsp)
    5666:	dd 5c 24 30          	fstpl  0x30(%rsp)
    566a:	f2 0f 10 54 24 30    	movsd  0x30(%rsp),%xmm2
    5670:	d9 c0                	fld    %st(0)
    5672:	dc 84 24 b0 01 00 00 	faddl  0x1b0(%rsp)
    5679:	f2 0f 11 54 24 68    	movsd  %xmm2,0x68(%rsp)
    567f:	dd 5c 24 30          	fstpl  0x30(%rsp)
    5683:	d9 ca                	fxch   %st(2)
    5685:	f2 0f 10 4c 24 30    	movsd  0x30(%rsp),%xmm1
    568b:	dd 5c 24 30          	fstpl  0x30(%rsp)
    568f:	f2 0f 10 74 24 30    	movsd  0x30(%rsp),%xmm6
    5695:	dd 5c 24 30          	fstpl  0x30(%rsp)
    5699:	f2 44 0f 10 44 24 30 	movsd  0x30(%rsp),%xmm8
    56a0:	f2 0f 5e f4          	divsd  %xmm4,%xmm6
    56a4:	dd 5c 24 30          	fstpl  0x30(%rsp)
    56a8:	db 68 30             	fldt   0x30(%rax)
    56ab:	f2 0f 11 4c 24 60    	movsd  %xmm1,0x60(%rsp)
    56b1:	f2 44 0f 5e c4       	divsd  %xmm4,%xmm8
    56b6:	f2 0f 11 b4 24 88 00 	movsd  %xmm6,0x88(%rsp)
    56bd:	00 00 
    56bf:	66 0f 28 f4          	movapd %xmm4,%xmm6
    56c3:	f2 0f 10 64 24 30    	movsd  0x30(%rsp),%xmm4
    56c9:	dd 5c 24 30          	fstpl  0x30(%rsp)
    56cd:	f2 0f 10 7c 24 30    	movsd  0x30(%rsp),%xmm7
    56d3:	66 0f 28 ef          	movapd %xmm7,%xmm5
    56d7:	66 0f 14 ed          	unpcklpd %xmm5,%xmm5
    56db:	0f 29 6c 24 40       	movaps %xmm5,0x40(%rsp)
    56e0:	f2 0f 5e e6          	divsd  %xmm6,%xmm4
    56e4:	f2 44 0f 11 84 24 80 	movsd  %xmm8,0x80(%rsp)
    56eb:	00 00 00 
    56ee:	f2 0f 11 64 24 78    	movsd  %xmm4,0x78(%rsp)
    56f4:	f2 0f 10 44 24 58    	movsd  0x58(%rsp),%xmm0
    56fa:	48 89 74 24 50       	mov    %rsi,0x50(%rsp)
    56ff:	e8 5c 20 00 00       	call   7760 <_Z6stressdddd>
    5704:	f2 0f 10 64 24 78    	movsd  0x78(%rsp),%xmm4
    570a:	f2 44 0f 10 84 24 80 	movsd  0x80(%rsp),%xmm8
    5711:	00 00 00 
    5714:	f2 0f 10 bc 24 e0 00 	movsd  0xe0(%rsp),%xmm7
    571b:	00 00 
    571d:	f2 0f 10 54 24 68    	movsd  0x68(%rsp),%xmm2
    5723:	f2 0f 10 84 24 f8 00 	movsd  0xf8(%rsp),%xmm0
    572a:	00 00 
    572c:	f2 0f 10 5c 24 70    	movsd  0x70(%rsp),%xmm3
    5732:	f2 0f 59 fc          	mulsd  %xmm4,%xmm7
    5736:	4c 8b 8c 24 b8 00 00 	mov    0xb8(%rsp),%r9
    573d:	00 
    573e:	f2 0f 10 b4 24 88 00 	movsd  0x88(%rsp),%xmm6
    5745:	00 00 
    5747:	f2 41 0f 59 c0       	mulsd  %xmm8,%xmm0
    574c:	dd 84 24 a0 00 00 00 	fldl   0xa0(%rsp)
    5753:	f2 0f 10 8c 24 d8 00 	movsd  0xd8(%rsp),%xmm1
    575a:	00 00 
    575c:	db ac 24 90 00 00 00 	fldt   0x90(%rsp)
    5763:	44 8b 84 24 c4 00 00 	mov    0xc4(%rsp),%r8d
    576a:	00 
    576b:	48 8b 8c 24 b0 00 00 	mov    0xb0(%rsp),%rcx
    5772:	00 
    5773:	f2 0f 59 cc          	mulsd  %xmm4,%xmm1
    5777:	48 8b 94 24 a8 00 00 	mov    0xa8(%rsp),%rdx
    577e:	00 
    577f:	48 8b 74 24 50       	mov    0x50(%rsp),%rsi
    5784:	f2 0f 59 a4 24 d0 00 	mulsd  0xd0(%rsp),%xmm4
    578b:	00 00 
    578d:	f2 0f 58 f8          	addsd  %xmm0,%xmm7
    5791:	f2 0f 10 84 24 10 01 	movsd  0x110(%rsp),%xmm0
    5798:	00 00 
    579a:	f2 0f 59 c6          	mulsd  %xmm6,%xmm0
    579e:	66 0f 28 e9          	movapd %xmm1,%xmm5
    57a2:	f2 0f 10 4c 24 60    	movsd  0x60(%rsp),%xmm1
    57a8:	f2 0f 58 f8          	addsd  %xmm0,%xmm7
    57ac:	f2 0f 10 84 24 f0 00 	movsd  0xf0(%rsp),%xmm0
    57b3:	00 00 
    57b5:	f2 41 0f 59 c0       	mulsd  %xmm8,%xmm0
    57ba:	f2 44 0f 59 84 24 e8 	mulsd  0xe8(%rsp),%xmm8
    57c1:	00 00 00 
    57c4:	f2 0f 58 e8          	addsd  %xmm0,%xmm5
    57c8:	f2 0f 10 84 24 08 01 	movsd  0x108(%rsp),%xmm0
    57cf:	00 00 
    57d1:	f2 41 0f 58 e0       	addsd  %xmm8,%xmm4
    57d6:	f2 0f 59 c6          	mulsd  %xmm6,%xmm0
    57da:	f2 0f 59 b4 24 00 01 	mulsd  0x100(%rsp),%xmm6
    57e1:	00 00 
    57e3:	f2 0f 58 e8          	addsd  %xmm0,%xmm5
    57e7:	66 0f 28 c1          	movapd %xmm1,%xmm0
    57eb:	f2 0f 58 e6          	addsd  %xmm6,%xmm4
    57ef:	f2 0f 59 cf          	mulsd  %xmm7,%xmm1
    57f3:	66 0f 28 f2          	movapd %xmm2,%xmm6
    57f7:	f2 0f 59 d7          	mulsd  %xmm7,%xmm2
    57fb:	f2 0f 59 c5          	mulsd  %xmm5,%xmm0
    57ff:	f2 0f 59 f4          	mulsd  %xmm4,%xmm6
    5803:	f2 0f 59 eb          	mulsd  %xmm3,%xmm5
    5807:	f2 0f 59 dc          	mulsd  %xmm4,%xmm3
    580b:	66 41 0f 10 21       	movupd (%r9),%xmm4
    5810:	f2 0f 5c c6          	subsd  %xmm6,%xmm0
    5814:	f2 0f 59 44 24 30    	mulsd  0x30(%rsp),%xmm0
    581a:	f2 0f 5c cb          	subsd  %xmm3,%xmm1
    581e:	66 0f 57 0d ca 2b 00 	xorpd  0x2bca(%rip),%xmm1        # 83f0 <_IO_stdin_used+0x3f0>
    5825:	00 
    5826:	66 0f 28 f0          	movapd %xmm0,%xmm6
    582a:	66 0f 28 c2          	movapd %xmm2,%xmm0
    582e:	f2 41 0f 58 71 10    	addsd  0x10(%r9),%xmm6
    5834:	f2 0f 5c c5          	subsd  %xmm5,%xmm0
    5838:	f2 41 0f 11 71 10    	movsd  %xmm6,0x10(%r9)
    583e:	66 0f 14 c1          	unpcklpd %xmm1,%xmm0
    5842:	66 0f 59 44 24 40    	mulpd  0x40(%rsp),%xmm0
    5848:	66 0f 58 c4          	addpd  %xmm4,%xmm0
    584c:	41 0f 11 01          	movups %xmm0,(%r9)
    5850:	e9 23 f9 ff ff       	jmp    5178 <_ZL7torqueldddddddjjPPPedddd+0xc68>
    5855:	dd d9                	fstp   %st(1)
    5857:	d9 bc 24 ce 00 00 00 	fnstcw 0xce(%rsp)
    585e:	0f b7 84 24 ce 00 00 	movzwl 0xce(%rsp),%eax
    5865:	00 
    5866:	80 cc 0c             	or     $0xc,%ah
    5869:	66 89 84 24 ca 00 00 	mov    %ax,0xca(%rsp)
    5870:	00 
    5871:	e9 26 f7 ff ff       	jmp    4f9c <_ZL7torqueldddddddjjPPPedddd+0xa8c>
    5876:	dd 05 cc 2b 00 00    	fldl   0x2bcc(%rip)        # 8448 <_IO_stdin_used+0x448>
    587c:	e9 6a ee ff ff       	jmp    46eb <_ZL7torqueldddddddjjPPPedddd+0x1db>
    5881:	dd 05 c1 2b 00 00    	fldl   0x2bc1(%rip)        # 8448 <_IO_stdin_used+0x448>
    5887:	d9 c9                	fxch   %st(1)
    5889:	e9 bb f0 ff ff       	jmp    4949 <_ZL7torqueldddddddjjPPPedddd+0x439>
    588e:	e8 6d ca ff ff       	call   2300 <__stack_chk_fail@plt>
    5893:	66 66 2e 0f 1f 84 00 	data16 cs nopw 0x0(%rax,%rax,1)
    589a:	00 00 00 00 
    589e:	66 90                	xchg   %ax,%ax

00000000000058a0 <_Z7angleofdd>:
    58a0:	f3 0f 1e fa          	endbr64 
    58a4:	66 0f ef db          	pxor   %xmm3,%xmm3
    58a8:	66 0f 28 d0          	movapd %xmm0,%xmm2
    58ac:	66 0f 2e c3          	ucomisd %xmm3,%xmm0
    58b0:	7a 16                	jp     58c8 <_Z7angleofdd+0x28>
    58b2:	75 14                	jne    58c8 <_Z7angleofdd+0x28>
    58b4:	66 0f 2f cb          	comisd %xmm3,%xmm1
    58b8:	76 7e                	jbe    5938 <_Z7angleofdd+0x98>
    58ba:	dd 05 78 2b 00 00    	fldl   0x2b78(%rip)        # 8438 <_IO_stdin_used+0x438>
    58c0:	c3                   	ret    
    58c1:	0f 1f 80 00 00 00 00 	nopl   0x0(%rax)
    58c8:	66 0f 28 c1          	movapd %xmm1,%xmm0
    58cc:	48 83 ec 28          	sub    $0x28,%rsp
    58d0:	f2 0f 5e c2          	divsd  %xmm2,%xmm0
    58d4:	f2 0f 11 4c 24 18    	movsd  %xmm1,0x18(%rsp)
    58da:	f2 0f 11 54 24 10    	movsd  %xmm2,0x10(%rsp)
    58e0:	e8 cb c9 ff ff       	call   22b0 <atan@plt>
    58e5:	f2 0f 10 4c 24 18    	movsd  0x18(%rsp),%xmm1
    58eb:	66 0f ef db          	pxor   %xmm3,%xmm3
    58ef:	f2 0f 10 54 24 10    	movsd  0x10(%rsp),%xmm2
    58f5:	f2 0f 11 44 24 08    	movsd  %xmm0,0x8(%rsp)
    58fb:	dd 44 24 08          	fldl   0x8(%rsp)
    58ff:	66 0f 2f d9          	comisd %xmm1,%xmm3
    5903:	77 1b                	ja     5920 <_Z7angleofdd+0x80>
    5905:	66 0f 2f cb          	comisd %xmm3,%xmm1
    5909:	76 3d                	jbe    5948 <_Z7angleofdd+0xa8>
    590b:	66 0f 2f da          	comisd %xmm2,%xmm3
    590f:	77 47                	ja     5958 <_Z7angleofdd+0xb8>
    5911:	48 83 c4 28          	add    $0x28,%rsp
    5915:	c3                   	ret    
    5916:	66 2e 0f 1f 84 00 00 	cs nopw 0x0(%rax,%rax,1)
    591d:	00 00 00 
    5920:	66 0f 2f d3          	comisd %xmm3,%xmm2
    5924:	76 32                	jbe    5958 <_Z7angleofdd+0xb8>
    5926:	dc 05 34 2b 00 00    	faddl  0x2b34(%rip)        # 8460 <_IO_stdin_used+0x460>
    592c:	48 83 c4 28          	add    $0x28,%rsp
    5930:	c3                   	ret    
    5931:	0f 1f 80 00 00 00 00 	nopl   0x0(%rax)
    5938:	66 0f 2f d9          	comisd %xmm1,%xmm3
    593c:	77 2a                	ja     5968 <_Z7angleofdd+0xc8>
    593e:	d9 ee                	fldz   
    5940:	c3                   	ret    
    5941:	0f 1f 80 00 00 00 00 	nopl   0x0(%rax)
    5948:	dd d8                	fstp   %st(0)
    594a:	66 0f 2f d3          	comisd %xmm3,%xmm2
    594e:	76 20                	jbe    5970 <_Z7angleofdd+0xd0>
    5950:	d9 ee                	fldz   
    5952:	eb bd                	jmp    5911 <_Z7angleofdd+0x71>
    5954:	0f 1f 40 00          	nopl   0x0(%rax)
    5958:	dc 05 ea 2a 00 00    	faddl  0x2aea(%rip)        # 8448 <_IO_stdin_used+0x448>
    595e:	48 83 c4 28          	add    $0x28,%rsp
    5962:	c3                   	ret    
    5963:	0f 1f 44 00 00       	nopl   0x0(%rax,%rax,1)
    5968:	dd 05 d2 2a 00 00    	fldl   0x2ad2(%rip)        # 8440 <_IO_stdin_used+0x440>
    596e:	c3                   	ret    
    596f:	90                   	nop
    5970:	dd 05 d2 2a 00 00    	fldl   0x2ad2(%rip)        # 8448 <_IO_stdin_used+0x448>
    5976:	eb 99                	jmp    5911 <_Z7angleofdd+0x71>
    5978:	0f 1f 84 00 00 00 00 	nopl   0x0(%rax,%rax,1)
    597f:	00 

0000000000005980 <_Z18compute_spheremeshdjj>:
    5980:	f3 0f 1e fa          	endbr64 
    5984:	41 57                	push   %r15
    5986:	ba 04 00 00 00       	mov    $0x4,%edx
    598b:	41 89 f7             	mov    %esi,%r15d
    598e:	41 56                	push   %r14
    5990:	41 55                	push   %r13
    5992:	41 54                	push   %r12
    5994:	55                   	push   %rbp
    5995:	53                   	push   %rbx
    5996:	89 fb                	mov    %edi,%ebx
    5998:	89 df                	mov    %ebx,%edi
    599a:	48 81 ec 08 01 00 00 	sub    $0x108,%rsp
    59a1:	f2 0f 11 04 24       	movsd  %xmm0,(%rsp)
    59a6:	89 74 24 7c          	mov    %esi,0x7c(%rsp)
    59aa:	e8 11 18 00 00       	call   71c0 <_Z10allocate3djjj>
    59af:	66 0f ef c9          	pxor   %xmm1,%xmm1
    59b3:	f2 0f 10 05 8d 2a 00 	movsd  0x2a8d(%rip),%xmm0        # 8448 <_IO_stdin_used+0x448>
    59ba:	00 
    59bb:	48 89 84 24 c8 00 00 	mov    %rax,0xc8(%rsp)
    59c2:	00 
    59c3:	48 89 c1             	mov    %rax,%rcx
    59c6:	8d 04 1b             	lea    (%rbx,%rbx,1),%eax
    59c9:	f2 48 0f 2a c8       	cvtsi2sd %rax,%xmm1
    59ce:	66 0f 28 d8          	movapd %xmm0,%xmm3
    59d2:	f2 0f 5e d9          	divsd  %xmm1,%xmm3
    59d6:	f2 0f 11 5c 24 10    	movsd  %xmm3,0x10(%rsp)
    59dc:	dd 44 24 10          	fldl   0x10(%rsp)
    59e0:	db 7c 24 40          	fstpt  0x40(%rsp)
    59e4:	85 db                	test   %ebx,%ebx
    59e6:	0f 84 2f 02 00 00    	je     5c1b <_Z18compute_spheremeshdjj+0x29b>
    59ec:	66 0f ef c9          	pxor   %xmm1,%xmm1
    59f0:	f2 0f 10 15 40 2a 00 	movsd  0x2a40(%rip),%xmm2        # 8438 <_IO_stdin_used+0x438>
    59f7:	00 
    59f8:	f2 0f 10 3c 24       	movsd  (%rsp),%xmm7
    59fd:	44 89 f8             	mov    %r15d,%eax
    5a00:	f2 48 0f 2a cb       	cvtsi2sd %rbx,%xmm1
    5a05:	f2 0f 10 1d 53 2a 00 	movsd  0x2a53(%rip),%xmm3        # 8460 <_IO_stdin_used+0x460>
    5a0c:	00 
    5a0d:	66 0f 28 f7          	movapd %xmm7,%xmm6
    5a11:	f2 0f 59 f7          	mulsd  %xmm7,%xmm6
    5a15:	f2 0f 5e d1          	divsd  %xmm1,%xmm2
    5a19:	f2 0f 11 74 24 10    	movsd  %xmm6,0x10(%rsp)
    5a1f:	dd 44 24 10          	fldl   0x10(%rsp)
    5a23:	db bc 24 80 00 00 00 	fstpt  0x80(%rsp)
    5a2a:	f2 0f 5e c1          	divsd  %xmm1,%xmm0
    5a2e:	f2 0f 11 54 24 10    	movsd  %xmm2,0x10(%rsp)
    5a34:	66 0f ef d2          	pxor   %xmm2,%xmm2
    5a38:	dd 44 24 10          	fldl   0x10(%rsp)
    5a3c:	f2 48 0f 2a d0       	cvtsi2sd %rax,%xmm2
    5a41:	db 7c 24 50          	fstpt  0x50(%rsp)
    5a45:	f2 0f 5e da          	divsd  %xmm2,%xmm3
    5a49:	f2 0f 11 5c 24 70    	movsd  %xmm3,0x70(%rsp)
    5a4f:	dd 44 24 70          	fldl   0x70(%rsp)
    5a53:	db bc 24 90 00 00 00 	fstpt  0x90(%rsp)
    5a5a:	dd 04 24             	fldl   (%rsp)
    5a5d:	f2 0f 11 04 24       	movsd  %xmm0,(%rsp)
    5a62:	db 7c 24 60          	fstpt  0x60(%rsp)
    5a66:	dd 04 24             	fldl   (%rsp)
    5a69:	db bc 24 a0 00 00 00 	fstpt  0xa0(%rsp)
    5a70:	45 85 ff             	test   %r15d,%r15d
    5a73:	0f 84 a2 01 00 00    	je     5c1b <_Z18compute_spheremeshdjj+0x29b>
    5a79:	48 8d 04 d9          	lea    (%rcx,%rbx,8),%rax
    5a7d:	48 8d 94 24 e0 00 00 	lea    0xe0(%rsp),%rdx
    5a84:	00 
    5a85:	49 89 cd             	mov    %rcx,%r13
    5a88:	48 89 84 24 b0 00 00 	mov    %rax,0xb0(%rsp)
    5a8f:	00 
    5a90:	41 8d 47 fe          	lea    -0x2(%r15),%eax
    5a94:	4c 8d bc 24 f0 00 00 	lea    0xf0(%rsp),%r15
    5a9b:	00 
    5a9c:	48 8d 04 c5 10 00 00 	lea    0x10(,%rax,8),%rax
    5aa3:	00 
    5aa4:	48 89 94 24 b8 00 00 	mov    %rdx,0xb8(%rsp)
    5aab:	00 
    5aac:	48 89 84 24 c0 00 00 	mov    %rax,0xc0(%rsp)
    5ab3:	00 
    5ab4:	0f 1f 40 00          	nopl   0x0(%rax)
    5ab8:	ff 74 24 48          	push   0x48(%rsp)
    5abc:	4c 89 ff             	mov    %r15,%rdi
    5abf:	ff 74 24 48          	push   0x48(%rsp)
    5ac3:	48 8b b4 24 c8 00 00 	mov    0xc8(%rsp),%rsi
    5aca:	00 
    5acb:	e8 40 c8 ff ff       	call   2310 <sincosl@plt>
    5ad0:	db ac 24 f0 00 00 00 	fldt   0xf0(%rsp)
    5ad7:	48 83 ec 10          	sub    $0x10,%rsp
    5adb:	db ac 24 80 00 00 00 	fldt   0x80(%rsp)
    5ae2:	de c9                	fmulp  %st,%st(1)
    5ae4:	db 7c 24 40          	fstpt  0x40(%rsp)
    5ae8:	db 6c 24 60          	fldt   0x60(%rsp)
    5aec:	db 6c 24 70          	fldt   0x70(%rsp)
    5af0:	de e9                	fsubrp %st,%st(1)
    5af2:	db 3c 24             	fstpt  (%rsp)
    5af5:	e8 46 c8 ff ff       	call   2340 <cosl@plt>
    5afa:	db 7c 24 20          	fstpt  0x20(%rsp)
    5afe:	db 6c 24 60          	fldt   0x60(%rsp)
    5b02:	db 6c 24 70          	fldt   0x70(%rsp)
    5b06:	de c1                	faddp  %st,%st(1)
    5b08:	db 3c 24             	fstpt  (%rsp)
    5b0b:	e8 30 c8 ff ff       	call   2340 <cosl@plt>
    5b10:	db 6c 24 20          	fldt   0x20(%rsp)
    5b14:	49 8b 5d 00          	mov    0x0(%r13),%rbx
    5b18:	66 0f ef c0          	pxor   %xmm0,%xmm0
    5b1c:	f2 0f 58 84 24 90 00 	addsd  0x90(%rsp),%xmm0
    5b23:	00 00 
    5b25:	48 8b 03             	mov    (%rbx),%rax
    5b28:	de e1                	fsubp  %st,%st(1)
    5b2a:	db ac 24 a0 00 00 00 	fldt   0xa0(%rsp)
    5b31:	de c9                	fmulp  %st,%st(1)
    5b33:	db ac 24 b0 00 00 00 	fldt   0xb0(%rsp)
    5b3a:	de c9                	fmulp  %st,%st(1)
    5b3c:	d9 c0                	fld    %st(0)
    5b3e:	db 7c 24 50          	fstpt  0x50(%rsp)
    5b42:	db ac 24 10 01 00 00 	fldt   0x110(%rsp)
    5b49:	db ac 24 80 00 00 00 	fldt   0x80(%rsp)
    5b50:	de c9                	fmulp  %st,%st(1)
    5b52:	d9 c0                	fld    %st(0)
    5b54:	db 38                	fstpt  (%rax)
    5b56:	d9 ee                	fldz   
    5b58:	d8 c9                	fmul   %st(1),%st
    5b5a:	db 78 10             	fstpt  0x10(%rax)
    5b5d:	db 6c 24 40          	fldt   0x40(%rsp)
    5b61:	48 83 c4 20          	add    $0x20,%rsp
    5b65:	83 7c 24 7c 01       	cmpl   $0x1,0x7c(%rsp)
    5b6a:	db 78 20             	fstpt  0x20(%rax)
    5b6d:	d9 c9                	fxch   %st(1)
    5b6f:	db 78 30             	fstpt  0x30(%rax)
    5b72:	74 7c                	je     5bf0 <_Z18compute_spheremeshdjj+0x270>
    5b74:	4c 8d 73 08          	lea    0x8(%rbx),%r14
    5b78:	4c 8d a4 24 d8 00 00 	lea    0xd8(%rsp),%r12
    5b7f:	00 
    5b80:	48 03 9c 24 c0 00 00 	add    0xc0(%rsp),%rbx
    5b87:	00 
    5b88:	48 8d ac 24 d0 00 00 	lea    0xd0(%rsp),%rbp
    5b8f:	00 
    5b90:	48 89 ee             	mov    %rbp,%rsi
    5b93:	4c 89 e7             	mov    %r12,%rdi
    5b96:	db 7c 24 10          	fstpt  0x10(%rsp)
    5b9a:	49 83 c6 08          	add    $0x8,%r14
    5b9e:	f2 0f 11 04 24       	movsd  %xmm0,(%rsp)
    5ba3:	e8 88 c6 ff ff       	call   2230 <sincos@plt>
    5ba8:	dd 84 24 d8 00 00 00 	fldl   0xd8(%rsp)
    5baf:	db 6c 24 10          	fldt   0x10(%rsp)
    5bb3:	49 8b 46 f8          	mov    -0x8(%r14),%rax
    5bb7:	f2 0f 10 04 24       	movsd  (%rsp),%xmm0
    5bbc:	f2 0f 58 44 24 70    	addsd  0x70(%rsp),%xmm0
    5bc2:	d9 c0                	fld    %st(0)
    5bc4:	dc 8c 24 d0 00 00 00 	fmull  0xd0(%rsp)
    5bcb:	db 38                	fstpt  (%rax)
    5bcd:	dc c9                	fmul   %st,%st(1)
    5bcf:	d9 c9                	fxch   %st(1)
    5bd1:	db 78 10             	fstpt  0x10(%rax)
    5bd4:	db 6c 24 20          	fldt   0x20(%rsp)
    5bd8:	db 78 20             	fstpt  0x20(%rax)
    5bdb:	db 6c 24 30          	fldt   0x30(%rsp)
    5bdf:	db 78 30             	fstpt  0x30(%rax)
    5be2:	49 39 de             	cmp    %rbx,%r14
    5be5:	75 a9                	jne    5b90 <_Z18compute_spheremeshdjj+0x210>
    5be7:	dd d8                	fstp   %st(0)
    5be9:	eb 0d                	jmp    5bf8 <_Z18compute_spheremeshdjj+0x278>
    5beb:	0f 1f 44 00 00       	nopl   0x0(%rax,%rax,1)
    5bf0:	dd d8                	fstp   %st(0)
    5bf2:	66 0f 1f 44 00 00    	nopw   0x0(%rax,%rax,1)
    5bf8:	db 6c 24 40          	fldt   0x40(%rsp)
    5bfc:	49 83 c5 08          	add    $0x8,%r13
    5c00:	db ac 24 a0 00 00 00 	fldt   0xa0(%rsp)
    5c07:	de c1                	faddp  %st,%st(1)
    5c09:	db 7c 24 40          	fstpt  0x40(%rsp)
    5c0d:	4c 39 ac 24 b0 00 00 	cmp    %r13,0xb0(%rsp)
    5c14:	00 
    5c15:	0f 85 9d fe ff ff    	jne    5ab8 <_Z18compute_spheremeshdjj+0x138>
    5c1b:	48 8b 84 24 c8 00 00 	mov    0xc8(%rsp),%rax
    5c22:	00 
    5c23:	48 81 c4 08 01 00 00 	add    $0x108,%rsp
    5c2a:	5b                   	pop    %rbx
    5c2b:	5d                   	pop    %rbp
    5c2c:	41 5c                	pop    %r12
    5c2e:	41 5d                	pop    %r13
    5c30:	41 5e                	pop    %r14
    5c32:	41 5f                	pop    %r15
    5c34:	c3                   	ret    
    5c35:	66 66 2e 0f 1f 84 00 	data16 cs nopw 0x0(%rax,%rax,1)
    5c3c:	00 00 00 00 

0000000000005c40 <_Z13compute_cubesdjPPe>:
    5c40:	f3 0f 1e fa          	endbr64 
    5c44:	53                   	push   %rbx
    5c45:	89 fb                	mov    %edi,%ebx
    5c47:	0f af ff             	imul   %edi,%edi
    5c4a:	48 89 f2             	mov    %rsi,%rdx
    5c4d:	be 03 00 00 00       	mov    $0x3,%esi
    5c52:	0f af fb             	imul   %ebx,%edi
    5c55:	48 83 ec 20          	sub    $0x20,%rsp
    5c59:	f2 0f 11 04 24       	movsd  %xmm0,(%rsp)
    5c5e:	c1 e7 03             	shl    $0x3,%edi
    5c61:	e8 fa 14 00 00       	call   7160 <_Z10allocate2djjPPe>
    5c66:	66 0f ef c0          	pxor   %xmm0,%xmm0
    5c6a:	f2 0f 10 0c 24       	movsd  (%rsp),%xmm1
    5c6f:	44 8d 04 1b          	lea    (%rbx,%rbx,1),%r8d
    5c73:	49 89 c1             	mov    %rax,%r9
    5c76:	89 d8                	mov    %ebx,%eax
    5c78:	f2 48 0f 2a c0       	cvtsi2sd %rax,%xmm0
    5c7d:	f2 0f 5e c8          	divsd  %xmm0,%xmm1
    5c81:	f2 0f 11 4c 24 18    	movsd  %xmm1,0x18(%rsp)
    5c87:	dd 44 24 18          	fldl   0x18(%rsp)
    5c8b:	d9 c0                	fld    %st(0)
    5c8d:	d9 05 1d 28 00 00    	flds   0x281d(%rip)        # 84b0 <_IO_stdin_used+0x4b0>
    5c93:	de ca                	fmulp  %st,%st(2)
    5c95:	45 85 c0             	test   %r8d,%r8d
    5c98:	0f 8e 99 00 00 00    	jle    5d37 <_Z13compute_cubesdjPPe+0xf7>
    5c9e:	dd 04 24             	fldl   (%rsp)
    5ca1:	d9 ca                	fxch   %st(2)
    5ca3:	31 db                	xor    %ebx,%ebx
    5ca5:	31 ff                	xor    %edi,%edi
    5ca7:	4d 8d 59 08          	lea    0x8(%r9),%r11
    5cab:	45 8d 50 ff          	lea    -0x1(%r8),%r10d
    5caf:	d9 c0                	fld    %st(0)
    5cb1:	db 3c 24             	fstpt  (%rsp)
    5cb4:	0f 1f 40 00          	nopl   0x0(%rax)
    5cb8:	db 2c 24             	fldt   (%rsp)
    5cbb:	31 f6                	xor    %esi,%esi
    5cbd:	d8 e3                	fsub   %st(3),%st
    5cbf:	d9 c1                	fld    %st(1)
    5cc1:	0f 1f 80 00 00 00 00 	nopl   0x0(%rax)
    5cc8:	d9 c0                	fld    %st(0)
    5cca:	48 63 d7             	movslq %edi,%rdx
    5ccd:	d8 e5                	fsub   %st(5),%st
    5ccf:	49 8d 04 d1          	lea    (%r9,%rdx,8),%rax
    5cd3:	4c 01 d2             	add    %r10,%rdx
    5cd6:	49 8d 0c d3          	lea    (%r11,%rdx,8),%rcx
    5cda:	d9 c3                	fld    %st(3)
    5cdc:	eb 08                	jmp    5ce6 <_Z13compute_cubesdjPPe+0xa6>
    5cde:	66 90                	xchg   %ax,%ax
    5ce0:	d9 c9                	fxch   %st(1)
    5ce2:	d9 cb                	fxch   %st(3)
    5ce4:	d9 c9                	fxch   %st(1)
    5ce6:	d9 c0                	fld    %st(0)
    5ce8:	48 8b 10             	mov    (%rax),%rdx
    5ceb:	48 83 c0 08          	add    $0x8,%rax
    5cef:	d8 e7                	fsub   %st(7),%st
    5cf1:	db 3a                	fstpt  (%rdx)
    5cf3:	d9 c9                	fxch   %st(1)
    5cf5:	d9 c0                	fld    %st(0)
    5cf7:	db 7a 10             	fstpt  0x10(%rdx)
    5cfa:	d9 cb                	fxch   %st(3)
    5cfc:	d9 c0                	fld    %st(0)
    5cfe:	db 7a 20             	fstpt  0x20(%rdx)
    5d01:	d9 c9                	fxch   %st(1)
    5d03:	d8 c5                	fadd   %st(5),%st
    5d05:	48 39 c1             	cmp    %rax,%rcx
    5d08:	75 d6                	jne    5ce0 <_Z13compute_cubesdjPPe+0xa0>
    5d0a:	dd d8                	fstp   %st(0)
    5d0c:	dd da                	fstp   %st(2)
    5d0e:	83 c6 01             	add    $0x1,%esi
    5d11:	d8 c3                	fadd   %st(3),%st
    5d13:	44 01 c7             	add    %r8d,%edi
    5d16:	44 39 c6             	cmp    %r8d,%esi
    5d19:	75 ad                	jne    5cc8 <_Z13compute_cubesdjPPe+0x88>
    5d1b:	dd d8                	fstp   %st(0)
    5d1d:	dd d8                	fstp   %st(0)
    5d1f:	db 2c 24             	fldt   (%rsp)
    5d22:	83 c3 01             	add    $0x1,%ebx
    5d25:	d8 c2                	fadd   %st(2),%st
    5d27:	db 3c 24             	fstpt  (%rsp)
    5d2a:	44 39 c3             	cmp    %r8d,%ebx
    5d2d:	75 89                	jne    5cb8 <_Z13compute_cubesdjPPe+0x78>
    5d2f:	dd d8                	fstp   %st(0)
    5d31:	dd d8                	fstp   %st(0)
    5d33:	dd d8                	fstp   %st(0)
    5d35:	eb 04                	jmp    5d3b <_Z13compute_cubesdjPPe+0xfb>
    5d37:	dd d8                	fstp   %st(0)
    5d39:	dd d8                	fstp   %st(0)
    5d3b:	48 83 c4 20          	add    $0x20,%rsp
    5d3f:	4c 89 c8             	mov    %r9,%rax
    5d42:	5b                   	pop    %rbx
    5d43:	c3                   	ret    
    5d44:	66 66 2e 0f 1f 84 00 	data16 cs nopw 0x0(%rax,%rax,1)
    5d4b:	00 00 00 00 
    5d4f:	90                   	nop

0000000000005d50 <_Z8pressureddd>:
    5d50:	f3 0f 1e fa          	endbr64 
    5d54:	f2 0f 58 c1          	addsd  %xmm1,%xmm0
    5d58:	f2 0f 58 c2          	addsd  %xmm2,%xmm0
    5d5c:	c3                   	ret    
    5d5d:	0f 1f 00             	nopl   (%rax)

0000000000005d60 <_Z5pgradddd>:
    5d60:	f3 0f 1e fa          	endbr64 
    5d64:	66 0f 28 d8          	movapd %xmm0,%xmm3
    5d68:	66 0f 28 e8          	movapd %xmm0,%xmm5
    5d6c:	66 0f 14 c1          	unpcklpd %xmm1,%xmm0
    5d70:	48 89 f8             	mov    %rdi,%rax
    5d73:	66 0f 28 35 95 26 00 	movapd 0x2695(%rip),%xmm6        # 8410 <_IO_stdin_used+0x410>
    5d7a:	00 
    5d7b:	f2 0f 58 e9          	addsd  %xmm1,%xmm5
    5d7f:	66 0f 14 cb          	unpcklpd %xmm3,%xmm1
    5d83:	66 0f 28 e2          	movapd %xmm2,%xmm4
    5d87:	66 0f 58 c6          	addpd  %xmm6,%xmm0
    5d8b:	f2 0f 58 e5          	addsd  %xmm5,%xmm4
    5d8f:	66 0f 58 c1          	addpd  %xmm1,%xmm0
    5d93:	66 0f 28 ca          	movapd %xmm2,%xmm1
    5d97:	66 0f 14 c9          	unpcklpd %xmm1,%xmm1
    5d9b:	66 0f 58 c1          	addpd  %xmm1,%xmm0
    5d9f:	66 0f 28 cc          	movapd %xmm4,%xmm1
    5da3:	66 0f 14 c9          	unpcklpd %xmm1,%xmm1
    5da7:	66 0f 5c c1          	subpd  %xmm1,%xmm0
    5dab:	66 0f 5e c6          	divpd  %xmm6,%xmm0
    5daf:	0f 11 07             	movups %xmm0,(%rdi)
    5db2:	f2 0f 10 05 56 26 00 	movsd  0x2656(%rip),%xmm0        # 8410 <_IO_stdin_used+0x410>
    5db9:	00 
    5dba:	f2 0f 58 d0          	addsd  %xmm0,%xmm2
    5dbe:	f2 0f 58 d5          	addsd  %xmm5,%xmm2
    5dc2:	f2 0f 5c d4          	subsd  %xmm4,%xmm2
    5dc6:	f2 0f 5e d0          	divsd  %xmm0,%xmm2
    5dca:	f2 0f 11 57 10       	movsd  %xmm2,0x10(%rdi)
    5dcf:	c3                   	ret    

0000000000005dd0 <_Z8plaplacedddd>:
    5dd0:	f3 0f 1e fa          	endbr64 
    5dd4:	66 0f 28 f0          	movapd %xmm0,%xmm6
    5dd8:	66 0f 28 e8          	movapd %xmm0,%xmm5
    5ddc:	f2 0f 5c c3          	subsd  %xmm3,%xmm0
    5de0:	66 0f 28 fe          	movapd %xmm6,%xmm7
    5de4:	f2 0f 58 e9          	addsd  %xmm1,%xmm5
    5de8:	66 0f 28 e2          	movapd %xmm2,%xmm4
    5dec:	f2 0f 58 fb          	addsd  %xmm3,%xmm7
    5df0:	f2 0f 58 c1          	addsd  %xmm1,%xmm0
    5df4:	f2 0f 58 e5          	addsd  %xmm5,%xmm4
    5df8:	f2 0f 58 f9          	addsd  %xmm1,%xmm7
    5dfc:	f2 0f 58 c2          	addsd  %xmm2,%xmm0
    5e00:	f2 0f 58 e4          	addsd  %xmm4,%xmm4
    5e04:	f2 0f 58 fa          	addsd  %xmm2,%xmm7
    5e08:	f2 0f 58 c7          	addsd  %xmm7,%xmm0
    5e0c:	66 0f 28 fb          	movapd %xmm3,%xmm7
    5e10:	f2 0f 58 f9          	addsd  %xmm1,%xmm7
    5e14:	f2 0f 5c cb          	subsd  %xmm3,%xmm1
    5e18:	f2 0f 5c c4          	subsd  %xmm4,%xmm0
    5e1c:	f2 0f 58 fe          	addsd  %xmm6,%xmm7
    5e20:	f2 0f 58 ce          	addsd  %xmm6,%xmm1
    5e24:	f2 0f 58 fa          	addsd  %xmm2,%xmm7
    5e28:	f2 0f 58 ca          	addsd  %xmm2,%xmm1
    5e2c:	f2 0f 58 c7          	addsd  %xmm7,%xmm0
    5e30:	f2 0f 58 c1          	addsd  %xmm1,%xmm0
    5e34:	66 0f 28 cb          	movapd %xmm3,%xmm1
    5e38:	f2 0f 58 ca          	addsd  %xmm2,%xmm1
    5e3c:	f2 0f 5c d3          	subsd  %xmm3,%xmm2
    5e40:	f2 0f 5c c4          	subsd  %xmm4,%xmm0
    5e44:	f2 0f 58 cd          	addsd  %xmm5,%xmm1
    5e48:	f2 0f 58 d5          	addsd  %xmm5,%xmm2
    5e4c:	f2 0f 58 c1          	addsd  %xmm1,%xmm0
    5e50:	f2 0f 58 c2          	addsd  %xmm2,%xmm0
    5e54:	f2 0f 5c c4          	subsd  %xmm4,%xmm0
    5e58:	f2 0f 5e c3          	divsd  %xmm3,%xmm0
    5e5c:	f2 0f 5e c3          	divsd  %xmm3,%xmm0
    5e60:	c3                   	ret    
    5e61:	66 66 2e 0f 1f 84 00 	data16 cs nopw 0x0(%rax,%rax,1)
    5e68:	00 00 00 00 
    5e6c:	0f 1f 40 00          	nopl   0x0(%rax)

0000000000005e70 <_Z9checkcubeddddd>:
    5e70:	f3 0f 1e fa          	endbr64 
    5e74:	f2 0f 59 d2          	mulsd  %xmm2,%xmm2
    5e78:	66 0f 28 e8          	movapd %xmm0,%xmm5
    5e7c:	66 0f ef c0          	pxor   %xmm0,%xmm0
    5e80:	48 83 ec 28          	sub    $0x28,%rsp
    5e84:	f2 0f 59 db          	mulsd  %xmm3,%xmm3
    5e88:	f2 0f 59 e4          	mulsd  %xmm4,%xmm4
    5e8c:	f2 0f 58 d3          	addsd  %xmm3,%xmm2
    5e90:	f2 0f 58 e2          	addsd  %xmm2,%xmm4
    5e94:	66 0f 2e c4          	ucomisd %xmm4,%xmm0
    5e98:	77 2d                	ja     5ec7 <_Z9checkcubeddddd+0x57>
    5e9a:	f2 0f 51 e4          	sqrtsd %xmm4,%xmm4
    5e9e:	66 0f 28 c1          	movapd %xmm1,%xmm0
    5ea2:	f2 0f 58 c4          	addsd  %xmm4,%xmm0
    5ea6:	66 0f 2f e8          	comisd %xmm0,%xmm5
    5eaa:	77 14                	ja     5ec0 <_Z9checkcubeddddd+0x50>
    5eac:	f2 0f 5c e1          	subsd  %xmm1,%xmm4
    5eb0:	31 c0                	xor    %eax,%eax
    5eb2:	66 0f 2f e5          	comisd %xmm5,%xmm4
    5eb6:	0f 97 c0             	seta   %al
    5eb9:	f7 d8                	neg    %eax
    5ebb:	48 83 c4 28          	add    $0x28,%rsp
    5ebf:	c3                   	ret    
    5ec0:	b8 ff ff ff ff       	mov    $0xffffffff,%eax
    5ec5:	eb f4                	jmp    5ebb <_Z9checkcubeddddd+0x4b>
    5ec7:	66 0f 28 c4          	movapd %xmm4,%xmm0
    5ecb:	f2 0f 11 4c 24 18    	movsd  %xmm1,0x18(%rsp)
    5ed1:	f2 0f 11 6c 24 10    	movsd  %xmm5,0x10(%rsp)
    5ed7:	f2 0f 11 64 24 08    	movsd  %xmm4,0x8(%rsp)
    5edd:	e8 ae c3 ff ff       	call   2290 <sqrt@plt>
    5ee2:	f2 0f 10 4c 24 18    	movsd  0x18(%rsp),%xmm1
    5ee8:	f2 0f 10 6c 24 10    	movsd  0x10(%rsp),%xmm5
    5eee:	f2 0f 10 64 24 08    	movsd  0x8(%rsp),%xmm4
    5ef4:	f2 0f 58 c1          	addsd  %xmm1,%xmm0
    5ef8:	66 0f 2f e8          	comisd %xmm0,%xmm5
    5efc:	77 c2                	ja     5ec0 <_Z9checkcubeddddd+0x50>
    5efe:	66 0f 28 c4          	movapd %xmm4,%xmm0
    5f02:	f2 0f 11 4c 24 10    	movsd  %xmm1,0x10(%rsp)
    5f08:	f2 0f 11 6c 24 08    	movsd  %xmm5,0x8(%rsp)
    5f0e:	e8 7d c3 ff ff       	call   2290 <sqrt@plt>
    5f13:	f2 0f 10 6c 24 08    	movsd  0x8(%rsp),%xmm5
    5f19:	f2 0f 10 4c 24 10    	movsd  0x10(%rsp),%xmm1
    5f1f:	66 0f 28 e0          	movapd %xmm0,%xmm4
    5f23:	eb 87                	jmp    5eac <_Z9checkcubeddddd+0x3c>
    5f25:	66 66 2e 0f 1f 84 00 	data16 cs nopw 0x0(%rax,%rax,1)
    5f2c:	00 00 00 00 

0000000000005f30 <_Z5gradvddd>:
    5f30:	f3 0f 1e fa          	endbr64 
    5f34:	41 54                	push   %r12
    5f36:	be 01 00 00 00       	mov    $0x1,%esi
    5f3b:	49 89 fc             	mov    %rdi,%r12
    5f3e:	48 83 c4 80          	add    $0xffffffffffffff80,%rsp
    5f42:	64 48 8b 04 25 28 00 	mov    %fs:0x28,%rax
    5f49:	00 00 
    5f4b:	48 89 44 24 78       	mov    %rax,0x78(%rsp)
    5f50:	31 c0                	xor    %eax,%eax
    5f52:	48 8d 7c 24 20       	lea    0x20(%rsp),%rdi
    5f57:	f2 0f 11 54 24 18    	movsd  %xmm2,0x18(%rsp)
    5f5d:	f2 0f 11 4c 24 10    	movsd  %xmm1,0x10(%rsp)
    5f63:	f2 0f 11 44 24 08    	movsd  %xmm0,0x8(%rsp)
    5f69:	e8 92 18 00 00       	call   7800 <_Z4diffdddi>
    5f6e:	f2 0f 10 54 24 18    	movsd  0x18(%rsp),%xmm2
    5f74:	f2 0f 10 4c 24 10    	movsd  0x10(%rsp),%xmm1
    5f7a:	48 8d 7c 24 40       	lea    0x40(%rsp),%rdi
    5f7f:	f2 0f 10 44 24 08    	movsd  0x8(%rsp),%xmm0
    5f85:	be 02 00 00 00       	mov    $0x2,%esi
    5f8a:	e8 71 18 00 00       	call   7800 <_Z4diffdddi>
    5f8f:	f2 0f 10 44 24 08    	movsd  0x8(%rsp),%xmm0
    5f95:	f2 0f 10 54 24 18    	movsd  0x18(%rsp),%xmm2
    5f9b:	48 8d 7c 24 60       	lea    0x60(%rsp),%rdi
    5fa0:	f2 0f 10 4c 24 10    	movsd  0x10(%rsp),%xmm1
    5fa6:	be 03 00 00 00       	mov    $0x3,%esi
    5fab:	e8 50 18 00 00       	call   7800 <_Z4diffdddi>
    5fb0:	f2 0f 10 44 24 30    	movsd  0x30(%rsp),%xmm0
    5fb6:	66 0f 28 5c 24 20    	movapd 0x20(%rsp),%xmm3
    5fbc:	66 0f 28 64 24 40    	movapd 0x40(%rsp),%xmm4
    5fc2:	f2 41 0f 11 44 24 10 	movsd  %xmm0,0x10(%r12)
    5fc9:	f2 0f 10 44 24 50    	movsd  0x50(%rsp),%xmm0
    5fcf:	41 0f 11 1c 24       	movups %xmm3,(%r12)
    5fd4:	f2 41 0f 11 44 24 28 	movsd  %xmm0,0x28(%r12)
    5fdb:	f2 0f 10 44 24 60    	movsd  0x60(%rsp),%xmm0
    5fe1:	41 0f 11 64 24 18    	movups %xmm4,0x18(%r12)
    5fe7:	f2 41 0f 11 44 24 30 	movsd  %xmm0,0x30(%r12)
    5fee:	f2 0f 10 44 24 68    	movsd  0x68(%rsp),%xmm0
    5ff4:	f2 41 0f 11 44 24 38 	movsd  %xmm0,0x38(%r12)
    5ffb:	f2 0f 10 44 24 70    	movsd  0x70(%rsp),%xmm0
    6001:	f2 41 0f 11 44 24 40 	movsd  %xmm0,0x40(%r12)
    6008:	48 8b 44 24 78       	mov    0x78(%rsp),%rax
    600d:	64 48 2b 04 25 28 00 	sub    %fs:0x28,%rax
    6014:	00 00 
    6016:	75 0a                	jne    6022 <_Z5gradvddd+0xf2>
    6018:	48 83 ec 80          	sub    $0xffffffffffffff80,%rsp
    601c:	4c 89 e0             	mov    %r12,%rax
    601f:	41 5c                	pop    %r12
    6021:	c3                   	ret    
    6022:	e8 d9 c2 ff ff       	call   2300 <__stack_chk_fail@plt>
    6027:	66 0f 1f 84 00 00 00 	nopw   0x0(%rax,%rax,1)
    602e:	00 00 

0000000000006030 <_Z9divstressiiiPPP6tensor>:
    6030:	f3 0f 1e fa          	endbr64 
    6034:	48 63 f6             	movslq %esi,%rsi
    6037:	48 63 d2             	movslq %edx,%rdx
    603a:	48 63 c9             	movslq %ecx,%rcx
    603d:	48 89 f8             	mov    %rdi,%rax
    6040:	49 8b 34 f0          	mov    (%r8,%rsi,8),%rsi
    6044:	48 8d 0c c9          	lea    (%rcx,%rcx,8),%rcx
    6048:	48 8b 14 d6          	mov    (%rsi,%rdx,8),%rdx
    604c:	48 8d 14 ca          	lea    (%rdx,%rcx,8),%rdx
    6050:	66 0f 10 4a 10       	movupd 0x10(%rdx),%xmm1
    6055:	f2 0f 10 42 30       	movsd  0x30(%rdx),%xmm0
    605a:	66 0f 12 0a          	movlpd (%rdx),%xmm1
    605e:	f2 0f 11 47 10       	movsd  %xmm0,0x10(%rdi)
    6063:	0f 11 0f             	movups %xmm1,(%rdi)
    6066:	c3                   	ret    
    6067:	66 0f 1f 84 00 00 00 	nopw   0x0(%rax,%rax,1)
    606e:	00 00 

0000000000006070 <_Z5forcedddjjeeidPPeRKSt6vectorIiSaIiEEPS0_>:
    6070:	f3 0f 1e fa          	endbr64 
    6074:	41 57                	push   %r15
    6076:	41 56                	push   %r14
    6078:	41 55                	push   %r13
    607a:	41 54                	push   %r12
    607c:	55                   	push   %rbp
    607d:	53                   	push   %rbx
    607e:	48 81 ec b8 00 00 00 	sub    $0xb8,%rsp
    6085:	4c 89 84 24 80 00 00 	mov    %r8,0x80(%rsp)
    608c:	00 
    608d:	4c 8b b4 24 10 01 00 	mov    0x110(%rsp),%r14
    6094:	00 
    6095:	f2 0f 11 44 24 68    	movsd  %xmm0,0x68(%rsp)
    609b:	66 0f ef c0          	pxor   %xmm0,%xmm0
    609f:	f2 0f 11 4c 24 70    	movsd  %xmm1,0x70(%rsp)
    60a5:	f2 0f 11 54 24 78    	movsd  %xmm2,0x78(%rsp)
    60ab:	64 48 8b 04 25 28 00 	mov    %fs:0x28,%rax
    60b2:	00 00 
    60b4:	48 89 84 24 a8 00 00 	mov    %rax,0xa8(%rsp)
    60bb:	00 
    60bc:	31 c0                	xor    %eax,%eax
    60be:	89 0c 24             	mov    %ecx,(%rsp)
    60c1:	db 04 24             	fildl  (%rsp)
    60c4:	48 c7 47 10 00 00 00 	movq   $0x0,0x10(%rdi)
    60cb:	00 
    60cc:	db ac 24 00 01 00 00 	fldt   0x100(%rsp)
    60d3:	0f 11 07             	movups %xmm0,(%rdi)
    60d6:	de f1                	fdivp  %st,%st(1)
    60d8:	d8 0d d2 23 00 00    	fmuls  0x23d2(%rip)        # 84b0 <_IO_stdin_used+0x4b0>
    60de:	4d 85 f6             	test   %r14,%r14
    60e1:	0f 84 89 01 00 00    	je     6270 <_Z5forcedddjjeeidPPeRKSt6vectorIiSaIiEEPS0_+0x200>
    60e7:	49 8b 49 08          	mov    0x8(%r9),%rcx
    60eb:	49 8b 01             	mov    (%r9),%rax
    60ee:	49 89 fd             	mov    %rdi,%r13
    60f1:	48 89 4c 24 60       	mov    %rcx,0x60(%rsp)
    60f6:	48 39 c1             	cmp    %rax,%rcx
    60f9:	0f 84 41 01 00 00    	je     6240 <_Z5forcedddjjeeidPPeRKSt6vectorIiSaIiEEPS0_+0x1d0>
    60ff:	db ac 24 f0 00 00 00 	fldt   0xf0(%rsp)
    6106:	48 89 c3             	mov    %rax,%rbx
    6109:	66 0f 28 fb          	movapd %xmm3,%xmm7
    610d:	89 f5                	mov    %esi,%ebp
    610f:	4c 8d bc 24 90 00 00 	lea    0x90(%rsp),%r15
    6116:	00 
    6117:	66 45 0f ef c9       	pxor   %xmm9,%xmm9
    611c:	41 89 d4             	mov    %edx,%r12d
    611f:	4c 89 f8             	mov    %r15,%rax
    6122:	66 45 0f ef c0       	pxor   %xmm8,%xmm8
    6127:	4d 89 f7             	mov    %r14,%r15
    612a:	49 89 fe             	mov    %rdi,%r14
    612d:	dd 9c 24 88 00 00 00 	fstpl  0x88(%rsp)
    6134:	49 89 c5             	mov    %rax,%r13
    6137:	66 0f 1f 84 00 00 00 	nopw   0x0(%rax,%rax,1)
    613e:	00 00 
    6140:	48 63 13             	movslq (%rbx),%rdx
    6143:	f2 44 0f 11 44 24 58 	movsd  %xmm8,0x58(%rsp)
    614a:	4c 89 f9             	mov    %r15,%rcx
    614d:	44 89 e6             	mov    %r12d,%esi
    6150:	48 8b 84 24 80 00 00 	mov    0x80(%rsp),%rax
    6157:	00 
    6158:	44 0f 29 4c 24 40    	movaps %xmm9,0x40(%rsp)
    615e:	48 83 ec 08          	sub    $0x8,%rsp
    6162:	4c 89 ef             	mov    %r13,%rdi
    6165:	48 83 c3 04          	add    $0x4,%rbx
    6169:	48 8b 14 d0          	mov    (%rax,%rdx,8),%rdx
    616d:	db 2a                	fldt   (%rdx)
    616f:	db 6a 10             	fldt   0x10(%rdx)
    6172:	db 6a 20             	fldt   0x20(%rdx)
    6175:	89 ea                	mov    %ebp,%edx
    6177:	d9 c0                	fld    %st(0)
    6179:	d8 c4                	fadd   %st(4),%st
    617b:	dd 5c 24 08          	fstpl  0x8(%rsp)
    617f:	d8 e3                	fsub   %st(3),%st
    6181:	dd 5c 24 10          	fstpl  0x10(%rsp)
    6185:	d9 c0                	fld    %st(0)
    6187:	d8 c3                	fadd   %st(3),%st
    6189:	dd 5c 24 18          	fstpl  0x18(%rsp)
    618d:	d8 e2                	fsub   %st(2),%st
    618f:	dd 5c 24 20          	fstpl  0x20(%rsp)
    6193:	d9 c0                	fld    %st(0)
    6195:	d8 c2                	fadd   %st(2),%st
    6197:	dd 5c 24 28          	fstpl  0x28(%rsp)
    619b:	d8 e1                	fsub   %st(1),%st
    619d:	d9 c9                	fxch   %st(1)
    619f:	db 7c 24 38          	fstpt  0x38(%rsp)
    61a3:	dd 5c 24 30          	fstpl  0x30(%rsp)
    61a7:	ff b4 24 80 00 00 00 	push   0x80(%rsp)
    61ae:	ff b4 24 80 00 00 00 	push   0x80(%rsp)
    61b5:	ff b4 24 80 00 00 00 	push   0x80(%rsp)
    61bc:	f2 0f 10 74 24 20    	movsd  0x20(%rsp),%xmm6
    61c2:	f2 0f 10 6c 24 28    	movsd  0x28(%rsp),%xmm5
    61c8:	f2 0f 10 64 24 30    	movsd  0x30(%rsp),%xmm4
    61ce:	f2 0f 10 5c 24 38    	movsd  0x38(%rsp),%xmm3
    61d4:	f2 0f 10 54 24 40    	movsd  0x40(%rsp),%xmm2
    61da:	f2 0f 11 7c 24 70    	movsd  %xmm7,0x70(%rsp)
    61e0:	f2 0f 10 84 24 a8 00 	movsd  0xa8(%rsp),%xmm0
    61e7:	00 00 
    61e9:	f2 0f 10 4c 24 48    	movsd  0x48(%rsp),%xmm1
    61ef:	e8 1c d0 ff ff       	call   3210 <_ZL6forceldddddddjjPPPedddd>
    61f4:	f2 44 0f 10 44 24 78 	movsd  0x78(%rsp),%xmm8
    61fb:	66 44 0f 28 4c 24 60 	movapd 0x60(%rsp),%xmm9
    6202:	f2 44 0f 58 84 24 c0 	addsd  0xc0(%rsp),%xmm8
    6209:	00 00 00 
    620c:	66 44 0f 58 8c 24 b0 	addpd  0xb0(%rsp),%xmm9
    6213:	00 00 00 
    6216:	48 83 c4 20          	add    $0x20,%rsp
    621a:	48 39 5c 24 60       	cmp    %rbx,0x60(%rsp)
    621f:	f2 0f 10 7c 24 50    	movsd  0x50(%rsp),%xmm7
    6225:	db 6c 24 30          	fldt   0x30(%rsp)
    6229:	45 0f 11 0e          	movups %xmm9,(%r14)
    622d:	f2 45 0f 11 46 10    	movsd  %xmm8,0x10(%r14)
    6233:	0f 85 07 ff ff ff    	jne    6140 <_Z5forcedddjjeeidPPeRKSt6vectorIiSaIiEEPS0_+0xd0>
    6239:	dd d8                	fstp   %st(0)
    623b:	4d 89 f5             	mov    %r14,%r13
    623e:	eb 08                	jmp    6248 <_Z5forcedddjjeeidPPeRKSt6vectorIiSaIiEEPS0_+0x1d8>
    6240:	dd d8                	fstp   %st(0)
    6242:	66 0f 1f 44 00 00    	nopw   0x0(%rax,%rax,1)
    6248:	48 8b 84 24 a8 00 00 	mov    0xa8(%rsp),%rax
    624f:	00 
    6250:	64 48 2b 04 25 28 00 	sub    %fs:0x28,%rax
    6257:	00 00 
    6259:	75 36                	jne    6291 <_Z5forcedddjjeeidPPeRKSt6vectorIiSaIiEEPS0_+0x221>
    625b:	48 81 c4 b8 00 00 00 	add    $0xb8,%rsp
    6262:	4c 89 e8             	mov    %r13,%rax
    6265:	5b                   	pop    %rbx
    6266:	5d                   	pop    %rbp
    6267:	41 5c                	pop    %r12
    6269:	41 5d                	pop    %r13
    626b:	41 5e                	pop    %r14
    626d:	41 5f                	pop    %r15
    626f:	c3                   	ret    
    6270:	dd d8                	fstp   %st(0)
    6272:	48 8d 0d 8f 1d 00 00 	lea    0x1d8f(%rip),%rcx        # 8008 <_IO_stdin_used+0x8>
    6279:	ba 66 01 00 00       	mov    $0x166,%edx
    627e:	48 8d 35 8b 20 00 00 	lea    0x208b(%rip),%rsi        # 8310 <_IO_stdin_used+0x310>
    6285:	48 8d 3d 91 20 00 00 	lea    0x2091(%rip),%rdi        # 831d <_IO_stdin_used+0x31d>
    628c:	e8 bf bf ff ff       	call   2250 <__assert_fail@plt>
    6291:	e8 6a c0 ff ff       	call   2300 <__stack_chk_fail@plt>
    6296:	66 2e 0f 1f 84 00 00 	cs nopw 0x0(%rax,%rax,1)
    629d:	00 00 00 

00000000000062a0 <_Z6torquedddjjeeidPPeRKSt6vectorIiSaIiEEPS0_>:
    62a0:	f3 0f 1e fa          	endbr64 
    62a4:	41 57                	push   %r15
    62a6:	41 56                	push   %r14
    62a8:	41 55                	push   %r13
    62aa:	41 54                	push   %r12
    62ac:	55                   	push   %rbp
    62ad:	53                   	push   %rbx
    62ae:	48 81 ec b8 00 00 00 	sub    $0xb8,%rsp
    62b5:	4c 89 84 24 80 00 00 	mov    %r8,0x80(%rsp)
    62bc:	00 
    62bd:	4c 8b b4 24 10 01 00 	mov    0x110(%rsp),%r14
    62c4:	00 
    62c5:	f2 0f 11 44 24 68    	movsd  %xmm0,0x68(%rsp)
    62cb:	66 0f ef c0          	pxor   %xmm0,%xmm0
    62cf:	f2 0f 11 4c 24 70    	movsd  %xmm1,0x70(%rsp)
    62d5:	f2 0f 11 54 24 78    	movsd  %xmm2,0x78(%rsp)
    62db:	64 48 8b 04 25 28 00 	mov    %fs:0x28,%rax
    62e2:	00 00 
    62e4:	48 89 84 24 a8 00 00 	mov    %rax,0xa8(%rsp)
    62eb:	00 
    62ec:	31 c0                	xor    %eax,%eax
    62ee:	89 0c 24             	mov    %ecx,(%rsp)
    62f1:	db 04 24             	fildl  (%rsp)
    62f4:	48 c7 47 10 00 00 00 	movq   $0x0,0x10(%rdi)
    62fb:	00 
    62fc:	db ac 24 00 01 00 00 	fldt   0x100(%rsp)
    6303:	0f 11 07             	movups %xmm0,(%rdi)
    6306:	de f1                	fdivp  %st,%st(1)
    6308:	d8 0d a2 21 00 00    	fmuls  0x21a2(%rip)        # 84b0 <_IO_stdin_used+0x4b0>
    630e:	4d 85 f6             	test   %r14,%r14
    6311:	0f 84 89 01 00 00    	je     64a0 <_Z6torquedddjjeeidPPeRKSt6vectorIiSaIiEEPS0_+0x200>
    6317:	49 8b 49 08          	mov    0x8(%r9),%rcx
    631b:	49 8b 01             	mov    (%r9),%rax
    631e:	49 89 fd             	mov    %rdi,%r13
    6321:	48 89 4c 24 60       	mov    %rcx,0x60(%rsp)
    6326:	48 39 c1             	cmp    %rax,%rcx
    6329:	0f 84 41 01 00 00    	je     6470 <_Z6torquedddjjeeidPPeRKSt6vectorIiSaIiEEPS0_+0x1d0>
    632f:	db ac 24 f0 00 00 00 	fldt   0xf0(%rsp)
    6336:	48 89 c3             	mov    %rax,%rbx
    6339:	66 0f 28 fb          	movapd %xmm3,%xmm7
    633d:	89 f5                	mov    %esi,%ebp
    633f:	4c 8d bc 24 90 00 00 	lea    0x90(%rsp),%r15
    6346:	00 
    6347:	66 45 0f ef c9       	pxor   %xmm9,%xmm9
    634c:	41 89 d4             	mov    %edx,%r12d
    634f:	4c 89 f8             	mov    %r15,%rax
    6352:	66 45 0f ef c0       	pxor   %xmm8,%xmm8
    6357:	4d 89 f7             	mov    %r14,%r15
    635a:	49 89 fe             	mov    %rdi,%r14
    635d:	dd 9c 24 88 00 00 00 	fstpl  0x88(%rsp)
    6364:	49 89 c5             	mov    %rax,%r13
    6367:	66 0f 1f 84 00 00 00 	nopw   0x0(%rax,%rax,1)
    636e:	00 00 
    6370:	48 63 13             	movslq (%rbx),%rdx
    6373:	f2 44 0f 11 44 24 58 	movsd  %xmm8,0x58(%rsp)
    637a:	4c 89 f9             	mov    %r15,%rcx
    637d:	44 89 e6             	mov    %r12d,%esi
    6380:	48 8b 84 24 80 00 00 	mov    0x80(%rsp),%rax
    6387:	00 
    6388:	44 0f 29 4c 24 40    	movaps %xmm9,0x40(%rsp)
    638e:	48 83 ec 08          	sub    $0x8,%rsp
    6392:	4c 89 ef             	mov    %r13,%rdi
    6395:	48 83 c3 04          	add    $0x4,%rbx
    6399:	48 8b 14 d0          	mov    (%rax,%rdx,8),%rdx
    639d:	db 2a                	fldt   (%rdx)
    639f:	db 6a 10             	fldt   0x10(%rdx)
    63a2:	db 6a 20             	fldt   0x20(%rdx)
    63a5:	89 ea                	mov    %ebp,%edx
    63a7:	d9 c0                	fld    %st(0)
    63a9:	d8 c4                	fadd   %st(4),%st
    63ab:	dd 5c 24 08          	fstpl  0x8(%rsp)
    63af:	d8 e3                	fsub   %st(3),%st
    63b1:	dd 5c 24 10          	fstpl  0x10(%rsp)
    63b5:	d9 c0                	fld    %st(0)
    63b7:	d8 c3                	fadd   %st(3),%st
    63b9:	dd 5c 24 18          	fstpl  0x18(%rsp)
    63bd:	d8 e2                	fsub   %st(2),%st
    63bf:	dd 5c 24 20          	fstpl  0x20(%rsp)
    63c3:	d9 c0                	fld    %st(0)
    63c5:	d8 c2                	fadd   %st(2),%st
    63c7:	dd 5c 24 28          	fstpl  0x28(%rsp)
    63cb:	d8 e1                	fsub   %st(1),%st
    63cd:	d9 c9                	fxch   %st(1)
    63cf:	db 7c 24 38          	fstpt  0x38(%rsp)
    63d3:	dd 5c 24 30          	fstpl  0x30(%rsp)
    63d7:	ff b4 24 80 00 00 00 	push   0x80(%rsp)
    63de:	ff b4 24 80 00 00 00 	push   0x80(%rsp)
    63e5:	ff b4 24 80 00 00 00 	push   0x80(%rsp)
    63ec:	f2 0f 10 74 24 20    	movsd  0x20(%rsp),%xmm6
    63f2:	f2 0f 10 6c 24 28    	movsd  0x28(%rsp),%xmm5
    63f8:	f2 0f 10 64 24 30    	movsd  0x30(%rsp),%xmm4
    63fe:	f2 0f 10 5c 24 38    	movsd  0x38(%rsp),%xmm3
    6404:	f2 0f 10 54 24 40    	movsd  0x40(%rsp),%xmm2
    640a:	f2 0f 11 7c 24 70    	movsd  %xmm7,0x70(%rsp)
    6410:	f2 0f 10 84 24 a8 00 	movsd  0xa8(%rsp),%xmm0
    6417:	00 00 
    6419:	f2 0f 10 4c 24 48    	movsd  0x48(%rsp),%xmm1
    641f:	e8 ec e0 ff ff       	call   4510 <_ZL7torqueldddddddjjPPPedddd>
    6424:	f2 44 0f 10 44 24 78 	movsd  0x78(%rsp),%xmm8
    642b:	66 44 0f 28 4c 24 60 	movapd 0x60(%rsp),%xmm9
    6432:	f2 44 0f 58 84 24 c0 	addsd  0xc0(%rsp),%xmm8
    6439:	00 00 00 
    643c:	66 44 0f 58 8c 24 b0 	addpd  0xb0(%rsp),%xmm9
    6443:	00 00 00 
    6446:	48 83 c4 20          	add    $0x20,%rsp
    644a:	48 39 5c 24 60       	cmp    %rbx,0x60(%rsp)
    644f:	f2 0f 10 7c 24 50    	movsd  0x50(%rsp),%xmm7
    6455:	db 6c 24 30          	fldt   0x30(%rsp)
    6459:	45 0f 11 0e          	movups %xmm9,(%r14)
    645d:	f2 45 0f 11 46 10    	movsd  %xmm8,0x10(%r14)
    6463:	0f 85 07 ff ff ff    	jne    6370 <_Z6torquedddjjeeidPPeRKSt6vectorIiSaIiEEPS0_+0xd0>
    6469:	dd d8                	fstp   %st(0)
    646b:	4d 89 f5             	mov    %r14,%r13
    646e:	eb 08                	jmp    6478 <_Z6torquedddjjeeidPPeRKSt6vectorIiSaIiEEPS0_+0x1d8>
    6470:	dd d8                	fstp   %st(0)
    6472:	66 0f 1f 44 00 00    	nopw   0x0(%rax,%rax,1)
    6478:	48 8b 84 24 a8 00 00 	mov    0xa8(%rsp),%rax
    647f:	00 
    6480:	64 48 2b 04 25 28 00 	sub    %fs:0x28,%rax
    6487:	00 00 
    6489:	75 36                	jne    64c1 <_Z6torquedddjjeeidPPeRKSt6vectorIiSaIiEEPS0_+0x221>
    648b:	48 81 c4 b8 00 00 00 	add    $0xb8,%rsp
    6492:	4c 89 e8             	mov    %r13,%rax
    6495:	5b                   	pop    %rbx
    6496:	5d                   	pop    %rbp
    6497:	41 5c                	pop    %r12
    6499:	41 5d                	pop    %r13
    649b:	41 5e                	pop    %r14
    649d:	41 5f                	pop    %r15
    649f:	c3                   	ret    
    64a0:	dd d8                	fstp   %st(0)
    64a2:	48 8d 0d ff 1b 00 00 	lea    0x1bff(%rip),%rcx        # 80a8 <_IO_stdin_used+0xa8>
    64a9:	ba 7e 01 00 00       	mov    $0x17e,%edx
    64ae:	48 8d 35 5b 1e 00 00 	lea    0x1e5b(%rip),%rsi        # 8310 <_IO_stdin_used+0x310>
    64b5:	48 8d 3d 61 1e 00 00 	lea    0x1e61(%rip),%rdi        # 831d <_IO_stdin_used+0x31d>
    64bc:	e8 8f bd ff ff       	call   2250 <__assert_fail@plt>
    64c1:	e8 3a be ff ff       	call   2300 <__stack_chk_fail@plt>
    64c6:	66 2e 0f 1f 84 00 00 	cs nopw 0x0(%rax,%rax,1)
    64cd:	00 00 00 

00000000000064d0 <_Z7blearghv>:
    64d0:	f3 0f 1e fa          	endbr64 
    64d4:	55                   	push   %rbp
    64d5:	ba 5a 00 00 00       	mov    $0x5a,%edx
    64da:	48 8d 35 6f 1c 00 00 	lea    0x1c6f(%rip),%rsi        # 8150 <_IO_stdin_used+0x150>
    64e1:	48 8d 3d 58 4b 00 00 	lea    0x4b58(%rip),%rdi        # b040 <_ZSt4cout@GLIBCXX_3.4>
    64e8:	48 89 e5             	mov    %rsp,%rbp
    64eb:	41 57                	push   %r15
    64ed:	41 56                	push   %r14
    64ef:	41 55                	push   %r13
    64f1:	41 54                	push   %r12
    64f3:	53                   	push   %rbx
    64f4:	48 81 ec 68 01 00 00 	sub    $0x168,%rsp
    64fb:	64 48 8b 04 25 28 00 	mov    %fs:0x28,%rax
    6502:	00 00 
    6504:	48 89 45 c8          	mov    %rax,-0x38(%rbp)
    6508:	31 c0                	xor    %eax,%eax
    650a:	e8 11 be ff ff       	call   2320 <_ZSt16__ostream_insertIcSt11char_traitsIcEERSt13basic_ostreamIT_T0_ES6_PKS3_l@plt>
    650f:	48 8d b5 00 ff ff ff 	lea    -0x100(%rbp),%rsi
    6516:	48 8d 3d 43 4c 00 00 	lea    0x4c43(%rip),%rdi        # b160 <_ZSt3cin@GLIBCXX_3.4>
    651d:	e8 3e bd ff ff       	call   2260 <_ZNSi10_M_extractIdEERSiRT_@plt>
    6522:	48 8d b5 08 ff ff ff 	lea    -0xf8(%rbp),%rsi
    6529:	48 89 c7             	mov    %rax,%rdi
    652c:	e8 2f bd ff ff       	call   2260 <_ZNSi10_M_extractIdEERSiRT_@plt>
    6531:	48 8d b5 10 ff ff ff 	lea    -0xf0(%rbp),%rsi
    6538:	48 89 c7             	mov    %rax,%rdi
    653b:	e8 20 bd ff ff       	call   2260 <_ZNSi10_M_extractIdEERSiRT_@plt>
    6540:	ba 41 00 00 00       	mov    $0x41,%edx
    6545:	48 8d 35 64 1c 00 00 	lea    0x1c64(%rip),%rsi        # 81b0 <_IO_stdin_used+0x1b0>
    654c:	48 8d 3d ed 4a 00 00 	lea    0x4aed(%rip),%rdi        # b040 <_ZSt4cout@GLIBCXX_3.4>
    6553:	e8 c8 bd ff ff       	call   2320 <_ZSt16__ostream_insertIcSt11char_traitsIcEERSt13basic_ostreamIT_T0_ES6_PKS3_l@plt>
    6558:	48 8d b5 f4 fe ff ff 	lea    -0x10c(%rbp),%rsi
    655f:	48 8d 3d fa 4b 00 00 	lea    0x4bfa(%rip),%rdi        # b160 <_ZSt3cin@GLIBCXX_3.4>
    6566:	e8 d5 bc ff ff       	call   2240 <_ZNSirsERi@plt>
    656b:	ba 40 00 00 00       	mov    $0x40,%edx
    6570:	48 8d 35 81 1c 00 00 	lea    0x1c81(%rip),%rsi        # 81f8 <_IO_stdin_used+0x1f8>
    6577:	48 8d 3d c2 4a 00 00 	lea    0x4ac2(%rip),%rdi        # b040 <_ZSt4cout@GLIBCXX_3.4>
    657e:	e8 9d bd ff ff       	call   2320 <_ZSt16__ostream_insertIcSt11char_traitsIcEERSt13basic_ostreamIT_T0_ES6_PKS3_l@plt>
    6583:	48 8d b5 f8 fe ff ff 	lea    -0x108(%rbp),%rsi
    658a:	48 8d 3d cf 4b 00 00 	lea    0x4bcf(%rip),%rdi        # b160 <_ZSt3cin@GLIBCXX_3.4>
    6591:	e8 aa bc ff ff       	call   2240 <_ZNSirsERi@plt>
    6596:	ba 21 00 00 00       	mov    $0x21,%edx
    659b:	48 8d 35 9e 1c 00 00 	lea    0x1c9e(%rip),%rsi        # 8240 <_IO_stdin_used+0x240>
    65a2:	48 8d 3d 97 4a 00 00 	lea    0x4a97(%rip),%rdi        # b040 <_ZSt4cout@GLIBCXX_3.4>
    65a9:	e8 72 bd ff ff       	call   2320 <_ZSt16__ostream_insertIcSt11char_traitsIcEERSt13basic_ostreamIT_T0_ES6_PKS3_l@plt>
    65ae:	48 8d b5 30 ff ff ff 	lea    -0xd0(%rbp),%rsi
    65b5:	48 8d 3d a4 4b 00 00 	lea    0x4ba4(%rip),%rdi        # b160 <_ZSt3cin@GLIBCXX_3.4>
    65bc:	e8 8f bd ff ff       	call   2350 <_ZNSi10_M_extractIeEERSiRT_@plt>
    65c1:	ba a7 00 00 00       	mov    $0xa7,%edx
    65c6:	48 8d 35 9b 1c 00 00 	lea    0x1c9b(%rip),%rsi        # 8268 <_IO_stdin_used+0x268>
    65cd:	48 8d 3d 6c 4a 00 00 	lea    0x4a6c(%rip),%rdi        # b040 <_ZSt4cout@GLIBCXX_3.4>
    65d4:	e8 47 bd ff ff       	call   2320 <_ZSt16__ostream_insertIcSt11char_traitsIcEERSt13basic_ostreamIT_T0_ES6_PKS3_l@plt>
    65d9:	48 8d b5 fc fe ff ff 	lea    -0x104(%rbp),%rsi
    65e0:	48 8d 3d 79 4b 00 00 	lea    0x4b79(%rip),%rdi        # b160 <_ZSt3cin@GLIBCXX_3.4>
    65e7:	e8 54 bc ff ff       	call   2240 <_ZNSirsERi@plt>
    65ec:	ba 15 00 00 00       	mov    $0x15,%edx
    65f1:	48 8d 35 3b 1d 00 00 	lea    0x1d3b(%rip),%rsi        # 8333 <_IO_stdin_used+0x333>
    65f8:	48 8d 3d 41 4a 00 00 	lea    0x4a41(%rip),%rdi        # b040 <_ZSt4cout@GLIBCXX_3.4>
    65ff:	e8 1c bd ff ff       	call   2320 <_ZSt16__ostream_insertIcSt11char_traitsIcEERSt13basic_ostreamIT_T0_ES6_PKS3_l@plt>
    6604:	48 8d b5 18 ff ff ff 	lea    -0xe8(%rbp),%rsi
    660b:	48 8d 3d 4e 4b 00 00 	lea    0x4b4e(%rip),%rdi        # b160 <_ZSt3cin@GLIBCXX_3.4>
    6612:	e8 49 bc ff ff       	call   2260 <_ZNSi10_M_extractIdEERSiRT_@plt>
    6617:	ba 11 00 00 00       	mov    $0x11,%edx
    661c:	48 8d 35 26 1d 00 00 	lea    0x1d26(%rip),%rsi        # 8349 <_IO_stdin_used+0x349>
    6623:	48 8d 3d 16 4a 00 00 	lea    0x4a16(%rip),%rdi        # b040 <_ZSt4cout@GLIBCXX_3.4>
    662a:	e8 f1 bc ff ff       	call   2320 <_ZSt16__ostream_insertIcSt11char_traitsIcEERSt13basic_ostreamIT_T0_ES6_PKS3_l@plt>
    662f:	48 8d b5 20 ff ff ff 	lea    -0xe0(%rbp),%rsi
    6636:	48 8d 3d 23 4b 00 00 	lea    0x4b23(%rip),%rdi        # b160 <_ZSt3cin@GLIBCXX_3.4>
    663d:	e8 1e bc ff ff       	call   2260 <_ZNSi10_M_extractIdEERSiRT_@plt>
    6642:	ba 18 00 00 00       	mov    $0x18,%edx
    6647:	48 8d 35 0d 1d 00 00 	lea    0x1d0d(%rip),%rsi        # 835b <_IO_stdin_used+0x35b>
    664e:	48 8d 3d eb 49 00 00 	lea    0x49eb(%rip),%rdi        # b040 <_ZSt4cout@GLIBCXX_3.4>
    6655:	e8 c6 bc ff ff       	call   2320 <_ZSt16__ostream_insertIcSt11char_traitsIcEERSt13basic_ostreamIT_T0_ES6_PKS3_l@plt>
    665a:	48 8d b5 28 ff ff ff 	lea    -0xd8(%rbp),%rsi
    6661:	48 8d 3d f8 4a 00 00 	lea    0x4af8(%rip),%rdi        # b160 <_ZSt3cin@GLIBCXX_3.4>
    6668:	e8 f3 bb ff ff       	call   2260 <_ZNSi10_M_extractIdEERSiRT_@plt>
    666d:	8b 9d fc fe ff ff    	mov    -0x104(%rbp),%ebx
    6673:	db ad 30 ff ff ff    	fldt   -0xd0(%rbp)
    6679:	31 d2                	xor    %edx,%edx
    667b:	be 03 00 00 00       	mov    $0x3,%esi
    6680:	f2 0f 10 85 28 ff ff 	movsd  -0xd8(%rbp),%xmm0
    6687:	ff 
    6688:	f2 0f 5e 05 d8 1d 00 	divsd  0x1dd8(%rip),%xmm0        # 8468 <_IO_stdin_used+0x468>
    668f:	00 
    6690:	f2 0f 11 85 78 fe ff 	movsd  %xmm0,-0x188(%rbp)
    6697:	ff 
    6698:	89 df                	mov    %ebx,%edi
    669a:	0f af fb             	imul   %ebx,%edi
    669d:	dd 9d e0 fe ff ff    	fstpl  -0x120(%rbp)
    66a3:	0f af fb             	imul   %ebx,%edi
    66a6:	c1 e7 03             	shl    $0x3,%edi
    66a9:	e8 b2 0a 00 00       	call   7160 <_Z10allocate2djjPPe>
    66ae:	66 0f ef c0          	pxor   %xmm0,%xmm0
    66b2:	44 8d 04 1b          	lea    (%rbx,%rbx,1),%r8d
    66b6:	f2 0f 10 bd e0 fe ff 	movsd  -0x120(%rbp),%xmm7
    66bd:	ff 
    66be:	48 89 85 b8 fe ff ff 	mov    %rax,-0x148(%rbp)
    66c5:	48 89 c1             	mov    %rax,%rcx
    66c8:	89 d8                	mov    %ebx,%eax
    66ca:	f2 48 0f 2a c0       	cvtsi2sd %rax,%xmm0
    66cf:	f2 0f 5e f8          	divsd  %xmm0,%xmm7
    66d3:	f2 0f 11 bd d8 fe ff 	movsd  %xmm7,-0x128(%rbp)
    66da:	ff 
    66db:	dd 85 d8 fe ff ff    	fldl   -0x128(%rbp)
    66e1:	d9 c0                	fld    %st(0)
    66e3:	d9 05 c7 1d 00 00    	flds   0x1dc7(%rip)        # 84b0 <_IO_stdin_used+0x4b0>
    66e9:	de ca                	fmulp  %st,%st(2)
    66eb:	45 85 c0             	test   %r8d,%r8d
    66ee:	0f 8e ae 00 00 00    	jle    67a2 <_Z7blearghv+0x2d2>
    66f4:	dd 85 e0 fe ff ff    	fldl   -0x120(%rbp)
    66fa:	d9 ca                	fxch   %st(2)
    66fc:	31 ff                	xor    %edi,%edi
    66fe:	45 31 db             	xor    %r11d,%r11d
    6701:	48 89 cb             	mov    %rcx,%rbx
    6704:	4c 8d 51 08          	lea    0x8(%rcx),%r10
    6708:	45 8d 48 ff          	lea    -0x1(%r8),%r9d
    670c:	d9 c0                	fld    %st(0)
    670e:	db bd e0 fe ff ff    	fstpt  -0x120(%rbp)
    6714:	0f 1f 40 00          	nopl   0x0(%rax)
    6718:	db ad e0 fe ff ff    	fldt   -0x120(%rbp)
    671e:	31 f6                	xor    %esi,%esi
    6720:	d8 e3                	fsub   %st(3),%st
    6722:	d9 c1                	fld    %st(1)
    6724:	0f 1f 40 00          	nopl   0x0(%rax)
    6728:	d9 c0                	fld    %st(0)
    672a:	48 63 d7             	movslq %edi,%rdx
    672d:	d8 e5                	fsub   %st(5),%st
    672f:	48 8d 04 d3          	lea    (%rbx,%rdx,8),%rax
    6733:	4c 01 ca             	add    %r9,%rdx
    6736:	49 8d 0c d2          	lea    (%r10,%rdx,8),%rcx
    673a:	d9 c3                	fld    %st(3)
    673c:	eb 08                	jmp    6746 <_Z7blearghv+0x276>
    673e:	66 90                	xchg   %ax,%ax
    6740:	d9 c9                	fxch   %st(1)
    6742:	d9 cb                	fxch   %st(3)
    6744:	d9 c9                	fxch   %st(1)
    6746:	d9 c0                	fld    %st(0)
    6748:	48 8b 10             	mov    (%rax),%rdx
    674b:	48 83 c0 08          	add    $0x8,%rax
    674f:	d8 e7                	fsub   %st(7),%st
    6751:	db 3a                	fstpt  (%rdx)
    6753:	d9 c9                	fxch   %st(1)
    6755:	d9 c0                	fld    %st(0)
    6757:	db 7a 10             	fstpt  0x10(%rdx)
    675a:	d9 cb                	fxch   %st(3)
    675c:	d9 c0                	fld    %st(0)
    675e:	db 7a 20             	fstpt  0x20(%rdx)
    6761:	d9 c9                	fxch   %st(1)
    6763:	d8 c5                	fadd   %st(5),%st
    6765:	48 39 c1             	cmp    %rax,%rcx
    6768:	75 d6                	jne    6740 <_Z7blearghv+0x270>
    676a:	dd d8                	fstp   %st(0)
    676c:	dd da                	fstp   %st(2)
    676e:	83 c6 01             	add    $0x1,%esi
    6771:	d8 c3                	fadd   %st(3),%st
    6773:	44 01 c7             	add    %r8d,%edi
    6776:	44 39 c6             	cmp    %r8d,%esi
    6779:	75 ad                	jne    6728 <_Z7blearghv+0x258>
    677b:	dd d8                	fstp   %st(0)
    677d:	dd d8                	fstp   %st(0)
    677f:	db ad e0 fe ff ff    	fldt   -0x120(%rbp)
    6785:	41 83 c3 01          	add    $0x1,%r11d
    6789:	d8 c2                	fadd   %st(2),%st
    678b:	db bd e0 fe ff ff    	fstpt  -0x120(%rbp)
    6791:	45 39 c3             	cmp    %r8d,%r11d
    6794:	0f 85 7e ff ff ff    	jne    6718 <_Z7blearghv+0x248>
    679a:	dd d8                	fstp   %st(0)
    679c:	dd d8                	fstp   %st(0)
    679e:	dd d8                	fstp   %st(0)
    67a0:	eb 04                	jmp    67a6 <_Z7blearghv+0x2d6>
    67a2:	dd d8                	fstp   %st(0)
    67a4:	dd d8                	fstp   %st(0)
    67a6:	db ad 30 ff ff ff    	fldt   -0xd0(%rbp)
    67ac:	8b b5 f4 fe ff ff    	mov    -0x10c(%rbp),%esi
    67b2:	4c 8d 75 80          	lea    -0x80(%rbp),%r14
    67b6:	8b bd f8 fe ff ff    	mov    -0x108(%rbp),%edi
    67bc:	dd 9d e0 fe ff ff    	fstpl  -0x120(%rbp)
    67c2:	f2 0f 10 85 e0 fe ff 	movsd  -0x120(%rbp),%xmm0
    67c9:	ff 
    67ca:	e8 b1 f1 ff ff       	call   5980 <_Z18compute_spheremeshdjj>
    67cf:	8b b5 fc fe ff ff    	mov    -0x104(%rbp),%esi
    67d5:	bf 04 00 00 00       	mov    $0x4,%edi
    67da:	48 89 85 b0 fe ff ff 	mov    %rax,-0x150(%rbp)
    67e1:	89 f1                	mov    %esi,%ecx
    67e3:	89 f2                	mov    %esi,%edx
    67e5:	e8 b6 0d 00 00       	call   75a0 <_Z10allocate4djjjj>
    67ea:	44 8b 85 fc fe ff ff 	mov    -0x104(%rbp),%r8d
    67f1:	48 c7 85 70 fe ff ff 	movq   $0x0,-0x190(%rbp)
    67f8:	00 00 00 00 
    67fc:	49 89 c4             	mov    %rax,%r12
    67ff:	45 85 c0             	test   %r8d,%r8d
    6802:	0f 8e 13 02 00 00    	jle    6a1b <_Z7blearghv+0x54b>
    6808:	0f 1f 84 00 00 00 00 	nopl   0x0(%rax,%rax,1)
    680f:	00 
    6810:	48 8b 85 70 fe ff ff 	mov    -0x190(%rbp),%rax
    6817:	89 85 90 fe ff ff    	mov    %eax,-0x170(%rbp)
    681d:	45 85 c0             	test   %r8d,%r8d
    6820:	0f 8e dd 01 00 00    	jle    6a03 <_Z7blearghv+0x533>
    6826:	48 c7 85 88 fe ff ff 	movq   $0x0,-0x178(%rbp)
    682d:	00 00 00 00 
    6831:	48 c1 e0 03          	shl    $0x3,%rax
    6835:	4d 89 e5             	mov    %r12,%r13
    6838:	48 89 c1             	mov    %rax,%rcx
    683b:	0f 1f 44 00 00       	nopl   0x0(%rax,%rax,1)
    6840:	48 8b 85 88 fe ff ff 	mov    -0x178(%rbp),%rax
    6847:	48 89 8d e0 fe ff ff 	mov    %rcx,-0x120(%rbp)
    684e:	45 31 e4             	xor    %r12d,%r12d
    6851:	89 85 84 fe ff ff    	mov    %eax,-0x17c(%rbp)
    6857:	48 8d 1c c5 00 00 00 	lea    0x0(,%rax,8),%rbx
    685e:	00 
    685f:	89 85 a0 fe ff ff    	mov    %eax,-0x160(%rbp)
    6865:	0f 1f 00             	nopl   (%rax)
    6868:	8b 95 a0 fe ff ff    	mov    -0x160(%rbp),%edx
    686e:	8b 85 90 fe ff ff    	mov    -0x170(%rbp),%eax
    6874:	4c 89 f7             	mov    %r14,%rdi
    6877:	4d 89 e7             	mov    %r12,%r15
    687a:	49 c1 e7 04          	shl    $0x4,%r15
    687e:	41 0f af d0          	imul   %r8d,%edx
    6882:	8d 34 50             	lea    (%rax,%rdx,2),%esi
    6885:	44 89 c2             	mov    %r8d,%edx
    6888:	48 8b 85 b8 fe ff ff 	mov    -0x148(%rbp),%rax
    688f:	41 0f af d4          	imul   %r12d,%edx
    6893:	49 83 c4 01          	add    $0x1,%r12
    6897:	41 0f af d0          	imul   %r8d,%edx
    689b:	8d 14 96             	lea    (%rsi,%rdx,4),%edx
    689e:	48 63 d2             	movslq %edx,%rdx
    68a1:	48 8d 34 d0          	lea    (%rax,%rdx,8),%rsi
    68a5:	48 8b 16             	mov    (%rsi),%rdx
    68a8:	48 89 b5 c0 fe ff ff 	mov    %rsi,-0x140(%rbp)
    68af:	db 6a 20             	fldt   0x20(%rdx)
    68b2:	dd 9d d8 fe ff ff    	fstpl  -0x128(%rbp)
    68b8:	db 6a 10             	fldt   0x10(%rdx)
    68bb:	f2 0f 10 95 d8 fe ff 	movsd  -0x128(%rbp),%xmm2
    68c2:	ff 
    68c3:	dd 9d d0 fe ff ff    	fstpl  -0x130(%rbp)
    68c9:	db 2a                	fldt   (%rdx)
    68cb:	f2 0f 10 8d d0 fe ff 	movsd  -0x130(%rbp),%xmm1
    68d2:	ff 
    68d3:	dd 9d c8 fe ff ff    	fstpl  -0x138(%rbp)
    68d9:	f2 0f 10 85 c8 fe ff 	movsd  -0x138(%rbp),%xmm0
    68e0:	ff 
    68e1:	e8 9a 10 00 00       	call   7980 <_Z8velocityddd>
    68e6:	49 8b 7d 00          	mov    0x0(%r13),%rdi
    68ea:	dd 45 80             	fldl   -0x80(%rbp)
    68ed:	48 8b 85 e0 fe ff ff 	mov    -0x120(%rbp),%rax
    68f4:	48 8b b5 c0 fe ff ff 	mov    -0x140(%rbp),%rsi
    68fb:	48 8b 3c 07          	mov    (%rdi,%rax,1),%rdi
    68ff:	48 8b 3c 1f          	mov    (%rdi,%rbx,1),%rdi
    6903:	42 db 3c 3f          	fstpt  (%rdi,%r15,1)
    6907:	48 8b 3e             	mov    (%rsi),%rdi
    690a:	db 6f 20             	fldt   0x20(%rdi)
    690d:	dd 9d d8 fe ff ff    	fstpl  -0x128(%rbp)
    6913:	db 6f 10             	fldt   0x10(%rdi)
    6916:	f2 0f 10 95 d8 fe ff 	movsd  -0x128(%rbp),%xmm2
    691d:	ff 
    691e:	dd 9d d0 fe ff ff    	fstpl  -0x130(%rbp)
    6924:	db 2f                	fldt   (%rdi)
    6926:	f2 0f 10 8d d0 fe ff 	movsd  -0x130(%rbp),%xmm1
    692d:	ff 
    692e:	4c 89 f7             	mov    %r14,%rdi
    6931:	dd 9d c8 fe ff ff    	fstpl  -0x138(%rbp)
    6937:	f2 0f 10 85 c8 fe ff 	movsd  -0x138(%rbp),%xmm0
    693e:	ff 
    693f:	e8 3c 10 00 00       	call   7980 <_Z8velocityddd>
    6944:	49 8b 7d 08          	mov    0x8(%r13),%rdi
    6948:	48 8b 85 e0 fe ff ff 	mov    -0x120(%rbp),%rax
    694f:	48 8b b5 c0 fe ff ff 	mov    -0x140(%rbp),%rsi
    6956:	dd 45 88             	fldl   -0x78(%rbp)
    6959:	48 8b 3c 07          	mov    (%rdi,%rax,1),%rdi
    695d:	48 8b 36             	mov    (%rsi),%rsi
    6960:	48 8b 3c 1f          	mov    (%rdi,%rbx,1),%rdi
    6964:	42 db 3c 3f          	fstpt  (%rdi,%r15,1)
    6968:	db 6e 20             	fldt   0x20(%rsi)
    696b:	4c 89 f7             	mov    %r14,%rdi
    696e:	dd 9d d8 fe ff ff    	fstpl  -0x128(%rbp)
    6974:	db 6e 10             	fldt   0x10(%rsi)
    6977:	f2 0f 10 95 d8 fe ff 	movsd  -0x128(%rbp),%xmm2
    697e:	ff 
    697f:	dd 9d d0 fe ff ff    	fstpl  -0x130(%rbp)
    6985:	db 2e                	fldt   (%rsi)
    6987:	f2 0f 10 8d d0 fe ff 	movsd  -0x130(%rbp),%xmm1
    698e:	ff 
    698f:	dd 9d c8 fe ff ff    	fstpl  -0x138(%rbp)
    6995:	f2 0f 10 85 c8 fe ff 	movsd  -0x138(%rbp),%xmm0
    699c:	ff 
    699d:	e8 de 0f 00 00       	call   7980 <_Z8velocityddd>
    69a2:	49 8b 75 10          	mov    0x10(%r13),%rsi
    69a6:	dd 45 90             	fldl   -0x70(%rbp)
    69a9:	48 8b 85 e0 fe ff ff 	mov    -0x120(%rbp),%rax
    69b0:	44 8b 85 fc fe ff ff 	mov    -0x104(%rbp),%r8d
    69b7:	48 8b 34 06          	mov    (%rsi,%rax,1),%rsi
    69bb:	48 8b 34 1e          	mov    (%rsi,%rbx,1),%rsi
    69bf:	42 db 3c 3e          	fstpt  (%rsi,%r15,1)
    69c3:	49 8b 75 18          	mov    0x18(%r13),%rsi
    69c7:	dd 85 18 ff ff ff    	fldl   -0xe8(%rbp)
    69cd:	48 8b 34 06          	mov    (%rsi,%rax,1),%rsi
    69d1:	48 8b 34 1e          	mov    (%rsi,%rbx,1),%rsi
    69d5:	42 db 3c 3e          	fstpt  (%rsi,%r15,1)
    69d9:	45 39 e0             	cmp    %r12d,%r8d
    69dc:	0f 8f 86 fe ff ff    	jg     6868 <_Z7blearghv+0x398>
    69e2:	48 89 c1             	mov    %rax,%rcx
    69e5:	8b 85 84 fe ff ff    	mov    -0x17c(%rbp),%eax
    69eb:	83 c0 01             	add    $0x1,%eax
    69ee:	41 39 c0             	cmp    %eax,%r8d
    69f1:	7e 0d                	jle    6a00 <_Z7blearghv+0x530>
    69f3:	48 83 85 88 fe ff ff 	addq   $0x1,-0x178(%rbp)
    69fa:	01 
    69fb:	e9 40 fe ff ff       	jmp    6840 <_Z7blearghv+0x370>
    6a00:	4d 89 ec             	mov    %r13,%r12
    6a03:	48 83 85 70 fe ff ff 	addq   $0x1,-0x190(%rbp)
    6a0a:	01 
    6a0b:	48 8b 85 70 fe ff ff 	mov    -0x190(%rbp),%rax
    6a12:	41 39 c0             	cmp    %eax,%r8d
    6a15:	0f 8f f5 fd ff ff    	jg     6810 <_Z7blearghv+0x340>
    6a1b:	44 89 c2             	mov    %r8d,%edx
    6a1e:	44 89 c6             	mov    %r8d,%esi
    6a21:	44 89 c7             	mov    %r8d,%edi
    6a24:	e8 97 08 00 00       	call   72c0 <_Z11allocate3dtjjj>
    6a29:	8b 8d fc fe ff ff    	mov    -0x104(%rbp),%ecx
    6a2f:	85 c9                	test   %ecx,%ecx
    6a31:	0f 8e 4e 01 00 00    	jle    6b85 <_Z7blearghv+0x6b5>
    6a37:	4c 8b bd b8 fe ff ff 	mov    -0x148(%rbp),%r15
    6a3e:	49 89 c6             	mov    %rax,%r14
    6a41:	45 31 e4             	xor    %r12d,%r12d
    6a44:	4c 8d 6d 80          	lea    -0x80(%rbp),%r13
    6a48:	0f 1f 84 00 00 00 00 	nopl   0x0(%rax,%rax,1)
    6a4f:	00 
    6a50:	48 c7 85 a0 fe ff ff 	movq   $0x0,-0x160(%rbp)
    6a57:	00 00 00 00 
    6a5b:	0f 1f 44 00 00       	nopl   0x0(%rax,%rax,1)
    6a60:	48 8b 85 a0 fe ff ff 	mov    -0x160(%rbp),%rax
    6a67:	48 c7 85 e0 fe ff ff 	movq   $0x0,-0x120(%rbp)
    6a6e:	00 00 00 00 
    6a72:	89 85 90 fe ff ff    	mov    %eax,-0x170(%rbp)
    6a78:	48 8d 1c c5 00 00 00 	lea    0x0(,%rax,8),%rbx
    6a7f:	00 
    6a80:	89 85 c0 fe ff ff    	mov    %eax,-0x140(%rbp)
    6a86:	66 2e 0f 1f 84 00 00 	cs nopw 0x0(%rax,%rax,1)
    6a8d:	00 00 00 
    6a90:	8b 95 c0 fe ff ff    	mov    -0x140(%rbp),%edx
    6a96:	f2 0f 10 85 18 ff ff 	movsd  -0xe8(%rbp),%xmm0
    6a9d:	ff 
    6a9e:	0f af d1             	imul   %ecx,%edx
    6aa1:	41 8d 3c 54          	lea    (%r12,%rdx,2),%edi
    6aa5:	8b 95 e0 fe ff ff    	mov    -0x120(%rbp),%edx
    6aab:	0f af d1             	imul   %ecx,%edx
    6aae:	0f af d1             	imul   %ecx,%edx
    6ab1:	8d 14 97             	lea    (%rdi,%rdx,4),%edx
    6ab4:	4c 89 ef             	mov    %r13,%rdi
    6ab7:	48 63 d2             	movslq %edx,%rdx
    6aba:	49 8b 14 d7          	mov    (%r15,%rdx,8),%rdx
    6abe:	db 6a 20             	fldt   0x20(%rdx)
    6ac1:	dd 9d d8 fe ff ff    	fstpl  -0x128(%rbp)
    6ac7:	db 6a 10             	fldt   0x10(%rdx)
    6aca:	f2 0f 10 9d d8 fe ff 	movsd  -0x128(%rbp),%xmm3
    6ad1:	ff 
    6ad2:	dd 9d d0 fe ff ff    	fstpl  -0x130(%rbp)
    6ad8:	db 2a                	fldt   (%rdx)
    6ada:	f2 0f 10 95 d0 fe ff 	movsd  -0x130(%rbp),%xmm2
    6ae1:	ff 
    6ae2:	dd 9d c8 fe ff ff    	fstpl  -0x138(%rbp)
    6ae8:	f2 0f 10 8d c8 fe ff 	movsd  -0x138(%rbp),%xmm1
    6aef:	ff 
    6af0:	e8 6b 0c 00 00       	call   7760 <_Z6stressdddd>
    6af5:	49 8b 16             	mov    (%r14),%rdx
    6af8:	66 0f 28 75 80       	movapd -0x80(%rbp),%xmm6
    6afd:	48 8b 85 e0 fe ff ff 	mov    -0x120(%rbp),%rax
    6b04:	66 0f 28 7d 90       	movapd -0x70(%rbp),%xmm7
    6b09:	48 8b 14 1a          	mov    (%rdx,%rbx,1),%rdx
    6b0d:	66 0f 28 65 a0       	movapd -0x60(%rbp),%xmm4
    6b12:	48 8d 0c c0          	lea    (%rax,%rax,8),%rcx
    6b16:	f2 0f 10 45 c0       	movsd  -0x40(%rbp),%xmm0
    6b1b:	48 83 c0 01          	add    $0x1,%rax
    6b1f:	48 8d 14 ca          	lea    (%rdx,%rcx,8),%rdx
    6b23:	8b 8d fc fe ff ff    	mov    -0x104(%rbp),%ecx
    6b29:	48 89 85 e0 fe ff ff 	mov    %rax,-0x120(%rbp)
    6b30:	0f 11 32             	movups %xmm6,(%rdx)
    6b33:	66 0f 28 75 b0       	movapd -0x50(%rbp),%xmm6
    6b38:	0f 11 7a 10          	movups %xmm7,0x10(%rdx)
    6b3c:	0f 11 62 20          	movups %xmm4,0x20(%rdx)
    6b40:	0f 11 72 30          	movups %xmm6,0x30(%rdx)
    6b44:	f2 0f 11 42 40       	movsd  %xmm0,0x40(%rdx)
    6b49:	39 c1                	cmp    %eax,%ecx
    6b4b:	0f 8f 3f ff ff ff    	jg     6a90 <_Z7blearghv+0x5c0>
    6b51:	8b 85 90 fe ff ff    	mov    -0x170(%rbp),%eax
    6b57:	83 c0 01             	add    $0x1,%eax
    6b5a:	39 c8                	cmp    %ecx,%eax
    6b5c:	7d 12                	jge    6b70 <_Z7blearghv+0x6a0>
    6b5e:	48 83 85 a0 fe ff ff 	addq   $0x1,-0x160(%rbp)
    6b65:	01 
    6b66:	e9 f5 fe ff ff       	jmp    6a60 <_Z7blearghv+0x590>
    6b6b:	0f 1f 44 00 00       	nopl   0x0(%rax,%rax,1)
    6b70:	41 83 c4 01          	add    $0x1,%r12d
    6b74:	49 83 c6 08          	add    $0x8,%r14
    6b78:	44 39 e1             	cmp    %r12d,%ecx
    6b7b:	7e 08                	jle    6b85 <_Z7blearghv+0x6b5>
    6b7d:	85 c9                	test   %ecx,%ecx
    6b7f:	0f 8f cb fe ff ff    	jg     6a50 <_Z7blearghv+0x580>
    6b85:	48 83 bd b8 fe ff ff 	cmpq   $0x0,-0x148(%rbp)
    6b8c:	00 
    6b8d:	0f 84 46 04 00 00    	je     6fd9 <_Z7blearghv+0xb09>
    6b93:	89 c8                	mov    %ecx,%eax
    6b95:	66 0f ef c0          	pxor   %xmm0,%xmm0
    6b99:	f2 0f 10 bd 00 ff ff 	movsd  -0x100(%rbp),%xmm7
    6ba0:	ff 
    6ba1:	48 c7 85 50 ff ff ff 	movq   $0x0,-0xb0(%rbp)
    6ba8:	00 00 00 00 
    6bac:	0f af c1             	imul   %ecx,%eax
    6baf:	db ad 30 ff ff ff    	fldt   -0xd0(%rbp)
    6bb5:	4c 8b b5 10 ff ff ff 	mov    -0xf0(%rbp),%r14
    6bbc:	0f 29 85 40 ff ff ff 	movaps %xmm0,-0xc0(%rbp)
    6bc3:	4c 8b ad 08 ff ff ff 	mov    -0xf8(%rbp),%r13
    6bca:	f2 0f 11 bd e0 fe ff 	movsd  %xmm7,-0x120(%rbp)
    6bd1:	ff 
    6bd2:	0f af c1             	imul   %ecx,%eax
    6bd5:	85 c0                	test   %eax,%eax
    6bd7:	0f 84 28 01 00 00    	je     6d05 <_Z7blearghv+0x835>
    6bdd:	48 8d 85 40 ff ff ff 	lea    -0xc0(%rbp),%rax
    6be4:	31 db                	xor    %ebx,%ebx
    6be6:	4c 8d 65 80          	lea    -0x80(%rbp),%r12
    6bea:	48 89 85 d8 fe ff ff 	mov    %rax,-0x128(%rbp)
    6bf1:	eb 32                	jmp    6c25 <_Z7blearghv+0x755>
    6bf3:	0f 1f 44 00 00       	nopl   0x0(%rax,%rax,1)
    6bf8:	89 1e                	mov    %ebx,(%rsi)
    6bfa:	48 83 c6 04          	add    $0x4,%rsi
    6bfe:	48 89 b5 48 ff ff ff 	mov    %rsi,-0xb8(%rbp)
    6c05:	8b 8d fc fe ff ff    	mov    -0x104(%rbp),%ecx
    6c0b:	89 c8                	mov    %ecx,%eax
    6c0d:	48 83 c3 01          	add    $0x1,%rbx
    6c11:	0f af c1             	imul   %ecx,%eax
    6c14:	0f af c1             	imul   %ecx,%eax
    6c17:	c1 e0 03             	shl    $0x3,%eax
    6c1a:	48 98                	cltq   
    6c1c:	48 39 d8             	cmp    %rbx,%rax
    6c1f:	0f 86 ee 00 00 00    	jbe    6d13 <_Z7blearghv+0x843>
    6c25:	48 8b 85 b8 fe ff ff 	mov    -0x148(%rbp),%rax
    6c2c:	66 0f ef ff          	pxor   %xmm7,%xmm7
    6c30:	48 8b 04 d8          	mov    (%rax,%rbx,8),%rax
    6c34:	db 68 20             	fldt   0x20(%rax)
    6c37:	dd 9d d0 fe ff ff    	fstpl  -0x130(%rbp)
    6c3d:	db 68 10             	fldt   0x10(%rax)
    6c40:	f2 0f 10 85 d0 fe ff 	movsd  -0x130(%rbp),%xmm0
    6c47:	ff 
    6c48:	f2 0f 59 c0          	mulsd  %xmm0,%xmm0
    6c4c:	dd 9d d0 fe ff ff    	fstpl  -0x130(%rbp)
    6c52:	db 28                	fldt   (%rax)
    6c54:	f2 0f 10 95 d0 fe ff 	movsd  -0x130(%rbp),%xmm2
    6c5b:	ff 
    6c5c:	f2 0f 59 d2          	mulsd  %xmm2,%xmm2
    6c60:	dd 9d d0 fe ff ff    	fstpl  -0x130(%rbp)
    6c66:	f2 0f 10 8d d0 fe ff 	movsd  -0x130(%rbp),%xmm1
    6c6d:	ff 
    6c6e:	89 8d d0 fe ff ff    	mov    %ecx,-0x130(%rbp)
    6c74:	db 85 d0 fe ff ff    	fildl  -0x130(%rbp)
    6c7a:	f2 0f 59 c9          	mulsd  %xmm1,%xmm1
    6c7e:	d8 f9                	fdivr  %st(1),%st
    6c80:	f2 0f 58 ca          	addsd  %xmm2,%xmm1
    6c84:	f2 0f 58 c8          	addsd  %xmm0,%xmm1
    6c88:	66 0f 2e f9          	ucomisd %xmm1,%xmm7
    6c8c:	dd 9d d0 fe ff ff    	fstpl  -0x130(%rbp)
    6c92:	f2 0f 10 9d d0 fe ff 	movsd  -0x130(%rbp),%xmm3
    6c99:	ff 
    6c9a:	dd 95 d0 fe ff ff    	fstl   -0x130(%rbp)
    6ca0:	f2 0f 10 a5 d0 fe ff 	movsd  -0x130(%rbp),%xmm4
    6ca7:	ff 
    6ca8:	0f 87 82 02 00 00    	ja     6f30 <_Z7blearghv+0xa60>
    6cae:	f2 0f 51 c9          	sqrtsd %xmm1,%xmm1
    6cb2:	66 0f 28 c3          	movapd %xmm3,%xmm0
    6cb6:	f2 0f 58 c1          	addsd  %xmm1,%xmm0
    6cba:	66 0f 2f e0          	comisd %xmm0,%xmm4
    6cbe:	0f 87 47 ff ff ff    	ja     6c0b <_Z7blearghv+0x73b>
    6cc4:	f2 0f 5c cb          	subsd  %xmm3,%xmm1
    6cc8:	66 0f 2f cc          	comisd %xmm4,%xmm1
    6ccc:	0f 87 39 ff ff ff    	ja     6c0b <_Z7blearghv+0x73b>
    6cd2:	89 5d 80             	mov    %ebx,-0x80(%rbp)
    6cd5:	48 8b b5 48 ff ff ff 	mov    -0xb8(%rbp),%rsi
    6cdc:	48 3b b5 50 ff ff ff 	cmp    -0xb0(%rbp),%rsi
    6ce3:	0f 85 0f ff ff ff    	jne    6bf8 <_Z7blearghv+0x728>
    6ce9:	dd d8                	fstp   %st(0)
    6ceb:	48 8b bd d8 fe ff ff 	mov    -0x128(%rbp),%rdi
    6cf2:	4c 89 e2             	mov    %r12,%rdx
    6cf5:	e8 16 03 00 00       	call   7010 <_ZNSt6vectorIiSaIiEE17_M_realloc_insertIJiEEEvN9__gnu_cxx17__normal_iteratorIPiS1_EEDpOT_>
    6cfa:	db ad 30 ff ff ff    	fldt   -0xd0(%rbp)
    6d00:	e9 00 ff ff ff       	jmp    6c05 <_Z7blearghv+0x735>
    6d05:	48 8d 85 40 ff ff ff 	lea    -0xc0(%rbp),%rax
    6d0c:	48 89 85 d8 fe ff ff 	mov    %rax,-0x128(%rbp)
    6d13:	f2 0f 10 85 e0 fe ff 	movsd  -0x120(%rbp),%xmm0
    6d1a:	ff 
    6d1b:	bb 64 00 00 00       	mov    $0x64,%ebx
    6d20:	4c 8d a5 60 ff ff ff 	lea    -0xa0(%rbp),%r12
    6d27:	eb 17                	jmp    6d40 <_Z7blearghv+0x870>
    6d29:	0f 1f 80 00 00 00 00 	nopl   0x0(%rax)
    6d30:	db ad 30 ff ff ff    	fldt   -0xd0(%rbp)
    6d36:	8b 8d fc fe ff ff    	mov    -0x104(%rbp),%ecx
    6d3c:	66 0f 28 c2          	movapd %xmm2,%xmm0
    6d40:	48 83 ec 08          	sub    $0x8,%rsp
    6d44:	ff b5 b0 fe ff ff    	push   -0x150(%rbp)
    6d4a:	66 49 0f 6e d6       	movq   %r14,%xmm2
    6d4f:	4c 89 e7             	mov    %r12,%rdi
    6d52:	4c 8b bd b8 fe ff ff 	mov    -0x148(%rbp),%r15
    6d59:	66 49 0f 6e cd       	movq   %r13,%xmm1
    6d5e:	4c 8b 8d d8 fe ff ff 	mov    -0x128(%rbp),%r9
    6d65:	f2 0f 10 9d 18 ff ff 	movsd  -0xe8(%rbp),%xmm3
    6d6c:	ff 
    6d6d:	48 83 ec 20          	sub    $0x20,%rsp
    6d71:	8b 95 f8 fe ff ff    	mov    -0x108(%rbp),%edx
    6d77:	8b b5 f4 fe ff ff    	mov    -0x10c(%rbp),%esi
    6d7d:	4d 89 f8             	mov    %r15,%r8
    6d80:	d9 c0                	fld    %st(0)
    6d82:	db 7c 24 10          	fstpt  0x10(%rsp)
    6d86:	db 3c 24             	fstpt  (%rsp)
    6d89:	e8 e2 f2 ff ff       	call   6070 <_Z5forcedddjjeeidPPeRKSt6vectorIiSaIiEEPS0_>
    6d8e:	48 83 c4 28          	add    $0x28,%rsp
    6d92:	ff b5 b0 fe ff ff    	push   -0x150(%rbp)
    6d98:	48 8d 7d 80          	lea    -0x80(%rbp),%rdi
    6d9c:	4c 8b 8d d8 fe ff ff 	mov    -0x128(%rbp),%r9
    6da3:	ff b5 38 ff ff ff    	push   -0xc8(%rbp)
    6da9:	4d 89 f8             	mov    %r15,%r8
    6dac:	66 49 0f 6e d6       	movq   %r14,%xmm2
    6db1:	66 49 0f 6e cd       	movq   %r13,%xmm1
    6db6:	f2 0f 10 9d 18 ff ff 	movsd  -0xe8(%rbp),%xmm3
    6dbd:	ff 
    6dbe:	ff b5 30 ff ff ff    	push   -0xd0(%rbp)
    6dc4:	8b 8d fc fe ff ff    	mov    -0x104(%rbp),%ecx
    6dca:	ff b5 38 ff ff ff    	push   -0xc8(%rbp)
    6dd0:	8b 95 f8 fe ff ff    	mov    -0x108(%rbp),%edx
    6dd6:	ff b5 30 ff ff ff    	push   -0xd0(%rbp)
    6ddc:	8b b5 f4 fe ff ff    	mov    -0x10c(%rbp),%esi
    6de2:	f2 0f 10 85 e0 fe ff 	movsd  -0x120(%rbp),%xmm0
    6de9:	ff 
    6dea:	e8 b1 f4 ff ff       	call   62a0 <_Z6torquedddjjeeidPPeRKSt6vectorIiSaIiEEPS0_>
    6def:	f2 0f 10 ad 78 fe ff 	movsd  -0x188(%rbp),%xmm5
    6df6:	ff 
    6df7:	f2 0f 10 95 70 ff ff 	movsd  -0x90(%rbp),%xmm2
    6dfe:	ff 
    6dff:	66 0f ef e4          	pxor   %xmm4,%xmm4
    6e03:	66 49 0f 6e de       	movq   %r14,%xmm3
    6e08:	f2 0f 10 8d 20 ff ff 	movsd  -0xe0(%rbp),%xmm1
    6e0f:	ff 
    6e10:	48 83 c4 30          	add    $0x30,%rsp
    6e14:	f2 0f 59 d5          	mulsd  %xmm5,%xmm2
    6e18:	f2 0f 58 c9          	addsd  %xmm1,%xmm1
    6e1c:	f2 0f 59 e5          	mulsd  %xmm5,%xmm4
    6e20:	f2 0f 59 d5          	mulsd  %xmm5,%xmm2
    6e24:	f2 0f 58 dc          	addsd  %xmm4,%xmm3
    6e28:	66 0f 28 c4          	movapd %xmm4,%xmm0
    6e2c:	f2 0f 58 85 e0 fe ff 	addsd  -0x120(%rbp),%xmm0
    6e33:	ff 
    6e34:	f2 0f 5e d1          	divsd  %xmm1,%xmm2
    6e38:	f2 0f 58 d3          	addsd  %xmm3,%xmm2
    6e3c:	66 49 0f 6e dd       	movq   %r13,%xmm3
    6e41:	f2 0f 58 dc          	addsd  %xmm4,%xmm3
    6e45:	66 49 0f 7e d6       	movq   %xmm2,%r14
    6e4a:	f2 0f 10 95 68 ff ff 	movsd  -0x98(%rbp),%xmm2
    6e51:	ff 
    6e52:	f2 0f 59 d5          	mulsd  %xmm5,%xmm2
    6e56:	f2 0f 59 d5          	mulsd  %xmm5,%xmm2
    6e5a:	f2 0f 5e d1          	divsd  %xmm1,%xmm2
    6e5e:	f2 0f 58 d3          	addsd  %xmm3,%xmm2
    6e62:	66 49 0f 7e d5       	movq   %xmm2,%r13
    6e67:	f2 0f 10 95 60 ff ff 	movsd  -0xa0(%rbp),%xmm2
    6e6e:	ff 
    6e6f:	f2 0f 59 d5          	mulsd  %xmm5,%xmm2
    6e73:	f2 0f 59 d5          	mulsd  %xmm5,%xmm2
    6e77:	f2 0f 5e d1          	divsd  %xmm1,%xmm2
    6e7b:	f2 0f 58 d0          	addsd  %xmm0,%xmm2
    6e7f:	f2 0f 11 95 e0 fe ff 	movsd  %xmm2,-0x120(%rbp)
    6e86:	ff 
    6e87:	83 eb 01             	sub    $0x1,%ebx
    6e8a:	0f 85 a0 fe ff ff    	jne    6d30 <_Z7blearghv+0x860>
    6e90:	66 0f 28 c2          	movapd %xmm2,%xmm0
    6e94:	48 8d 3d a5 41 00 00 	lea    0x41a5(%rip),%rdi        # b040 <_ZSt4cout@GLIBCXX_3.4>
    6e9b:	e8 f0 b4 ff ff       	call   2390 <_ZNSo9_M_insertIdEERSoT_@plt>
    6ea0:	4c 8d 25 ed 14 00 00 	lea    0x14ed(%rip),%r12        # 8394 <_IO_stdin_used+0x394>
    6ea7:	ba 01 00 00 00       	mov    $0x1,%edx
    6eac:	48 89 c7             	mov    %rax,%rdi
    6eaf:	48 89 c3             	mov    %rax,%rbx
    6eb2:	4c 89 e6             	mov    %r12,%rsi
    6eb5:	e8 66 b4 ff ff       	call   2320 <_ZSt16__ostream_insertIcSt11char_traitsIcEERSt13basic_ostreamIT_T0_ES6_PKS3_l@plt>
    6eba:	66 49 0f 6e c5       	movq   %r13,%xmm0
    6ebf:	48 89 df             	mov    %rbx,%rdi
    6ec2:	e8 c9 b4 ff ff       	call   2390 <_ZNSo9_M_insertIdEERSoT_@plt>
    6ec7:	ba 01 00 00 00       	mov    $0x1,%edx
    6ecc:	4c 89 e6             	mov    %r12,%rsi
    6ecf:	48 89 c7             	mov    %rax,%rdi
    6ed2:	48 89 c3             	mov    %rax,%rbx
    6ed5:	e8 46 b4 ff ff       	call   2320 <_ZSt16__ostream_insertIcSt11char_traitsIcEERSt13basic_ostreamIT_T0_ES6_PKS3_l@plt>
    6eda:	66 49 0f 6e c6       	movq   %r14,%xmm0
    6edf:	48 89 df             	mov    %rbx,%rdi
    6ee2:	e8 a9 b4 ff ff       	call   2390 <_ZNSo9_M_insertIdEERSoT_@plt>
    6ee7:	48 8b bd 40 ff ff ff 	mov    -0xc0(%rbp),%rdi
    6eee:	48 85 ff             	test   %rdi,%rdi
    6ef1:	74 0f                	je     6f02 <_Z7blearghv+0xa32>
    6ef3:	48 8b b5 50 ff ff ff 	mov    -0xb0(%rbp),%rsi
    6efa:	48 29 fe             	sub    %rdi,%rsi
    6efd:	e8 ee b3 ff ff       	call   22f0 <_ZdlPvm@plt>
    6f02:	48 8b 45 c8          	mov    -0x38(%rbp),%rax
    6f06:	64 48 2b 04 25 28 00 	sub    %fs:0x28,%rax
    6f0d:	00 00 
    6f0f:	75 11                	jne    6f22 <_Z7blearghv+0xa52>
    6f11:	48 8d 65 d8          	lea    -0x28(%rbp),%rsp
    6f15:	31 c0                	xor    %eax,%eax
    6f17:	5b                   	pop    %rbx
    6f18:	41 5c                	pop    %r12
    6f1a:	41 5d                	pop    %r13
    6f1c:	41 5e                	pop    %r14
    6f1e:	41 5f                	pop    %r15
    6f20:	5d                   	pop    %rbp
    6f21:	c3                   	ret    
    6f22:	e8 d9 b3 ff ff       	call   2300 <__stack_chk_fail@plt>
    6f27:	66 0f 1f 84 00 00 00 	nopw   0x0(%rax,%rax,1)
    6f2e:	00 00 
    6f30:	66 0f 28 c1          	movapd %xmm1,%xmm0
    6f34:	db bd 90 fe ff ff    	fstpt  -0x170(%rbp)
    6f3a:	89 8d c8 fe ff ff    	mov    %ecx,-0x138(%rbp)
    6f40:	f2 0f 11 a5 a0 fe ff 	movsd  %xmm4,-0x160(%rbp)
    6f47:	ff 
    6f48:	f2 0f 11 9d c0 fe ff 	movsd  %xmm3,-0x140(%rbp)
    6f4f:	ff 
    6f50:	f2 0f 11 8d d0 fe ff 	movsd  %xmm1,-0x130(%rbp)
    6f57:	ff 
    6f58:	e8 33 b3 ff ff       	call   2290 <sqrt@plt>
    6f5d:	f2 0f 10 9d c0 fe ff 	movsd  -0x140(%rbp),%xmm3
    6f64:	ff 
    6f65:	f2 0f 10 a5 a0 fe ff 	movsd  -0x160(%rbp),%xmm4
    6f6c:	ff 
    6f6d:	db ad 90 fe ff ff    	fldt   -0x170(%rbp)
    6f73:	f2 0f 10 8d d0 fe ff 	movsd  -0x130(%rbp),%xmm1
    6f7a:	ff 
    6f7b:	f2 0f 58 c3          	addsd  %xmm3,%xmm0
    6f7f:	8b 8d c8 fe ff ff    	mov    -0x138(%rbp),%ecx
    6f85:	66 0f 2f e0          	comisd %xmm0,%xmm4
    6f89:	0f 87 7c fc ff ff    	ja     6c0b <_Z7blearghv+0x73b>
    6f8f:	66 0f 28 c1          	movapd %xmm1,%xmm0
    6f93:	db bd a0 fe ff ff    	fstpt  -0x160(%rbp)
    6f99:	89 8d d0 fe ff ff    	mov    %ecx,-0x130(%rbp)
    6f9f:	f2 0f 11 a5 c0 fe ff 	movsd  %xmm4,-0x140(%rbp)
    6fa6:	ff 
    6fa7:	f2 0f 11 9d c8 fe ff 	movsd  %xmm3,-0x138(%rbp)
    6fae:	ff 
    6faf:	e8 dc b2 ff ff       	call   2290 <sqrt@plt>
    6fb4:	8b 8d d0 fe ff ff    	mov    -0x130(%rbp),%ecx
    6fba:	db ad a0 fe ff ff    	fldt   -0x160(%rbp)
    6fc0:	f2 0f 10 9d c8 fe ff 	movsd  -0x138(%rbp),%xmm3
    6fc7:	ff 
    6fc8:	66 0f 28 c8          	movapd %xmm0,%xmm1
    6fcc:	f2 0f 10 a5 c0 fe ff 	movsd  -0x140(%rbp),%xmm4
    6fd3:	ff 
    6fd4:	e9 eb fc ff ff       	jmp    6cc4 <_Z7blearghv+0x7f4>
    6fd9:	48 8d 0d 94 13 00 00 	lea    0x1394(%rip),%rcx        # 8374 <_IO_stdin_used+0x374>
    6fe0:	ba bf 01 00 00       	mov    $0x1bf,%edx
    6fe5:	48 8d 35 24 13 00 00 	lea    0x1324(%rip),%rsi        # 8310 <_IO_stdin_used+0x310>
    6fec:	48 8d 3d 8f 13 00 00 	lea    0x138f(%rip),%rdi        # 8382 <_IO_stdin_used+0x382>
    6ff3:	e8 58 b2 ff ff       	call   2250 <__assert_fail@plt>
    6ff8:	f3 0f 1e fa          	endbr64 
    6ffc:	48 89 c3             	mov    %rax,%rbx
    6fff:	e9 bc b3 ff ff       	jmp    23c0 <_Z7blearghv.cold>
    7004:	66 2e 0f 1f 84 00 00 	cs nopw 0x0(%rax,%rax,1)
    700b:	00 00 00 
    700e:	66 90                	xchg   %ax,%ax

0000000000007010 <_ZNSt6vectorIiSaIiEE17_M_realloc_insertIJiEEEvN9__gnu_cxx17__normal_iteratorIPiS1_EEDpOT_>:
    7010:	f3 0f 1e fa          	endbr64 
    7014:	41 57                	push   %r15
    7016:	49 89 d7             	mov    %rdx,%r15
    7019:	48 ba ff ff ff ff ff 	movabs $0x1fffffffffffffff,%rdx
    7020:	ff ff 1f 
    7023:	41 56                	push   %r14
    7025:	41 55                	push   %r13
    7027:	41 54                	push   %r12
    7029:	55                   	push   %rbp
    702a:	53                   	push   %rbx
    702b:	48 83 ec 18          	sub    $0x18,%rsp
    702f:	4c 8b 67 08          	mov    0x8(%rdi),%r12
    7033:	4c 8b 37             	mov    (%rdi),%r14
    7036:	4c 89 e0             	mov    %r12,%rax
    7039:	4c 29 f0             	sub    %r14,%rax
    703c:	48 c1 f8 02          	sar    $0x2,%rax
    7040:	48 39 d0             	cmp    %rdx,%rax
    7043:	0f 84 02 01 00 00    	je     714b <_ZNSt6vectorIiSaIiEE17_M_realloc_insertIJiEEEvN9__gnu_cxx17__normal_iteratorIPiS1_EEDpOT_+0x13b>
    7049:	48 85 c0             	test   %rax,%rax
    704c:	ba 01 00 00 00       	mov    $0x1,%edx
    7051:	48 89 fd             	mov    %rdi,%rbp
    7054:	49 89 f5             	mov    %rsi,%r13
    7057:	48 0f 45 d0          	cmovne %rax,%rdx
    705b:	31 c9                	xor    %ecx,%ecx
    705d:	48 01 d0             	add    %rdx,%rax
    7060:	48 89 f2             	mov    %rsi,%rdx
    7063:	0f 92 c1             	setb   %cl
    7066:	4c 29 f2             	sub    %r14,%rdx
    7069:	48 85 c9             	test   %rcx,%rcx
    706c:	0f 85 96 00 00 00    	jne    7108 <_ZNSt6vectorIiSaIiEE17_M_realloc_insertIJiEEEvN9__gnu_cxx17__normal_iteratorIPiS1_EEDpOT_+0xf8>
    7072:	48 85 c0             	test   %rax,%rax
    7075:	0f 85 b5 00 00 00    	jne    7130 <_ZNSt6vectorIiSaIiEE17_M_realloc_insertIJiEEEvN9__gnu_cxx17__normal_iteratorIPiS1_EEDpOT_+0x120>
    707b:	31 db                	xor    %ebx,%ebx
    707d:	31 ff                	xor    %edi,%edi
    707f:	41 8b 07             	mov    (%r15),%eax
    7082:	4d 29 ec             	sub    %r13,%r12
    7085:	4c 8d 7c 17 04       	lea    0x4(%rdi,%rdx,1),%r15
    708a:	66 48 0f 6e c7       	movq   %rdi,%xmm0
    708f:	89 04 17             	mov    %eax,(%rdi,%rdx,1)
    7092:	4b 8d 04 27          	lea    (%r15,%r12,1),%rax
    7096:	66 48 0f 6e c8       	movq   %rax,%xmm1
    709b:	66 0f 6c c1          	punpcklqdq %xmm1,%xmm0
    709f:	0f 29 04 24          	movaps %xmm0,(%rsp)
    70a3:	48 85 d2             	test   %rdx,%rdx
    70a6:	7f 28                	jg     70d0 <_ZNSt6vectorIiSaIiEE17_M_realloc_insertIJiEEEvN9__gnu_cxx17__normal_iteratorIPiS1_EEDpOT_+0xc0>
    70a8:	4d 85 e4             	test   %r12,%r12
    70ab:	7f 43                	jg     70f0 <_ZNSt6vectorIiSaIiEE17_M_realloc_insertIJiEEEvN9__gnu_cxx17__normal_iteratorIPiS1_EEDpOT_+0xe0>
    70ad:	4d 85 f6             	test   %r14,%r14
    70b0:	75 2b                	jne    70dd <_ZNSt6vectorIiSaIiEE17_M_realloc_insertIJiEEEvN9__gnu_cxx17__normal_iteratorIPiS1_EEDpOT_+0xcd>
    70b2:	66 0f 6f 14 24       	movdqa (%rsp),%xmm2
    70b7:	48 89 5d 10          	mov    %rbx,0x10(%rbp)
    70bb:	0f 11 55 00          	movups %xmm2,0x0(%rbp)
    70bf:	48 83 c4 18          	add    $0x18,%rsp
    70c3:	5b                   	pop    %rbx
    70c4:	5d                   	pop    %rbp
    70c5:	41 5c                	pop    %r12
    70c7:	41 5d                	pop    %r13
    70c9:	41 5e                	pop    %r14
    70cb:	41 5f                	pop    %r15
    70cd:	c3                   	ret    
    70ce:	66 90                	xchg   %ax,%ax
    70d0:	4c 89 f6             	mov    %r14,%rsi
    70d3:	e8 c8 b2 ff ff       	call   23a0 <memmove@plt>
    70d8:	4d 85 e4             	test   %r12,%r12
    70db:	7f 13                	jg     70f0 <_ZNSt6vectorIiSaIiEE17_M_realloc_insertIJiEEEvN9__gnu_cxx17__normal_iteratorIPiS1_EEDpOT_+0xe0>
    70dd:	48 8b 75 10          	mov    0x10(%rbp),%rsi
    70e1:	4c 89 f7             	mov    %r14,%rdi
    70e4:	4c 29 f6             	sub    %r14,%rsi
    70e7:	e8 04 b2 ff ff       	call   22f0 <_ZdlPvm@plt>
    70ec:	eb c4                	jmp    70b2 <_ZNSt6vectorIiSaIiEE17_M_realloc_insertIJiEEEvN9__gnu_cxx17__normal_iteratorIPiS1_EEDpOT_+0xa2>
    70ee:	66 90                	xchg   %ax,%ax
    70f0:	4c 89 e2             	mov    %r12,%rdx
    70f3:	4c 89 ee             	mov    %r13,%rsi
    70f6:	4c 89 ff             	mov    %r15,%rdi
    70f9:	e8 a2 b1 ff ff       	call   22a0 <memcpy@plt>
    70fe:	4d 85 f6             	test   %r14,%r14
    7101:	74 af                	je     70b2 <_ZNSt6vectorIiSaIiEE17_M_realloc_insertIJiEEEvN9__gnu_cxx17__normal_iteratorIPiS1_EEDpOT_+0xa2>
    7103:	eb d8                	jmp    70dd <_ZNSt6vectorIiSaIiEE17_M_realloc_insertIJiEEEvN9__gnu_cxx17__normal_iteratorIPiS1_EEDpOT_+0xcd>
    7105:	0f 1f 00             	nopl   (%rax)
    7108:	48 bb fc ff ff ff ff 	movabs $0x7ffffffffffffffc,%rbx
    710f:	ff ff 7f 
    7112:	48 89 df             	mov    %rbx,%rdi
    7115:	48 89 14 24          	mov    %rdx,(%rsp)
    7119:	e8 c2 b1 ff ff       	call   22e0 <_Znwm@plt>
    711e:	48 8b 14 24          	mov    (%rsp),%rdx
    7122:	48 89 c7             	mov    %rax,%rdi
    7125:	48 01 c3             	add    %rax,%rbx
    7128:	e9 52 ff ff ff       	jmp    707f <_ZNSt6vectorIiSaIiEE17_M_realloc_insertIJiEEEvN9__gnu_cxx17__normal_iteratorIPiS1_EEDpOT_+0x6f>
    712d:	0f 1f 00             	nopl   (%rax)
    7130:	48 b9 ff ff ff ff ff 	movabs $0x1fffffffffffffff,%rcx
    7137:	ff ff 1f 
    713a:	48 39 c8             	cmp    %rcx,%rax
    713d:	48 0f 47 c1          	cmova  %rcx,%rax
    7141:	48 8d 1c 85 00 00 00 	lea    0x0(,%rax,4),%rbx
    7148:	00 
    7149:	eb c7                	jmp    7112 <_ZNSt6vectorIiSaIiEE17_M_realloc_insertIJiEEEvN9__gnu_cxx17__normal_iteratorIPiS1_EEDpOT_+0x102>
    714b:	48 8d 3d 46 12 00 00 	lea    0x1246(%rip),%rdi        # 8398 <_IO_stdin_used+0x398>
    7152:	e8 c9 b0 ff ff       	call   2220 <_ZSt20__throw_length_errorPKc@plt>
    7157:	66 0f 1f 84 00 00 00 	nopw   0x0(%rax,%rax,1)
    715e:	00 00 

0000000000007160 <_Z10allocate2djjPPe>:
    7160:	f3 0f 1e fa          	endbr64 
    7164:	41 55                	push   %r13
    7166:	41 89 fd             	mov    %edi,%r13d
    7169:	41 54                	push   %r12
    716b:	55                   	push   %rbp
    716c:	89 f5                	mov    %esi,%ebp
    716e:	53                   	push   %rbx
    716f:	4c 89 eb             	mov    %r13,%rbx
    7172:	49 c1 e5 03          	shl    $0x3,%r13
    7176:	4c 89 ef             	mov    %r13,%rdi
    7179:	48 83 ec 08          	sub    $0x8,%rsp
    717d:	e8 7e b0 ff ff       	call   2200 <_Znam@plt>
    7182:	49 89 c4             	mov    %rax,%r12
    7185:	85 db                	test   %ebx,%ebx
    7187:	74 24                	je     71ad <_Z10allocate2djjPPe+0x4d>
    7189:	48 c1 e5 04          	shl    $0x4,%rbp
    718d:	48 89 c3             	mov    %rax,%rbx
    7190:	49 01 c5             	add    %rax,%r13
    7193:	0f 1f 44 00 00       	nopl   0x0(%rax,%rax,1)
    7198:	48 89 ef             	mov    %rbp,%rdi
    719b:	48 83 c3 08          	add    $0x8,%rbx
    719f:	e8 5c b0 ff ff       	call   2200 <_Znam@plt>
    71a4:	48 89 43 f8          	mov    %rax,-0x8(%rbx)
    71a8:	4c 39 eb             	cmp    %r13,%rbx
    71ab:	75 eb                	jne    7198 <_Z10allocate2djjPPe+0x38>
    71ad:	48 83 c4 08          	add    $0x8,%rsp
    71b1:	4c 89 e0             	mov    %r12,%rax
    71b4:	5b                   	pop    %rbx
    71b5:	5d                   	pop    %rbp
    71b6:	41 5c                	pop    %r12
    71b8:	41 5d                	pop    %r13
    71ba:	c3                   	ret    
    71bb:	0f 1f 44 00 00       	nopl   0x0(%rax,%rax,1)

00000000000071c0 <_Z10allocate3djjj>:
    71c0:	f3 0f 1e fa          	endbr64 
    71c4:	41 57                	push   %r15
    71c6:	48 63 c7             	movslq %edi,%rax
    71c9:	4c 63 fe             	movslq %esi,%r15
    71cc:	41 56                	push   %r14
    71ce:	41 55                	push   %r13
    71d0:	41 54                	push   %r12
    71d2:	49 bc ff ff ff ff ff 	movabs $0xfffffffffffffff,%r12
    71d9:	ff ff 0f 
    71dc:	55                   	push   %rbp
    71dd:	53                   	push   %rbx
    71de:	48 83 ec 28          	sub    $0x28,%rsp
    71e2:	44 89 7c 24 04       	mov    %r15d,0x4(%rsp)
    71e7:	4c 39 e0             	cmp    %r12,%rax
    71ea:	0f 87 13 b2 ff ff    	ja     2403 <_Z10allocate3djjj.cold>
    71f0:	48 8d 3c c5 00 00 00 	lea    0x0(,%rax,8),%rdi
    71f7:	00 
    71f8:	48 89 c3             	mov    %rax,%rbx
    71fb:	89 d5                	mov    %edx,%ebp
    71fd:	e8 fe af ff ff       	call   2200 <_Znam@plt>
    7202:	48 89 44 24 18       	mov    %rax,0x18(%rsp)
    7207:	85 db                	test   %ebx,%ebx
    7209:	0f 8e 97 00 00 00    	jle    72a6 <_Z10allocate3djjj+0xe6>
    720f:	4d 39 e7             	cmp    %r12,%r15
    7212:	0f 87 eb b1 ff ff    	ja     2403 <_Z10allocate3djjj.cold>
    7218:	48 63 c5             	movslq %ebp,%rax
    721b:	89 db                	mov    %ebx,%ebx
    721d:	49 c1 e7 03          	shl    $0x3,%r15
    7221:	49 89 c5             	mov    %rax,%r13
    7224:	48 89 44 24 10       	mov    %rax,0x10(%rsp)
    7229:	48 8b 44 24 18       	mov    0x18(%rsp),%rax
    722e:	49 c1 e5 04          	shl    $0x4,%r13
    7232:	48 89 c5             	mov    %rax,%rbp
    7235:	48 8d 04 d8          	lea    (%rax,%rbx,8),%rax
    7239:	48 89 44 24 08       	mov    %rax,0x8(%rsp)
    723e:	8b 44 24 04          	mov    0x4(%rsp),%eax
    7242:	44 8d 60 ff          	lea    -0x1(%rax),%r12d
    7246:	49 c1 e4 03          	shl    $0x3,%r12
    724a:	66 0f 1f 44 00 00    	nopw   0x0(%rax,%rax,1)
    7250:	4c 89 ff             	mov    %r15,%rdi
    7253:	e8 a8 af ff ff       	call   2200 <_Znam@plt>
    7258:	48 89 45 00          	mov    %rax,0x0(%rbp)
    725c:	48 89 c3             	mov    %rax,%rbx
    725f:	8b 44 24 04          	mov    0x4(%rsp),%eax
    7263:	85 c0                	test   %eax,%eax
    7265:	7e 34                	jle    729b <_Z10allocate3djjj+0xdb>
    7267:	48 b9 ff ff ff ff ff 	movabs $0x7ffffffffffffff,%rcx
    726e:	ff ff 07 
    7271:	48 39 4c 24 10       	cmp    %rcx,0x10(%rsp)
    7276:	77 42                	ja     72ba <_Z10allocate3djjj+0xfa>
    7278:	45 31 f6             	xor    %r14d,%r14d
    727b:	eb 0b                	jmp    7288 <_Z10allocate3djjj+0xc8>
    727d:	0f 1f 00             	nopl   (%rax)
    7280:	48 8b 5d 00          	mov    0x0(%rbp),%rbx
    7284:	49 83 c6 08          	add    $0x8,%r14
    7288:	4c 89 ef             	mov    %r13,%rdi
    728b:	4c 01 f3             	add    %r14,%rbx
    728e:	e8 6d af ff ff       	call   2200 <_Znam@plt>
    7293:	48 89 03             	mov    %rax,(%rbx)
    7296:	4d 39 e6             	cmp    %r12,%r14
    7299:	75 e5                	jne    7280 <_Z10allocate3djjj+0xc0>
    729b:	48 83 c5 08          	add    $0x8,%rbp
    729f:	48 3b 6c 24 08       	cmp    0x8(%rsp),%rbp
    72a4:	75 aa                	jne    7250 <_Z10allocate3djjj+0x90>
    72a6:	48 8b 44 24 18       	mov    0x18(%rsp),%rax
    72ab:	48 83 c4 28          	add    $0x28,%rsp
    72af:	5b                   	pop    %rbx
    72b0:	5d                   	pop    %rbp
    72b1:	41 5c                	pop    %r12
    72b3:	41 5d                	pop    %r13
    72b5:	41 5e                	pop    %r14
    72b7:	41 5f                	pop    %r15
    72b9:	c3                   	ret    
    72ba:	e9 44 b1 ff ff       	jmp    2403 <_Z10allocate3djjj.cold>
    72bf:	90                   	nop

00000000000072c0 <_Z11allocate3dtjjj>:
    72c0:	f3 0f 1e fa          	endbr64 
    72c4:	41 57                	push   %r15
    72c6:	48 63 c7             	movslq %edi,%rax
    72c9:	41 56                	push   %r14
    72cb:	41 55                	push   %r13
    72cd:	41 54                	push   %r12
    72cf:	55                   	push   %rbp
    72d0:	53                   	push   %rbx
    72d1:	48 bb ff ff ff ff ff 	movabs $0xfffffffffffffff,%rbx
    72d8:	ff ff 0f 
    72db:	48 83 ec 58          	sub    $0x58,%rsp
    72df:	89 74 24 40          	mov    %esi,0x40(%rsp)
    72e3:	89 54 24 44          	mov    %edx,0x44(%rsp)
    72e7:	48 39 d8             	cmp    %rbx,%rax
    72ea:	0f 87 18 b1 ff ff    	ja     2408 <_Z11allocate3dtjjj.cold>
    72f0:	48 8d 3c c5 00 00 00 	lea    0x0(,%rax,8),%rdi
    72f7:	00 
    72f8:	49 89 c4             	mov    %rax,%r12
    72fb:	e8 00 af ff ff       	call   2200 <_Znam@plt>
    7300:	48 89 44 24 38       	mov    %rax,0x38(%rsp)
    7305:	45 85 e4             	test   %r12d,%r12d
    7308:	0f 8e 7d 02 00 00    	jle    758b <_Z11allocate3dtjjj+0x2cb>
    730e:	48 63 44 24 40       	movslq 0x40(%rsp),%rax
    7313:	48 39 d8             	cmp    %rbx,%rax
    7316:	0f 87 ec b0 ff ff    	ja     2408 <_Z11allocate3dtjjj.cold>
    731c:	48 8b 74 24 38       	mov    0x38(%rsp),%rsi
    7321:	48 c1 e0 03          	shl    $0x3,%rax
    7325:	48 63 7c 24 44       	movslq 0x44(%rsp),%rdi
    732a:	48 89 44 24 28       	mov    %rax,0x28(%rsp)
    732f:	44 89 e0             	mov    %r12d,%eax
    7332:	48 89 44 24 48       	mov    %rax,0x48(%rsp)
    7337:	48 8d 04 c6          	lea    (%rsi,%rax,8),%rax
    733b:	48 8d 2c ff          	lea    (%rdi,%rdi,8),%rbp
    733f:	48 89 44 24 30       	mov    %rax,0x30(%rsp)
    7344:	8b 44 24 40          	mov    0x40(%rsp),%eax
    7348:	48 8d 5f ff          	lea    -0x1(%rdi),%rbx
    734c:	48 c1 e5 03          	shl    $0x3,%rbp
    7350:	48 89 7c 24 08       	mov    %rdi,0x8(%rsp)
    7355:	83 e8 01             	sub    $0x1,%eax
    7358:	4c 8d 24 c5 08 00 00 	lea    0x8(,%rax,8),%r12
    735f:	00 
    7360:	48 89 f8             	mov    %rdi,%rax
    7363:	48 83 e7 fe          	and    $0xfffffffffffffffe,%rdi
    7367:	48 d1 e8             	shr    %rax
    736a:	4c 8d 34 ff          	lea    (%rdi,%rdi,8),%r14
    736e:	48 89 7c 24 10       	mov    %rdi,0x10(%rsp)
    7373:	4c 8d 3c c0          	lea    (%rax,%rax,8),%r15
    7377:	4a 8d 04 f5 00 00 00 	lea    0x0(,%r14,8),%rax
    737e:	00 
    737f:	49 89 f6             	mov    %rsi,%r14
    7382:	48 89 44 24 18       	mov    %rax,0x18(%rsp)
    7387:	48 89 d8             	mov    %rbx,%rax
    738a:	49 c1 e7 04          	shl    $0x4,%r15
    738e:	48 29 f8             	sub    %rdi,%rax
    7391:	48 89 44 24 20       	mov    %rax,0x20(%rsp)
    7396:	66 2e 0f 1f 84 00 00 	cs nopw 0x0(%rax,%rax,1)
    739d:	00 00 00 
    73a0:	48 8b 7c 24 28       	mov    0x28(%rsp),%rdi
    73a5:	e8 56 ae ff ff       	call   2200 <_Znam@plt>
    73aa:	49 89 06             	mov    %rax,(%r14)
    73ad:	8b 44 24 40          	mov    0x40(%rsp),%eax
    73b1:	85 c0                	test   %eax,%eax
    73b3:	0f 8e ee 00 00 00    	jle    74a7 <_Z11allocate3dtjjj+0x1e7>
    73b9:	48 bf c7 71 1c c7 71 	movabs $0x1c71c71c71c71c7,%rdi
    73c0:	1c c7 01 
    73c3:	48 39 7c 24 08       	cmp    %rdi,0x8(%rsp)
    73c8:	0f 87 3a b0 ff ff    	ja     2408 <_Z11allocate3dtjjj.cold>
    73ce:	31 c0                	xor    %eax,%eax
    73d0:	4d 89 f5             	mov    %r14,%r13
    73d3:	49 89 c6             	mov    %rax,%r14
    73d6:	66 2e 0f 1f 84 00 00 	cs nopw 0x0(%rax,%rax,1)
    73dd:	00 00 00 
    73e0:	48 89 ef             	mov    %rbp,%rdi
    73e3:	e8 18 ae ff ff       	call   2200 <_Znam@plt>
    73e8:	48 83 fb ff          	cmp    $0xffffffffffffffff,%rbx
    73ec:	66 0f 28 05 cc 10 00 	movapd 0x10cc(%rip),%xmm0        # 84c0 <_IO_stdin_used+0x4c0>
    73f3:	00 
    73f4:	0f 84 95 00 00 00    	je     748f <_Z11allocate3dtjjj+0x1cf>
    73fa:	48 83 fb 01          	cmp    $0x1,%rbx
    73fe:	0f 86 4d 01 00 00    	jbe    7551 <_Z11allocate3dtjjj+0x291>
    7404:	48 89 c2             	mov    %rax,%rdx
    7407:	4a 8d 0c 38          	lea    (%rax,%r15,1),%rcx
    740b:	66 0f 28 c8          	movapd %xmm0,%xmm1
    740f:	90                   	nop
    7410:	0f 11 02             	movups %xmm0,(%rdx)
    7413:	48 81 c2 90 00 00 00 	add    $0x90,%rdx
    741a:	0f 11 42 80          	movups %xmm0,-0x80(%rdx)
    741e:	0f 11 42 90          	movups %xmm0,-0x70(%rdx)
    7422:	0f 11 42 a0          	movups %xmm0,-0x60(%rdx)
    7426:	0f 11 42 b0          	movups %xmm0,-0x50(%rdx)
    742a:	0f 11 42 c0          	movups %xmm0,-0x40(%rdx)
    742e:	0f 11 42 d0          	movups %xmm0,-0x30(%rdx)
    7432:	0f 11 42 e0          	movups %xmm0,-0x20(%rdx)
    7436:	0f 11 42 f0          	movups %xmm0,-0x10(%rdx)
    743a:	48 39 d1             	cmp    %rdx,%rcx
    743d:	75 d1                	jne    7410 <_Z11allocate3dtjjj+0x150>
    743f:	48 8b 74 24 18       	mov    0x18(%rsp),%rsi
    7444:	48 8d 14 30          	lea    (%rax,%rsi,1),%rdx
    7448:	48 8b 74 24 10       	mov    0x10(%rsp),%rsi
    744d:	48 39 74 24 08       	cmp    %rsi,0x8(%rsp)
    7452:	74 3b                	je     748f <_Z11allocate3dtjjj+0x1cf>
    7454:	48 8b 4c 24 20       	mov    0x20(%rsp),%rcx
    7459:	48 8b 3d 60 10 00 00 	mov    0x1060(%rip),%rdi        # 84c0 <_IO_stdin_used+0x4c0>
    7460:	0f 11 0a             	movups %xmm1,(%rdx)
    7463:	0f 11 4a 10          	movups %xmm1,0x10(%rdx)
    7467:	48 89 7a 40          	mov    %rdi,0x40(%rdx)
    746b:	0f 11 4a 20          	movups %xmm1,0x20(%rdx)
    746f:	0f 11 4a 30          	movups %xmm1,0x30(%rdx)
    7473:	48 85 c9             	test   %rcx,%rcx
    7476:	74 17                	je     748f <_Z11allocate3dtjjj+0x1cf>
    7478:	48 89 ba 88 00 00 00 	mov    %rdi,0x88(%rdx)
    747f:	0f 11 4a 48          	movups %xmm1,0x48(%rdx)
    7483:	0f 11 4a 58          	movups %xmm1,0x58(%rdx)
    7487:	0f 11 4a 68          	movups %xmm1,0x68(%rdx)
    748b:	0f 11 4a 78          	movups %xmm1,0x78(%rdx)
    748f:	49 8b 55 00          	mov    0x0(%r13),%rdx
    7493:	4a 89 04 32          	mov    %rax,(%rdx,%r14,1)
    7497:	49 83 c6 08          	add    $0x8,%r14
    749b:	4d 39 f4             	cmp    %r14,%r12
    749e:	0f 85 3c ff ff ff    	jne    73e0 <_Z11allocate3dtjjj+0x120>
    74a4:	4d 89 ee             	mov    %r13,%r14
    74a7:	49 83 c6 08          	add    $0x8,%r14
    74ab:	4c 3b 74 24 30       	cmp    0x30(%rsp),%r14
    74b0:	0f 85 ea fe ff ff    	jne    73a0 <_Z11allocate3dtjjj+0xe0>
    74b6:	48 8b 74 24 48       	mov    0x48(%rsp),%rsi
    74bb:	48 8d 3d 7e 3b 00 00 	lea    0x3b7e(%rip),%rdi        # b040 <_ZSt4cout@GLIBCXX_3.4>
    74c2:	4c 8d 25 cb 0e 00 00 	lea    0xecb(%rip),%r12        # 8394 <_IO_stdin_used+0x394>
    74c9:	e8 a2 ad ff ff       	call   2270 <_ZNSo9_M_insertImEERSoT_@plt>
    74ce:	ba 01 00 00 00       	mov    $0x1,%edx
    74d3:	4c 89 e6             	mov    %r12,%rsi
    74d6:	48 89 c7             	mov    %rax,%rdi
    74d9:	48 89 c5             	mov    %rax,%rbp
    74dc:	e8 3f ae ff ff       	call   2320 <_ZSt16__ostream_insertIcSt11char_traitsIcEERSt13basic_ostreamIT_T0_ES6_PKS3_l@plt>
    74e1:	8b 74 24 40          	mov    0x40(%rsp),%esi
    74e5:	48 89 ef             	mov    %rbp,%rdi
    74e8:	e8 83 ad ff ff       	call   2270 <_ZNSo9_M_insertImEERSoT_@plt>
    74ed:	4c 89 e6             	mov    %r12,%rsi
    74f0:	ba 01 00 00 00       	mov    $0x1,%edx
    74f5:	48 89 c7             	mov    %rax,%rdi
    74f8:	48 89 c5             	mov    %rax,%rbp
    74fb:	e8 20 ae ff ff       	call   2320 <_ZSt16__ostream_insertIcSt11char_traitsIcEERSt13basic_ostreamIT_T0_ES6_PKS3_l@plt>
    7500:	8b 74 24 44          	mov    0x44(%rsp),%esi
    7504:	48 89 ef             	mov    %rbp,%rdi
    7507:	e8 64 ad ff ff       	call   2270 <_ZNSo9_M_insertImEERSoT_@plt>
    750c:	49 89 c4             	mov    %rax,%r12
    750f:	48 8b 00             	mov    (%rax),%rax
    7512:	48 8b 40 e8          	mov    -0x18(%rax),%rax
    7516:	49 8b ac 04 f0 00 00 	mov    0xf0(%r12,%rax,1),%rbp
    751d:	00 
    751e:	48 85 ed             	test   %rbp,%rbp
    7521:	74 75                	je     7598 <_Z11allocate3dtjjj+0x2d8>
    7523:	80 7d 38 00          	cmpb   $0x0,0x38(%rbp)
    7527:	74 37                	je     7560 <_Z11allocate3dtjjj+0x2a0>
    7529:	0f be 75 43          	movsbl 0x43(%rbp),%esi
    752d:	4c 89 e7             	mov    %r12,%rdi
    7530:	e8 db ac ff ff       	call   2210 <_ZNSo3putEc@plt>
    7535:	48 89 c7             	mov    %rax,%rdi
    7538:	e8 43 ad ff ff       	call   2280 <_ZNSo5flushEv@plt>
    753d:	48 8b 44 24 38       	mov    0x38(%rsp),%rax
    7542:	48 83 c4 58          	add    $0x58,%rsp
    7546:	5b                   	pop    %rbx
    7547:	5d                   	pop    %rbp
    7548:	41 5c                	pop    %r12
    754a:	41 5d                	pop    %r13
    754c:	41 5e                	pop    %r14
    754e:	41 5f                	pop    %r15
    7550:	c3                   	ret    
    7551:	48 89 d9             	mov    %rbx,%rcx
    7554:	48 89 c2             	mov    %rax,%rdx
    7557:	66 0f 28 c8          	movapd %xmm0,%xmm1
    755b:	e9 f9 fe ff ff       	jmp    7459 <_Z11allocate3dtjjj+0x199>
    7560:	48 89 ef             	mov    %rbp,%rdi
    7563:	e8 c8 ad ff ff       	call   2330 <_ZNKSt5ctypeIcE13_M_widen_initEv@plt>
    7568:	48 8b 45 00          	mov    0x0(%rbp),%rax
    756c:	be 0a 00 00 00       	mov    $0xa,%esi
    7571:	48 8d 15 48 01 00 00 	lea    0x148(%rip),%rdx        # 76c0 <_ZNKSt5ctypeIcE8do_widenEc>
    7578:	48 8b 40 30          	mov    0x30(%rax),%rax
    757c:	48 39 d0             	cmp    %rdx,%rax
    757f:	74 ac                	je     752d <_Z11allocate3dtjjj+0x26d>
    7581:	48 89 ef             	mov    %rbp,%rdi
    7584:	ff d0                	call   *%rax
    7586:	0f be f0             	movsbl %al,%esi
    7589:	eb a2                	jmp    752d <_Z11allocate3dtjjj+0x26d>
    758b:	44 89 e0             	mov    %r12d,%eax
    758e:	48 89 44 24 48       	mov    %rax,0x48(%rsp)
    7593:	e9 1e ff ff ff       	jmp    74b6 <_Z11allocate3dtjjj+0x1f6>
    7598:	e8 c3 ad ff ff       	call   2360 <_ZSt16__throw_bad_castv@plt>
    759d:	0f 1f 00             	nopl   (%rax)

00000000000075a0 <_Z10allocate4djjjj>:
    75a0:	f3 0f 1e fa          	endbr64 
    75a4:	41 57                	push   %r15
    75a6:	41 89 cf             	mov    %ecx,%r15d
    75a9:	41 56                	push   %r14
    75ab:	41 89 f6             	mov    %esi,%r14d
    75ae:	41 55                	push   %r13
    75b0:	41 89 fd             	mov    %edi,%r13d
    75b3:	41 54                	push   %r12
    75b5:	55                   	push   %rbp
    75b6:	4c 89 ed             	mov    %r13,%rbp
    75b9:	49 c1 e5 03          	shl    $0x3,%r13
    75bd:	53                   	push   %rbx
    75be:	4c 89 ef             	mov    %r13,%rdi
    75c1:	89 d3                	mov    %edx,%ebx
    75c3:	48 83 ec 38          	sub    $0x38,%rsp
    75c7:	89 74 24 24          	mov    %esi,0x24(%rsp)
    75cb:	89 4c 24 20          	mov    %ecx,0x20(%rsp)
    75cf:	e8 2c ac ff ff       	call   2200 <_Znam@plt>
    75d4:	48 89 44 24 28       	mov    %rax,0x28(%rsp)
    75d9:	85 ed                	test   %ebp,%ebp
    75db:	0f 84 ca 00 00 00    	je     76ab <_Z10allocate4djjjj+0x10b>
    75e1:	48 89 c6             	mov    %rax,%rsi
    75e4:	44 89 f0             	mov    %r14d,%eax
    75e7:	45 89 fc             	mov    %r15d,%r12d
    75ea:	48 89 c2             	mov    %rax,%rdx
    75ed:	48 c1 e0 03          	shl    $0x3,%rax
    75f1:	4c 89 e1             	mov    %r12,%rcx
    75f4:	49 01 f5             	add    %rsi,%r13
    75f7:	48 89 44 24 10       	mov    %rax,0x10(%rsp)
    75fc:	48 8d 04 dd 00 00 00 	lea    0x0(,%rbx,8),%rax
    7603:	00 
    7604:	49 c1 e4 04          	shl    $0x4,%r12
    7608:	48 89 f5             	mov    %rsi,%rbp
    760b:	48 89 04 24          	mov    %rax,(%rsp)
    760f:	8d 42 ff             	lea    -0x1(%rdx),%eax
    7612:	48 c1 e0 03          	shl    $0x3,%rax
    7616:	4c 89 6c 24 18       	mov    %r13,0x18(%rsp)
    761b:	48 89 44 24 08       	mov    %rax,0x8(%rsp)
    7620:	8d 41 ff             	lea    -0x1(%rcx),%eax
    7623:	4c 8d 2c c5 08 00 00 	lea    0x8(,%rax,8),%r13
    762a:	00 
    762b:	0f 1f 44 00 00       	nopl   0x0(%rax,%rax,1)
    7630:	48 8b 7c 24 10       	mov    0x10(%rsp),%rdi
    7635:	e8 c6 ab ff ff       	call   2200 <_Znam@plt>
    763a:	8b 54 24 24          	mov    0x24(%rsp),%edx
    763e:	48 89 45 00          	mov    %rax,0x0(%rbp)
    7642:	49 89 c6             	mov    %rax,%r14
    7645:	85 d2                	test   %edx,%edx
    7647:	74 57                	je     76a0 <_Z10allocate4djjjj+0x100>
    7649:	31 db                	xor    %ebx,%ebx
    764b:	0f 1f 44 00 00       	nopl   0x0(%rax,%rax,1)
    7650:	48 8b 3c 24          	mov    (%rsp),%rdi
    7654:	49 01 de             	add    %rbx,%r14
    7657:	e8 a4 ab ff ff       	call   2200 <_Znam@plt>
    765c:	49 89 06             	mov    %rax,(%r14)
    765f:	8b 44 24 20          	mov    0x20(%rsp),%eax
    7663:	45 31 f6             	xor    %r14d,%r14d
    7666:	85 c0                	test   %eax,%eax
    7668:	74 25                	je     768f <_Z10allocate4djjjj+0xef>
    766a:	66 0f 1f 44 00 00    	nopw   0x0(%rax,%rax,1)
    7670:	48 8b 45 00          	mov    0x0(%rbp),%rax
    7674:	4c 89 e7             	mov    %r12,%rdi
    7677:	4c 8b 3c 18          	mov    (%rax,%rbx,1),%r15
    767b:	e8 80 ab ff ff       	call   2200 <_Znam@plt>
    7680:	4d 01 f7             	add    %r14,%r15
    7683:	49 83 c6 08          	add    $0x8,%r14
    7687:	49 89 07             	mov    %rax,(%r15)
    768a:	4d 39 ee             	cmp    %r13,%r14
    768d:	75 e1                	jne    7670 <_Z10allocate4djjjj+0xd0>
    768f:	48 39 5c 24 08       	cmp    %rbx,0x8(%rsp)
    7694:	74 0a                	je     76a0 <_Z10allocate4djjjj+0x100>
    7696:	4c 8b 75 00          	mov    0x0(%rbp),%r14
    769a:	48 83 c3 08          	add    $0x8,%rbx
    769e:	eb b0                	jmp    7650 <_Z10allocate4djjjj+0xb0>
    76a0:	48 83 c5 08          	add    $0x8,%rbp
    76a4:	48 3b 6c 24 18       	cmp    0x18(%rsp),%rbp
    76a9:	75 85                	jne    7630 <_Z10allocate4djjjj+0x90>
    76ab:	48 8b 44 24 28       	mov    0x28(%rsp),%rax
    76b0:	48 83 c4 38          	add    $0x38,%rsp
    76b4:	5b                   	pop    %rbx
    76b5:	5d                   	pop    %rbp
    76b6:	41 5c                	pop    %r12
    76b8:	41 5d                	pop    %r13
    76ba:	41 5e                	pop    %r14
    76bc:	41 5f                	pop    %r15
    76be:	c3                   	ret    
    76bf:	90                   	nop

00000000000076c0 <_ZNKSt5ctypeIcE8do_widenEc>:
    76c0:	f3 0f 1e fa          	endbr64 
    76c4:	89 f0                	mov    %esi,%eax
    76c6:	c3                   	ret    
    76c7:	66 0f 1f 84 00 00 00 	nopw   0x0(%rax,%rax,1)
    76ce:	00 00 

00000000000076d0 <_Z5shearddd>:
    76d0:	f3 0f 1e fa          	endbr64 
    76d4:	f2 0f 10 05 c4 0d 00 	movsd  0xdc4(%rip),%xmm0        # 84a0 <_IO_stdin_used+0x4a0>
    76db:	00 
    76dc:	66 0f 28 d9          	movapd %xmm1,%xmm3
    76e0:	66 0f ef f6          	pxor   %xmm6,%xmm6
    76e4:	48 89 f8             	mov    %rdi,%rax
    76e7:	f2 0f 10 25 e1 0d 00 	movsd  0xde1(%rip),%xmm4        # 84d0 <_IO_stdin_used+0x4d0>
    76ee:	00 
    76ef:	48 c7 47 38 00 00 00 	movq   $0x0,0x38(%rdi)
    76f6:	00 
    76f7:	f2 0f 59 d8          	mulsd  %xmm0,%xmm3
    76fb:	48 c7 47 40 00 00 00 	movq   $0x0,0x40(%rdi)
    7702:	00 
    7703:	f2 0f 59 d9          	mulsd  %xmm1,%xmm3
    7707:	f2 0f 58 cc          	addsd  %xmm4,%xmm1
    770b:	f2 0f 59 c1          	mulsd  %xmm1,%xmm0
    770f:	66 0f 28 d3          	movapd %xmm3,%xmm2
    7713:	f2 0f 5c d3          	subsd  %xmm3,%xmm2
    7717:	f2 0f 59 c1          	mulsd  %xmm1,%xmm0
    771b:	f2 0f 5e d4          	divsd  %xmm4,%xmm2
    771f:	f2 0f 5c c3          	subsd  %xmm3,%xmm0
    7723:	f2 0f 5e c4          	divsd  %xmm4,%xmm0
    7727:	66 0f 28 ea          	movapd %xmm2,%xmm5
    772b:	f2 0f 58 d2          	addsd  %xmm2,%xmm2
    772f:	f2 0f 58 ee          	addsd  %xmm6,%xmm5
    7733:	66 0f 28 cd          	movapd %xmm5,%xmm1
    7737:	f2 0f 11 6f 30       	movsd  %xmm5,0x30(%rdi)
    773c:	f2 0f 58 c6          	addsd  %xmm6,%xmm0
    7740:	66 0f 14 d0          	unpcklpd %xmm0,%xmm2
    7744:	66 0f 14 c8          	unpcklpd %xmm0,%xmm1
    7748:	66 0f ef c0          	pxor   %xmm0,%xmm0
    774c:	0f 11 17             	movups %xmm2,(%rdi)
    774f:	0f 11 4f 10          	movups %xmm1,0x10(%rdi)
    7753:	0f 11 47 20          	movups %xmm0,0x20(%rdi)
    7757:	c3                   	ret    
    7758:	0f 1f 84 00 00 00 00 	nopl   0x0(%rax,%rax,1)
    775f:	00 

0000000000007760 <_Z6stressdddd>:
    7760:	f3 0f 1e fa          	endbr64 
    7764:	66 0f 28 e0          	movapd %xmm0,%xmm4
    7768:	66 0f 28 ea          	movapd %xmm2,%xmm5
    776c:	66 0f ef db          	pxor   %xmm3,%xmm3
    7770:	48 89 f8             	mov    %rdi,%rax
    7773:	f2 0f 10 05 25 0d 00 	movsd  0xd25(%rip),%xmm0        # 84a0 <_IO_stdin_used+0x4a0>
    777a:	00 
    777b:	f2 0f 10 35 4d 0d 00 	movsd  0xd4d(%rip),%xmm6        # 84d0 <_IO_stdin_used+0x4d0>
    7782:	00 
    7783:	48 c7 47 28 00 00 00 	movq   $0x0,0x28(%rdi)
    778a:	00 
    778b:	48 c7 47 38 00 00 00 	movq   $0x0,0x38(%rdi)
    7792:	00 
    7793:	f2 0f 59 e8          	mulsd  %xmm0,%xmm5
    7797:	f2 0f 59 ea          	mulsd  %xmm2,%xmm5
    779b:	f2 0f 58 d6          	addsd  %xmm6,%xmm2
    779f:	f2 0f 59 c2          	mulsd  %xmm2,%xmm0
    77a3:	66 0f 28 cd          	movapd %xmm5,%xmm1
    77a7:	f2 0f 5c cd          	subsd  %xmm5,%xmm1
    77ab:	f2 0f 59 c2          	mulsd  %xmm2,%xmm0
    77af:	f2 0f 5e ce          	divsd  %xmm6,%xmm1
    77b3:	f2 0f 5c c5          	subsd  %xmm5,%xmm0
    77b7:	f2 0f 5e c6          	divsd  %xmm6,%xmm0
    77bb:	66 0f 28 f9          	movapd %xmm1,%xmm7
    77bf:	f2 0f 58 c9          	addsd  %xmm1,%xmm1
    77c3:	f2 0f 58 fb          	addsd  %xmm3,%xmm7
    77c7:	f2 0f 58 cc          	addsd  %xmm4,%xmm1
    77cb:	f2 0f 11 7f 30       	movsd  %xmm7,0x30(%rdi)
    77d0:	f2 0f 58 c3          	addsd  %xmm3,%xmm0
    77d4:	f2 0f 58 dc          	addsd  %xmm4,%xmm3
    77d8:	66 0f 14 c8          	unpcklpd %xmm0,%xmm1
    77dc:	f2 0f 11 5f 20       	movsd  %xmm3,0x20(%rdi)
    77e1:	0f 11 0f             	movups %xmm1,(%rdi)
    77e4:	66 0f 28 cf          	movapd %xmm7,%xmm1
    77e8:	66 0f 14 c8          	unpcklpd %xmm0,%xmm1
    77ec:	f2 0f 11 5f 40       	movsd  %xmm3,0x40(%rdi)
    77f1:	0f 11 4f 10          	movups %xmm1,0x10(%rdi)
    77f5:	c3                   	ret    
    77f6:	66 2e 0f 1f 84 00 00 	cs nopw 0x0(%rax,%rax,1)
    77fd:	00 00 00 

0000000000007800 <_Z4diffdddi>:
    7800:	f3 0f 1e fa          	endbr64 
    7804:	48 89 f8             	mov    %rdi,%rax
    7807:	83 fe 02             	cmp    $0x2,%esi
    780a:	74 3c                	je     7848 <_Z4diffdddi+0x48>
    780c:	f2 0f 10 05 8c 0c 00 	movsd  0xc8c(%rip),%xmm0        # 84a0 <_IO_stdin_used+0x4a0>
    7813:	00 
    7814:	48 c7 47 08 00 00 00 	movq   $0x0,0x8(%rdi)
    781b:	00 
    781c:	48 c7 47 10 00 00 00 	movq   $0x0,0x10(%rdi)
    7823:	00 
    7824:	f2 0f 59 c1          	mulsd  %xmm1,%xmm0
    7828:	f2 0f 59 c1          	mulsd  %xmm1,%xmm0
    782c:	f2 0f 5c c0          	subsd  %xmm0,%xmm0
    7830:	f2 0f 5e 05 98 0c 00 	divsd  0xc98(%rip),%xmm0        # 84d0 <_IO_stdin_used+0x4d0>
    7837:	00 
    7838:	f2 0f 11 07          	movsd  %xmm0,(%rdi)
    783c:	83 fe 03             	cmp    $0x3,%esi
    783f:	75 57                	jne    7898 <_Z4diffdddi+0x98>
    7841:	c3                   	ret    
    7842:	66 0f 1f 44 00 00    	nopw   0x0(%rax,%rax,1)
    7848:	f2 0f 10 1d 80 0c 00 	movsd  0xc80(%rip),%xmm3        # 84d0 <_IO_stdin_used+0x4d0>
    784f:	00 
    7850:	66 0f 28 e1          	movapd %xmm1,%xmm4
    7854:	f2 0f 10 15 44 0c 00 	movsd  0xc44(%rip),%xmm2        # 84a0 <_IO_stdin_used+0x4a0>
    785b:	00 
    785c:	48 c7 47 08 00 00 00 	movq   $0x0,0x8(%rdi)
    7863:	00 
    7864:	48 c7 47 10 00 00 00 	movq   $0x0,0x10(%rdi)
    786b:	00 
    786c:	f2 0f 58 e3          	addsd  %xmm3,%xmm4
    7870:	66 0f 28 c4          	movapd %xmm4,%xmm0
    7874:	f2 0f 59 c2          	mulsd  %xmm2,%xmm0
    7878:	f2 0f 59 d1          	mulsd  %xmm1,%xmm2
    787c:	f2 0f 59 c4          	mulsd  %xmm4,%xmm0
    7880:	f2 0f 59 d1          	mulsd  %xmm1,%xmm2
    7884:	f2 0f 5c c2          	subsd  %xmm2,%xmm0
    7888:	f2 0f 5e c3          	divsd  %xmm3,%xmm0
    788c:	f2 0f 11 07          	movsd  %xmm0,(%rdi)
    7890:	c3                   	ret    
    7891:	0f 1f 80 00 00 00 00 	nopl   0x0(%rax)
    7898:	c3                   	ret    
    7899:	0f 1f 80 00 00 00 00 	nopl   0x0(%rax)

00000000000078a0 <_Z7partdifPPPPdiiiiiii>:
    78a0:	f3 0f 1e fa          	endbr64 
    78a4:	8b 44 24 10          	mov    0x10(%rsp),%eax
    78a8:	41 89 f2             	mov    %esi,%r10d
    78ab:	66 0f ef c0          	pxor   %xmm0,%xmm0
    78af:	89 d6                	mov    %edx,%esi
    78b1:	83 e8 01             	sub    $0x1,%eax
    78b4:	83 f8 02             	cmp    $0x2,%eax
    78b7:	0f 87 8c 00 00 00    	ja     7949 <_Z7partdifPPPPdiiiiiii+0xa9>
    78bd:	48 63 44 24 08       	movslq 0x8(%rsp),%rax
    78c2:	49 63 d2             	movslq %r10d,%rdx
    78c5:	66 0f ef d2          	pxor   %xmm2,%xmm2
    78c9:	f2 41 0f 2a d1       	cvtsi2sd %r9d,%xmm2
    78ce:	48 8b 3c c7          	mov    (%rdi,%rax,8),%rdi
    78d2:	48 63 c6             	movslq %esi,%rax
    78d5:	48 63 f1             	movslq %ecx,%rsi
    78d8:	48 8b 14 d7          	mov    (%rdi,%rdx,8),%rdx
    78dc:	48 8b 04 c2          	mov    (%rdx,%rax,8),%rax
    78e0:	48 8d 14 f5 00 00 00 	lea    0x0(,%rsi,8),%rdx
    78e7:	00 
    78e8:	85 c9                	test   %ecx,%ecx
    78ea:	7e 2c                	jle    7918 <_Z7partdifPPPPdiiiiiii+0x78>
    78ec:	41 83 e8 01          	sub    $0x1,%r8d
    78f0:	f2 0f 10 4c 10 08    	movsd  0x8(%rax,%rdx,1),%xmm1
    78f6:	41 39 c8             	cmp    %ecx,%r8d
    78f9:	7e 55                	jle    7950 <_Z7partdifPPPPdiiiiiii+0xb0>
    78fb:	f2 0f 5c 4c 10 f8    	subsd  -0x8(%rax,%rdx,1),%xmm1
    7901:	f2 0f 59 0d cf 0b 00 	mulsd  0xbcf(%rip),%xmm1        # 84d8 <_IO_stdin_used+0x4d8>
    7908:	00 
    7909:	f2 0f 5e ca          	divsd  %xmm2,%xmm1
    790d:	66 0f 28 c1          	movapd %xmm1,%xmm0
    7911:	c3                   	ret    
    7912:	66 0f 1f 44 00 00    	nopw   0x0(%rax,%rax,1)
    7918:	f2 0f 10 05 88 0b 00 	movsd  0xb88(%rip),%xmm0        # 84a8 <_IO_stdin_used+0x4a8>
    791f:	00 
    7920:	f2 0f 10 0d 78 0b 00 	movsd  0xb78(%rip),%xmm1        # 84a0 <_IO_stdin_used+0x4a0>
    7927:	00 
    7928:	f2 0f 59 04 f0       	mulsd  (%rax,%rsi,8),%xmm0
    792d:	f2 0f 59 4c 10 f8    	mulsd  -0x8(%rax,%rdx,1),%xmm1
    7933:	f2 0f 5c c1          	subsd  %xmm1,%xmm0
    7937:	f2 0f 58 44 10 f0    	addsd  -0x10(%rax,%rdx,1),%xmm0
    793d:	f2 0f 59 05 93 0b 00 	mulsd  0xb93(%rip),%xmm0        # 84d8 <_IO_stdin_used+0x4d8>
    7944:	00 
    7945:	f2 0f 5e c2          	divsd  %xmm2,%xmm0
    7949:	c3                   	ret    
    794a:	66 0f 1f 44 00 00    	nopw   0x0(%rax,%rax,1)
    7950:	f2 0f 59 0d 48 0b 00 	mulsd  0xb48(%rip),%xmm1        # 84a0 <_IO_stdin_used+0x4a0>
    7957:	00 
    7958:	f2 0f 10 05 80 0b 00 	movsd  0xb80(%rip),%xmm0        # 84e0 <_IO_stdin_used+0x4e0>
    795f:	00 
    7960:	f2 0f 59 04 f0       	mulsd  (%rax,%rsi,8),%xmm0
    7965:	f2 0f 58 c1          	addsd  %xmm1,%xmm0
    7969:	f2 0f 5c 44 10 10    	subsd  0x10(%rax,%rdx,1),%xmm0
    796f:	f2 0f 59 05 61 0b 00 	mulsd  0xb61(%rip),%xmm0        # 84d8 <_IO_stdin_used+0x4d8>
    7976:	00 
    7977:	f2 0f 5e c2          	divsd  %xmm2,%xmm0
    797b:	c3                   	ret    
    797c:	0f 1f 40 00          	nopl   0x0(%rax)

0000000000007980 <_Z8velocityddd>:
    7980:	f3 0f 1e fa          	endbr64 
    7984:	f2 0f 10 05 14 0b 00 	movsd  0xb14(%rip),%xmm0        # 84a0 <_IO_stdin_used+0x4a0>
    798b:	00 
    798c:	48 c7 47 08 00 00 00 	movq   $0x0,0x8(%rdi)
    7993:	00 
    7994:	48 89 f8             	mov    %rdi,%rax
    7997:	48 c7 47 10 00 00 00 	movq   $0x0,0x10(%rdi)
    799e:	00 
    799f:	f2 0f 59 c1          	mulsd  %xmm1,%xmm0
    79a3:	f2 0f 59 c1          	mulsd  %xmm1,%xmm0
    79a7:	f2 0f 11 07          	movsd  %xmm0,(%rdi)
    79ab:	c3                   	ret    
    79ac:	0f 1f 40 00          	nopl   0x0(%rax)

00000000000079b0 <_Z10divvadvecvddd>:
    79b0:	f3 0f 1e fa          	endbr64 
    79b4:	f2 0f 10 05 e4 0a 00 	movsd  0xae4(%rip),%xmm0        # 84a0 <_IO_stdin_used+0x4a0>
    79bb:	00 
    79bc:	66 0f 28 d1          	movapd %xmm1,%xmm2
    79c0:	66 0f ef ed          	pxor   %xmm5,%xmm5
    79c4:	48 89 f8             	mov    %rdi,%rax
    79c7:	f2 0f 10 35 01 0b 00 	movsd  0xb01(%rip),%xmm6        # 84d0 <_IO_stdin_used+0x4d0>
    79ce:	00 
    79cf:	f2 0f 59 d0          	mulsd  %xmm0,%xmm2
    79d3:	f2 0f 59 d1          	mulsd  %xmm1,%xmm2
    79d7:	f2 0f 58 ce          	addsd  %xmm6,%xmm1
    79db:	f2 0f 59 c1          	mulsd  %xmm1,%xmm0
    79df:	66 0f 28 da          	movapd %xmm2,%xmm3
    79e3:	66 0f 28 e2          	movapd %xmm2,%xmm4
    79e7:	f2 0f 5c da          	subsd  %xmm2,%xmm3
    79eb:	f2 0f 59 e5          	mulsd  %xmm5,%xmm4
    79ef:	f2 0f 59 c1          	mulsd  %xmm1,%xmm0
    79f3:	f2 0f 5e de          	divsd  %xmm6,%xmm3
    79f7:	f2 0f 58 e5          	addsd  %xmm5,%xmm4
    79fb:	f2 0f 5c c2          	subsd  %xmm2,%xmm0
    79ff:	f2 0f 11 67 10       	movsd  %xmm4,0x10(%rdi)
    7a04:	f2 0f 5e c6          	divsd  %xmm6,%xmm0
    7a08:	f2 0f 59 d3          	mulsd  %xmm3,%xmm2
    7a0c:	f2 0f 59 dd          	mulsd  %xmm5,%xmm3
    7a10:	f2 0f 59 c5          	mulsd  %xmm5,%xmm0
    7a14:	f2 0f 58 c2          	addsd  %xmm2,%xmm0
    7a18:	f2 0f 58 c3          	addsd  %xmm3,%xmm0
    7a1c:	66 0f 14 c4          	unpcklpd %xmm4,%xmm0
    7a20:	0f 11 07             	movups %xmm0,(%rdi)
    7a23:	c3                   	ret    

Disassembly of section .fini:

0000000000007a24 <_fini>:
    7a24:	f3 0f 1e fa          	endbr64 
    7a28:	48 83 ec 08          	sub    $0x8,%rsp
    7a2c:	48 83 c4 08          	add    $0x8,%rsp
    7a30:	c3                   	ret    
