
cubyboxy:     file format elf64-x86-64


Disassembly of section .init:

0000000000002000 <_init>:
    2000:	f3 0f 1e fa          	endbr64
    2004:	48 83 ec 08          	sub    $0x8,%rsp
    2008:	48 8b 05 e1 9f 00 00 	mov    0x9fe1(%rip),%rax        # bff0 <__gmon_start__@Base>
    200f:	48 85 c0             	test   %rax,%rax
    2012:	74 02                	je     2016 <_init+0x16>
    2014:	ff d0                	call   *%rax
    2016:	48 83 c4 08          	add    $0x8,%rsp
    201a:	c3                   	ret

Disassembly of section .plt:

0000000000002020 <.plt>:
    2020:	ff 35 3a 9e 00 00    	push   0x9e3a(%rip)        # be60 <_GLOBAL_OFFSET_TABLE_+0x8>
    2026:	ff 25 3c 9e 00 00    	jmp    *0x9e3c(%rip)        # be68 <_GLOBAL_OFFSET_TABLE_+0x10>
    202c:	0f 1f 40 00          	nopl   0x0(%rax)
    2030:	f3 0f 1e fa          	endbr64
    2034:	68 00 00 00 00       	push   $0x0
    2039:	e9 e2 ff ff ff       	jmp    2020 <_init+0x20>
    203e:	66 90                	xchg   %ax,%ax
    2040:	f3 0f 1e fa          	endbr64
    2044:	68 01 00 00 00       	push   $0x1
    2049:	e9 d2 ff ff ff       	jmp    2020 <_init+0x20>
    204e:	66 90                	xchg   %ax,%ax
    2050:	f3 0f 1e fa          	endbr64
    2054:	68 02 00 00 00       	push   $0x2
    2059:	e9 c2 ff ff ff       	jmp    2020 <_init+0x20>
    205e:	66 90                	xchg   %ax,%ax
    2060:	f3 0f 1e fa          	endbr64
    2064:	68 03 00 00 00       	push   $0x3
    2069:	e9 b2 ff ff ff       	jmp    2020 <_init+0x20>
    206e:	66 90                	xchg   %ax,%ax
    2070:	f3 0f 1e fa          	endbr64
    2074:	68 04 00 00 00       	push   $0x4
    2079:	e9 a2 ff ff ff       	jmp    2020 <_init+0x20>
    207e:	66 90                	xchg   %ax,%ax
    2080:	f3 0f 1e fa          	endbr64
    2084:	68 05 00 00 00       	push   $0x5
    2089:	e9 92 ff ff ff       	jmp    2020 <_init+0x20>
    208e:	66 90                	xchg   %ax,%ax
    2090:	f3 0f 1e fa          	endbr64
    2094:	68 06 00 00 00       	push   $0x6
    2099:	e9 82 ff ff ff       	jmp    2020 <_init+0x20>
    209e:	66 90                	xchg   %ax,%ax
    20a0:	f3 0f 1e fa          	endbr64
    20a4:	68 07 00 00 00       	push   $0x7
    20a9:	e9 72 ff ff ff       	jmp    2020 <_init+0x20>
    20ae:	66 90                	xchg   %ax,%ax
    20b0:	f3 0f 1e fa          	endbr64
    20b4:	68 08 00 00 00       	push   $0x8
    20b9:	e9 62 ff ff ff       	jmp    2020 <_init+0x20>
    20be:	66 90                	xchg   %ax,%ax
    20c0:	f3 0f 1e fa          	endbr64
    20c4:	68 09 00 00 00       	push   $0x9
    20c9:	e9 52 ff ff ff       	jmp    2020 <_init+0x20>
    20ce:	66 90                	xchg   %ax,%ax
    20d0:	f3 0f 1e fa          	endbr64
    20d4:	68 0a 00 00 00       	push   $0xa
    20d9:	e9 42 ff ff ff       	jmp    2020 <_init+0x20>
    20de:	66 90                	xchg   %ax,%ax
    20e0:	f3 0f 1e fa          	endbr64
    20e4:	68 0b 00 00 00       	push   $0xb
    20e9:	e9 32 ff ff ff       	jmp    2020 <_init+0x20>
    20ee:	66 90                	xchg   %ax,%ax
    20f0:	f3 0f 1e fa          	endbr64
    20f4:	68 0c 00 00 00       	push   $0xc
    20f9:	e9 22 ff ff ff       	jmp    2020 <_init+0x20>
    20fe:	66 90                	xchg   %ax,%ax
    2100:	f3 0f 1e fa          	endbr64
    2104:	68 0d 00 00 00       	push   $0xd
    2109:	e9 12 ff ff ff       	jmp    2020 <_init+0x20>
    210e:	66 90                	xchg   %ax,%ax
    2110:	f3 0f 1e fa          	endbr64
    2114:	68 0e 00 00 00       	push   $0xe
    2119:	e9 02 ff ff ff       	jmp    2020 <_init+0x20>
    211e:	66 90                	xchg   %ax,%ax
    2120:	f3 0f 1e fa          	endbr64
    2124:	68 0f 00 00 00       	push   $0xf
    2129:	e9 f2 fe ff ff       	jmp    2020 <_init+0x20>
    212e:	66 90                	xchg   %ax,%ax
    2130:	f3 0f 1e fa          	endbr64
    2134:	68 10 00 00 00       	push   $0x10
    2139:	e9 e2 fe ff ff       	jmp    2020 <_init+0x20>
    213e:	66 90                	xchg   %ax,%ax
    2140:	f3 0f 1e fa          	endbr64
    2144:	68 11 00 00 00       	push   $0x11
    2149:	e9 d2 fe ff ff       	jmp    2020 <_init+0x20>
    214e:	66 90                	xchg   %ax,%ax
    2150:	f3 0f 1e fa          	endbr64
    2154:	68 12 00 00 00       	push   $0x12
    2159:	e9 c2 fe ff ff       	jmp    2020 <_init+0x20>
    215e:	66 90                	xchg   %ax,%ax
    2160:	f3 0f 1e fa          	endbr64
    2164:	68 13 00 00 00       	push   $0x13
    2169:	e9 b2 fe ff ff       	jmp    2020 <_init+0x20>
    216e:	66 90                	xchg   %ax,%ax
    2170:	f3 0f 1e fa          	endbr64
    2174:	68 14 00 00 00       	push   $0x14
    2179:	e9 a2 fe ff ff       	jmp    2020 <_init+0x20>
    217e:	66 90                	xchg   %ax,%ax
    2180:	f3 0f 1e fa          	endbr64
    2184:	68 15 00 00 00       	push   $0x15
    2189:	e9 92 fe ff ff       	jmp    2020 <_init+0x20>
    218e:	66 90                	xchg   %ax,%ax
    2190:	f3 0f 1e fa          	endbr64
    2194:	68 16 00 00 00       	push   $0x16
    2199:	e9 82 fe ff ff       	jmp    2020 <_init+0x20>
    219e:	66 90                	xchg   %ax,%ax
    21a0:	f3 0f 1e fa          	endbr64
    21a4:	68 17 00 00 00       	push   $0x17
    21a9:	e9 72 fe ff ff       	jmp    2020 <_init+0x20>
    21ae:	66 90                	xchg   %ax,%ax
    21b0:	f3 0f 1e fa          	endbr64
    21b4:	68 18 00 00 00       	push   $0x18
    21b9:	e9 62 fe ff ff       	jmp    2020 <_init+0x20>
    21be:	66 90                	xchg   %ax,%ax
    21c0:	f3 0f 1e fa          	endbr64
    21c4:	68 19 00 00 00       	push   $0x19
    21c9:	e9 52 fe ff ff       	jmp    2020 <_init+0x20>
    21ce:	66 90                	xchg   %ax,%ax
    21d0:	f3 0f 1e fa          	endbr64
    21d4:	68 1a 00 00 00       	push   $0x1a
    21d9:	e9 42 fe ff ff       	jmp    2020 <_init+0x20>
    21de:	66 90                	xchg   %ax,%ax
    21e0:	f3 0f 1e fa          	endbr64
    21e4:	68 1b 00 00 00       	push   $0x1b
    21e9:	e9 32 fe ff ff       	jmp    2020 <_init+0x20>
    21ee:	66 90                	xchg   %ax,%ax
    21f0:	f3 0f 1e fa          	endbr64
    21f4:	68 1c 00 00 00       	push   $0x1c
    21f9:	e9 22 fe ff ff       	jmp    2020 <_init+0x20>
    21fe:	66 90                	xchg   %ax,%ax
    2200:	f3 0f 1e fa          	endbr64
    2204:	68 1d 00 00 00       	push   $0x1d
    2209:	e9 12 fe ff ff       	jmp    2020 <_init+0x20>
    220e:	66 90                	xchg   %ax,%ax
    2210:	f3 0f 1e fa          	endbr64
    2214:	68 1e 00 00 00       	push   $0x1e
    2219:	e9 02 fe ff ff       	jmp    2020 <_init+0x20>
    221e:	66 90                	xchg   %ax,%ax
    2220:	f3 0f 1e fa          	endbr64
    2224:	68 1f 00 00 00       	push   $0x1f
    2229:	e9 f2 fd ff ff       	jmp    2020 <_init+0x20>
    222e:	66 90                	xchg   %ax,%ax
    2230:	f3 0f 1e fa          	endbr64
    2234:	68 20 00 00 00       	push   $0x20
    2239:	e9 e2 fd ff ff       	jmp    2020 <_init+0x20>
    223e:	66 90                	xchg   %ax,%ax
    2240:	f3 0f 1e fa          	endbr64
    2244:	68 21 00 00 00       	push   $0x21
    2249:	e9 d2 fd ff ff       	jmp    2020 <_init+0x20>
    224e:	66 90                	xchg   %ax,%ax
    2250:	f3 0f 1e fa          	endbr64
    2254:	68 22 00 00 00       	push   $0x22
    2259:	e9 c2 fd ff ff       	jmp    2020 <_init+0x20>
    225e:	66 90                	xchg   %ax,%ax
    2260:	f3 0f 1e fa          	endbr64
    2264:	68 23 00 00 00       	push   $0x23
    2269:	e9 b2 fd ff ff       	jmp    2020 <_init+0x20>
    226e:	66 90                	xchg   %ax,%ax
    2270:	f3 0f 1e fa          	endbr64
    2274:	68 24 00 00 00       	push   $0x24
    2279:	e9 a2 fd ff ff       	jmp    2020 <_init+0x20>
    227e:	66 90                	xchg   %ax,%ax
    2280:	f3 0f 1e fa          	endbr64
    2284:	68 25 00 00 00       	push   $0x25
    2289:	e9 92 fd ff ff       	jmp    2020 <_init+0x20>
    228e:	66 90                	xchg   %ax,%ax
    2290:	f3 0f 1e fa          	endbr64
    2294:	68 26 00 00 00       	push   $0x26
    2299:	e9 82 fd ff ff       	jmp    2020 <_init+0x20>
    229e:	66 90                	xchg   %ax,%ax
    22a0:	f3 0f 1e fa          	endbr64
    22a4:	68 27 00 00 00       	push   $0x27
    22a9:	e9 72 fd ff ff       	jmp    2020 <_init+0x20>
    22ae:	66 90                	xchg   %ax,%ax
    22b0:	f3 0f 1e fa          	endbr64
    22b4:	68 28 00 00 00       	push   $0x28
    22b9:	e9 62 fd ff ff       	jmp    2020 <_init+0x20>
    22be:	66 90                	xchg   %ax,%ax
    22c0:	f3 0f 1e fa          	endbr64
    22c4:	68 29 00 00 00       	push   $0x29
    22c9:	e9 52 fd ff ff       	jmp    2020 <_init+0x20>
    22ce:	66 90                	xchg   %ax,%ax
    22d0:	f3 0f 1e fa          	endbr64
    22d4:	68 2a 00 00 00       	push   $0x2a
    22d9:	e9 42 fd ff ff       	jmp    2020 <_init+0x20>
    22de:	66 90                	xchg   %ax,%ax
    22e0:	f3 0f 1e fa          	endbr64
    22e4:	68 2b 00 00 00       	push   $0x2b
    22e9:	e9 32 fd ff ff       	jmp    2020 <_init+0x20>
    22ee:	66 90                	xchg   %ax,%ax
    22f0:	f3 0f 1e fa          	endbr64
    22f4:	68 2c 00 00 00       	push   $0x2c
    22f9:	e9 22 fd ff ff       	jmp    2020 <_init+0x20>
    22fe:	66 90                	xchg   %ax,%ax

Disassembly of section .plt.got:

0000000000002300 <__cxa_finalize@plt>:
    2300:	f3 0f 1e fa          	endbr64
    2304:	ff 25 ce 9c 00 00    	jmp    *0x9cce(%rip)        # bfd8 <__cxa_finalize@GLIBC_2.2.5>
    230a:	66 0f 1f 44 00 00    	nopw   0x0(%rax,%rax,1)

Disassembly of section .plt.sec:

0000000000002310 <_Znam@plt>:
    2310:	f3 0f 1e fa          	endbr64
    2314:	ff 25 56 9b 00 00    	jmp    *0x9b56(%rip)        # be70 <_Znam@GLIBCXX_3.4>
    231a:	66 0f 1f 44 00 00    	nopw   0x0(%rax,%rax,1)

0000000000002320 <_ZNSo3putEc@plt>:
    2320:	f3 0f 1e fa          	endbr64
    2324:	ff 25 4e 9b 00 00    	jmp    *0x9b4e(%rip)        # be78 <_ZNSo3putEc@GLIBCXX_3.4>
    232a:	66 0f 1f 44 00 00    	nopw   0x0(%rax,%rax,1)

0000000000002330 <_ZNSt13basic_filebufIcSt11char_traitsIcEE5closeEv@plt>:
    2330:	f3 0f 1e fa          	endbr64
    2334:	ff 25 46 9b 00 00    	jmp    *0x9b46(%rip)        # be80 <_ZNSt13basic_filebufIcSt11char_traitsIcEE5closeEv@GLIBCXX_3.4>
    233a:	66 0f 1f 44 00 00    	nopw   0x0(%rax,%rax,1)

0000000000002340 <_ZNSt8ios_baseC2Ev@plt>:
    2340:	f3 0f 1e fa          	endbr64
    2344:	ff 25 3e 9b 00 00    	jmp    *0x9b3e(%rip)        # be88 <_ZNSt8ios_baseC2Ev@GLIBCXX_3.4>
    234a:	66 0f 1f 44 00 00    	nopw   0x0(%rax,%rax,1)

0000000000002350 <_ZNSt7__cxx1112basic_stringIcSt11char_traitsIcESaIcEE9_M_appendEPKcm@plt>:
    2350:	f3 0f 1e fa          	endbr64
    2354:	ff 25 36 9b 00 00    	jmp    *0x9b36(%rip)        # be90 <_ZNSt7__cxx1112basic_stringIcSt11char_traitsIcESaIcEE9_M_appendEPKcm@GLIBCXX_3.4.21>
    235a:	66 0f 1f 44 00 00    	nopw   0x0(%rax,%rax,1)

0000000000002360 <_ZNSt8ios_baseD2Ev@plt>:
    2360:	f3 0f 1e fa          	endbr64
    2364:	ff 25 2e 9b 00 00    	jmp    *0x9b2e(%rip)        # be98 <_ZNSt8ios_baseD2Ev@GLIBCXX_3.4>
    236a:	66 0f 1f 44 00 00    	nopw   0x0(%rax,%rax,1)

0000000000002370 <__cxa_begin_catch@plt>:
    2370:	f3 0f 1e fa          	endbr64
    2374:	ff 25 26 9b 00 00    	jmp    *0x9b26(%rip)        # bea0 <__cxa_begin_catch@CXXABI_1.3>
    237a:	66 0f 1f 44 00 00    	nopw   0x0(%rax,%rax,1)

0000000000002380 <_ZNSo9_M_insertIeEERSoT_@plt>:
    2380:	f3 0f 1e fa          	endbr64
    2384:	ff 25 1e 9b 00 00    	jmp    *0x9b1e(%rip)        # bea8 <_ZNSo9_M_insertIeEERSoT_@GLIBCXX_3.4.9>
    238a:	66 0f 1f 44 00 00    	nopw   0x0(%rax,%rax,1)

0000000000002390 <_ZSt20__throw_length_errorPKc@plt>:
    2390:	f3 0f 1e fa          	endbr64
    2394:	ff 25 16 9b 00 00    	jmp    *0x9b16(%rip)        # beb0 <_ZSt20__throw_length_errorPKc@GLIBCXX_3.4>
    239a:	66 0f 1f 44 00 00    	nopw   0x0(%rax,%rax,1)

00000000000023a0 <sincos@plt>:
    23a0:	f3 0f 1e fa          	endbr64
    23a4:	ff 25 0e 9b 00 00    	jmp    *0x9b0e(%rip)        # beb8 <sincos@GLIBC_2.2.5>
    23aa:	66 0f 1f 44 00 00    	nopw   0x0(%rax,%rax,1)

00000000000023b0 <_ZNSirsERi@plt>:
    23b0:	f3 0f 1e fa          	endbr64
    23b4:	ff 25 06 9b 00 00    	jmp    *0x9b06(%rip)        # bec0 <_ZNSirsERi@GLIBCXX_3.4>
    23ba:	66 0f 1f 44 00 00    	nopw   0x0(%rax,%rax,1)

00000000000023c0 <__assert_fail@plt>:
    23c0:	f3 0f 1e fa          	endbr64
    23c4:	ff 25 fe 9a 00 00    	jmp    *0x9afe(%rip)        # bec8 <__assert_fail@GLIBC_2.2.5>
    23ca:	66 0f 1f 44 00 00    	nopw   0x0(%rax,%rax,1)

00000000000023d0 <_ZNSi10_M_extractIdEERSiRT_@plt>:
    23d0:	f3 0f 1e fa          	endbr64
    23d4:	ff 25 f6 9a 00 00    	jmp    *0x9af6(%rip)        # bed0 <_ZNSi10_M_extractIdEERSiRT_@GLIBCXX_3.4.9>
    23da:	66 0f 1f 44 00 00    	nopw   0x0(%rax,%rax,1)

00000000000023e0 <_ZNSo9_M_insertImEERSoT_@plt>:
    23e0:	f3 0f 1e fa          	endbr64
    23e4:	ff 25 ee 9a 00 00    	jmp    *0x9aee(%rip)        # bed8 <_ZNSo9_M_insertImEERSoT_@GLIBCXX_3.4.9>
    23ea:	66 0f 1f 44 00 00    	nopw   0x0(%rax,%rax,1)

00000000000023f0 <_ZNSo5flushEv@plt>:
    23f0:	f3 0f 1e fa          	endbr64
    23f4:	ff 25 e6 9a 00 00    	jmp    *0x9ae6(%rip)        # bee0 <_ZNSo5flushEv@GLIBCXX_3.4>
    23fa:	66 0f 1f 44 00 00    	nopw   0x0(%rax,%rax,1)

0000000000002400 <memcpy@plt>:
    2400:	f3 0f 1e fa          	endbr64
    2404:	ff 25 de 9a 00 00    	jmp    *0x9ade(%rip)        # bee8 <memcpy@GLIBC_2.14>
    240a:	66 0f 1f 44 00 00    	nopw   0x0(%rax,%rax,1)

0000000000002410 <atan@plt>:
    2410:	f3 0f 1e fa          	endbr64
    2414:	ff 25 d6 9a 00 00    	jmp    *0x9ad6(%rip)        # bef0 <atan@GLIBC_2.2.5>
    241a:	66 0f 1f 44 00 00    	nopw   0x0(%rax,%rax,1)

0000000000002420 <_ZNSt13basic_filebufIcSt11char_traitsIcEE4openEPKcSt13_Ios_Openmode@plt>:
    2420:	f3 0f 1e fa          	endbr64
    2424:	ff 25 ce 9a 00 00    	jmp    *0x9ace(%rip)        # bef8 <_ZNSt13basic_filebufIcSt11char_traitsIcEE4openEPKcSt13_Ios_Openmode@GLIBCXX_3.4>
    242a:	66 0f 1f 44 00 00    	nopw   0x0(%rax,%rax,1)

0000000000002430 <acos@plt>:
    2430:	f3 0f 1e fa          	endbr64
    2434:	ff 25 c6 9a 00 00    	jmp    *0x9ac6(%rip)        # bf00 <acos@GLIBC_2.2.5>
    243a:	66 0f 1f 44 00 00    	nopw   0x0(%rax,%rax,1)

0000000000002440 <_Znwm@plt>:
    2440:	f3 0f 1e fa          	endbr64
    2444:	ff 25 be 9a 00 00    	jmp    *0x9abe(%rip)        # bf08 <_Znwm@GLIBCXX_3.4>
    244a:	66 0f 1f 44 00 00    	nopw   0x0(%rax,%rax,1)

0000000000002450 <_ZdlPvm@plt>:
    2450:	f3 0f 1e fa          	endbr64
    2454:	ff 25 b6 9a 00 00    	jmp    *0x9ab6(%rip)        # bf10 <_ZdlPvm@CXXABI_1.3.9>
    245a:	66 0f 1f 44 00 00    	nopw   0x0(%rax,%rax,1)

0000000000002460 <_ZNSt13basic_filebufIcSt11char_traitsIcEEC1Ev@plt>:
    2460:	f3 0f 1e fa          	endbr64
    2464:	ff 25 ae 9a 00 00    	jmp    *0x9aae(%rip)        # bf18 <_ZNSt13basic_filebufIcSt11char_traitsIcEEC1Ev@GLIBCXX_3.4>
    246a:	66 0f 1f 44 00 00    	nopw   0x0(%rax,%rax,1)

0000000000002470 <__stack_chk_fail@plt>:
    2470:	f3 0f 1e fa          	endbr64
    2474:	ff 25 a6 9a 00 00    	jmp    *0x9aa6(%rip)        # bf20 <__stack_chk_fail@GLIBC_2.4>
    247a:	66 0f 1f 44 00 00    	nopw   0x0(%rax,%rax,1)

0000000000002480 <sincosl@plt>:
    2480:	f3 0f 1e fa          	endbr64
    2484:	ff 25 9e 9a 00 00    	jmp    *0x9a9e(%rip)        # bf28 <sincosl@GLIBC_2.2.5>
    248a:	66 0f 1f 44 00 00    	nopw   0x0(%rax,%rax,1)

0000000000002490 <_ZSt16__ostream_insertIcSt11char_traitsIcEERSt13basic_ostreamIT_T0_ES6_PKS3_l@plt>:
    2490:	f3 0f 1e fa          	endbr64
    2494:	ff 25 96 9a 00 00    	jmp    *0x9a96(%rip)        # bf30 <_ZSt16__ostream_insertIcSt11char_traitsIcEERSt13basic_ostreamIT_T0_ES6_PKS3_l@GLIBCXX_3.4.9>
    249a:	66 0f 1f 44 00 00    	nopw   0x0(%rax,%rax,1)

00000000000024a0 <_ZNKSt5ctypeIcE13_M_widen_initEv@plt>:
    24a0:	f3 0f 1e fa          	endbr64
    24a4:	ff 25 8e 9a 00 00    	jmp    *0x9a8e(%rip)        # bf38 <_ZNKSt5ctypeIcE13_M_widen_initEv@GLIBCXX_3.4.11>
    24aa:	66 0f 1f 44 00 00    	nopw   0x0(%rax,%rax,1)

00000000000024b0 <_ZNSt7__cxx1112basic_stringIcSt11char_traitsIcESaIcEE12_M_constructEmc@plt>:
    24b0:	f3 0f 1e fa          	endbr64
    24b4:	ff 25 86 9a 00 00    	jmp    *0x9a86(%rip)        # bf40 <_ZNSt7__cxx1112basic_stringIcSt11char_traitsIcESaIcEE12_M_constructEmc@GLIBCXX_3.4.21>
    24ba:	66 0f 1f 44 00 00    	nopw   0x0(%rax,%rax,1)

00000000000024c0 <cosl@plt>:
    24c0:	f3 0f 1e fa          	endbr64
    24c4:	ff 25 7e 9a 00 00    	jmp    *0x9a7e(%rip)        # bf48 <cosl@GLIBC_2.2.5>
    24ca:	66 0f 1f 44 00 00    	nopw   0x0(%rax,%rax,1)

00000000000024d0 <exit@plt>:
    24d0:	f3 0f 1e fa          	endbr64
    24d4:	ff 25 76 9a 00 00    	jmp    *0x9a76(%rip)        # bf50 <exit@GLIBC_2.2.5>
    24da:	66 0f 1f 44 00 00    	nopw   0x0(%rax,%rax,1)

00000000000024e0 <_ZNSi10_M_extractIeEERSiRT_@plt>:
    24e0:	f3 0f 1e fa          	endbr64
    24e4:	ff 25 6e 9a 00 00    	jmp    *0x9a6e(%rip)        # bf58 <_ZNSi10_M_extractIeEERSiRT_@GLIBCXX_3.4.9>
    24ea:	66 0f 1f 44 00 00    	nopw   0x0(%rax,%rax,1)

00000000000024f0 <_ZNSt7__cxx1112basic_stringIcSt11char_traitsIcESaIcEE10_M_disposeEv@plt>:
    24f0:	f3 0f 1e fa          	endbr64
    24f4:	ff 25 66 9a 00 00    	jmp    *0x9a66(%rip)        # bf60 <_ZNSt7__cxx1112basic_stringIcSt11char_traitsIcESaIcEE10_M_disposeEv@GLIBCXX_3.4.21>
    24fa:	66 0f 1f 44 00 00    	nopw   0x0(%rax,%rax,1)

0000000000002500 <_ZSt16__throw_bad_castv@plt>:
    2500:	f3 0f 1e fa          	endbr64
    2504:	ff 25 5e 9a 00 00    	jmp    *0x9a5e(%rip)        # bf68 <_ZSt16__throw_bad_castv@GLIBCXX_3.4>
    250a:	66 0f 1f 44 00 00    	nopw   0x0(%rax,%rax,1)

0000000000002510 <_ZNSt9basic_iosIcSt11char_traitsIcEE4initEPSt15basic_streambufIcS1_E@plt>:
    2510:	f3 0f 1e fa          	endbr64
    2514:	ff 25 56 9a 00 00    	jmp    *0x9a56(%rip)        # bf70 <_ZNSt9basic_iosIcSt11char_traitsIcEE4initEPSt15basic_streambufIcS1_E@GLIBCXX_3.4>
    251a:	66 0f 1f 44 00 00    	nopw   0x0(%rax,%rax,1)

0000000000002520 <_ZNSt6localeD1Ev@plt>:
    2520:	f3 0f 1e fa          	endbr64
    2524:	ff 25 4e 9a 00 00    	jmp    *0x9a4e(%rip)        # bf78 <_ZNSt6localeD1Ev@GLIBCXX_3.4>
    252a:	66 0f 1f 44 00 00    	nopw   0x0(%rax,%rax,1)

0000000000002530 <__cxa_throw_bad_array_new_length@plt>:
    2530:	f3 0f 1e fa          	endbr64
    2534:	ff 25 46 9a 00 00    	jmp    *0x9a46(%rip)        # bf80 <__cxa_throw_bad_array_new_length@CXXABI_1.3.8>
    253a:	66 0f 1f 44 00 00    	nopw   0x0(%rax,%rax,1)

0000000000002540 <_ZNSt14basic_ofstreamIcSt11char_traitsIcEED1Ev@plt>:
    2540:	f3 0f 1e fa          	endbr64
    2544:	ff 25 3e 9a 00 00    	jmp    *0x9a3e(%rip)        # bf88 <_ZNSt14basic_ofstreamIcSt11char_traitsIcEED1Ev@GLIBCXX_3.4>
    254a:	66 0f 1f 44 00 00    	nopw   0x0(%rax,%rax,1)

0000000000002550 <_ZNSt7__cxx1112basic_stringIcSt11char_traitsIcESaIcEE10_M_replaceEmmPKcm@plt>:
    2550:	f3 0f 1e fa          	endbr64
    2554:	ff 25 36 9a 00 00    	jmp    *0x9a36(%rip)        # bf90 <_ZNSt7__cxx1112basic_stringIcSt11char_traitsIcESaIcEE10_M_replaceEmmPKcm@GLIBCXX_3.4.21>
    255a:	66 0f 1f 44 00 00    	nopw   0x0(%rax,%rax,1)

0000000000002560 <_ZNSt13basic_filebufIcSt11char_traitsIcEED1Ev@plt>:
    2560:	f3 0f 1e fa          	endbr64
    2564:	ff 25 2e 9a 00 00    	jmp    *0x9a2e(%rip)        # bf98 <_ZNSt13basic_filebufIcSt11char_traitsIcEED1Ev@GLIBCXX_3.4>
    256a:	66 0f 1f 44 00 00    	nopw   0x0(%rax,%rax,1)

0000000000002570 <_ZNSo9_M_insertIdEERSoT_@plt>:
    2570:	f3 0f 1e fa          	endbr64
    2574:	ff 25 26 9a 00 00    	jmp    *0x9a26(%rip)        # bfa0 <_ZNSo9_M_insertIdEERSoT_@GLIBCXX_3.4.9>
    257a:	66 0f 1f 44 00 00    	nopw   0x0(%rax,%rax,1)

0000000000002580 <memmove@plt>:
    2580:	f3 0f 1e fa          	endbr64
    2584:	ff 25 1e 9a 00 00    	jmp    *0x9a1e(%rip)        # bfa8 <memmove@GLIBC_2.2.5>
    258a:	66 0f 1f 44 00 00    	nopw   0x0(%rax,%rax,1)

0000000000002590 <__cxa_end_catch@plt>:
    2590:	f3 0f 1e fa          	endbr64
    2594:	ff 25 16 9a 00 00    	jmp    *0x9a16(%rip)        # bfb0 <__cxa_end_catch@CXXABI_1.3>
    259a:	66 0f 1f 44 00 00    	nopw   0x0(%rax,%rax,1)

00000000000025a0 <_ZNSt9basic_iosIcSt11char_traitsIcEE5clearESt12_Ios_Iostate@plt>:
    25a0:	f3 0f 1e fa          	endbr64
    25a4:	ff 25 0e 9a 00 00    	jmp    *0x9a0e(%rip)        # bfb8 <_ZNSt9basic_iosIcSt11char_traitsIcEE5clearESt12_Ios_Iostate@GLIBCXX_3.4>
    25aa:	66 0f 1f 44 00 00    	nopw   0x0(%rax,%rax,1)

00000000000025b0 <_ZNSolsEi@plt>:
    25b0:	f3 0f 1e fa          	endbr64
    25b4:	ff 25 06 9a 00 00    	jmp    *0x9a06(%rip)        # bfc0 <_ZNSolsEi@GLIBCXX_3.4>
    25ba:	66 0f 1f 44 00 00    	nopw   0x0(%rax,%rax,1)

00000000000025c0 <_Unwind_Resume@plt>:
    25c0:	f3 0f 1e fa          	endbr64
    25c4:	ff 25 fe 99 00 00    	jmp    *0x99fe(%rip)        # bfc8 <_Unwind_Resume@GCC_3.0>
    25ca:	66 0f 1f 44 00 00    	nopw   0x0(%rax,%rax,1)

00000000000025d0 <_ZNSt12__basic_fileIcED1Ev@plt>:
    25d0:	f3 0f 1e fa          	endbr64
    25d4:	ff 25 f6 99 00 00    	jmp    *0x99f6(%rip)        # bfd0 <_ZNSt12__basic_fileIcED1Ev@GLIBCXX_3.4>
    25da:	66 0f 1f 44 00 00    	nopw   0x0(%rax,%rax,1)

Disassembly of section .text:

00000000000025e0 <_Z7blearghv.cold>:
    25e0:	48 8b bd 40 ff ff ff 	mov    -0xc0(%rbp),%rdi
    25e7:	48 8b b5 50 ff ff ff 	mov    -0xb0(%rbp),%rsi
    25ee:	48 29 fe             	sub    %rdi,%rsi
    25f1:	48 85 ff             	test   %rdi,%rdi
    25f4:	74 05                	je     25fb <_Z7blearghv.cold+0x1b>
    25f6:	e8 55 fe ff ff       	call   2450 <_ZdlPvm@plt>
    25fb:	48 8b 45 c8          	mov    -0x38(%rbp),%rax
    25ff:	64 48 2b 04 25 28 00 	sub    %fs:0x28,%rax
    2606:	00 00 
    2608:	75 08                	jne    2612 <_Z7blearghv.cold+0x32>
    260a:	48 89 df             	mov    %rbx,%rdi
    260d:	e8 ae ff ff ff       	call   25c0 <_Unwind_Resume@plt>
    2612:	e8 59 fe ff ff       	call   2470 <__stack_chk_fail@plt>

0000000000002617 <_Z10allocate3djjj.cold>:
    2617:	e8 14 ff ff ff       	call   2530 <__cxa_throw_bad_array_new_length@plt>

000000000000261c <_Z11allocate3dtjjj.cold>:
    261c:	e8 0f ff ff ff       	call   2530 <__cxa_throw_bad_array_new_length@plt>

0000000000002621 <_Z12writeVTKFileiPPPPeiiieee.cold>:
    2621:	48 8d bd d0 fc ff ff 	lea    -0x330(%rbp),%rdi
    2628:	e8 c3 fe ff ff       	call   24f0 <_ZNSt7__cxx1112basic_stringIcSt11char_traitsIcESaIcEE10_M_disposeEv@plt>
    262d:	4c 89 ff             	mov    %r15,%rdi
    2630:	4d 89 f7             	mov    %r14,%r15
    2633:	e8 b8 fe ff ff       	call   24f0 <_ZNSt7__cxx1112basic_stringIcSt11char_traitsIcESaIcEE10_M_disposeEv@plt>
    2638:	48 89 df             	mov    %rbx,%rdi
    263b:	4c 89 fb             	mov    %r15,%rbx
    263e:	e8 ad fe ff ff       	call   24f0 <_ZNSt7__cxx1112basic_stringIcSt11char_traitsIcESaIcEE10_M_disposeEv@plt>
    2643:	48 8b bd 88 fc ff ff 	mov    -0x378(%rbp),%rdi
    264a:	e8 f1 fe ff ff       	call   2540 <_ZNSt14basic_ofstreamIcSt11char_traitsIcEED1Ev@plt>
    264f:	48 8b 45 c8          	mov    -0x38(%rbp),%rax
    2653:	64 48 2b 04 25 28 00 	sub    %fs:0x28,%rax
    265a:	00 00 
    265c:	75 08                	jne    2666 <_Z12writeVTKFileiPPPPeiiieee.cold+0x45>
    265e:	48 89 df             	mov    %rbx,%rdi
    2661:	e8 5a ff ff ff       	call   25c0 <_Unwind_Resume@plt>
    2666:	e8 05 fe ff ff       	call   2470 <__stack_chk_fail@plt>
    266b:	48 8b bd 50 fc ff ff 	mov    -0x3b0(%rbp),%rdi
    2672:	e8 e9 fe ff ff       	call   2560 <_ZNSt13basic_filebufIcSt11char_traitsIcEED1Ev@plt>
    2677:	48 8b 05 ca 94 00 00 	mov    0x94ca(%rip),%rax        # bb48 <_ZTTSt14basic_ofstreamIcSt11char_traitsIcEE@GLIBCXX_3.4+0x8>
    267e:	48 8b 0d cb 94 00 00 	mov    0x94cb(%rip),%rcx        # bb50 <_ZTTSt14basic_ofstreamIcSt11char_traitsIcEE@GLIBCXX_3.4+0x10>
    2685:	48 89 85 f0 fc ff ff 	mov    %rax,-0x310(%rbp)
    268c:	48 8b 40 e8          	mov    -0x18(%rax),%rax
    2690:	48 89 8c 05 f0 fc ff 	mov    %rcx,-0x310(%rbp,%rax,1)
    2697:	ff 
    2698:	48 8b bd 48 fc ff ff 	mov    -0x3b8(%rbp),%rdi
    269f:	48 8d 05 0a 94 00 00 	lea    0x940a(%rip),%rax        # bab0 <_ZTVSt9basic_iosIcSt11char_traitsIcEE@GLIBCXX_3.4+0x10>
    26a6:	48 89 85 e8 fd ff ff 	mov    %rax,-0x218(%rbp)
    26ad:	e8 ae fc ff ff       	call   2360 <_ZNSt8ios_baseD2Ev@plt>
    26b2:	48 8b 45 c8          	mov    -0x38(%rbp),%rax
    26b6:	64 48 2b 04 25 28 00 	sub    %fs:0x28,%rax
    26bd:	00 00 
    26bf:	75 17                	jne    26d8 <_Z12writeVTKFileiPPPPeiiieee.cold+0xb7>
    26c1:	48 89 df             	mov    %rbx,%rdi
    26c4:	e8 f7 fe ff ff       	call   25c0 <_Unwind_Resume@plt>
    26c9:	e8 a2 fc ff ff       	call   2370 <__cxa_begin_catch@plt>
    26ce:	e8 bd fe ff ff       	call   2590 <__cxa_end_catch@plt>
    26d3:	e9 5a 6e 00 00       	jmp    9532 <_Z12writeVTKFileiPPPPeiiieee+0x932>
    26d8:	e8 93 fd ff ff       	call   2470 <__stack_chk_fail@plt>
    26dd:	0f 1f 00             	nopl   (%rax)

00000000000026e0 <main>:
    26e0:	f3 0f 1e fa          	endbr64
    26e4:	50                   	push   %rax
    26e5:	58                   	pop    %rax
    26e6:	48 83 ec 08          	sub    $0x8,%rsp
    26ea:	e8 71 41 00 00       	call   6860 <_Z7blearghv>
    26ef:	31 ff                	xor    %edi,%edi
    26f1:	e8 da fd ff ff       	call   24d0 <exit@plt>
    26f6:	66 2e 0f 1f 84 00 00 	cs nopw 0x0(%rax,%rax,1)
    26fd:	00 00 00 

0000000000002700 <_start>:
    2700:	f3 0f 1e fa          	endbr64
    2704:	31 ed                	xor    %ebp,%ebp
    2706:	49 89 d1             	mov    %rdx,%r9
    2709:	5e                   	pop    %rsi
    270a:	48 89 e2             	mov    %rsp,%rdx
    270d:	48 83 e4 f0          	and    $0xfffffffffffffff0,%rsp
    2711:	50                   	push   %rax
    2712:	54                   	push   %rsp
    2713:	45 31 c0             	xor    %r8d,%r8d
    2716:	31 c9                	xor    %ecx,%ecx
    2718:	48 8d 3d c1 ff ff ff 	lea    -0x3f(%rip),%rdi        # 26e0 <main>
    271f:	ff 15 bb 98 00 00    	call   *0x98bb(%rip)        # bfe0 <__libc_start_main@GLIBC_2.34>
    2725:	f4                   	hlt
    2726:	66 2e 0f 1f 84 00 00 	cs nopw 0x0(%rax,%rax,1)
    272d:	00 00 00 

0000000000002730 <deregister_tm_clones>:
    2730:	48 8d 3d e1 98 00 00 	lea    0x98e1(%rip),%rdi        # c018 <__TMC_END__>
    2737:	48 8d 05 da 98 00 00 	lea    0x98da(%rip),%rax        # c018 <__TMC_END__>
    273e:	48 39 f8             	cmp    %rdi,%rax
    2741:	74 15                	je     2758 <deregister_tm_clones+0x28>
    2743:	48 8b 05 9e 98 00 00 	mov    0x989e(%rip),%rax        # bfe8 <_ITM_deregisterTMCloneTable@Base>
    274a:	48 85 c0             	test   %rax,%rax
    274d:	74 09                	je     2758 <deregister_tm_clones+0x28>
    274f:	ff e0                	jmp    *%rax
    2751:	0f 1f 80 00 00 00 00 	nopl   0x0(%rax)
    2758:	c3                   	ret
    2759:	0f 1f 80 00 00 00 00 	nopl   0x0(%rax)

0000000000002760 <register_tm_clones>:
    2760:	48 8d 3d b1 98 00 00 	lea    0x98b1(%rip),%rdi        # c018 <__TMC_END__>
    2767:	48 8d 35 aa 98 00 00 	lea    0x98aa(%rip),%rsi        # c018 <__TMC_END__>
    276e:	48 29 fe             	sub    %rdi,%rsi
    2771:	48 89 f0             	mov    %rsi,%rax
    2774:	48 c1 ee 3f          	shr    $0x3f,%rsi
    2778:	48 c1 f8 03          	sar    $0x3,%rax
    277c:	48 01 c6             	add    %rax,%rsi
    277f:	48 d1 fe             	sar    $1,%rsi
    2782:	74 14                	je     2798 <register_tm_clones+0x38>
    2784:	48 8b 05 6d 98 00 00 	mov    0x986d(%rip),%rax        # bff8 <_ITM_registerTMCloneTable@Base>
    278b:	48 85 c0             	test   %rax,%rax
    278e:	74 08                	je     2798 <register_tm_clones+0x38>
    2790:	ff e0                	jmp    *%rax
    2792:	66 0f 1f 44 00 00    	nopw   0x0(%rax,%rax,1)
    2798:	c3                   	ret
    2799:	0f 1f 80 00 00 00 00 	nopl   0x0(%rax)

00000000000027a0 <__do_global_dtors_aux>:
    27a0:	f3 0f 1e fa          	endbr64
    27a4:	80 3d cd 9a 00 00 00 	cmpb   $0x0,0x9acd(%rip)        # c278 <completed.0>
    27ab:	75 2b                	jne    27d8 <__do_global_dtors_aux+0x38>
    27ad:	55                   	push   %rbp
    27ae:	48 83 3d 22 98 00 00 	cmpq   $0x0,0x9822(%rip)        # bfd8 <__cxa_finalize@GLIBC_2.2.5>
    27b5:	00 
    27b6:	48 89 e5             	mov    %rsp,%rbp
    27b9:	74 0c                	je     27c7 <__do_global_dtors_aux+0x27>
    27bb:	48 8b 3d 46 98 00 00 	mov    0x9846(%rip),%rdi        # c008 <__dso_handle>
    27c2:	e8 39 fb ff ff       	call   2300 <__cxa_finalize@plt>
    27c7:	e8 64 ff ff ff       	call   2730 <deregister_tm_clones>
    27cc:	c6 05 a5 9a 00 00 01 	movb   $0x1,0x9aa5(%rip)        # c278 <completed.0>
    27d3:	5d                   	pop    %rbp
    27d4:	c3                   	ret
    27d5:	0f 1f 00             	nopl   (%rax)
    27d8:	c3                   	ret
    27d9:	0f 1f 80 00 00 00 00 	nopl   0x0(%rax)

00000000000027e0 <frame_dummy>:
    27e0:	f3 0f 1e fa          	endbr64
    27e4:	e9 77 ff ff ff       	jmp    2760 <register_tm_clones>
    27e9:	0f 1f 80 00 00 00 00 	nopl   0x0(%rax)

00000000000027f0 <_ZSt13__adjust_heapIPeleN9__gnu_cxx5__ops15_Iter_less_iterEEvT_T0_S5_T1_T2_.isra.0>:
    27f0:	48 8d 42 ff          	lea    -0x1(%rdx),%rax
    27f4:	49 89 d3             	mov    %rdx,%r11
    27f7:	48 89 f9             	mov    %rdi,%rcx
    27fa:	49 89 d2             	mov    %rdx,%r10
    27fd:	db 6c 24 08          	fldt   0x8(%rsp)
    2801:	49 89 c1             	mov    %rax,%r9
    2804:	48 89 f7             	mov    %rsi,%rdi
    2807:	41 83 e3 01          	and    $0x1,%r11d
    280b:	49 c1 e9 3f          	shr    $0x3f,%r9
    280f:	49 01 c1             	add    %rax,%r9
    2812:	49 d1 f9             	sar    $1,%r9
    2815:	4c 39 ce             	cmp    %r9,%rsi
    2818:	7c 27                	jl     2841 <_ZSt13__adjust_heapIPeleN9__gnu_cxx5__ops15_Iter_less_iterEEvT_T0_S5_T1_T2_.isra.0+0x51>
    281a:	e9 b1 00 00 00       	jmp    28d0 <_ZSt13__adjust_heapIPeleN9__gnu_cxx5__ops15_Iter_less_iterEEvT_T0_S5_T1_T2_.isra.0+0xe0>
    281f:	90                   	nop
    2820:	dd d8                	fstp   %st(0)
    2822:	49 83 e8 01          	sub    $0x1,%r8
    2826:	48 c1 e6 04          	shl    $0x4,%rsi
    282a:	4c 89 c0             	mov    %r8,%rax
    282d:	48 c1 e0 04          	shl    $0x4,%rax
    2831:	48 01 c8             	add    %rcx,%rax
    2834:	db 28                	fldt   (%rax)
    2836:	db 3c 31             	fstpt  (%rcx,%rsi,1)
    2839:	4d 39 c8             	cmp    %r9,%r8
    283c:	7d 29                	jge    2867 <_ZSt13__adjust_heapIPeleN9__gnu_cxx5__ops15_Iter_less_iterEEvT_T0_S5_T1_T2_.isra.0+0x77>
    283e:	4c 89 c6             	mov    %r8,%rsi
    2841:	48 8d 56 01          	lea    0x1(%rsi),%rdx
    2845:	4c 8d 04 12          	lea    (%rdx,%rdx,1),%r8
    2849:	48 c1 e2 05          	shl    $0x5,%rdx
    284d:	48 8d 04 11          	lea    (%rcx,%rdx,1),%rax
    2851:	db 28                	fldt   (%rax)
    2853:	db 6c 11 f0          	fldt   -0x10(%rcx,%rdx,1)
    2857:	df f1                	fcomip %st(1),%st
    2859:	77 c5                	ja     2820 <_ZSt13__adjust_heapIPeleN9__gnu_cxx5__ops15_Iter_less_iterEEvT_T0_S5_T1_T2_.isra.0+0x30>
    285b:	48 c1 e6 04          	shl    $0x4,%rsi
    285f:	db 3c 31             	fstpt  (%rcx,%rsi,1)
    2862:	4d 39 c8             	cmp    %r9,%r8
    2865:	7c d7                	jl     283e <_ZSt13__adjust_heapIPeleN9__gnu_cxx5__ops15_Iter_less_iterEEvT_T0_S5_T1_T2_.isra.0+0x4e>
    2867:	4d 85 db             	test   %r11,%r11
    286a:	74 7c                	je     28e8 <_ZSt13__adjust_heapIPeleN9__gnu_cxx5__ops15_Iter_less_iterEEvT_T0_S5_T1_T2_.isra.0+0xf8>
    286c:	49 8d 70 ff          	lea    -0x1(%r8),%rsi
    2870:	48 89 f2             	mov    %rsi,%rdx
    2873:	48 c1 ea 3f          	shr    $0x3f,%rdx
    2877:	48 01 f2             	add    %rsi,%rdx
    287a:	48 d1 fa             	sar    $1,%rdx
    287d:	49 39 f8             	cmp    %rdi,%r8
    2880:	7f 2a                	jg     28ac <_ZSt13__adjust_heapIPeleN9__gnu_cxx5__ops15_Iter_less_iterEEvT_T0_S5_T1_T2_.isra.0+0xbc>
    2882:	eb 46                	jmp    28ca <_ZSt13__adjust_heapIPeleN9__gnu_cxx5__ops15_Iter_less_iterEEvT_T0_S5_T1_T2_.isra.0+0xda>
    2884:	0f 1f 40 00          	nopl   0x0(%rax)
    2888:	d9 c9                	fxch   %st(1)
    288a:	4c 8d 42 ff          	lea    -0x1(%rdx),%r8
    288e:	db 38                	fstpt  (%rax)
    2890:	4c 89 c0             	mov    %r8,%rax
    2893:	48 c1 e8 3f          	shr    $0x3f,%rax
    2897:	4c 01 c0             	add    %r8,%rax
    289a:	49 89 d0             	mov    %rdx,%r8
    289d:	48 d1 f8             	sar    $1,%rax
    28a0:	48 39 d7             	cmp    %rdx,%rdi
    28a3:	0f 8d 87 00 00 00    	jge    2930 <_ZSt13__adjust_heapIPeleN9__gnu_cxx5__ops15_Iter_less_iterEEvT_T0_S5_T1_T2_.isra.0+0x140>
    28a9:	48 89 c2             	mov    %rax,%rdx
    28ac:	48 89 d6             	mov    %rdx,%rsi
    28af:	4c 89 c0             	mov    %r8,%rax
    28b2:	48 c1 e6 04          	shl    $0x4,%rsi
    28b6:	48 c1 e0 04          	shl    $0x4,%rax
    28ba:	48 01 ce             	add    %rcx,%rsi
    28bd:	48 01 c8             	add    %rcx,%rax
    28c0:	db 2e                	fldt   (%rsi)
    28c2:	d9 c9                	fxch   %st(1)
    28c4:	db f1                	fcomi  %st(1),%st
    28c6:	77 c0                	ja     2888 <_ZSt13__adjust_heapIPeleN9__gnu_cxx5__ops15_Iter_less_iterEEvT_T0_S5_T1_T2_.isra.0+0x98>
    28c8:	dd d9                	fstp   %st(1)
    28ca:	db 38                	fstpt  (%rax)
    28cc:	c3                   	ret
    28cd:	0f 1f 00             	nopl   (%rax)
    28d0:	48 89 f0             	mov    %rsi,%rax
    28d3:	48 c1 e0 04          	shl    $0x4,%rax
    28d7:	48 01 c8             	add    %rcx,%rax
    28da:	4d 85 db             	test   %r11,%r11
    28dd:	75 eb                	jne    28ca <_ZSt13__adjust_heapIPeleN9__gnu_cxx5__ops15_Iter_less_iterEEvT_T0_S5_T1_T2_.isra.0+0xda>
    28df:	49 89 f8             	mov    %rdi,%r8
    28e2:	66 0f 1f 44 00 00    	nopw   0x0(%rax,%rax,1)
    28e8:	49 83 ea 02          	sub    $0x2,%r10
    28ec:	4c 89 d2             	mov    %r10,%rdx
    28ef:	48 c1 ea 3f          	shr    $0x3f,%rdx
    28f3:	4c 01 d2             	add    %r10,%rdx
    28f6:	48 d1 fa             	sar    $1,%rdx
    28f9:	49 39 d0             	cmp    %rdx,%r8
    28fc:	0f 85 6a ff ff ff    	jne    286c <_ZSt13__adjust_heapIPeleN9__gnu_cxx5__ops15_Iter_less_iterEEvT_T0_S5_T1_T2_.isra.0+0x7c>
    2902:	49 83 c0 01          	add    $0x1,%r8
    2906:	4c 89 c2             	mov    %r8,%rdx
    2909:	4f 8d 44 00 ff       	lea    -0x1(%r8,%r8,1),%r8
    290e:	48 c1 e2 05          	shl    $0x5,%rdx
    2912:	db 6c 11 f0          	fldt   -0x10(%rcx,%rdx,1)
    2916:	db 38                	fstpt  (%rax)
    2918:	4c 89 c0             	mov    %r8,%rax
    291b:	48 c1 e0 04          	shl    $0x4,%rax
    291f:	48 01 c8             	add    %rcx,%rax
    2922:	e9 45 ff ff ff       	jmp    286c <_ZSt13__adjust_heapIPeleN9__gnu_cxx5__ops15_Iter_less_iterEEvT_T0_S5_T1_T2_.isra.0+0x7c>
    2927:	66 0f 1f 84 00 00 00 	nopw   0x0(%rax,%rax,1)
    292e:	00 00 
    2930:	48 89 f0             	mov    %rsi,%rax
    2933:	db 38                	fstpt  (%rax)
    2935:	c3                   	ret
    2936:	66 2e 0f 1f 84 00 00 	cs nopw 0x0(%rax,%rax,1)
    293d:	00 00 00 

0000000000002940 <_ZSt16__introsort_loopIPelN9__gnu_cxx5__ops15_Iter_less_iterEEvT_S4_T0_T1_.isra.0>:
    2940:	48 89 f0             	mov    %rsi,%rax
    2943:	48 29 f8             	sub    %rdi,%rax
    2946:	48 3d 00 01 00 00    	cmp    $0x100,%rax
    294c:	0f 8e db 01 00 00    	jle    2b2d <_ZSt16__introsort_loopIPelN9__gnu_cxx5__ops15_Iter_less_iterEEvT_S4_T0_T1_.isra.0+0x1ed>
    2952:	41 55                	push   %r13
    2954:	49 89 d5             	mov    %rdx,%r13
    2957:	41 54                	push   %r12
    2959:	4c 8d 67 10          	lea    0x10(%rdi),%r12
    295d:	55                   	push   %rbp
    295e:	48 89 fd             	mov    %rdi,%rbp
    2961:	53                   	push   %rbx
    2962:	48 83 ec 08          	sub    $0x8,%rsp
    2966:	48 85 d2             	test   %rdx,%rdx
    2969:	0f 84 40 01 00 00    	je     2aaf <_ZSt16__introsort_loopIPelN9__gnu_cxx5__ops15_Iter_less_iterEEvT_S4_T0_T1_.isra.0+0x16f>
    296f:	db 6d 10             	fldt   0x10(%rbp)
    2972:	48 c1 f8 05          	sar    $0x5,%rax
    2976:	49 83 ed 01          	sub    $0x1,%r13
    297a:	48 c1 e0 04          	shl    $0x4,%rax
    297e:	48 01 e8             	add    %rbp,%rax
    2981:	db 28                	fldt   (%rax)
    2983:	db 6e f0             	fldt   -0x10(%rsi)
    2986:	db 6d 00             	fldt   0x0(%rbp)
    2989:	d9 ca                	fxch   %st(2)
    298b:	db f3                	fcomi  %st(3),%st
    298d:	0f 86 96 00 00 00    	jbe    2a29 <_ZSt16__introsort_loopIPelN9__gnu_cxx5__ops15_Iter_less_iterEEvT_S4_T0_T1_.isra.0+0xe9>
    2993:	d9 c9                	fxch   %st(1)
    2995:	db f1                	fcomi  %st(1),%st
    2997:	0f 87 f1 00 00 00    	ja     2a8e <_ZSt16__introsort_loopIPelN9__gnu_cxx5__ops15_Iter_less_iterEEvT_S4_T0_T1_.isra.0+0x14e>
    299d:	dd d9                	fstp   %st(1)
    299f:	db f2                	fcomi  %st(2),%st
    29a1:	0f 87 9a 00 00 00    	ja     2a41 <_ZSt16__introsort_loopIPelN9__gnu_cxx5__ops15_Iter_less_iterEEvT_S4_T0_T1_.isra.0+0x101>
    29a7:	dd d8                	fstp   %st(0)
    29a9:	d9 c9                	fxch   %st(1)
    29ab:	eb 06                	jmp    29b3 <_ZSt16__introsort_loopIPelN9__gnu_cxx5__ops15_Iter_less_iterEEvT_S4_T0_T1_.isra.0+0x73>
    29ad:	dd d8                	fstp   %st(0)
    29af:	dd d8                	fstp   %st(0)
    29b1:	d9 c9                	fxch   %st(1)
    29b3:	d9 c0                	fld    %st(0)
    29b5:	db 7d 00             	fstpt  0x0(%rbp)
    29b8:	d9 c9                	fxch   %st(1)
    29ba:	d9 c0                	fld    %st(0)
    29bc:	db 7d 10             	fstpt  0x10(%rbp)
    29bf:	db 6e f0             	fldt   -0x10(%rsi)
    29c2:	d9 ca                	fxch   %st(2)
    29c4:	48 89 f0             	mov    %rsi,%rax
    29c7:	4c 89 e3             	mov    %r12,%rbx
    29ca:	eb 0f                	jmp    29db <_ZSt16__introsort_loopIPelN9__gnu_cxx5__ops15_Iter_less_iterEEvT_S4_T0_T1_.isra.0+0x9b>
    29cc:	0f 1f 40 00          	nopl   0x0(%rax)
    29d0:	dd d9                	fstp   %st(1)
    29d2:	db 6b 10             	fldt   0x10(%rbx)
    29d5:	d9 c9                	fxch   %st(1)
    29d7:	48 83 c3 10          	add    $0x10,%rbx
    29db:	db f1                	fcomi  %st(1),%st
    29dd:	77 f1                	ja     29d0 <_ZSt16__introsort_loopIPelN9__gnu_cxx5__ops15_Iter_less_iterEEvT_S4_T0_T1_.isra.0+0x90>
    29df:	d9 ca                	fxch   %st(2)
    29e1:	48 83 e8 10          	sub    $0x10,%rax
    29e5:	db f2                	fcomi  %st(2),%st
    29e7:	76 1f                	jbe    2a08 <_ZSt16__introsort_loopIPelN9__gnu_cxx5__ops15_Iter_less_iterEEvT_S4_T0_T1_.isra.0+0xc8>
    29e9:	dd d8                	fstp   %st(0)
    29eb:	eb 05                	jmp    29f2 <_ZSt16__introsort_loopIPelN9__gnu_cxx5__ops15_Iter_less_iterEEvT_S4_T0_T1_.isra.0+0xb2>
    29ed:	0f 1f 00             	nopl   (%rax)
    29f0:	dd d8                	fstp   %st(0)
    29f2:	db 68 f0             	fldt   -0x10(%rax)
    29f5:	48 83 e8 10          	sub    $0x10,%rax
    29f9:	db f2                	fcomi  %st(2),%st
    29fb:	77 f3                	ja     29f0 <_ZSt16__introsort_loopIPelN9__gnu_cxx5__ops15_Iter_less_iterEEvT_S4_T0_T1_.isra.0+0xb0>
    29fd:	dd da                	fstp   %st(2)
    29ff:	d9 c9                	fxch   %st(1)
    2a01:	eb 0d                	jmp    2a10 <_ZSt16__introsort_loopIPelN9__gnu_cxx5__ops15_Iter_less_iterEEvT_S4_T0_T1_.isra.0+0xd0>
    2a03:	0f 1f 44 00 00       	nopl   0x0(%rax,%rax,1)
    2a08:	dd da                	fstp   %st(2)
    2a0a:	d9 c9                	fxch   %st(1)
    2a0c:	0f 1f 40 00          	nopl   0x0(%rax)
    2a10:	48 39 c3             	cmp    %rax,%rbx
    2a13:	73 4b                	jae    2a60 <_ZSt16__introsort_loopIPelN9__gnu_cxx5__ops15_Iter_less_iterEEvT_S4_T0_T1_.isra.0+0x120>
    2a15:	db 3b                	fstpt  (%rbx)
    2a17:	48 83 c3 10          	add    $0x10,%rbx
    2a1b:	db 38                	fstpt  (%rax)
    2a1d:	db 6d 00             	fldt   0x0(%rbp)
    2a20:	db 2b                	fldt   (%rbx)
    2a22:	db 68 f0             	fldt   -0x10(%rax)
    2a25:	d9 ca                	fxch   %st(2)
    2a27:	eb b2                	jmp    29db <_ZSt16__introsort_loopIPelN9__gnu_cxx5__ops15_Iter_less_iterEEvT_S4_T0_T1_.isra.0+0x9b>
    2a29:	d9 c9                	fxch   %st(1)
    2a2b:	db f3                	fcomi  %st(3),%st
    2a2d:	0f 87 7a ff ff ff    	ja     29ad <_ZSt16__introsort_loopIPelN9__gnu_cxx5__ops15_Iter_less_iterEEvT_S4_T0_T1_.isra.0+0x6d>
    2a33:	dd db                	fstp   %st(3)
    2a35:	d9 c9                	fxch   %st(1)
    2a37:	d9 ca                	fxch   %st(2)
    2a39:	db f1                	fcomi  %st(1),%st
    2a3b:	76 59                	jbe    2a96 <_ZSt16__introsort_loopIPelN9__gnu_cxx5__ops15_Iter_less_iterEEvT_S4_T0_T1_.isra.0+0x156>
    2a3d:	dd d9                	fstp   %st(1)
    2a3f:	eb 04                	jmp    2a45 <_ZSt16__introsort_loopIPelN9__gnu_cxx5__ops15_Iter_less_iterEEvT_S4_T0_T1_.isra.0+0x105>
    2a41:	dd da                	fstp   %st(2)
    2a43:	d9 c9                	fxch   %st(1)
    2a45:	db 7d 00             	fstpt  0x0(%rbp)
    2a48:	d9 c0                	fld    %st(0)
    2a4a:	db 7e f0             	fstpt  -0x10(%rsi)
    2a4d:	db 6d 10             	fldt   0x10(%rbp)
    2a50:	db 6d 00             	fldt   0x0(%rbp)
    2a53:	d9 ca                	fxch   %st(2)
    2a55:	e9 68 ff ff ff       	jmp    29c2 <_ZSt16__introsort_loopIPelN9__gnu_cxx5__ops15_Iter_less_iterEEvT_S4_T0_T1_.isra.0+0x82>
    2a5a:	66 0f 1f 44 00 00    	nopw   0x0(%rax,%rax,1)
    2a60:	dd d8                	fstp   %st(0)
    2a62:	dd d8                	fstp   %st(0)
    2a64:	4c 89 ea             	mov    %r13,%rdx
    2a67:	48 89 df             	mov    %rbx,%rdi
    2a6a:	e8 d1 fe ff ff       	call   2940 <_ZSt16__introsort_loopIPelN9__gnu_cxx5__ops15_Iter_less_iterEEvT_S4_T0_T1_.isra.0>
    2a6f:	48 89 d8             	mov    %rbx,%rax
    2a72:	48 29 e8             	sub    %rbp,%rax
    2a75:	48 3d 00 01 00 00    	cmp    $0x100,%rax
    2a7b:	0f 8e a1 00 00 00    	jle    2b22 <_ZSt16__introsort_loopIPelN9__gnu_cxx5__ops15_Iter_less_iterEEvT_S4_T0_T1_.isra.0+0x1e2>
    2a81:	4d 85 ed             	test   %r13,%r13
    2a84:	74 2c                	je     2ab2 <_ZSt16__introsort_loopIPelN9__gnu_cxx5__ops15_Iter_less_iterEEvT_S4_T0_T1_.isra.0+0x172>
    2a86:	48 89 de             	mov    %rbx,%rsi
    2a89:	e9 e1 fe ff ff       	jmp    296f <_ZSt16__introsort_loopIPelN9__gnu_cxx5__ops15_Iter_less_iterEEvT_S4_T0_T1_.isra.0+0x2f>
    2a8e:	dd d8                	fstp   %st(0)
    2a90:	dd da                	fstp   %st(2)
    2a92:	d9 c9                	fxch   %st(1)
    2a94:	eb 02                	jmp    2a98 <_ZSt16__introsort_loopIPelN9__gnu_cxx5__ops15_Iter_less_iterEEvT_S4_T0_T1_.isra.0+0x158>
    2a96:	dd d8                	fstp   %st(0)
    2a98:	db 7d 00             	fstpt  0x0(%rbp)
    2a9b:	db 38                	fstpt  (%rax)
    2a9d:	db 6d 10             	fldt   0x10(%rbp)
    2aa0:	db 6e f0             	fldt   -0x10(%rsi)
    2aa3:	db 6d 00             	fldt   0x0(%rbp)
    2aa6:	d9 ca                	fxch   %st(2)
    2aa8:	d9 c9                	fxch   %st(1)
    2aaa:	e9 13 ff ff ff       	jmp    29c2 <_ZSt16__introsort_loopIPelN9__gnu_cxx5__ops15_Iter_less_iterEEvT_S4_T0_T1_.isra.0+0x82>
    2aaf:	48 89 f3             	mov    %rsi,%rbx
    2ab2:	48 c1 f8 04          	sar    $0x4,%rax
    2ab6:	4c 8d 68 fe          	lea    -0x2(%rax),%r13
    2aba:	49 89 c4             	mov    %rax,%r12
    2abd:	49 d1 fd             	sar    $1,%r13
    2ac0:	eb 04                	jmp    2ac6 <_ZSt16__introsort_loopIPelN9__gnu_cxx5__ops15_Iter_less_iterEEvT_S4_T0_T1_.isra.0+0x186>
    2ac2:	49 83 ed 01          	sub    $0x1,%r13
    2ac6:	4c 89 e8             	mov    %r13,%rax
    2ac9:	4c 89 ee             	mov    %r13,%rsi
    2acc:	4c 89 e2             	mov    %r12,%rdx
    2acf:	48 89 ef             	mov    %rbp,%rdi
    2ad2:	48 c1 e0 04          	shl    $0x4,%rax
    2ad6:	ff 74 05 08          	push   0x8(%rbp,%rax,1)
    2ada:	ff 74 05 00          	push   0x0(%rbp,%rax,1)
    2ade:	e8 0d fd ff ff       	call   27f0 <_ZSt13__adjust_heapIPeleN9__gnu_cxx5__ops15_Iter_less_iterEEvT_T0_S5_T1_T2_.isra.0>
    2ae3:	59                   	pop    %rcx
    2ae4:	5e                   	pop    %rsi
    2ae5:	4d 85 ed             	test   %r13,%r13
    2ae8:	75 d8                	jne    2ac2 <_ZSt16__introsort_loopIPelN9__gnu_cxx5__ops15_Iter_less_iterEEvT_S4_T0_T1_.isra.0+0x182>
    2aea:	66 0f 1f 44 00 00    	nopw   0x0(%rax,%rax,1)
    2af0:	db 6b f0             	fldt   -0x10(%rbx)
    2af3:	48 83 eb 10          	sub    $0x10,%rbx
    2af7:	48 83 ec 10          	sub    $0x10,%rsp
    2afb:	31 f6                	xor    %esi,%esi
    2afd:	49 89 dc             	mov    %rbx,%r12
    2b00:	48 89 ef             	mov    %rbp,%rdi
    2b03:	db 6d 00             	fldt   0x0(%rbp)
    2b06:	49 29 ec             	sub    %rbp,%r12
    2b09:	4c 89 e2             	mov    %r12,%rdx
    2b0c:	48 c1 fa 04          	sar    $0x4,%rdx
    2b10:	db 3b                	fstpt  (%rbx)
    2b12:	db 3c 24             	fstpt  (%rsp)
    2b15:	e8 d6 fc ff ff       	call   27f0 <_ZSt13__adjust_heapIPeleN9__gnu_cxx5__ops15_Iter_less_iterEEvT_T0_S5_T1_T2_.isra.0>
    2b1a:	58                   	pop    %rax
    2b1b:	5a                   	pop    %rdx
    2b1c:	49 83 fc 10          	cmp    $0x10,%r12
    2b20:	7f ce                	jg     2af0 <_ZSt16__introsort_loopIPelN9__gnu_cxx5__ops15_Iter_less_iterEEvT_S4_T0_T1_.isra.0+0x1b0>
    2b22:	48 83 c4 08          	add    $0x8,%rsp
    2b26:	5b                   	pop    %rbx
    2b27:	5d                   	pop    %rbp
    2b28:	41 5c                	pop    %r12
    2b2a:	41 5d                	pop    %r13
    2b2c:	c3                   	ret
    2b2d:	c3                   	ret
    2b2e:	66 90                	xchg   %ax,%ax

0000000000002b30 <_ZL6forceldddddddjjPPPedddd>:
    2b30:	41 57                	push   %r15
    2b32:	66 44 0f 28 c0       	movapd %xmm0,%xmm8
    2b37:	66 0f ef c0          	pxor   %xmm0,%xmm0
    2b3b:	41 89 f7             	mov    %esi,%r15d
    2b3e:	41 56                	push   %r14
    2b40:	41 89 f6             	mov    %esi,%r14d
    2b43:	41 55                	push   %r13
    2b45:	49 89 cd             	mov    %rcx,%r13
    2b48:	41 54                	push   %r12
    2b4a:	49 89 fc             	mov    %rdi,%r12
    2b4d:	55                   	push   %rbp
    2b4e:	53                   	push   %rbx
    2b4f:	89 d3                	mov    %edx,%ebx
    2b51:	48 81 ec d8 01 00 00 	sub    $0x1d8,%rsp
    2b58:	f2 0f 11 14 24       	movsd  %xmm2,(%rsp)
    2b5d:	66 41 0f 28 d0       	movapd %xmm8,%xmm2
    2b62:	dd 04 24             	fldl   (%rsp)
    2b65:	66 0f 57 15 b3 79 00 	xorpd  0x79b3(%rip),%xmm2        # a520 <_IO_stdin_used+0x520>
    2b6c:	00 
    2b6d:	f2 0f 11 4c 24 10    	movsd  %xmm1,0x10(%rsp)
    2b73:	f2 0f 11 1c 24       	movsd  %xmm3,(%rsp)
    2b78:	f2 0f 11 64 24 08    	movsd  %xmm4,0x8(%rsp)
    2b7e:	f2 0f 11 7c 24 18    	movsd  %xmm7,0x18(%rsp)
    2b84:	64 48 8b 04 25 28 00 	mov    %fs:0x28,%rax
    2b8b:	00 00 
    2b8d:	48 89 84 24 c8 01 00 	mov    %rax,0x1c8(%rsp)
    2b94:	00 
    2b95:	31 c0                	xor    %eax,%eax
    2b97:	66 0f 2f ea          	comisd %xmm2,%xmm5
    2b9b:	48 c7 47 10 00 00 00 	movq   $0x0,0x10(%rdi)
    2ba2:	00 
    2ba3:	0f 11 07             	movups %xmm0,(%rdi)
    2ba6:	0f 87 14 01 00 00    	ja     2cc0 <_ZL6forceldddddddjjPPPedddd+0x190>
    2bac:	31 c0                	xor    %eax,%eax
    2bae:	66 44 0f 2f c6       	comisd %xmm6,%xmm8
    2bb3:	77 5b                	ja     2c10 <_ZL6forceldddddddjjPPPedddd+0xe0>
    2bb5:	66 0f 2f d6          	comisd %xmm6,%xmm2
    2bb9:	77 15                	ja     2bd0 <_ZL6forceldddddddjjPPPedddd+0xa0>
    2bbb:	66 41 0f 2f e8       	comisd %xmm8,%xmm5
    2bc0:	0f 86 22 02 00 00    	jbe    2de8 <_ZL6forceldddddddjjPPPedddd+0x2b8>
    2bc6:	dd d8                	fstp   %st(0)
    2bc8:	eb 16                	jmp    2be0 <_ZL6forceldddddddjjPPPedddd+0xb0>
    2bca:	66 0f 1f 44 00 00    	nopw   0x0(%rax,%rax,1)
    2bd0:	dd d8                	fstp   %st(0)
    2bd2:	eb 0c                	jmp    2be0 <_ZL6forceldddddddjjPPPedddd+0xb0>
    2bd4:	dd d8                	fstp   %st(0)
    2bd6:	eb 08                	jmp    2be0 <_ZL6forceldddddddjjPPPedddd+0xb0>
    2bd8:	dd d8                	fstp   %st(0)
    2bda:	eb 04                	jmp    2be0 <_ZL6forceldddddddjjPPPedddd+0xb0>
    2bdc:	dd d8                	fstp   %st(0)
    2bde:	66 90                	xchg   %ax,%ax
    2be0:	48 8b 84 24 c8 01 00 	mov    0x1c8(%rsp),%rax
    2be7:	00 
    2be8:	64 48 2b 04 25 28 00 	sub    %fs:0x28,%rax
    2bef:	00 00 
    2bf1:	0f 85 8d 16 00 00    	jne    4284 <_ZL6forceldddddddjjPPPedddd+0x1754>
    2bf7:	48 81 c4 d8 01 00 00 	add    $0x1d8,%rsp
    2bfe:	4c 89 e0             	mov    %r12,%rax
    2c01:	5b                   	pop    %rbx
    2c02:	5d                   	pop    %rbp
    2c03:	41 5c                	pop    %r12
    2c05:	41 5d                	pop    %r13
    2c07:	41 5e                	pop    %r14
    2c09:	41 5f                	pop    %r15
    2c0b:	c3                   	ret
    2c0c:	0f 1f 40 00          	nopl   0x0(%rax)
    2c10:	66 0f 28 c6          	movapd %xmm6,%xmm0
    2c14:	f2 0f 11 6c 24 40    	movsd  %xmm5,0x40(%rsp)
    2c1a:	f2 41 0f 5e c0       	divsd  %xmm8,%xmm0
    2c1f:	dd 5c 24 70          	fstpl  0x70(%rsp)
    2c23:	f2 0f 11 54 24 38    	movsd  %xmm2,0x38(%rsp)
    2c29:	f2 0f 11 74 24 30    	movsd  %xmm6,0x30(%rsp)
    2c2f:	f2 44 0f 11 44 24 20 	movsd  %xmm8,0x20(%rsp)
    2c36:	e8 f5 f7 ff ff       	call   2430 <acos@plt>
    2c3b:	43 8d 04 3f          	lea    (%r15,%r15,1),%eax
    2c3f:	66 0f ef e4          	pxor   %xmm4,%xmm4
    2c43:	f2 0f 10 0d 8d 78 00 	movsd  0x788d(%rip),%xmm1        # a4d8 <_IO_stdin_used+0x4d8>
    2c4a:	00 
    2c4b:	f2 48 0f 2a e0       	cvtsi2sd %rax,%xmm4
    2c50:	44 89 f8             	mov    %r15d,%eax
    2c53:	dd 44 24 70          	fldl   0x70(%rsp)
    2c57:	f2 44 0f 10 44 24 20 	movsd  0x20(%rsp),%xmm8
    2c5e:	66 0f 28 d9          	movapd %xmm1,%xmm3
    2c62:	f2 0f 10 74 24 30    	movsd  0x30(%rsp),%xmm6
    2c68:	f2 0f 10 54 24 38    	movsd  0x38(%rsp),%xmm2
    2c6e:	f2 0f 10 6c 24 40    	movsd  0x40(%rsp),%xmm5
    2c74:	f2 0f 5e dc          	divsd  %xmm4,%xmm3
    2c78:	f2 0f 10 25 60 78 00 	movsd  0x7860(%rip),%xmm4        # a4e0 <_IO_stdin_used+0x4e0>
    2c7f:	00 
    2c80:	f2 0f 5c c3          	subsd  %xmm3,%xmm0
    2c84:	66 0f ef db          	pxor   %xmm3,%xmm3
    2c88:	f2 48 0f 2a d8       	cvtsi2sd %rax,%xmm3
    2c8d:	f2 0f 5e cb          	divsd  %xmm3,%xmm1
    2c91:	f2 0f 10 1d 5f 78 00 	movsd  0x785f(%rip),%xmm3        # a4f8 <_IO_stdin_used+0x4f8>
    2c98:	00 
    2c99:	f2 0f 5e c1          	divsd  %xmm1,%xmm0
    2c9d:	66 0f 28 c8          	movapd %xmm0,%xmm1
    2ca1:	66 0f 54 cb          	andpd  %xmm3,%xmm1
    2ca5:	66 0f 2e e1          	ucomisd %xmm1,%xmm4
    2ca9:	0f 87 f9 00 00 00    	ja     2da8 <_ZL6forceldddddddjjPPPedddd+0x278>
    2caf:	f2 0f 2c c0          	cvttsd2si %xmm0,%eax
    2cb3:	e9 fd fe ff ff       	jmp    2bb5 <_ZL6forceldddddddjjPPPedddd+0x85>
    2cb8:	0f 1f 84 00 00 00 00 	nopl   0x0(%rax,%rax,1)
    2cbf:	00 
    2cc0:	66 0f 28 c5          	movapd %xmm5,%xmm0
    2cc4:	f2 0f 11 74 24 40    	movsd  %xmm6,0x40(%rsp)
    2cca:	f2 41 0f 5e c0       	divsd  %xmm8,%xmm0
    2ccf:	dd 5c 24 70          	fstpl  0x70(%rsp)
    2cd3:	f2 0f 11 54 24 38    	movsd  %xmm2,0x38(%rsp)
    2cd9:	f2 0f 11 6c 24 30    	movsd  %xmm5,0x30(%rsp)
    2cdf:	f2 44 0f 11 44 24 20 	movsd  %xmm8,0x20(%rsp)
    2ce6:	e8 45 f7 ff ff       	call   2430 <acos@plt>
    2ceb:	43 8d 04 3f          	lea    (%r15,%r15,1),%eax
    2cef:	66 0f ef e4          	pxor   %xmm4,%xmm4
    2cf3:	f2 0f 10 0d dd 77 00 	movsd  0x77dd(%rip),%xmm1        # a4d8 <_IO_stdin_used+0x4d8>
    2cfa:	00 
    2cfb:	f2 48 0f 2a e0       	cvtsi2sd %rax,%xmm4
    2d00:	44 89 f8             	mov    %r15d,%eax
    2d03:	dd 44 24 70          	fldl   0x70(%rsp)
    2d07:	f2 44 0f 10 44 24 20 	movsd  0x20(%rsp),%xmm8
    2d0e:	66 0f 28 d9          	movapd %xmm1,%xmm3
    2d12:	f2 0f 10 6c 24 30    	movsd  0x30(%rsp),%xmm5
    2d18:	f2 0f 10 54 24 38    	movsd  0x38(%rsp),%xmm2
    2d1e:	f2 0f 10 74 24 40    	movsd  0x40(%rsp),%xmm6
    2d24:	f2 0f 5e dc          	divsd  %xmm4,%xmm3
    2d28:	f2 0f 10 25 b0 77 00 	movsd  0x77b0(%rip),%xmm4        # a4e0 <_IO_stdin_used+0x4e0>
    2d2f:	00 
    2d30:	f2 0f 5c c3          	subsd  %xmm3,%xmm0
    2d34:	66 0f ef db          	pxor   %xmm3,%xmm3
    2d38:	f2 48 0f 2a d8       	cvtsi2sd %rax,%xmm3
    2d3d:	f2 0f 5e cb          	divsd  %xmm3,%xmm1
    2d41:	f2 0f 10 1d af 77 00 	movsd  0x77af(%rip),%xmm3        # a4f8 <_IO_stdin_used+0x4f8>
    2d48:	00 
    2d49:	f2 0f 5e c1          	divsd  %xmm1,%xmm0
    2d4d:	66 0f 28 c8          	movapd %xmm0,%xmm1
    2d51:	66 0f 54 cb          	andpd  %xmm3,%xmm1
    2d55:	66 0f 2e e1          	ucomisd %xmm1,%xmm4
    2d59:	77 0d                	ja     2d68 <_ZL6forceldddddddjjPPPedddd+0x238>
    2d5b:	f2 44 0f 2c f0       	cvttsd2si %xmm0,%r14d
    2d60:	e9 47 fe ff ff       	jmp    2bac <_ZL6forceldddddddjjPPPedddd+0x7c>
    2d65:	0f 1f 00             	nopl   (%rax)
    2d68:	f2 48 0f 2c c0       	cvttsd2si %xmm0,%rax
    2d6d:	66 0f ef c9          	pxor   %xmm1,%xmm1
    2d71:	66 0f 28 e0          	movapd %xmm0,%xmm4
    2d75:	f2 0f 10 3d 6b 77 00 	movsd  0x776b(%rip),%xmm7        # a4e8 <_IO_stdin_used+0x4e8>
    2d7c:	00 
    2d7d:	66 0f 55 d8          	andnpd %xmm0,%xmm3
    2d81:	f2 48 0f 2a c8       	cvtsi2sd %rax,%xmm1
    2d86:	f2 0f c2 e1 06       	cmpnlesd %xmm1,%xmm4
    2d8b:	66 0f 54 e7          	andpd  %xmm7,%xmm4
    2d8f:	f2 0f 58 cc          	addsd  %xmm4,%xmm1
    2d93:	66 0f 56 cb          	orpd   %xmm3,%xmm1
    2d97:	66 0f 28 c1          	movapd %xmm1,%xmm0
    2d9b:	f2 44 0f 2c f0       	cvttsd2si %xmm0,%r14d
    2da0:	e9 07 fe ff ff       	jmp    2bac <_ZL6forceldddddddjjPPPedddd+0x7c>
    2da5:	0f 1f 00             	nopl   (%rax)
    2da8:	f2 48 0f 2c c0       	cvttsd2si %xmm0,%rax
    2dad:	66 0f ef c9          	pxor   %xmm1,%xmm1
    2db1:	f2 0f 10 3d 2f 77 00 	movsd  0x772f(%rip),%xmm7        # a4e8 <_IO_stdin_used+0x4e8>
    2db8:	00 
    2db9:	66 0f 55 d8          	andnpd %xmm0,%xmm3
    2dbd:	f2 48 0f 2a c8       	cvtsi2sd %rax,%xmm1
    2dc2:	66 0f 28 e1          	movapd %xmm1,%xmm4
    2dc6:	f2 0f c2 e0 06       	cmpnlesd %xmm0,%xmm4
    2dcb:	66 0f 54 e7          	andpd  %xmm7,%xmm4
    2dcf:	f2 0f 5c cc          	subsd  %xmm4,%xmm1
    2dd3:	66 0f 56 cb          	orpd   %xmm3,%xmm1
    2dd7:	66 0f 28 c1          	movapd %xmm1,%xmm0
    2ddb:	f2 0f 2c c0          	cvttsd2si %xmm0,%eax
    2ddf:	e9 d1 fd ff ff       	jmp    2bb5 <_ZL6forceldddddddjjPPPedddd+0x85>
    2de4:	0f 1f 40 00          	nopl   0x0(%rax)
    2de8:	f2 0f 10 7c 24 10    	movsd  0x10(%rsp),%xmm7
    2dee:	66 0f ef c0          	pxor   %xmm0,%xmm0
    2df2:	66 0f 2e f8          	ucomisd %xmm0,%xmm7
    2df6:	7a 06                	jp     2dfe <_ZL6forceldddddddjjPPPedddd+0x2ce>
    2df8:	0f 84 d6 00 00 00    	je     2ed4 <_ZL6forceldddddddjjPPPedddd+0x3a4>
    2dfe:	dd 5c 24 70          	fstpl  0x70(%rsp)
    2e02:	f2 0f 10 04 24       	movsd  (%rsp),%xmm0
    2e07:	f2 0f 5e 44 24 10    	divsd  0x10(%rsp),%xmm0
    2e0d:	89 44 24 30          	mov    %eax,0x30(%rsp)
    2e11:	f2 0f 11 74 24 50    	movsd  %xmm6,0x50(%rsp)
    2e17:	f2 0f 11 6c 24 40    	movsd  %xmm5,0x40(%rsp)
    2e1d:	f2 44 0f 11 44 24 38 	movsd  %xmm8,0x38(%rsp)
    2e24:	e8 e7 f5 ff ff       	call   2410 <atan@plt>
    2e29:	f2 0f 11 44 24 20    	movsd  %xmm0,0x20(%rsp)
    2e2f:	dd 44 24 20          	fldl   0x20(%rsp)
    2e33:	f2 0f 10 44 24 08    	movsd  0x8(%rsp),%xmm0
    2e39:	f2 0f 5e 44 24 10    	divsd  0x10(%rsp),%xmm0
    2e3f:	dd 54 24 78          	fstl   0x78(%rsp)
    2e43:	db 7c 24 60          	fstpt  0x60(%rsp)
    2e47:	e8 c4 f5 ff ff       	call   2410 <atan@plt>
    2e4c:	8b 44 24 30          	mov    0x30(%rsp),%eax
    2e50:	f2 44 0f 10 44 24 38 	movsd  0x38(%rsp),%xmm8
    2e57:	f2 0f 11 44 24 20    	movsd  %xmm0,0x20(%rsp)
    2e5d:	66 0f ef c0          	pxor   %xmm0,%xmm0
    2e61:	66 0f 2f 04 24       	comisd (%rsp),%xmm0
    2e66:	dd 44 24 20          	fldl   0x20(%rsp)
    2e6a:	f2 0f 10 6c 24 40    	movsd  0x40(%rsp),%xmm5
    2e70:	dd 44 24 70          	fldl   0x70(%rsp)
    2e74:	f2 0f 10 74 24 50    	movsd  0x50(%rsp),%xmm6
    2e7a:	0f 87 f4 01 00 00    	ja     3074 <_ZL6forceldddddddjjPPPedddd+0x544>
    2e80:	f2 0f 10 3c 24       	movsd  (%rsp),%xmm7
    2e85:	66 0f 2f f8          	comisd %xmm0,%xmm7
    2e89:	0f 86 81 0c 00 00    	jbe    3b10 <_ZL6forceldddddddjjPPPedddd+0xfe0>
    2e8f:	66 0f 2f 44 24 10    	comisd 0x10(%rsp),%xmm0
    2e95:	0f 87 1a 06 00 00    	ja     34b5 <_ZL6forceldddddddjjPPPedddd+0x985>
    2e9b:	dd 44 24 78          	fldl   0x78(%rsp)
    2e9f:	66 0f 2f 44 24 08    	comisd 0x8(%rsp),%xmm0
    2ea5:	db bc 24 80 01 00 00 	fstpt  0x180(%rsp)
    2eac:	0f 87 ae 12 00 00    	ja     4160 <_ZL6forceldddddddjjPPPedddd+0x1630>
    2eb2:	f2 0f 10 7c 24 08    	movsd  0x8(%rsp),%xmm7
    2eb8:	66 0f 2f f8          	comisd %xmm0,%xmm7
    2ebc:	77 4e                	ja     2f0c <_ZL6forceldddddddjjPPPedddd+0x3dc>
    2ebe:	dd d9                	fstp   %st(1)
    2ec0:	f2 0f 10 7c 24 10    	movsd  0x10(%rsp),%xmm7
    2ec6:	66 0f 2f f8          	comisd %xmm0,%xmm7
    2eca:	0f 86 ec 12 00 00    	jbe    41bc <_ZL6forceldddddddjjPPPedddd+0x168c>
    2ed0:	d9 ee                	fldz
    2ed2:	eb 4c                	jmp    2f20 <_ZL6forceldddddddjjPPPedddd+0x3f0>
    2ed4:	f2 0f 10 3c 24       	movsd  (%rsp),%xmm7
    2ed9:	66 0f 2f f8          	comisd %xmm0,%xmm7
    2edd:	0f 86 d9 01 00 00    	jbe    30bc <_ZL6forceldddddddjjPPPedddd+0x58c>
    2ee3:	dd 05 e7 75 00 00    	fldl   0x75e7(%rip)        # a4d0 <_IO_stdin_used+0x4d0>
    2ee9:	f2 0f 10 7c 24 08    	movsd  0x8(%rsp),%xmm7
    2eef:	66 0f ef c0          	pxor   %xmm0,%xmm0
    2ef3:	db bc 24 80 01 00 00 	fstpt  0x180(%rsp)
    2efa:	66 0f 2f f8          	comisd %xmm0,%xmm7
    2efe:	0f 86 2c 0b 00 00    	jbe    3a30 <_ZL6forceldddddddjjPPPedddd+0xf00>
    2f04:	dd 05 c6 75 00 00    	fldl   0x75c6(%rip)        # a4d0 <_IO_stdin_used+0x4d0>
    2f0a:	eb 14                	jmp    2f20 <_ZL6forceldddddddjjPPPedddd+0x3f0>
    2f0c:	d9 c9                	fxch   %st(1)
    2f0e:	eb 10                	jmp    2f20 <_ZL6forceldddddddjjPPPedddd+0x3f0>
    2f10:	d9 c9                	fxch   %st(1)
    2f12:	eb 0c                	jmp    2f20 <_ZL6forceldddddddjjPPPedddd+0x3f0>
    2f14:	d9 c9                	fxch   %st(1)
    2f16:	66 2e 0f 1f 84 00 00 	cs nopw 0x0(%rax,%rax,1)
    2f1d:	00 00 00 
    2f20:	db bc 24 90 01 00 00 	fstpt  0x190(%rsp)
    2f27:	66 0f ef c0          	pxor   %xmm0,%xmm0
    2f2b:	dd 54 24 20          	fstl   0x20(%rsp)
    2f2f:	f2 0f 10 7c 24 20    	movsd  0x20(%rsp),%xmm7
    2f35:	66 0f 2e f8          	ucomisd %xmm0,%xmm7
    2f39:	0f 8a d4 05 00 00    	jp     3513 <_ZL6forceldddddddjjPPPedddd+0x9e3>
    2f3f:	0f 85 ce 05 00 00    	jne    3513 <_ZL6forceldddddddjjPPPedddd+0x9e3>
    2f45:	f2 0f 10 3c 24       	movsd  (%rsp),%xmm7
    2f4a:	66 0f 2f f8          	comisd %xmm0,%xmm7
    2f4e:	0f 86 69 0b 00 00    	jbe    3abd <_ZL6forceldddddddjjPPPedddd+0xf8d>
    2f54:	dd 05 76 75 00 00    	fldl   0x7576(%rip)        # a4d0 <_IO_stdin_used+0x4d0>
    2f5a:	f2 0f 10 7c 24 08    	movsd  0x8(%rsp),%xmm7
    2f60:	66 0f ef c0          	pxor   %xmm0,%xmm0
    2f64:	db bc 24 a0 01 00 00 	fstpt  0x1a0(%rsp)
    2f6b:	66 0f 2f f8          	comisd %xmm0,%xmm7
    2f6f:	0f 86 e2 09 00 00    	jbe    3957 <_ZL6forceldddddddjjPPPedddd+0xe27>
    2f75:	dd 05 55 75 00 00    	fldl   0x7555(%rip)        # a4d0 <_IO_stdin_used+0x4d0>
    2f7b:	d9 c9                	fxch   %st(1)
    2f7d:	48 8d ac 24 80 01 00 	lea    0x180(%rsp),%rbp
    2f84:	00 
    2f85:	dd 5c 24 40          	fstpl  0x40(%rsp)
    2f89:	ba 04 00 00 00       	mov    $0x4,%edx
    2f8e:	48 8d b4 24 c0 01 00 	lea    0x1c0(%rsp),%rsi
    2f95:	00 
    2f96:	48 89 ef             	mov    %rbp,%rdi
    2f99:	89 44 24 20          	mov    %eax,0x20(%rsp)
    2f9d:	db bc 24 b0 01 00 00 	fstpt  0x1b0(%rsp)
    2fa4:	e8 97 f9 ff ff       	call   2940 <_ZSt16__introsort_loopIPelN9__gnu_cxx5__ops15_Iter_less_iterEEvT_S4_T0_T1_.isra.0>
    2fa9:	8b 44 24 20          	mov    0x20(%rsp),%eax
    2fad:	4c 8d 84 24 b0 01 00 	lea    0x1b0(%rsp),%r8
    2fb4:	00 
    2fb5:	4c 89 64 24 38       	mov    %r12,0x38(%rsp)
    2fba:	49 89 ec             	mov    %rbp,%r12
    2fbd:	89 5c 24 78          	mov    %ebx,0x78(%rsp)
    2fc1:	48 89 eb             	mov    %rbp,%rbx
    2fc4:	4c 89 c5             	mov    %r8,%rbp
    2fc7:	89 44 24 30          	mov    %eax,0x30(%rsp)
    2fcb:	f2 44 0f 11 44 24 70 	movsd  %xmm8,0x70(%rsp)
    2fd2:	f2 0f 11 6c 24 50    	movsd  %xmm5,0x50(%rsp)
    2fd8:	f2 0f 11 74 24 60    	movsd  %xmm6,0x60(%rsp)
    2fde:	eb 48                	jmp    3028 <_ZL6forceldddddddjjPPPedddd+0x4f8>
    2fe0:	48 89 da             	mov    %rbx,%rdx
    2fe3:	4c 29 e2             	sub    %r12,%rdx
    2fe6:	48 83 fa 10          	cmp    $0x10,%rdx
    2fea:	0f 8e f4 06 00 00    	jle    36e4 <_ZL6forceldddddddjjPPPedddd+0xbb4>
    2ff0:	dd d8                	fstp   %st(0)
    2ff2:	bf 10 00 00 00       	mov    $0x10,%edi
    2ff7:	4c 89 e6             	mov    %r12,%rsi
    2ffa:	db 7c 24 20          	fstpt  0x20(%rsp)
    2ffe:	48 29 d7             	sub    %rdx,%rdi
    3001:	48 01 df             	add    %rbx,%rdi
    3004:	e8 77 f5 ff ff       	call   2580 <memmove@plt>
    3009:	db 6c 24 20          	fldt   0x20(%rsp)
    300d:	eb 09                	jmp    3018 <_ZL6forceldddddddjjPPPedddd+0x4e8>
    300f:	dd d8                	fstp   %st(0)
    3011:	0f 1f 80 00 00 00 00 	nopl   0x0(%rax)
    3018:	db bc 24 80 01 00 00 	fstpt  0x180(%rsp)
    301f:	48 39 eb             	cmp    %rbp,%rbx
    3022:	0f 84 a5 00 00 00    	je     30cd <_ZL6forceldddddddjjPPPedddd+0x59d>
    3028:	48 89 df             	mov    %rbx,%rdi
    302b:	48 83 c3 10          	add    $0x10,%rbx
    302f:	db 6f 10             	fldt   0x10(%rdi)
    3032:	48 89 de             	mov    %rbx,%rsi
    3035:	48 89 fa             	mov    %rdi,%rdx
    3038:	db ac 24 80 01 00 00 	fldt   0x180(%rsp)
    303f:	db f1                	fcomi  %st(1),%st
    3041:	77 9d                	ja     2fe0 <_ZL6forceldddddddjjPPPedddd+0x4b0>
    3043:	dd d8                	fstp   %st(0)
    3045:	db 2f                	fldt   (%rdi)
    3047:	db f1                	fcomi  %st(1),%st
    3049:	76 19                	jbe    3064 <_ZL6forceldddddddjjPPPedddd+0x534>
    304b:	0f 1f 44 00 00       	nopl   0x0(%rax,%rax,1)
    3050:	db 7a 10             	fstpt  0x10(%rdx)
    3053:	48 89 d6             	mov    %rdx,%rsi
    3056:	48 83 ea 10          	sub    $0x10,%rdx
    305a:	db 2a                	fldt   (%rdx)
    305c:	db f1                	fcomi  %st(1),%st
    305e:	77 f0                	ja     3050 <_ZL6forceldddddddjjPPPedddd+0x520>
    3060:	dd d8                	fstp   %st(0)
    3062:	eb 0c                	jmp    3070 <_ZL6forceldddddddjjPPPedddd+0x540>
    3064:	dd d8                	fstp   %st(0)
    3066:	66 2e 0f 1f 84 00 00 	cs nopw 0x0(%rax,%rax,1)
    306d:	00 00 00 
    3070:	db 3e                	fstpt  (%rsi)
    3072:	eb ab                	jmp    301f <_ZL6forceldddddddjjPPPedddd+0x4ef>
    3074:	f2 0f 10 7c 24 10    	movsd  0x10(%rsp),%xmm7
    307a:	66 0f 2f f8          	comisd %xmm0,%xmm7
    307e:	0f 86 c3 09 00 00    	jbe    3a47 <_ZL6forceldddddddjjPPPedddd+0xf17>
    3084:	dd 05 66 74 00 00    	fldl   0x7466(%rip)        # a4f0 <_IO_stdin_used+0x4f0>
    308a:	db 6c 24 60          	fldt   0x60(%rsp)
    308e:	66 0f 2f 44 24 08    	comisd 0x8(%rsp),%xmm0
    3094:	d8 c1                	fadd   %st(1),%st
    3096:	db bc 24 80 01 00 00 	fstpt  0x180(%rsp)
    309d:	0f 87 5e 0f 00 00    	ja     4001 <_ZL6forceldddddddjjPPPedddd+0x14d1>
    30a3:	dd d8                	fstp   %st(0)
    30a5:	f2 0f 10 7c 24 08    	movsd  0x8(%rsp),%xmm7
    30ab:	66 0f 2f f8          	comisd %xmm0,%xmm7
    30af:	0f 87 5b fe ff ff    	ja     2f10 <_ZL6forceldddddddjjPPPedddd+0x3e0>
    30b5:	dd d9                	fstp   %st(1)
    30b7:	e9 14 fe ff ff       	jmp    2ed0 <_ZL6forceldddddddjjPPPedddd+0x3a0>
    30bc:	66 0f 2f c7          	comisd %xmm7,%xmm0
    30c0:	0f 87 09 0f 00 00    	ja     3fcf <_ZL6forceldddddddjjPPPedddd+0x149f>
    30c6:	d9 ee                	fldz
    30c8:	e9 1c fe ff ff       	jmp    2ee9 <_ZL6forceldddddddjjPPPedddd+0x3b9>
    30cd:	f2 44 0f 10 44 24 70 	movsd  0x70(%rsp),%xmm8
    30d4:	66 0f ef c0          	pxor   %xmm0,%xmm0
    30d8:	66 0f 2f 44 24 10    	comisd 0x10(%rsp),%xmm0
    30de:	dd 44 24 40          	fldl   0x40(%rsp)
    30e2:	8b 44 24 30          	mov    0x30(%rsp),%eax
    30e6:	66 45 0f 28 c8       	movapd %xmm8,%xmm9
    30eb:	4c 8b 64 24 38       	mov    0x38(%rsp),%r12
    30f0:	f2 0f 10 6c 24 50    	movsd  0x50(%rsp),%xmm5
    30f6:	f2 0f 10 74 24 60    	movsd  0x60(%rsp),%xmm6
    30fc:	8b 5c 24 78          	mov    0x78(%rsp),%ebx
    3100:	66 45 0f 14 c9       	unpcklpd %xmm9,%xmm9
    3105:	0f 83 ff 04 00 00    	jae    360a <_ZL6forceldddddddjjPPPedddd+0xada>
    310b:	d9 bc 24 2e 01 00 00 	fnstcw 0x12e(%rsp)
    3112:	89 da                	mov    %ebx,%edx
    3114:	66 0f ef d2          	pxor   %xmm2,%xmm2
    3118:	f2 0f 10 0d d0 73 00 	movsd  0x73d0(%rip),%xmm1        # a4f0 <_IO_stdin_used+0x4f0>
    311f:	00 
    3120:	f2 48 0f 2a d2       	cvtsi2sd %rdx,%xmm2
    3125:	f2 0f 10 7c 24 10    	movsd  0x10(%rsp),%xmm7
    312b:	0f b7 94 24 2e 01 00 	movzwl 0x12e(%rsp),%edx
    3132:	00 
    3133:	80 e6 f3             	and    $0xf3,%dh
    3136:	f2 0f 5e ca          	divsd  %xmm2,%xmm1
    313a:	80 ce 04             	or     $0x4,%dh
    313d:	66 89 94 24 2c 01 00 	mov    %dx,0x12c(%rsp)
    3144:	00 
    3145:	0f b7 94 24 2e 01 00 	movzwl 0x12e(%rsp),%edx
    314c:	00 
    314d:	80 ce 0c             	or     $0xc,%dh
    3150:	66 89 94 24 2a 01 00 	mov    %dx,0x12a(%rsp)
    3157:	00 
    3158:	0f b7 94 24 2e 01 00 	movzwl 0x12e(%rsp),%edx
    315f:	00 
    3160:	80 e6 f3             	and    $0xf3,%dh
    3163:	80 ce 08             	or     $0x8,%dh
    3166:	66 89 94 24 28 01 00 	mov    %dx,0x128(%rsp)
    316d:	00 
    316e:	f2 0f 11 4c 24 20    	movsd  %xmm1,0x20(%rsp)
    3174:	dd 44 24 20          	fldl   0x20(%rsp)
    3178:	d9 c0                	fld    %st(0)
    317a:	db ac 24 80 01 00 00 	fldt   0x180(%rsp)
    3181:	d8 f2                	fdiv   %st(2),%st
    3183:	d9 ac 24 2c 01 00 00 	fldcw  0x12c(%rsp)
    318a:	d9 fc                	frndint
    318c:	d9 ac 24 2e 01 00 00 	fldcw  0x12e(%rsp)
    3193:	d9 ac 24 2a 01 00 00 	fldcw  0x12a(%rsp)
    319a:	db 5c 24 20          	fistpl 0x20(%rsp)
    319e:	d9 ac 24 2e 01 00 00 	fldcw  0x12e(%rsp)
    31a5:	db ac 24 b0 01 00 00 	fldt   0x1b0(%rsp)
    31ac:	8b 4c 24 20          	mov    0x20(%rsp),%ecx
    31b0:	de f2                	fdivp  %st,%st(2)
    31b2:	d9 c9                	fxch   %st(1)
    31b4:	d9 ac 24 28 01 00 00 	fldcw  0x128(%rsp)
    31bb:	d9 fc                	frndint
    31bd:	d9 ac 24 2e 01 00 00 	fldcw  0x12e(%rsp)
    31c4:	d9 ac 24 2a 01 00 00 	fldcw  0x12a(%rsp)
    31cb:	db 5c 24 20          	fistpl 0x20(%rsp)
    31cf:	d9 ac 24 2e 01 00 00 	fldcw  0x12e(%rsp)
    31d6:	8b 54 24 20          	mov    0x20(%rsp),%edx
    31da:	39 d3                	cmp    %edx,%ebx
    31dc:	0f 47 da             	cmova  %edx,%ebx
    31df:	66 0f 2f f8          	comisd %xmm0,%xmm7
    31e3:	76 0f                	jbe    31f4 <_ZL6forceldddddddjjPPPedddd+0x6c4>
    31e5:	66 0f 2f 04 24       	comisd (%rsp),%xmm0
    31ea:	0f 87 02 05 00 00    	ja     36f2 <_ZL6forceldddddddjjPPPedddd+0xbc2>
    31f0:	dd d8                	fstp   %st(0)
    31f2:	eb 0c                	jmp    3200 <_ZL6forceldddddddjjPPPedddd+0x6d0>
    31f4:	dd d8                	fstp   %st(0)
    31f6:	eb 08                	jmp    3200 <_ZL6forceldddddddjjPPPedddd+0x6d0>
    31f8:	dd d8                	fstp   %st(0)
    31fa:	66 0f 1f 44 00 00    	nopw   0x0(%rax,%rax,1)
    3200:	44 39 f0             	cmp    %r14d,%eax
    3203:	0f 83 cb f9 ff ff    	jae    2bd4 <_ZL6forceldddddddjjPPPedddd+0xa4>
    3209:	39 d9                	cmp    %ebx,%ecx
    320b:	0f 83 c7 f9 ff ff    	jae    2bd8 <_ZL6forceldddddddjjPPPedddd+0xa8>
    3211:	41 83 ee 01          	sub    $0x1,%r14d
    3215:	89 c2                	mov    %eax,%edx
    3217:	83 eb 01             	sub    $0x1,%ebx
    321a:	dd 44 24 10          	fldl   0x10(%rsp)
    321e:	41 29 c6             	sub    %eax,%r14d
    3221:	29 cb                	sub    %ecx,%ebx
    3223:	49 8d 6c d5 00       	lea    0x0(%r13,%rdx,8),%rbp
    3228:	f2 0f 11 6c 24 10    	movsd  %xmm5,0x10(%rsp)
    322e:	49 8d 04 16          	lea    (%r14,%rdx,1),%rax
    3232:	f2 0f 11 74 24 20    	movsd  %xmm6,0x20(%rsp)
    3238:	4d 8d 7c c5 08       	lea    0x8(%r13,%rax,8),%r15
    323d:	89 c8                	mov    %ecx,%eax
    323f:	4c 8d 6c 18 01       	lea    0x1(%rax,%rbx,1),%r13
    3244:	4c 8d 34 c5 00 00 00 	lea    0x0(,%rax,8),%r14
    324b:	00 
    324c:	49 c1 e5 03          	shl    $0x3,%r13
    3250:	4c 89 f3             	mov    %r14,%rbx
    3253:	0f 1f 44 00 00       	nopl   0x0(%rax,%rax,1)
    3258:	48 8b 45 00          	mov    0x0(%rbp),%rax
    325c:	48 8b 04 18          	mov    (%rax,%rbx,1),%rax
    3260:	db 28                	fldt   (%rax)
    3262:	db f1                	fcomi  %st(1),%st
    3264:	72 3a                	jb     32a0 <_ZL6forceldddddddjjPPPedddd+0x770>
    3266:	d9 c2                	fld    %st(2)
    3268:	df f1                	fcomip %st(1),%st
    326a:	72 3c                	jb     32a8 <_ZL6forceldddddddjjPPPedddd+0x778>
    326c:	dd 04 24             	fldl   (%rsp)
    326f:	db 68 10             	fldt   0x10(%rax)
    3272:	db f1                	fcomi  %st(1),%st
    3274:	dd d9                	fstp   %st(1)
    3276:	72 38                	jb     32b0 <_ZL6forceldddddddjjPPPedddd+0x780>
    3278:	dd 44 24 08          	fldl   0x8(%rsp)
    327c:	df f1                	fcomip %st(1),%st
    327e:	72 40                	jb     32c0 <_ZL6forceldddddddjjPPPedddd+0x790>
    3280:	dd 44 24 10          	fldl   0x10(%rsp)
    3284:	db 68 20             	fldt   0x20(%rax)
    3287:	db f1                	fcomi  %st(1),%st
    3289:	dd d9                	fstp   %st(1)
    328b:	72 43                	jb     32d0 <_ZL6forceldddddddjjPPPedddd+0x7a0>
    328d:	dd 44 24 20          	fldl   0x20(%rsp)
    3291:	df f1                	fcomip %st(1),%st
    3293:	73 6e                	jae    3303 <_ZL6forceldddddddjjPPPedddd+0x7d3>
    3295:	dd d8                	fstp   %st(0)
    3297:	dd d8                	fstp   %st(0)
    3299:	dd d8                	fstp   %st(0)
    329b:	eb 43                	jmp    32e0 <_ZL6forceldddddddjjPPPedddd+0x7b0>
    329d:	0f 1f 00             	nopl   (%rax)
    32a0:	dd d8                	fstp   %st(0)
    32a2:	eb 3c                	jmp    32e0 <_ZL6forceldddddddjjPPPedddd+0x7b0>
    32a4:	0f 1f 40 00          	nopl   0x0(%rax)
    32a8:	dd d8                	fstp   %st(0)
    32aa:	eb 34                	jmp    32e0 <_ZL6forceldddddddjjPPPedddd+0x7b0>
    32ac:	0f 1f 40 00          	nopl   0x0(%rax)
    32b0:	dd d8                	fstp   %st(0)
    32b2:	dd d8                	fstp   %st(0)
    32b4:	eb 2a                	jmp    32e0 <_ZL6forceldddddddjjPPPedddd+0x7b0>
    32b6:	66 2e 0f 1f 84 00 00 	cs nopw 0x0(%rax,%rax,1)
    32bd:	00 00 00 
    32c0:	dd d8                	fstp   %st(0)
    32c2:	dd d8                	fstp   %st(0)
    32c4:	eb 1a                	jmp    32e0 <_ZL6forceldddddddjjPPPedddd+0x7b0>
    32c6:	66 2e 0f 1f 84 00 00 	cs nopw 0x0(%rax,%rax,1)
    32cd:	00 00 00 
    32d0:	dd d8                	fstp   %st(0)
    32d2:	dd d8                	fstp   %st(0)
    32d4:	dd d8                	fstp   %st(0)
    32d6:	66 2e 0f 1f 84 00 00 	cs nopw 0x0(%rax,%rax,1)
    32dd:	00 00 00 
    32e0:	48 83 c3 08          	add    $0x8,%rbx
    32e4:	49 39 dd             	cmp    %rbx,%r13
    32e7:	0f 85 6b ff ff ff    	jne    3258 <_ZL6forceldddddddjjPPPedddd+0x728>
    32ed:	48 83 c5 08          	add    $0x8,%rbp
    32f1:	4c 39 fd             	cmp    %r15,%rbp
    32f4:	0f 85 56 ff ff ff    	jne    3250 <_ZL6forceldddddddjjPPPedddd+0x720>
    32fa:	dd d8                	fstp   %st(0)
    32fc:	dd d8                	fstp   %st(0)
    32fe:	e9 dd f8 ff ff       	jmp    2be0 <_ZL6forceldddddddjjPPPedddd+0xb0>
    3303:	d9 cb                	fxch   %st(3)
    3305:	db bc 24 c0 00 00 00 	fstpt  0xc0(%rsp)
    330c:	d9 cb                	fxch   %st(3)
    330e:	48 8d bc 24 30 01 00 	lea    0x130(%rsp),%rdi
    3315:	00 
    3316:	f2 44 0f 11 84 24 e8 	movsd  %xmm8,0xe8(%rsp)
    331d:	00 00 00 
    3320:	dd 9c 24 e0 00 00 00 	fstpl  0xe0(%rsp)
    3327:	d9 c9                	fxch   %st(1)
    3329:	dd 54 24 30          	fstl   0x30(%rsp)
    332d:	d9 ca                	fxch   %st(2)
    332f:	f2 0f 10 4c 24 30    	movsd  0x30(%rsp),%xmm1
    3335:	dd 54 24 38          	fstl   0x38(%rsp)
    3339:	d9 c9                	fxch   %st(1)
    333b:	dd 54 24 70          	fstl   0x70(%rsp)
    333f:	db 68 30             	fldt   0x30(%rax)
    3342:	66 0f 28 e1          	movapd %xmm1,%xmm4
    3346:	f2 0f 10 44 24 70    	movsd  0x70(%rsp),%xmm0
    334c:	66 0f 14 e4          	unpcklpd %xmm4,%xmm4
    3350:	f2 0f 10 4c 24 38    	movsd  0x38(%rsp),%xmm1
    3356:	44 0f 29 8c 24 d0 00 	movaps %xmm9,0xd0(%rsp)
    335d:	00 00 
    335f:	0f 29 a4 24 b0 00 00 	movaps %xmm4,0xb0(%rsp)
    3366:	00 
    3367:	66 0f 28 e8          	movapd %xmm0,%xmm5
    336b:	f2 0f 10 44 24 18    	movsd  0x18(%rsp),%xmm0
    3371:	dd 5c 24 40          	fstpl  0x40(%rsp)
    3375:	d9 ca                	fxch   %st(2)
    3377:	dc 84 24 20 02 00 00 	faddl  0x220(%rsp)
    337e:	66 0f 28 f1          	movapd %xmm1,%xmm6
    3382:	66 0f 14 ed          	unpcklpd %xmm5,%xmm5
    3386:	f2 0f 10 64 24 40    	movsd  0x40(%rsp),%xmm4
    338c:	66 0f 14 f6          	unpcklpd %xmm6,%xmm6
    3390:	0f 29 ac 24 90 00 00 	movaps %xmm5,0x90(%rsp)
    3397:	00 
    3398:	0f 29 b4 24 a0 00 00 	movaps %xmm6,0xa0(%rsp)
    339f:	00 
    33a0:	66 0f 28 fc          	movapd %xmm4,%xmm7
    33a4:	66 0f 14 ff          	unpcklpd %xmm7,%xmm7
    33a8:	dd 5c 24 60          	fstpl  0x60(%rsp)
    33ac:	dc 84 24 18 02 00 00 	faddl  0x218(%rsp)
    33b3:	f2 0f 10 5c 24 60    	movsd  0x60(%rsp),%xmm3
    33b9:	0f 29 7c 24 50       	movaps %xmm7,0x50(%rsp)
    33be:	dd 5c 24 78          	fstpl  0x78(%rsp)
    33c2:	dc 84 24 10 02 00 00 	faddl  0x210(%rsp)
    33c9:	f2 0f 10 54 24 78    	movsd  0x78(%rsp),%xmm2
    33cf:	dd 9c 24 80 00 00 00 	fstpl  0x80(%rsp)
    33d6:	f2 0f 10 8c 24 80 00 	movsd  0x80(%rsp),%xmm1
    33dd:	00 00 
    33df:	e8 1c 4c 00 00       	call   8000 <_Z6stressdddd>
    33e4:	f2 0f 10 44 24 70    	movsd  0x70(%rsp),%xmm0
    33ea:	f2 0f 10 4c 24 38    	movsd  0x38(%rsp),%xmm1
    33f0:	f2 0f 59 84 24 40 01 	mulsd  0x140(%rsp),%xmm0
    33f7:	00 00 
    33f9:	66 41 0f 10 3c 24    	movupd (%r12),%xmm7
    33ff:	66 0f 28 b4 24 a0 00 	movapd 0xa0(%rsp),%xmm6
    3406:	00 00 
    3408:	dd 84 24 e0 00 00 00 	fldl   0xe0(%rsp)
    340f:	db ac 24 c0 00 00 00 	fldt   0xc0(%rsp)
    3416:	66 0f 28 ac 24 90 00 	movapd 0x90(%rsp),%xmm5
    341d:	00 00 
    341f:	f2 0f 59 8c 24 58 01 	mulsd  0x158(%rsp),%xmm1
    3426:	00 00 
    3428:	66 0f 28 a4 24 b0 00 	movapd 0xb0(%rsp),%xmm4
    342f:	00 00 
    3431:	66 0f 59 ac 24 30 01 	mulpd  0x130(%rsp),%xmm5
    3438:	00 00 
    343a:	66 44 0f 28 8c 24 d0 	movapd 0xd0(%rsp),%xmm9
    3441:	00 00 00 
    3444:	66 0f 59 a4 24 60 01 	mulpd  0x160(%rsp),%xmm4
    344b:	00 00 
    344d:	f2 44 0f 10 84 24 e8 	movsd  0xe8(%rsp),%xmm8
    3454:	00 00 00 
    3457:	f2 0f 58 c1          	addsd  %xmm1,%xmm0
    345b:	f2 0f 10 4c 24 30    	movsd  0x30(%rsp),%xmm1
    3461:	f2 0f 59 8c 24 70 01 	mulsd  0x170(%rsp),%xmm1
    3468:	00 00 
    346a:	f2 0f 58 c1          	addsd  %xmm1,%xmm0
    346e:	f2 0f 59 44 24 40    	mulsd  0x40(%rsp),%xmm0
    3474:	66 0f 10 8c 24 48 01 	movupd 0x148(%rsp),%xmm1
    347b:	00 00 
    347d:	66 0f 59 ce          	mulpd  %xmm6,%xmm1
    3481:	f2 41 0f 5e c0       	divsd  %xmm8,%xmm0
    3486:	66 0f 58 cd          	addpd  %xmm5,%xmm1
    348a:	66 0f 58 cc          	addpd  %xmm4,%xmm1
    348e:	66 0f 59 4c 24 50    	mulpd  0x50(%rsp),%xmm1
    3494:	66 41 0f 5e c9       	divpd  %xmm9,%xmm1
    3499:	f2 41 0f 58 44 24 10 	addsd  0x10(%r12),%xmm0
    34a0:	f2 41 0f 11 44 24 10 	movsd  %xmm0,0x10(%r12)
    34a7:	66 0f 58 cf          	addpd  %xmm7,%xmm1
    34ab:	41 0f 11 0c 24       	movups %xmm1,(%r12)
    34b0:	e9 2b fe ff ff       	jmp    32e0 <_ZL6forceldddddddjjPPPedddd+0x7b0>
    34b5:	f2 0f 10 0d 1b 70 00 	movsd  0x701b(%rip),%xmm1        # a4d8 <_IO_stdin_used+0x4d8>
    34bc:	00 
    34bd:	66 0f 2f 44 24 08    	comisd 0x8(%rsp),%xmm0
    34c3:	f2 0f 11 4c 24 20    	movsd  %xmm1,0x20(%rsp)
    34c9:	dd 44 24 20          	fldl   0x20(%rsp)
    34cd:	db 6c 24 60          	fldt   0x60(%rsp)
    34d1:	dc 44 24 20          	faddl  0x20(%rsp)
    34d5:	db bc 24 80 01 00 00 	fstpt  0x180(%rsp)
    34dc:	0f 87 04 0b 00 00    	ja     3fe6 <_ZL6forceldddddddjjPPPedddd+0x14b6>
    34e2:	f2 0f 10 7c 24 08    	movsd  0x8(%rsp),%xmm7
    34e8:	66 0f 2f f8          	comisd %xmm0,%xmm7
    34ec:	0f 86 29 04 00 00    	jbe    391b <_ZL6forceldddddddjjPPPedddd+0xdeb>
    34f2:	de c2                	faddp  %st,%st(2)
    34f4:	d9 c9                	fxch   %st(1)
    34f6:	db bc 24 90 01 00 00 	fstpt  0x190(%rsp)
    34fd:	dd 54 24 20          	fstl   0x20(%rsp)
    3501:	f2 0f 10 7c 24 20    	movsd  0x20(%rsp),%xmm7
    3507:	66 0f 2e f8          	ucomisd %xmm0,%xmm7
    350b:	7a 06                	jp     3513 <_ZL6forceldddddddjjPPPedddd+0x9e3>
    350d:	0f 84 41 fa ff ff    	je     2f54 <_ZL6forceldddddddjjPPPedddd+0x424>
    3513:	dd 54 24 20          	fstl   0x20(%rsp)
    3517:	f2 0f 10 04 24       	movsd  (%rsp),%xmm0
    351c:	f2 0f 5e 44 24 20    	divsd  0x20(%rsp),%xmm0
    3522:	89 44 24 38          	mov    %eax,0x38(%rsp)
    3526:	f2 0f 11 74 24 50    	movsd  %xmm6,0x50(%rsp)
    352c:	f2 0f 11 6c 24 40    	movsd  %xmm5,0x40(%rsp)
    3532:	f2 44 0f 11 44 24 70 	movsd  %xmm8,0x70(%rsp)
    3539:	dd 5c 24 30          	fstpl  0x30(%rsp)
    353d:	e8 ce ee ff ff       	call   2410 <atan@plt>
    3542:	f2 0f 11 44 24 20    	movsd  %xmm0,0x20(%rsp)
    3548:	dd 44 24 20          	fldl   0x20(%rsp)
    354c:	f2 0f 10 44 24 08    	movsd  0x8(%rsp),%xmm0
    3552:	dd 54 24 78          	fstl   0x78(%rsp)
    3556:	db 7c 24 60          	fstpt  0x60(%rsp)
    355a:	dd 44 24 30          	fldl   0x30(%rsp)
    355e:	dd 5c 24 20          	fstpl  0x20(%rsp)
    3562:	f2 0f 5e 44 24 20    	divsd  0x20(%rsp),%xmm0
    3568:	e8 a3 ee ff ff       	call   2410 <atan@plt>
    356d:	8b 44 24 38          	mov    0x38(%rsp),%eax
    3571:	f2 44 0f 10 44 24 70 	movsd  0x70(%rsp),%xmm8
    3578:	f2 0f 11 44 24 20    	movsd  %xmm0,0x20(%rsp)
    357e:	66 0f ef c0          	pxor   %xmm0,%xmm0
    3582:	66 0f 2f 04 24       	comisd (%rsp),%xmm0
    3587:	dd 44 24 20          	fldl   0x20(%rsp)
    358b:	f2 0f 10 6c 24 40    	movsd  0x40(%rsp),%xmm5
    3591:	dd 44 24 30          	fldl   0x30(%rsp)
    3595:	f2 0f 10 74 24 50    	movsd  0x50(%rsp),%xmm6
    359b:	0f 87 d3 03 00 00    	ja     3974 <_ZL6forceldddddddjjPPPedddd+0xe44>
    35a1:	f2 0f 10 3c 24       	movsd  (%rsp),%xmm7
    35a6:	dd 54 24 20          	fstl   0x20(%rsp)
    35aa:	66 0f 2f f8          	comisd %xmm0,%xmm7
    35ae:	0f 86 c5 05 00 00    	jbe    3b79 <_ZL6forceldddddddjjPPPedddd+0x1049>
    35b4:	66 0f 2f 44 24 20    	comisd 0x20(%rsp),%xmm0
    35ba:	0f 87 71 0a 00 00    	ja     4031 <_ZL6forceldddddddjjPPPedddd+0x1501>
    35c0:	dd 44 24 78          	fldl   0x78(%rsp)
    35c4:	66 0f 2f 44 24 08    	comisd 0x8(%rsp),%xmm0
    35ca:	db bc 24 a0 01 00 00 	fstpt  0x1a0(%rsp)
    35d1:	0f 87 5d 0b 00 00    	ja     4134 <_ZL6forceldddddddjjPPPedddd+0x1604>
    35d7:	f2 0f 10 7c 24 08    	movsd  0x8(%rsp),%xmm7
    35dd:	66 0f 2f f8          	comisd %xmm0,%xmm7
    35e1:	0f 87 96 f9 ff ff    	ja     2f7d <_ZL6forceldddddddjjPPPedddd+0x44d>
    35e7:	dd d9                	fstp   %st(1)
    35e9:	dd 54 24 20          	fstl   0x20(%rsp)
    35ed:	f2 0f 10 7c 24 20    	movsd  0x20(%rsp),%xmm7
    35f3:	66 0f ef c0          	pxor   %xmm0,%xmm0
    35f7:	66 0f 2f f8          	comisd %xmm0,%xmm7
    35fb:	0f 86 76 0c 00 00    	jbe    4277 <_ZL6forceldddddddjjPPPedddd+0x1747>
    3601:	d9 ee                	fldz
    3603:	d9 c9                	fxch   %st(1)
    3605:	e9 73 f9 ff ff       	jmp    2f7d <_ZL6forceldddddddjjPPPedddd+0x44d>
    360a:	66 0f 2f 04 24       	comisd (%rsp),%xmm0
    360f:	0f 83 be 04 00 00    	jae    3ad3 <_ZL6forceldddddddjjPPPedddd+0xfa3>
    3615:	d9 bc 24 2e 01 00 00 	fnstcw 0x12e(%rsp)
    361c:	89 da                	mov    %ebx,%edx
    361e:	66 0f ef c9          	pxor   %xmm1,%xmm1
    3622:	f2 0f 10 05 c6 6e 00 	movsd  0x6ec6(%rip),%xmm0        # a4f0 <_IO_stdin_used+0x4f0>
    3629:	00 
    362a:	f2 48 0f 2a ca       	cvtsi2sd %rdx,%xmm1
    362f:	0f b7 94 24 2e 01 00 	movzwl 0x12e(%rsp),%edx
    3636:	00 
    3637:	80 e6 f3             	and    $0xf3,%dh
    363a:	f2 0f 5e c1          	divsd  %xmm1,%xmm0
    363e:	80 ce 04             	or     $0x4,%dh
    3641:	66 89 94 24 2c 01 00 	mov    %dx,0x12c(%rsp)
    3648:	00 
    3649:	0f b7 94 24 2e 01 00 	movzwl 0x12e(%rsp),%edx
    3650:	00 
    3651:	80 ce 0c             	or     $0xc,%dh
    3654:	66 89 94 24 2a 01 00 	mov    %dx,0x12a(%rsp)
    365b:	00 
    365c:	0f b7 94 24 2e 01 00 	movzwl 0x12e(%rsp),%edx
    3663:	00 
    3664:	80 e6 f3             	and    $0xf3,%dh
    3667:	80 ce 08             	or     $0x8,%dh
    366a:	66 89 94 24 28 01 00 	mov    %dx,0x128(%rsp)
    3671:	00 
    3672:	f2 0f 11 44 24 20    	movsd  %xmm0,0x20(%rsp)
    3678:	dd 44 24 20          	fldl   0x20(%rsp)
    367c:	db ac 24 80 01 00 00 	fldt   0x180(%rsp)
    3683:	d8 f1                	fdiv   %st(1),%st
    3685:	d9 ac 24 2c 01 00 00 	fldcw  0x12c(%rsp)
    368c:	d9 fc                	frndint
    368e:	d9 ac 24 2e 01 00 00 	fldcw  0x12e(%rsp)
    3695:	d9 ac 24 2a 01 00 00 	fldcw  0x12a(%rsp)
    369c:	db 5c 24 20          	fistpl 0x20(%rsp)
    36a0:	d9 ac 24 2e 01 00 00 	fldcw  0x12e(%rsp)
    36a7:	db ac 24 b0 01 00 00 	fldt   0x1b0(%rsp)
    36ae:	8b 4c 24 20          	mov    0x20(%rsp),%ecx
    36b2:	de f1                	fdivp  %st,%st(1)
    36b4:	d9 ac 24 28 01 00 00 	fldcw  0x128(%rsp)
    36bb:	d9 fc                	frndint
    36bd:	d9 ac 24 2e 01 00 00 	fldcw  0x12e(%rsp)
    36c4:	d9 ac 24 2a 01 00 00 	fldcw  0x12a(%rsp)
    36cb:	db 5c 24 20          	fistpl 0x20(%rsp)
    36cf:	d9 ac 24 2e 01 00 00 	fldcw  0x12e(%rsp)
    36d6:	8b 54 24 20          	mov    0x20(%rsp),%edx
    36da:	39 d3                	cmp    %edx,%ebx
    36dc:	0f 47 da             	cmova  %edx,%ebx
    36df:	e9 1c fb ff ff       	jmp    3200 <_ZL6forceldddddddjjPPPedddd+0x6d0>
    36e4:	0f 85 25 f9 ff ff    	jne    300f <_ZL6forceldddddddjjPPPedddd+0x4df>
    36ea:	db 7f 10             	fstpt  0x10(%rdi)
    36ed:	e9 26 f9 ff ff       	jmp    3018 <_ZL6forceldddddddjjPPPedddd+0x4e8>
    36f2:	f2 0f 10 7c 24 08    	movsd  0x8(%rsp),%xmm7
    36f8:	66 0f 2f f8          	comisd %xmm0,%xmm7
    36fc:	0f 82 f6 fa ff ff    	jb     31f8 <_ZL6forceldddddddjjPPPedddd+0x6c8>
    3702:	db ac 24 90 01 00 00 	fldt   0x190(%rsp)
    3709:	66 0f 2e f8          	ucomisd %xmm0,%xmm7
    370d:	7a 07                	jp     3716 <_ZL6forceldddddddjjPPPedddd+0xbe6>
    370f:	b9 01 00 00 00       	mov    $0x1,%ecx
    3714:	74 2a                	je     3740 <_ZL6forceldddddddjjPPPedddd+0xc10>
    3716:	d8 f1                	fdiv   %st(1),%st
    3718:	d9 ac 24 28 01 00 00 	fldcw  0x128(%rsp)
    371f:	d9 fc                	frndint
    3721:	d9 ac 24 2e 01 00 00 	fldcw  0x12e(%rsp)
    3728:	d9 ac 24 2a 01 00 00 	fldcw  0x12a(%rsp)
    372f:	db 5c 24 20          	fistpl 0x20(%rsp)
    3733:	d9 ac 24 2e 01 00 00 	fldcw  0x12e(%rsp)
    373a:	8b 4c 24 20          	mov    0x20(%rsp),%ecx
    373e:	eb 02                	jmp    3742 <_ZL6forceldddddddjjPPPedddd+0xc12>
    3740:	dd d8                	fstp   %st(0)
    3742:	db ac 24 a0 01 00 00 	fldt   0x1a0(%rsp)
    3749:	de f1                	fdivp  %st,%st(1)
    374b:	d9 ac 24 2c 01 00 00 	fldcw  0x12c(%rsp)
    3752:	d9 fc                	frndint
    3754:	d9 ac 24 2e 01 00 00 	fldcw  0x12e(%rsp)
    375b:	d9 ac 24 2a 01 00 00 	fldcw  0x12a(%rsp)
    3762:	db 5c 24 20          	fistpl 0x20(%rsp)
    3766:	d9 ac 24 2e 01 00 00 	fldcw  0x12e(%rsp)
    376d:	8b 54 24 20          	mov    0x20(%rsp),%edx
    3771:	44 39 f0             	cmp    %r14d,%eax
    3774:	0f 83 62 f4 ff ff    	jae    2bdc <_ZL6forceldddddddjjPPPedddd+0xac>
    377a:	41 83 ee 01          	sub    $0x1,%r14d
    377e:	89 c6                	mov    %eax,%esi
    3780:	89 d7                	mov    %edx,%edi
    3782:	41 29 c6             	sub    %eax,%r14d
    3785:	49 8d 6c f5 00       	lea    0x0(%r13,%rsi,8),%rbp
    378a:	4c 8d 04 fd 00 00 00 	lea    0x0(,%rdi,8),%r8
    3791:	00 
    3792:	49 8d 04 36          	lea    (%r14,%rsi,1),%rax
    3796:	41 89 ce             	mov    %ecx,%r14d
    3799:	49 8d 74 c5 08       	lea    0x8(%r13,%rax,8),%rsi
    379e:	41 8d 47 ff          	lea    -0x1(%r15),%eax
    37a2:	49 c1 e6 03          	shl    $0x3,%r14
    37a6:	29 d0                	sub    %edx,%eax
    37a8:	4c 8d 6c 07 01       	lea    0x1(%rdi,%rax,1),%r13
    37ad:	49 c1 e5 03          	shl    $0x3,%r13
    37b1:	0f 1f 80 00 00 00 00 	nopl   0x0(%rax)
    37b8:	85 c9                	test   %ecx,%ecx
    37ba:	0f 84 3e 03 00 00    	je     3afe <_ZL6forceldddddddjjPPPedddd+0xfce>
    37c0:	dd 44 24 10          	fldl   0x10(%rsp)
    37c4:	31 db                	xor    %ebx,%ebx
    37c6:	66 2e 0f 1f 84 00 00 	cs nopw 0x0(%rax,%rax,1)
    37cd:	00 00 00 
    37d0:	48 8b 45 00          	mov    0x0(%rbp),%rax
    37d4:	48 8b 04 18          	mov    (%rax,%rbx,1),%rax
    37d8:	db 28                	fldt   (%rax)
    37da:	db f1                	fcomi  %st(1),%st
    37dc:	72 52                	jb     3830 <_ZL6forceldddddddjjPPPedddd+0xd00>
    37de:	d9 c2                	fld    %st(2)
    37e0:	df f1                	fcomip %st(1),%st
    37e2:	72 54                	jb     3838 <_ZL6forceldddddddjjPPPedddd+0xd08>
    37e4:	dd 04 24             	fldl   (%rsp)
    37e7:	db 68 10             	fldt   0x10(%rax)
    37ea:	db f1                	fcomi  %st(1),%st
    37ec:	dd d9                	fstp   %st(1)
    37ee:	72 50                	jb     3840 <_ZL6forceldddddddjjPPPedddd+0xd10>
    37f0:	dd 44 24 08          	fldl   0x8(%rsp)
    37f4:	df f1                	fcomip %st(1),%st
    37f6:	72 4e                	jb     3846 <_ZL6forceldddddddjjPPPedddd+0xd16>
    37f8:	db 68 20             	fldt   0x20(%rax)
    37fb:	f2 0f 11 6c 24 20    	movsd  %xmm5,0x20(%rsp)
    3801:	dd 44 24 20          	fldl   0x20(%rsp)
    3805:	d9 c9                	fxch   %st(1)
    3807:	db f1                	fcomi  %st(1),%st
    3809:	dd d9                	fstp   %st(1)
    380b:	72 3f                	jb     384c <_ZL6forceldddddddjjPPPedddd+0xd1c>
    380d:	f2 0f 11 74 24 20    	movsd  %xmm6,0x20(%rsp)
    3813:	dd 44 24 20          	fldl   0x20(%rsp)
    3817:	df f1                	fcomip %st(1),%st
    3819:	0f 83 8e 03 00 00    	jae    3bad <_ZL6forceldddddddjjPPPedddd+0x107d>
    381f:	dd d8                	fstp   %st(0)
    3821:	dd d8                	fstp   %st(0)
    3823:	dd d8                	fstp   %st(0)
    3825:	eb 31                	jmp    3858 <_ZL6forceldddddddjjPPPedddd+0xd28>
    3827:	66 0f 1f 84 00 00 00 	nopw   0x0(%rax,%rax,1)
    382e:	00 00 
    3830:	dd d8                	fstp   %st(0)
    3832:	eb 24                	jmp    3858 <_ZL6forceldddddddjjPPPedddd+0xd28>
    3834:	0f 1f 40 00          	nopl   0x0(%rax)
    3838:	dd d8                	fstp   %st(0)
    383a:	eb 1c                	jmp    3858 <_ZL6forceldddddddjjPPPedddd+0xd28>
    383c:	0f 1f 40 00          	nopl   0x0(%rax)
    3840:	dd d8                	fstp   %st(0)
    3842:	dd d8                	fstp   %st(0)
    3844:	eb 12                	jmp    3858 <_ZL6forceldddddddjjPPPedddd+0xd28>
    3846:	dd d8                	fstp   %st(0)
    3848:	dd d8                	fstp   %st(0)
    384a:	eb 0c                	jmp    3858 <_ZL6forceldddddddjjPPPedddd+0xd28>
    384c:	dd d8                	fstp   %st(0)
    384e:	dd d8                	fstp   %st(0)
    3850:	dd d8                	fstp   %st(0)
    3852:	66 0f 1f 44 00 00    	nopw   0x0(%rax,%rax,1)
    3858:	48 83 c3 08          	add    $0x8,%rbx
    385c:	49 39 de             	cmp    %rbx,%r14
    385f:	0f 85 6b ff ff ff    	jne    37d0 <_ZL6forceldddddddjjPPPedddd+0xca0>
    3865:	44 39 fa             	cmp    %r15d,%edx
    3868:	0f 83 f5 02 00 00    	jae    3b63 <_ZL6forceldddddddjjPPPedddd+0x1033>
    386e:	4c 89 c3             	mov    %r8,%rbx
    3871:	0f 1f 80 00 00 00 00 	nopl   0x0(%rax)
    3878:	48 8b 45 00          	mov    0x0(%rbp),%rax
    387c:	48 8b 04 18          	mov    (%rax,%rbx,1),%rax
    3880:	db 28                	fldt   (%rax)
    3882:	db f1                	fcomi  %st(1),%st
    3884:	72 4a                	jb     38d0 <_ZL6forceldddddddjjPPPedddd+0xda0>
    3886:	d9 c2                	fld    %st(2)
    3888:	df f1                	fcomip %st(1),%st
    388a:	72 4c                	jb     38d8 <_ZL6forceldddddddjjPPPedddd+0xda8>
    388c:	dd 04 24             	fldl   (%rsp)
    388f:	db 68 10             	fldt   0x10(%rax)
    3892:	db f1                	fcomi  %st(1),%st
    3894:	dd d9                	fstp   %st(1)
    3896:	72 48                	jb     38e0 <_ZL6forceldddddddjjPPPedddd+0xdb0>
    3898:	dd 44 24 08          	fldl   0x8(%rsp)
    389c:	df f1                	fcomip %st(1),%st
    389e:	72 46                	jb     38e6 <_ZL6forceldddddddjjPPPedddd+0xdb6>
    38a0:	db 68 20             	fldt   0x20(%rax)
    38a3:	f2 0f 11 6c 24 20    	movsd  %xmm5,0x20(%rsp)
    38a9:	dd 44 24 20          	fldl   0x20(%rsp)
    38ad:	d9 c9                	fxch   %st(1)
    38af:	db f1                	fcomi  %st(1),%st
    38b1:	dd d9                	fstp   %st(1)
    38b3:	72 37                	jb     38ec <_ZL6forceldddddddjjPPPedddd+0xdbc>
    38b5:	f2 0f 11 74 24 20    	movsd  %xmm6,0x20(%rsp)
    38bb:	dd 44 24 20          	fldl   0x20(%rsp)
    38bf:	df f1                	fcomip %st(1),%st
    38c1:	0f 83 f7 04 00 00    	jae    3dbe <_ZL6forceldddddddjjPPPedddd+0x128e>
    38c7:	dd d8                	fstp   %st(0)
    38c9:	dd d8                	fstp   %st(0)
    38cb:	dd d8                	fstp   %st(0)
    38cd:	eb 29                	jmp    38f8 <_ZL6forceldddddddjjPPPedddd+0xdc8>
    38cf:	90                   	nop
    38d0:	dd d8                	fstp   %st(0)
    38d2:	eb 24                	jmp    38f8 <_ZL6forceldddddddjjPPPedddd+0xdc8>
    38d4:	0f 1f 40 00          	nopl   0x0(%rax)
    38d8:	dd d8                	fstp   %st(0)
    38da:	eb 1c                	jmp    38f8 <_ZL6forceldddddddjjPPPedddd+0xdc8>
    38dc:	0f 1f 40 00          	nopl   0x0(%rax)
    38e0:	dd d8                	fstp   %st(0)
    38e2:	dd d8                	fstp   %st(0)
    38e4:	eb 12                	jmp    38f8 <_ZL6forceldddddddjjPPPedddd+0xdc8>
    38e6:	dd d8                	fstp   %st(0)
    38e8:	dd d8                	fstp   %st(0)
    38ea:	eb 0c                	jmp    38f8 <_ZL6forceldddddddjjPPPedddd+0xdc8>
    38ec:	dd d8                	fstp   %st(0)
    38ee:	dd d8                	fstp   %st(0)
    38f0:	dd d8                	fstp   %st(0)
    38f2:	66 0f 1f 44 00 00    	nopw   0x0(%rax,%rax,1)
    38f8:	48 83 c3 08          	add    $0x8,%rbx
    38fc:	49 39 dd             	cmp    %rbx,%r13
    38ff:	0f 85 73 ff ff ff    	jne    3878 <_ZL6forceldddddddjjPPPedddd+0xd48>
    3905:	dd d8                	fstp   %st(0)
    3907:	48 83 c5 08          	add    $0x8,%rbp
    390b:	48 39 ee             	cmp    %rbp,%rsi
    390e:	0f 85 a4 fe ff ff    	jne    37b8 <_ZL6forceldddddddjjPPPedddd+0xc88>
    3914:	dd d8                	fstp   %st(0)
    3916:	e9 c5 f2 ff ff       	jmp    2be0 <_ZL6forceldddddddjjPPPedddd+0xb0>
    391b:	dd d8                	fstp   %st(0)
    391d:	dd d9                	fstp   %st(1)
    391f:	f2 0f 11 4c 24 20    	movsd  %xmm1,0x20(%rsp)
    3925:	dd 44 24 20          	fldl   0x20(%rsp)
    3929:	db bc 24 90 01 00 00 	fstpt  0x190(%rsp)
    3930:	dd 54 24 20          	fstl   0x20(%rsp)
    3934:	f2 0f 10 7c 24 20    	movsd  0x20(%rsp),%xmm7
    393a:	66 0f 2e f8          	ucomisd %xmm0,%xmm7
    393e:	0f 8a cf fb ff ff    	jp     3513 <_ZL6forceldddddddjjPPPedddd+0x9e3>
    3944:	0f 85 c9 fb ff ff    	jne    3513 <_ZL6forceldddddddjjPPPedddd+0x9e3>
    394a:	dd 05 80 6b 00 00    	fldl   0x6b80(%rip)        # a4d0 <_IO_stdin_used+0x4d0>
    3950:	db bc 24 a0 01 00 00 	fstpt  0x1a0(%rsp)
    3957:	66 0f ef c0          	pxor   %xmm0,%xmm0
    395b:	66 0f 2f 44 24 08    	comisd 0x8(%rsp),%xmm0
    3961:	0f 86 9a fc ff ff    	jbe    3601 <_ZL6forceldddddddjjPPPedddd+0xad1>
    3967:	dd 05 5b 6b 00 00    	fldl   0x6b5b(%rip)        # a4c8 <_IO_stdin_used+0x4c8>
    396d:	d9 c9                	fxch   %st(1)
    396f:	e9 09 f6 ff ff       	jmp    2f7d <_ZL6forceldddddddjjPPPedddd+0x44d>
    3974:	dd 54 24 20          	fstl   0x20(%rsp)
    3978:	f2 0f 10 7c 24 20    	movsd  0x20(%rsp),%xmm7
    397e:	66 0f 2f f8          	comisd %xmm0,%xmm7
    3982:	76 3c                	jbe    39c0 <_ZL6forceldddddddjjPPPedddd+0xe90>
    3984:	f2 0f 10 0d 64 6b 00 	movsd  0x6b64(%rip),%xmm1        # a4f0 <_IO_stdin_used+0x4f0>
    398b:	00 
    398c:	db 6c 24 60          	fldt   0x60(%rsp)
    3990:	66 0f 2f 44 24 08    	comisd 0x8(%rsp),%xmm0
    3996:	f2 0f 11 4c 24 20    	movsd  %xmm1,0x20(%rsp)
    399c:	dc 44 24 20          	faddl  0x20(%rsp)
    39a0:	db bc 24 a0 01 00 00 	fstpt  0x1a0(%rsp)
    39a7:	77 64                	ja     3a0d <_ZL6forceldddddddjjPPPedddd+0xedd>
    39a9:	f2 0f 10 7c 24 08    	movsd  0x8(%rsp),%xmm7
    39af:	66 0f 2f f8          	comisd %xmm0,%xmm7
    39b3:	0f 87 c4 f5 ff ff    	ja     2f7d <_ZL6forceldddddddjjPPPedddd+0x44d>
    39b9:	dd d9                	fstp   %st(1)
    39bb:	e9 41 fc ff ff       	jmp    3601 <_ZL6forceldddddddjjPPPedddd+0xad1>
    39c0:	f2 0f 10 0d 10 6b 00 	movsd  0x6b10(%rip),%xmm1        # a4d8 <_IO_stdin_used+0x4d8>
    39c7:	00 
    39c8:	db 6c 24 60          	fldt   0x60(%rsp)
    39cc:	66 0f 2f 44 24 08    	comisd 0x8(%rsp),%xmm0
    39d2:	f2 0f 11 4c 24 20    	movsd  %xmm1,0x20(%rsp)
    39d8:	dc 44 24 20          	faddl  0x20(%rsp)
    39dc:	db bc 24 a0 01 00 00 	fstpt  0x1a0(%rsp)
    39e3:	77 2c                	ja     3a11 <_ZL6forceldddddddjjPPPedddd+0xee1>
    39e5:	f2 0f 10 7c 24 08    	movsd  0x8(%rsp),%xmm7
    39eb:	66 0f 2f f8          	comisd %xmm0,%xmm7
    39ef:	0f 86 7d 06 00 00    	jbe    4072 <_ZL6forceldddddddjjPPPedddd+0x1542>
    39f5:	66 0f ef c0          	pxor   %xmm0,%xmm0
    39f9:	dd 54 24 20          	fstl   0x20(%rsp)
    39fd:	66 0f 2f 44 24 20    	comisd 0x20(%rsp),%xmm0
    3a03:	0f 86 74 f5 ff ff    	jbe    2f7d <_ZL6forceldddddddjjPPPedddd+0x44d>
    3a09:	d9 c9                	fxch   %st(1)
    3a0b:	eb 12                	jmp    3a1f <_ZL6forceldddddddjjPPPedddd+0xeef>
    3a0d:	d9 c9                	fxch   %st(1)
    3a0f:	eb 0e                	jmp    3a1f <_ZL6forceldddddddjjPPPedddd+0xeef>
    3a11:	d9 c9                	fxch   %st(1)
    3a13:	eb 0a                	jmp    3a1f <_ZL6forceldddddddjjPPPedddd+0xeef>
    3a15:	d9 c9                	fxch   %st(1)
    3a17:	eb 06                	jmp    3a1f <_ZL6forceldddddddjjPPPedddd+0xeef>
    3a19:	d9 c9                	fxch   %st(1)
    3a1b:	eb 02                	jmp    3a1f <_ZL6forceldddddddjjPPPedddd+0xeef>
    3a1d:	d9 c9                	fxch   %st(1)
    3a1f:	f2 0f 11 4c 24 20    	movsd  %xmm1,0x20(%rsp)
    3a25:	dc 44 24 20          	faddl  0x20(%rsp)
    3a29:	d9 c9                	fxch   %st(1)
    3a2b:	e9 4d f5 ff ff       	jmp    2f7d <_ZL6forceldddddddjjPPPedddd+0x44d>
    3a30:	66 0f 2f 44 24 08    	comisd 0x8(%rsp),%xmm0
    3a36:	0f 86 94 f4 ff ff    	jbe    2ed0 <_ZL6forceldddddddjjPPPedddd+0x3a0>
    3a3c:	dd 05 86 6a 00 00    	fldl   0x6a86(%rip)        # a4c8 <_IO_stdin_used+0x4c8>
    3a42:	e9 d9 f4 ff ff       	jmp    2f20 <_ZL6forceldddddddjjPPPedddd+0x3f0>
    3a47:	f2 0f 10 0d 89 6a 00 	movsd  0x6a89(%rip),%xmm1        # a4d8 <_IO_stdin_used+0x4d8>
    3a4e:	00 
    3a4f:	db 6c 24 60          	fldt   0x60(%rsp)
    3a53:	66 0f 2f 44 24 08    	comisd 0x8(%rsp),%xmm0
    3a59:	f2 0f 11 4c 24 20    	movsd  %xmm1,0x20(%rsp)
    3a5f:	dc 44 24 20          	faddl  0x20(%rsp)
    3a63:	db bc 24 80 01 00 00 	fstpt  0x180(%rsp)
    3a6a:	0f 87 7c 05 00 00    	ja     3fec <_ZL6forceldddddddjjPPPedddd+0x14bc>
    3a70:	f2 0f 10 7c 24 08    	movsd  0x8(%rsp),%xmm7
    3a76:	66 0f 2f f8          	comisd %xmm0,%xmm7
    3a7a:	0f 86 fd 06 00 00    	jbe    417d <_ZL6forceldddddddjjPPPedddd+0x164d>
    3a80:	66 0f ef c0          	pxor   %xmm0,%xmm0
    3a84:	66 0f 2f 44 24 10    	comisd 0x10(%rsp),%xmm0
    3a8a:	0f 86 84 f4 ff ff    	jbe    2f14 <_ZL6forceldddddddjjPPPedddd+0x3e4>
    3a90:	d9 c9                	fxch   %st(1)
    3a92:	f2 0f 11 4c 24 20    	movsd  %xmm1,0x20(%rsp)
    3a98:	dc 44 24 20          	faddl  0x20(%rsp)
    3a9c:	db bc 24 90 01 00 00 	fstpt  0x190(%rsp)
    3aa3:	dd 54 24 20          	fstl   0x20(%rsp)
    3aa7:	f2 0f 10 7c 24 20    	movsd  0x20(%rsp),%xmm7
    3aad:	66 0f 2e f8          	ucomisd %xmm0,%xmm7
    3ab1:	0f 8a 5c fa ff ff    	jp     3513 <_ZL6forceldddddddjjPPPedddd+0x9e3>
    3ab7:	0f 85 56 fa ff ff    	jne    3513 <_ZL6forceldddddddjjPPPedddd+0x9e3>
    3abd:	66 0f ef c0          	pxor   %xmm0,%xmm0
    3ac1:	66 0f 2f 04 24       	comisd (%rsp),%xmm0
    3ac6:	0f 87 5a 05 00 00    	ja     4026 <_ZL6forceldddddddjjPPPedddd+0x14f6>
    3acc:	d9 ee                	fldz
    3ace:	e9 87 f4 ff ff       	jmp    2f5a <_ZL6forceldddddddjjPPPedddd+0x42a>
    3ad3:	dd 54 24 20          	fstl   0x20(%rsp)
    3ad7:	f2 0f 10 7c 24 20    	movsd  0x20(%rsp),%xmm7
    3add:	66 0f 2f f8          	comisd %xmm0,%xmm7
    3ae1:	0f 82 2e fb ff ff    	jb     3615 <_ZL6forceldddddddjjPPPedddd+0xae5>
    3ae7:	f2 0f 10 7c 24 08    	movsd  0x8(%rsp),%xmm7
    3aed:	31 c9                	xor    %ecx,%ecx
    3aef:	66 0f 2f f8          	comisd %xmm0,%xmm7
    3af3:	0f 83 07 f7 ff ff    	jae    3200 <_ZL6forceldddddddjjPPPedddd+0x6d0>
    3af9:	e9 17 fb ff ff       	jmp    3615 <_ZL6forceldddddddjjPPPedddd+0xae5>
    3afe:	44 39 fa             	cmp    %r15d,%edx
    3b01:	0f 83 00 fe ff ff    	jae    3907 <_ZL6forceldddddddjjPPPedddd+0xdd7>
    3b07:	dd 44 24 10          	fldl   0x10(%rsp)
    3b0b:	e9 5e fd ff ff       	jmp    386e <_ZL6forceldddddddjjPPPedddd+0xd3e>
    3b10:	f2 0f 10 7c 24 10    	movsd  0x10(%rsp),%xmm7
    3b16:	66 0f 2f f8          	comisd %xmm0,%xmm7
    3b1a:	0f 86 68 05 00 00    	jbe    4088 <_ZL6forceldddddddjjPPPedddd+0x1558>
    3b20:	66 0f 2f 44 24 08    	comisd 0x8(%rsp),%xmm0
    3b26:	d9 ee                	fldz
    3b28:	db bc 24 80 01 00 00 	fstpt  0x180(%rsp)
    3b2f:	0f 86 70 f5 ff ff    	jbe    30a5 <_ZL6forceldddddddjjPPPedddd+0x575>
    3b35:	d9 c9                	fxch   %st(1)
    3b37:	dc 05 b3 69 00 00    	faddl  0x69b3(%rip)        # a4f0 <_IO_stdin_used+0x4f0>
    3b3d:	db bc 24 90 01 00 00 	fstpt  0x190(%rsp)
    3b44:	dd 54 24 20          	fstl   0x20(%rsp)
    3b48:	f2 0f 10 7c 24 20    	movsd  0x20(%rsp),%xmm7
    3b4e:	66 0f 2e f8          	ucomisd %xmm0,%xmm7
    3b52:	0f 8a bb f9 ff ff    	jp     3513 <_ZL6forceldddddddjjPPPedddd+0x9e3>
    3b58:	0f 84 6e ff ff ff    	je     3acc <_ZL6forceldddddddjjPPPedddd+0xf9c>
    3b5e:	e9 b0 f9 ff ff       	jmp    3513 <_ZL6forceldddddddjjPPPedddd+0x9e3>
    3b63:	48 83 c5 08          	add    $0x8,%rbp
    3b67:	48 39 f5             	cmp    %rsi,%rbp
    3b6a:	0f 85 54 fc ff ff    	jne    37c4 <_ZL6forceldddddddjjPPPedddd+0xc94>
    3b70:	dd d8                	fstp   %st(0)
    3b72:	dd d8                	fstp   %st(0)
    3b74:	e9 67 f0 ff ff       	jmp    2be0 <_ZL6forceldddddddjjPPPedddd+0xb0>
    3b79:	f2 0f 10 7c 24 20    	movsd  0x20(%rsp),%xmm7
    3b7f:	66 0f 2f f8          	comisd %xmm0,%xmm7
    3b83:	0f 86 7f 05 00 00    	jbe    4108 <_ZL6forceldddddddjjPPPedddd+0x15d8>
    3b89:	66 0f 2f 44 24 08    	comisd 0x8(%rsp),%xmm0
    3b8f:	d9 ee                	fldz
    3b91:	f2 0f 10 0d 57 69 00 	movsd  0x6957(%rip),%xmm1        # a4f0 <_IO_stdin_used+0x4f0>
    3b98:	00 
    3b99:	db bc 24 a0 01 00 00 	fstpt  0x1a0(%rsp)
    3ba0:	0f 86 03 fe ff ff    	jbe    39a9 <_ZL6forceldddddddjjPPPedddd+0xe79>
    3ba6:	d9 c9                	fxch   %st(1)
    3ba8:	e9 72 fe ff ff       	jmp    3a1f <_ZL6forceldddddddjjPPPedddd+0xeef>
    3bad:	d9 cb                	fxch   %st(3)
    3baf:	db bc 24 f0 00 00 00 	fstpt  0xf0(%rsp)
    3bb6:	d9 cb                	fxch   %st(3)
    3bb8:	48 8d bc 24 30 01 00 	lea    0x130(%rsp),%rdi
    3bbf:	00 
    3bc0:	4c 89 84 24 d0 00 00 	mov    %r8,0xd0(%rsp)
    3bc7:	00 
    3bc8:	dd 9c 24 e8 00 00 00 	fstpl  0xe8(%rsp)
    3bcf:	d9 c9                	fxch   %st(1)
    3bd1:	dd 54 24 20          	fstl   0x20(%rsp)
    3bd5:	d9 ca                	fxch   %st(2)
    3bd7:	f2 0f 10 4c 24 20    	movsd  0x20(%rsp),%xmm1
    3bdd:	dd 54 24 30          	fstl   0x30(%rsp)
    3be1:	d9 c9                	fxch   %st(1)
    3be3:	dd 54 24 38          	fstl   0x38(%rsp)
    3be7:	db 68 30             	fldt   0x30(%rax)
    3bea:	f2 0f 10 44 24 38    	movsd  0x38(%rsp),%xmm0
    3bf0:	66 0f 28 e1          	movapd %xmm1,%xmm4
    3bf4:	66 0f 14 e4          	unpcklpd %xmm4,%xmm4
    3bf8:	f2 0f 10 4c 24 30    	movsd  0x30(%rsp),%xmm1
    3bfe:	48 89 b4 24 c0 00 00 	mov    %rsi,0xc0(%rsp)
    3c05:	00 
    3c06:	0f 29 a4 24 a0 00 00 	movaps %xmm4,0xa0(%rsp)
    3c0d:	00 
    3c0e:	66 0f 28 f8          	movapd %xmm0,%xmm7
    3c12:	dd 5c 24 70          	fstpl  0x70(%rsp)
    3c16:	d9 ca                	fxch   %st(2)
    3c18:	66 0f 14 ff          	unpcklpd %xmm7,%xmm7
    3c1c:	dc 84 24 20 02 00 00 	faddl  0x220(%rsp)
    3c23:	f2 0f 10 64 24 70    	movsd  0x70(%rsp),%xmm4
    3c29:	66 44 0f 28 d1       	movapd %xmm1,%xmm10
    3c2e:	0f 29 bc 24 80 00 00 	movaps %xmm7,0x80(%rsp)
    3c35:	00 
    3c36:	66 0f 28 fc          	movapd %xmm4,%xmm7
    3c3a:	66 45 0f 14 d2       	unpcklpd %xmm10,%xmm10
    3c3f:	89 94 24 e0 00 00 00 	mov    %edx,0xe0(%rsp)
    3c46:	66 0f 14 ff          	unpcklpd %xmm7,%xmm7
    3c4a:	89 8c 24 b0 00 00 00 	mov    %ecx,0xb0(%rsp)
    3c51:	f2 0f 11 b4 24 20 01 	movsd  %xmm6,0x120(%rsp)
    3c58:	00 00 
    3c5a:	dd 5c 24 50          	fstpl  0x50(%rsp)
    3c5e:	dc 84 24 18 02 00 00 	faddl  0x218(%rsp)
    3c65:	f2 0f 10 5c 24 50    	movsd  0x50(%rsp),%xmm3
    3c6b:	f2 0f 11 ac 24 18 01 	movsd  %xmm5,0x118(%rsp)
    3c72:	00 00 
    3c74:	f2 44 0f 11 84 24 10 	movsd  %xmm8,0x110(%rsp)
    3c7b:	01 00 00 
    3c7e:	44 0f 29 8c 24 00 01 	movaps %xmm9,0x100(%rsp)
    3c85:	00 00 
    3c87:	44 0f 29 94 24 90 00 	movaps %xmm10,0x90(%rsp)
    3c8e:	00 00 
    3c90:	dd 5c 24 60          	fstpl  0x60(%rsp)
    3c94:	dc 84 24 10 02 00 00 	faddl  0x210(%rsp)
    3c9b:	f2 0f 10 54 24 60    	movsd  0x60(%rsp),%xmm2
    3ca1:	0f 29 7c 24 40       	movaps %xmm7,0x40(%rsp)
    3ca6:	dd 5c 24 78          	fstpl  0x78(%rsp)
    3caa:	f2 0f 10 4c 24 78    	movsd  0x78(%rsp),%xmm1
    3cb0:	f2 0f 10 44 24 18    	movsd  0x18(%rsp),%xmm0
    3cb6:	e8 45 43 00 00       	call   8000 <_Z6stressdddd>
    3cbb:	f2 0f 10 44 24 38    	movsd  0x38(%rsp),%xmm0
    3cc1:	f2 0f 10 4c 24 30    	movsd  0x30(%rsp),%xmm1
    3cc7:	f2 0f 59 84 24 40 01 	mulsd  0x140(%rsp),%xmm0
    3cce:	00 00 
    3cd0:	8b 94 24 e0 00 00 00 	mov    0xe0(%rsp),%edx
    3cd7:	f2 0f 59 8c 24 58 01 	mulsd  0x158(%rsp),%xmm1
    3cde:	00 00 
    3ce0:	8b 8c 24 b0 00 00 00 	mov    0xb0(%rsp),%ecx
    3ce7:	66 0f 28 bc 24 80 00 	movapd 0x80(%rsp),%xmm7
    3cee:	00 00 
    3cf0:	66 44 0f 28 94 24 90 	movapd 0x90(%rsp),%xmm10
    3cf7:	00 00 00 
    3cfa:	66 0f 28 a4 24 a0 00 	movapd 0xa0(%rsp),%xmm4
    3d01:	00 00 
    3d03:	66 0f 59 bc 24 30 01 	mulpd  0x130(%rsp),%xmm7
    3d0a:	00 00 
    3d0c:	dd 84 24 e8 00 00 00 	fldl   0xe8(%rsp)
    3d13:	db ac 24 f0 00 00 00 	fldt   0xf0(%rsp)
    3d1a:	4c 8b 84 24 d0 00 00 	mov    0xd0(%rsp),%r8
    3d21:	00 
    3d22:	66 44 0f 28 8c 24 00 	movapd 0x100(%rsp),%xmm9
    3d29:	01 00 00 
    3d2c:	f2 0f 58 c1          	addsd  %xmm1,%xmm0
    3d30:	f2 0f 10 4c 24 20    	movsd  0x20(%rsp),%xmm1
    3d36:	f2 0f 59 8c 24 70 01 	mulsd  0x170(%rsp),%xmm1
    3d3d:	00 00 
    3d3f:	66 0f 59 a4 24 60 01 	mulpd  0x160(%rsp),%xmm4
    3d46:	00 00 
    3d48:	f2 44 0f 10 84 24 10 	movsd  0x110(%rsp),%xmm8
    3d4f:	01 00 00 
    3d52:	48 8b b4 24 c0 00 00 	mov    0xc0(%rsp),%rsi
    3d59:	00 
    3d5a:	f2 0f 10 b4 24 20 01 	movsd  0x120(%rsp),%xmm6
    3d61:	00 00 
    3d63:	f2 0f 10 ac 24 18 01 	movsd  0x118(%rsp),%xmm5
    3d6a:	00 00 
    3d6c:	f2 0f 58 c1          	addsd  %xmm1,%xmm0
    3d70:	f2 0f 59 44 24 70    	mulsd  0x70(%rsp),%xmm0
    3d76:	66 0f 10 8c 24 48 01 	movupd 0x148(%rsp),%xmm1
    3d7d:	00 00 
    3d7f:	66 41 0f 59 ca       	mulpd  %xmm10,%xmm1
    3d84:	f2 41 0f 5e c0       	divsd  %xmm8,%xmm0
    3d89:	66 0f 58 cf          	addpd  %xmm7,%xmm1
    3d8d:	66 41 0f 10 3c 24    	movupd (%r12),%xmm7
    3d93:	66 0f 58 cc          	addpd  %xmm4,%xmm1
    3d97:	66 0f 59 4c 24 40    	mulpd  0x40(%rsp),%xmm1
    3d9d:	66 41 0f 5e c9       	divpd  %xmm9,%xmm1
    3da2:	f2 41 0f 58 44 24 10 	addsd  0x10(%r12),%xmm0
    3da9:	f2 41 0f 11 44 24 10 	movsd  %xmm0,0x10(%r12)
    3db0:	66 0f 58 cf          	addpd  %xmm7,%xmm1
    3db4:	41 0f 11 0c 24       	movups %xmm1,(%r12)
    3db9:	e9 9a fa ff ff       	jmp    3858 <_ZL6forceldddddddjjPPPedddd+0xd28>
    3dbe:	d9 cb                	fxch   %st(3)
    3dc0:	db bc 24 f0 00 00 00 	fstpt  0xf0(%rsp)
    3dc7:	d9 cb                	fxch   %st(3)
    3dc9:	48 8d bc 24 30 01 00 	lea    0x130(%rsp),%rdi
    3dd0:	00 
    3dd1:	4c 89 84 24 d0 00 00 	mov    %r8,0xd0(%rsp)
    3dd8:	00 
    3dd9:	dd 9c 24 e8 00 00 00 	fstpl  0xe8(%rsp)
    3de0:	d9 c9                	fxch   %st(1)
    3de2:	dd 54 24 20          	fstl   0x20(%rsp)
    3de6:	d9 ca                	fxch   %st(2)
    3de8:	f2 0f 10 4c 24 20    	movsd  0x20(%rsp),%xmm1
    3dee:	dd 54 24 30          	fstl   0x30(%rsp)
    3df2:	d9 c9                	fxch   %st(1)
    3df4:	dd 54 24 38          	fstl   0x38(%rsp)
    3df8:	db 68 30             	fldt   0x30(%rax)
    3dfb:	f2 0f 10 44 24 38    	movsd  0x38(%rsp),%xmm0
    3e01:	66 0f 28 e1          	movapd %xmm1,%xmm4
    3e05:	66 0f 14 e4          	unpcklpd %xmm4,%xmm4
    3e09:	f2 0f 10 4c 24 30    	movsd  0x30(%rsp),%xmm1
    3e0f:	48 89 b4 24 c0 00 00 	mov    %rsi,0xc0(%rsp)
    3e16:	00 
    3e17:	0f 29 a4 24 a0 00 00 	movaps %xmm4,0xa0(%rsp)
    3e1e:	00 
    3e1f:	66 0f 28 f8          	movapd %xmm0,%xmm7
    3e23:	dd 5c 24 70          	fstpl  0x70(%rsp)
    3e27:	d9 ca                	fxch   %st(2)
    3e29:	66 0f 14 ff          	unpcklpd %xmm7,%xmm7
    3e2d:	dc 84 24 20 02 00 00 	faddl  0x220(%rsp)
    3e34:	f2 0f 10 64 24 70    	movsd  0x70(%rsp),%xmm4
    3e3a:	66 44 0f 28 d1       	movapd %xmm1,%xmm10
    3e3f:	0f 29 bc 24 80 00 00 	movaps %xmm7,0x80(%rsp)
    3e46:	00 
    3e47:	66 0f 28 fc          	movapd %xmm4,%xmm7
    3e4b:	66 45 0f 14 d2       	unpcklpd %xmm10,%xmm10
    3e50:	89 94 24 e0 00 00 00 	mov    %edx,0xe0(%rsp)
    3e57:	66 0f 14 ff          	unpcklpd %xmm7,%xmm7
    3e5b:	89 8c 24 b0 00 00 00 	mov    %ecx,0xb0(%rsp)
    3e62:	f2 0f 11 b4 24 20 01 	movsd  %xmm6,0x120(%rsp)
    3e69:	00 00 
    3e6b:	dd 5c 24 50          	fstpl  0x50(%rsp)
    3e6f:	dc 84 24 18 02 00 00 	faddl  0x218(%rsp)
    3e76:	f2 0f 10 5c 24 50    	movsd  0x50(%rsp),%xmm3
    3e7c:	f2 0f 11 ac 24 18 01 	movsd  %xmm5,0x118(%rsp)
    3e83:	00 00 
    3e85:	f2 44 0f 11 84 24 10 	movsd  %xmm8,0x110(%rsp)
    3e8c:	01 00 00 
    3e8f:	44 0f 29 8c 24 00 01 	movaps %xmm9,0x100(%rsp)
    3e96:	00 00 
    3e98:	44 0f 29 94 24 90 00 	movaps %xmm10,0x90(%rsp)
    3e9f:	00 00 
    3ea1:	dd 5c 24 60          	fstpl  0x60(%rsp)
    3ea5:	dc 84 24 10 02 00 00 	faddl  0x210(%rsp)
    3eac:	f2 0f 10 54 24 60    	movsd  0x60(%rsp),%xmm2
    3eb2:	0f 29 7c 24 40       	movaps %xmm7,0x40(%rsp)
    3eb7:	dd 5c 24 78          	fstpl  0x78(%rsp)
    3ebb:	f2 0f 10 4c 24 78    	movsd  0x78(%rsp),%xmm1
    3ec1:	f2 0f 10 44 24 18    	movsd  0x18(%rsp),%xmm0
    3ec7:	e8 34 41 00 00       	call   8000 <_Z6stressdddd>
    3ecc:	f2 0f 10 44 24 38    	movsd  0x38(%rsp),%xmm0
    3ed2:	f2 0f 10 4c 24 30    	movsd  0x30(%rsp),%xmm1
    3ed8:	f2 0f 59 84 24 40 01 	mulsd  0x140(%rsp),%xmm0
    3edf:	00 00 
    3ee1:	8b 94 24 e0 00 00 00 	mov    0xe0(%rsp),%edx
    3ee8:	f2 0f 59 8c 24 58 01 	mulsd  0x158(%rsp),%xmm1
    3eef:	00 00 
    3ef1:	8b 8c 24 b0 00 00 00 	mov    0xb0(%rsp),%ecx
    3ef8:	66 0f 28 bc 24 80 00 	movapd 0x80(%rsp),%xmm7
    3eff:	00 00 
    3f01:	66 44 0f 28 94 24 90 	movapd 0x90(%rsp),%xmm10
    3f08:	00 00 00 
    3f0b:	66 0f 28 a4 24 a0 00 	movapd 0xa0(%rsp),%xmm4
    3f12:	00 00 
    3f14:	66 0f 59 bc 24 30 01 	mulpd  0x130(%rsp),%xmm7
    3f1b:	00 00 
    3f1d:	dd 84 24 e8 00 00 00 	fldl   0xe8(%rsp)
    3f24:	db ac 24 f0 00 00 00 	fldt   0xf0(%rsp)
    3f2b:	4c 8b 84 24 d0 00 00 	mov    0xd0(%rsp),%r8
    3f32:	00 
    3f33:	66 44 0f 28 8c 24 00 	movapd 0x100(%rsp),%xmm9
    3f3a:	01 00 00 
    3f3d:	f2 0f 58 c1          	addsd  %xmm1,%xmm0
    3f41:	f2 0f 10 4c 24 20    	movsd  0x20(%rsp),%xmm1
    3f47:	f2 0f 59 8c 24 70 01 	mulsd  0x170(%rsp),%xmm1
    3f4e:	00 00 
    3f50:	66 0f 59 a4 24 60 01 	mulpd  0x160(%rsp),%xmm4
    3f57:	00 00 
    3f59:	f2 44 0f 10 84 24 10 	movsd  0x110(%rsp),%xmm8
    3f60:	01 00 00 
    3f63:	48 8b b4 24 c0 00 00 	mov    0xc0(%rsp),%rsi
    3f6a:	00 
    3f6b:	f2 0f 10 b4 24 20 01 	movsd  0x120(%rsp),%xmm6
    3f72:	00 00 
    3f74:	f2 0f 10 ac 24 18 01 	movsd  0x118(%rsp),%xmm5
    3f7b:	00 00 
    3f7d:	f2 0f 58 c1          	addsd  %xmm1,%xmm0
    3f81:	f2 0f 59 44 24 70    	mulsd  0x70(%rsp),%xmm0
    3f87:	66 0f 10 8c 24 48 01 	movupd 0x148(%rsp),%xmm1
    3f8e:	00 00 
    3f90:	66 41 0f 59 ca       	mulpd  %xmm10,%xmm1
    3f95:	f2 41 0f 5e c0       	divsd  %xmm8,%xmm0
    3f9a:	66 0f 58 cf          	addpd  %xmm7,%xmm1
    3f9e:	66 41 0f 10 3c 24    	movupd (%r12),%xmm7
    3fa4:	66 0f 58 cc          	addpd  %xmm4,%xmm1
    3fa8:	66 0f 59 4c 24 40    	mulpd  0x40(%rsp),%xmm1
    3fae:	66 41 0f 5e c9       	divpd  %xmm9,%xmm1
    3fb3:	f2 41 0f 58 44 24 10 	addsd  0x10(%r12),%xmm0
    3fba:	f2 41 0f 11 44 24 10 	movsd  %xmm0,0x10(%r12)
    3fc1:	66 0f 58 cf          	addpd  %xmm7,%xmm1
    3fc5:	41 0f 11 0c 24       	movups %xmm1,(%r12)
    3fca:	e9 29 f9 ff ff       	jmp    38f8 <_ZL6forceldddddddjjPPPedddd+0xdc8>
    3fcf:	dd 05 f3 64 00 00    	fldl   0x64f3(%rip)        # a4c8 <_IO_stdin_used+0x4c8>
    3fd5:	e9 0f ef ff ff       	jmp    2ee9 <_ZL6forceldddddddjjPPPedddd+0x3b9>
    3fda:	d9 c9                	fxch   %st(1)
    3fdc:	f2 0f 10 0d f4 64 00 	movsd  0x64f4(%rip),%xmm1        # a4d8 <_IO_stdin_used+0x4d8>
    3fe3:	00 
    3fe4:	eb 0c                	jmp    3ff2 <_ZL6forceldddddddjjPPPedddd+0x14c2>
    3fe6:	dd d8                	fstp   %st(0)
    3fe8:	d9 c9                	fxch   %st(1)
    3fea:	eb 06                	jmp    3ff2 <_ZL6forceldddddddjjPPPedddd+0x14c2>
    3fec:	d9 c9                	fxch   %st(1)
    3fee:	eb 02                	jmp    3ff2 <_ZL6forceldddddddjjPPPedddd+0x14c2>
    3ff0:	d9 c9                	fxch   %st(1)
    3ff2:	f2 0f 11 4c 24 20    	movsd  %xmm1,0x20(%rsp)
    3ff8:	dc 44 24 20          	faddl  0x20(%rsp)
    3ffc:	e9 1f ef ff ff       	jmp    2f20 <_ZL6forceldddddddjjPPPedddd+0x3f0>
    4001:	de c2                	faddp  %st,%st(2)
    4003:	d9 c9                	fxch   %st(1)
    4005:	db bc 24 90 01 00 00 	fstpt  0x190(%rsp)
    400c:	dd 54 24 20          	fstl   0x20(%rsp)
    4010:	f2 0f 10 7c 24 20    	movsd  0x20(%rsp),%xmm7
    4016:	66 0f 2e f8          	ucomisd %xmm0,%xmm7
    401a:	0f 8a f3 f4 ff ff    	jp     3513 <_ZL6forceldddddddjjPPPedddd+0x9e3>
    4020:	0f 85 ed f4 ff ff    	jne    3513 <_ZL6forceldddddddjjPPPedddd+0x9e3>
    4026:	dd 05 9c 64 00 00    	fldl   0x649c(%rip)        # a4c8 <_IO_stdin_used+0x4c8>
    402c:	e9 29 ef ff ff       	jmp    2f5a <_ZL6forceldddddddjjPPPedddd+0x42a>
    4031:	f2 0f 10 0d 9f 64 00 	movsd  0x649f(%rip),%xmm1        # a4d8 <_IO_stdin_used+0x4d8>
    4038:	00 
    4039:	db 6c 24 60          	fldt   0x60(%rsp)
    403d:	66 0f 2f 44 24 08    	comisd 0x8(%rsp),%xmm0
    4043:	f2 0f 11 4c 24 20    	movsd  %xmm1,0x20(%rsp)
    4049:	dc 44 24 20          	faddl  0x20(%rsp)
    404d:	db bc 24 a0 01 00 00 	fstpt  0x1a0(%rsp)
    4054:	0f 87 bb f9 ff ff    	ja     3a15 <_ZL6forceldddddddjjPPPedddd+0xee5>
    405a:	f2 0f 10 7c 24 08    	movsd  0x8(%rsp),%xmm7
    4060:	66 0f ef c0          	pxor   %xmm0,%xmm0
    4064:	66 0f 2f f8          	comisd %xmm0,%xmm7
    4068:	0f 87 ab f9 ff ff    	ja     3a19 <_ZL6forceldddddddjjPPPedddd+0xee9>
    406e:	dd d9                	fstp   %st(1)
    4070:	eb 02                	jmp    4074 <_ZL6forceldddddddjjPPPedddd+0x1544>
    4072:	dd d9                	fstp   %st(1)
    4074:	f2 0f 11 4c 24 20    	movsd  %xmm1,0x20(%rsp)
    407a:	dd 44 24 20          	fldl   0x20(%rsp)
    407e:	d9 c9                	fxch   %st(1)
    4080:	e9 f8 ee ff ff       	jmp    2f7d <_ZL6forceldddddddjjPPPedddd+0x44d>
    4085:	0f 1f 00             	nopl   (%rax)
    4088:	f2 0f 10 0d 48 64 00 	movsd  0x6448(%rip),%xmm1        # a4d8 <_IO_stdin_used+0x4d8>
    408f:	00 
    4090:	66 0f 2f 44 24 08    	comisd 0x8(%rsp),%xmm0
    4096:	f2 0f 11 4c 24 20    	movsd  %xmm1,0x20(%rsp)
    409c:	dd 44 24 20          	fldl   0x20(%rsp)
    40a0:	db bc 24 80 01 00 00 	fstpt  0x180(%rsp)
    40a7:	0f 87 43 ff ff ff    	ja     3ff0 <_ZL6forceldddddddjjPPPedddd+0x14c0>
    40ad:	f2 0f 10 7c 24 08    	movsd  0x8(%rsp),%xmm7
    40b3:	66 0f 2f f8          	comisd %xmm0,%xmm7
    40b7:	0f 87 c3 f9 ff ff    	ja     3a80 <_ZL6forceldddddddjjPPPedddd+0xf50>
    40bd:	dd d9                	fstp   %st(1)
    40bf:	f2 0f 11 4c 24 20    	movsd  %xmm1,0x20(%rsp)
    40c5:	dd 44 24 20          	fldl   0x20(%rsp)
    40c9:	db bc 24 90 01 00 00 	fstpt  0x190(%rsp)
    40d0:	dd 54 24 20          	fstl   0x20(%rsp)
    40d4:	f2 0f 10 7c 24 20    	movsd  0x20(%rsp),%xmm7
    40da:	66 0f 2f f8          	comisd %xmm0,%xmm7
    40de:	7a 0c                	jp     40ec <_ZL6forceldddddddjjPPPedddd+0x15bc>
    40e0:	0f 84 fd 01 00 00    	je     42e3 <_ZL6forceldddddddjjPPPedddd+0x17b3>
    40e6:	0f 87 7d 01 00 00    	ja     4269 <_ZL6forceldddddddjjPPPedddd+0x1739>
    40ec:	f2 0f 11 4c 24 20    	movsd  %xmm1,0x20(%rsp)
    40f2:	dd 44 24 20          	fldl   0x20(%rsp)
    40f6:	db bc 24 a0 01 00 00 	fstpt  0x1a0(%rsp)
    40fd:	e9 72 ff ff ff       	jmp    4074 <_ZL6forceldddddddjjPPPedddd+0x1544>
    4102:	66 0f 1f 44 00 00    	nopw   0x0(%rax,%rax,1)
    4108:	f2 0f 10 0d c8 63 00 	movsd  0x63c8(%rip),%xmm1        # a4d8 <_IO_stdin_used+0x4d8>
    410f:	00 
    4110:	66 0f 2f 44 24 08    	comisd 0x8(%rsp),%xmm0
    4116:	f2 0f 11 4c 24 20    	movsd  %xmm1,0x20(%rsp)
    411c:	dd 44 24 20          	fldl   0x20(%rsp)
    4120:	db bc 24 a0 01 00 00 	fstpt  0x1a0(%rsp)
    4127:	0f 86 b8 f8 ff ff    	jbe    39e5 <_ZL6forceldddddddjjPPPedddd+0xeb5>
    412d:	d9 c9                	fxch   %st(1)
    412f:	e9 eb f8 ff ff       	jmp    3a1f <_ZL6forceldddddddjjPPPedddd+0xeef>
    4134:	dd 54 24 20          	fstl   0x20(%rsp)
    4138:	f2 0f 10 7c 24 20    	movsd  0x20(%rsp),%xmm7
    413e:	f2 0f 10 0d aa 63 00 	movsd  0x63aa(%rip),%xmm1        # a4f0 <_IO_stdin_used+0x4f0>
    4145:	00 
    4146:	66 0f 2f f8          	comisd %xmm0,%xmm7
    414a:	0f 87 cd f8 ff ff    	ja     3a1d <_ZL6forceldddddddjjPPPedddd+0xeed>
    4150:	d9 c9                	fxch   %st(1)
    4152:	f2 0f 10 0d 7e 63 00 	movsd  0x637e(%rip),%xmm1        # a4d8 <_IO_stdin_used+0x4d8>
    4159:	00 
    415a:	e9 c0 f8 ff ff       	jmp    3a1f <_ZL6forceldddddddjjPPPedddd+0xeef>
    415f:	90                   	nop
    4160:	f2 0f 10 7c 24 10    	movsd  0x10(%rsp),%xmm7
    4166:	66 0f 2f f8          	comisd %xmm0,%xmm7
    416a:	0f 86 6a fe ff ff    	jbe    3fda <_ZL6forceldddddddjjPPPedddd+0x14aa>
    4170:	d9 c9                	fxch   %st(1)
    4172:	dc 05 78 63 00 00    	faddl  0x6378(%rip)        # a4f0 <_IO_stdin_used+0x4f0>
    4178:	e9 79 f3 ff ff       	jmp    34f6 <_ZL6forceldddddddjjPPPedddd+0x9c6>
    417d:	dd d9                	fstp   %st(1)
    417f:	f2 0f 11 4c 24 20    	movsd  %xmm1,0x20(%rsp)
    4185:	dd 44 24 20          	fldl   0x20(%rsp)
    4189:	db bc 24 90 01 00 00 	fstpt  0x190(%rsp)
    4190:	dd 54 24 20          	fstl   0x20(%rsp)
    4194:	f2 0f 10 7c 24 20    	movsd  0x20(%rsp),%xmm7
    419a:	66 0f 2e f8          	ucomisd %xmm0,%xmm7
    419e:	0f 8a 6f f3 ff ff    	jp     3513 <_ZL6forceldddddddjjPPPedddd+0x9e3>
    41a4:	0f 85 69 f3 ff ff    	jne    3513 <_ZL6forceldddddddjjPPPedddd+0x9e3>
    41aa:	dd 05 18 63 00 00    	fldl   0x6318(%rip)        # a4c8 <_IO_stdin_used+0x4c8>
    41b0:	db bc 24 a0 01 00 00 	fstpt  0x1a0(%rsp)
    41b7:	e9 9b f7 ff ff       	jmp    3957 <_ZL6forceldddddddjjPPPedddd+0xe27>
    41bc:	f2 0f 10 0d 14 63 00 	movsd  0x6314(%rip),%xmm1        # a4d8 <_IO_stdin_used+0x4d8>
    41c3:	00 
    41c4:	f2 0f 11 4c 24 20    	movsd  %xmm1,0x20(%rsp)
    41ca:	dd 44 24 20          	fldl   0x20(%rsp)
    41ce:	db bc 24 90 01 00 00 	fstpt  0x190(%rsp)
    41d5:	dd 54 24 20          	fstl   0x20(%rsp)
    41d9:	f2 0f 10 7c 24 20    	movsd  0x20(%rsp),%xmm7
    41df:	66 0f 2e f8          	ucomisd %xmm0,%xmm7
    41e3:	7a 06                	jp     41eb <_ZL6forceldddddddjjPPPedddd+0x16bb>
    41e5:	0f 84 5f f7 ff ff    	je     394a <_ZL6forceldddddddjjPPPedddd+0xe1a>
    41eb:	dd 54 24 20          	fstl   0x20(%rsp)
    41ef:	f2 0f 10 04 24       	movsd  (%rsp),%xmm0
    41f4:	f2 0f 5e 44 24 20    	divsd  0x20(%rsp),%xmm0
    41fa:	dd 5c 24 30          	fstpl  0x30(%rsp)
    41fe:	89 44 24 38          	mov    %eax,0x38(%rsp)
    4202:	f2 0f 11 74 24 50    	movsd  %xmm6,0x50(%rsp)
    4208:	f2 0f 11 6c 24 40    	movsd  %xmm5,0x40(%rsp)
    420e:	f2 44 0f 11 44 24 70 	movsd  %xmm8,0x70(%rsp)
    4215:	f2 0f 11 4c 24 78    	movsd  %xmm1,0x78(%rsp)
    421b:	e8 f0 e1 ff ff       	call   2410 <atan@plt>
    4220:	8b 44 24 38          	mov    0x38(%rsp),%eax
    4224:	f2 44 0f 10 44 24 70 	movsd  0x70(%rsp),%xmm8
    422b:	f2 0f 11 44 24 20    	movsd  %xmm0,0x20(%rsp)
    4231:	dd 44 24 20          	fldl   0x20(%rsp)
    4235:	66 0f ef c0          	pxor   %xmm0,%xmm0
    4239:	f2 0f 10 6c 24 40    	movsd  0x40(%rsp),%xmm5
    423f:	f2 0f 10 74 24 50    	movsd  0x50(%rsp),%xmm6
    4245:	d9 c0                	fld    %st(0)
    4247:	db 7c 24 60          	fstpt  0x60(%rsp)
    424b:	dd 44 24 30          	fldl   0x30(%rsp)
    424f:	dd 54 24 20          	fstl   0x20(%rsp)
    4253:	66 0f 2f 44 24 20    	comisd 0x20(%rsp),%xmm0
    4259:	77 2e                	ja     4289 <_ZL6forceldddddddjjPPPedddd+0x1759>
    425b:	d9 c9                	fxch   %st(1)
    425d:	db bc 24 a0 01 00 00 	fstpt  0x1a0(%rsp)
    4264:	e9 80 f3 ff ff       	jmp    35e9 <_ZL6forceldddddddjjPPPedddd+0xab9>
    4269:	d9 ee                	fldz
    426b:	db bc 24 a0 01 00 00 	fstpt  0x1a0(%rsp)
    4272:	e9 8a f3 ff ff       	jmp    3601 <_ZL6forceldddddddjjPPPedddd+0xad1>
    4277:	f2 0f 10 0d 59 62 00 	movsd  0x6259(%rip),%xmm1        # a4d8 <_IO_stdin_used+0x4d8>
    427e:	00 
    427f:	e9 f0 fd ff ff       	jmp    4074 <_ZL6forceldddddddjjPPPedddd+0x1544>
    4284:	e8 e7 e1 ff ff       	call   2470 <__stack_chk_fail@plt>
    4289:	dd d8                	fstp   %st(0)
    428b:	dd d8                	fstp   %st(0)
    428d:	f2 0f 10 44 24 08    	movsd  0x8(%rsp),%xmm0
    4293:	f2 0f 5e 44 24 20    	divsd  0x20(%rsp),%xmm0
    4299:	e8 72 e1 ff ff       	call   2410 <atan@plt>
    429e:	f2 0f 10 4c 24 78    	movsd  0x78(%rsp),%xmm1
    42a4:	8b 44 24 38          	mov    0x38(%rsp),%eax
    42a8:	f2 0f 11 44 24 20    	movsd  %xmm0,0x20(%rsp)
    42ae:	dd 44 24 20          	fldl   0x20(%rsp)
    42b2:	db 6c 24 60          	fldt   0x60(%rsp)
    42b6:	f2 0f 11 4c 24 20    	movsd  %xmm1,0x20(%rsp)
    42bc:	dc 44 24 20          	faddl  0x20(%rsp)
    42c0:	f2 44 0f 10 44 24 70 	movsd  0x70(%rsp),%xmm8
    42c7:	f2 0f 10 6c 24 40    	movsd  0x40(%rsp),%xmm5
    42cd:	f2 0f 10 74 24 50    	movsd  0x50(%rsp),%xmm6
    42d3:	db bc 24 a0 01 00 00 	fstpt  0x1a0(%rsp)
    42da:	dd 44 24 30          	fldl   0x30(%rsp)
    42de:	e9 77 fd ff ff       	jmp    405a <_ZL6forceldddddddjjPPPedddd+0x152a>
    42e3:	d9 ee                	fldz
    42e5:	db bc 24 a0 01 00 00 	fstpt  0x1a0(%rsp)
    42ec:	e9 66 f6 ff ff       	jmp    3957 <_ZL6forceldddddddjjPPPedddd+0xe27>
    42f1:	66 66 2e 0f 1f 84 00 	data16 cs nopw 0x0(%rax,%rax,1)
    42f8:	00 00 00 00 
    42fc:	0f 1f 40 00          	nopl   0x0(%rax)

0000000000004300 <_ZL7torqueldddddddjjPPPedddd>:
    4300:	41 57                	push   %r15
    4302:	66 44 0f 28 c0       	movapd %xmm0,%xmm8
    4307:	66 0f ef c0          	pxor   %xmm0,%xmm0
    430b:	49 89 ff             	mov    %rdi,%r15
    430e:	41 56                	push   %r14
    4310:	41 89 f6             	mov    %esi,%r14d
    4313:	41 55                	push   %r13
    4315:	41 54                	push   %r12
    4317:	41 89 f4             	mov    %esi,%r12d
    431a:	55                   	push   %rbp
    431b:	48 89 cd             	mov    %rcx,%rbp
    431e:	53                   	push   %rbx
    431f:	89 d3                	mov    %edx,%ebx
    4321:	48 81 ec 88 01 00 00 	sub    $0x188,%rsp
    4328:	f2 0f 11 54 24 08    	movsd  %xmm2,0x8(%rsp)
    432e:	66 41 0f 28 d0       	movapd %xmm8,%xmm2
    4333:	dd 44 24 08          	fldl   0x8(%rsp)
    4337:	66 0f 57 15 e1 61 00 	xorpd  0x61e1(%rip),%xmm2        # a520 <_IO_stdin_used+0x520>
    433e:	00 
    433f:	f2 0f 11 4c 24 28    	movsd  %xmm1,0x28(%rsp)
    4345:	f2 0f 11 5c 24 08    	movsd  %xmm3,0x8(%rsp)
    434b:	f2 0f 11 64 24 18    	movsd  %xmm4,0x18(%rsp)
    4351:	f2 0f 11 6c 24 20    	movsd  %xmm5,0x20(%rsp)
    4357:	f2 0f 11 74 24 10    	movsd  %xmm6,0x10(%rsp)
    435d:	f2 0f 11 7c 24 30    	movsd  %xmm7,0x30(%rsp)
    4363:	64 48 8b 04 25 28 00 	mov    %fs:0x28,%rax
    436a:	00 00 
    436c:	48 89 84 24 78 01 00 	mov    %rax,0x178(%rsp)
    4373:	00 
    4374:	31 c0                	xor    %eax,%eax
    4376:	66 0f 2f ea          	comisd %xmm2,%xmm5
    437a:	48 c7 47 10 00 00 00 	movq   $0x0,0x10(%rdi)
    4381:	00 
    4382:	0f 11 07             	movups %xmm0,(%rdi)
    4385:	0f 87 0d 01 00 00    	ja     4498 <_ZL7torqueldddddddjjPPPedddd+0x198>
    438b:	45 31 c9             	xor    %r9d,%r9d
    438e:	66 44 0f 2f 44 24 10 	comisd 0x10(%rsp),%xmm8
    4395:	77 69                	ja     4400 <_ZL7torqueldddddddjjPPPedddd+0x100>
    4397:	66 0f 2f 54 24 10    	comisd 0x10(%rsp),%xmm2
    439d:	77 19                	ja     43b8 <_ZL7torqueldddddddjjPPPedddd+0xb8>
    439f:	f2 0f 10 7c 24 20    	movsd  0x20(%rsp),%xmm7
    43a5:	66 41 0f 2f f8       	comisd %xmm8,%xmm7
    43aa:	0f 86 f8 01 00 00    	jbe    45a8 <_ZL7torqueldddddddjjPPPedddd+0x2a8>
    43b0:	dd d8                	fstp   %st(0)
    43b2:	eb 1c                	jmp    43d0 <_ZL7torqueldddddddjjPPPedddd+0xd0>
    43b4:	0f 1f 40 00          	nopl   0x0(%rax)
    43b8:	dd d8                	fstp   %st(0)
    43ba:	eb 14                	jmp    43d0 <_ZL7torqueldddddddjjPPPedddd+0xd0>
    43bc:	dd d8                	fstp   %st(0)
    43be:	eb 10                	jmp    43d0 <_ZL7torqueldddddddjjPPPedddd+0xd0>
    43c0:	dd d8                	fstp   %st(0)
    43c2:	eb 0c                	jmp    43d0 <_ZL7torqueldddddddjjPPPedddd+0xd0>
    43c4:	dd d8                	fstp   %st(0)
    43c6:	66 2e 0f 1f 84 00 00 	cs nopw 0x0(%rax,%rax,1)
    43cd:	00 00 00 
    43d0:	48 8b 84 24 78 01 00 	mov    0x178(%rsp),%rax
    43d7:	00 
    43d8:	64 48 2b 04 25 28 00 	sub    %fs:0x28,%rax
    43df:	00 00 
    43e1:	0f 85 18 17 00 00    	jne    5aff <_ZL7torqueldddddddjjPPPedddd+0x17ff>
    43e7:	48 81 c4 88 01 00 00 	add    $0x188,%rsp
    43ee:	4c 89 f8             	mov    %r15,%rax
    43f1:	5b                   	pop    %rbx
    43f2:	5d                   	pop    %rbp
    43f3:	41 5c                	pop    %r12
    43f5:	41 5d                	pop    %r13
    43f7:	41 5e                	pop    %r14
    43f9:	41 5f                	pop    %r15
    43fb:	c3                   	ret
    43fc:	0f 1f 40 00          	nopl   0x0(%rax)
    4400:	f2 0f 10 44 24 10    	movsd  0x10(%rsp),%xmm0
    4406:	dd 5c 24 40          	fstpl  0x40(%rsp)
    440a:	f2 0f 11 54 24 70    	movsd  %xmm2,0x70(%rsp)
    4410:	f2 41 0f 5e c0       	divsd  %xmm8,%xmm0
    4415:	f2 44 0f 11 44 24 38 	movsd  %xmm8,0x38(%rsp)
    441c:	e8 0f e0 ff ff       	call   2430 <acos@plt>
    4421:	43 8d 04 36          	lea    (%r14,%r14,1),%eax
    4425:	66 0f ef e4          	pxor   %xmm4,%xmm4
    4429:	f2 0f 10 0d a7 60 00 	movsd  0x60a7(%rip),%xmm1        # a4d8 <_IO_stdin_used+0x4d8>
    4430:	00 
    4431:	f2 48 0f 2a e0       	cvtsi2sd %rax,%xmm4
    4436:	44 89 f0             	mov    %r14d,%eax
    4439:	dd 44 24 40          	fldl   0x40(%rsp)
    443d:	f2 44 0f 10 44 24 38 	movsd  0x38(%rsp),%xmm8
    4444:	66 0f 28 d9          	movapd %xmm1,%xmm3
    4448:	f2 0f 10 54 24 70    	movsd  0x70(%rsp),%xmm2
    444e:	f2 0f 5e dc          	divsd  %xmm4,%xmm3
    4452:	f2 0f 10 25 86 60 00 	movsd  0x6086(%rip),%xmm4        # a4e0 <_IO_stdin_used+0x4e0>
    4459:	00 
    445a:	f2 0f 5c c3          	subsd  %xmm3,%xmm0
    445e:	66 0f ef db          	pxor   %xmm3,%xmm3
    4462:	f2 48 0f 2a d8       	cvtsi2sd %rax,%xmm3
    4467:	f2 0f 5e cb          	divsd  %xmm3,%xmm1
    446b:	f2 0f 10 1d 85 60 00 	movsd  0x6085(%rip),%xmm3        # a4f8 <_IO_stdin_used+0x4f8>
    4472:	00 
    4473:	f2 0f 5e c1          	divsd  %xmm1,%xmm0
    4477:	66 0f 28 c8          	movapd %xmm0,%xmm1
    447b:	66 0f 54 cb          	andpd  %xmm3,%xmm1
    447f:	66 0f 2e e1          	ucomisd %xmm1,%xmm4
    4483:	0f 87 df 00 00 00    	ja     4568 <_ZL7torqueldddddddjjPPPedddd+0x268>
    4489:	f2 44 0f 2c c8       	cvttsd2si %xmm0,%r9d
    448e:	e9 04 ff ff ff       	jmp    4397 <_ZL7torqueldddddddjjPPPedddd+0x97>
    4493:	0f 1f 44 00 00       	nopl   0x0(%rax,%rax,1)
    4498:	66 0f 28 c5          	movapd %xmm5,%xmm0
    449c:	dd 5c 24 40          	fstpl  0x40(%rsp)
    44a0:	f2 41 0f 5e c0       	divsd  %xmm8,%xmm0
    44a5:	f2 0f 11 54 24 70    	movsd  %xmm2,0x70(%rsp)
    44ab:	f2 44 0f 11 44 24 38 	movsd  %xmm8,0x38(%rsp)
    44b2:	e8 79 df ff ff       	call   2430 <acos@plt>
    44b7:	43 8d 04 36          	lea    (%r14,%r14,1),%eax
    44bb:	66 0f ef e4          	pxor   %xmm4,%xmm4
    44bf:	f2 0f 10 0d 11 60 00 	movsd  0x6011(%rip),%xmm1        # a4d8 <_IO_stdin_used+0x4d8>
    44c6:	00 
    44c7:	f2 48 0f 2a e0       	cvtsi2sd %rax,%xmm4
    44cc:	44 89 f0             	mov    %r14d,%eax
    44cf:	dd 44 24 40          	fldl   0x40(%rsp)
    44d3:	f2 44 0f 10 44 24 38 	movsd  0x38(%rsp),%xmm8
    44da:	66 0f 28 d9          	movapd %xmm1,%xmm3
    44de:	f2 0f 10 54 24 70    	movsd  0x70(%rsp),%xmm2
    44e4:	f2 0f 5e dc          	divsd  %xmm4,%xmm3
    44e8:	f2 0f 10 25 f0 5f 00 	movsd  0x5ff0(%rip),%xmm4        # a4e0 <_IO_stdin_used+0x4e0>
    44ef:	00 
    44f0:	f2 0f 5c c3          	subsd  %xmm3,%xmm0
    44f4:	66 0f ef db          	pxor   %xmm3,%xmm3
    44f8:	f2 48 0f 2a d8       	cvtsi2sd %rax,%xmm3
    44fd:	f2 0f 5e cb          	divsd  %xmm3,%xmm1
    4501:	f2 0f 10 1d ef 5f 00 	movsd  0x5fef(%rip),%xmm3        # a4f8 <_IO_stdin_used+0x4f8>
    4508:	00 
    4509:	f2 0f 5e c1          	divsd  %xmm1,%xmm0
    450d:	66 0f 28 c8          	movapd %xmm0,%xmm1
    4511:	66 0f 54 cb          	andpd  %xmm3,%xmm1
    4515:	66 0f 2e e1          	ucomisd %xmm1,%xmm4
    4519:	77 0d                	ja     4528 <_ZL7torqueldddddddjjPPPedddd+0x228>
    451b:	f2 44 0f 2c e0       	cvttsd2si %xmm0,%r12d
    4520:	e9 66 fe ff ff       	jmp    438b <_ZL7torqueldddddddjjPPPedddd+0x8b>
    4525:	0f 1f 00             	nopl   (%rax)
    4528:	f2 48 0f 2c c0       	cvttsd2si %xmm0,%rax
    452d:	66 0f ef c9          	pxor   %xmm1,%xmm1
    4531:	66 0f 28 e0          	movapd %xmm0,%xmm4
    4535:	f2 0f 10 2d ab 5f 00 	movsd  0x5fab(%rip),%xmm5        # a4e8 <_IO_stdin_used+0x4e8>
    453c:	00 
    453d:	66 0f 55 d8          	andnpd %xmm0,%xmm3
    4541:	f2 48 0f 2a c8       	cvtsi2sd %rax,%xmm1
    4546:	f2 0f c2 e1 06       	cmpnlesd %xmm1,%xmm4
    454b:	66 0f 54 e5          	andpd  %xmm5,%xmm4
    454f:	f2 0f 58 cc          	addsd  %xmm4,%xmm1
    4553:	66 0f 56 cb          	orpd   %xmm3,%xmm1
    4557:	66 0f 28 c1          	movapd %xmm1,%xmm0
    455b:	f2 44 0f 2c e0       	cvttsd2si %xmm0,%r12d
    4560:	e9 26 fe ff ff       	jmp    438b <_ZL7torqueldddddddjjPPPedddd+0x8b>
    4565:	0f 1f 00             	nopl   (%rax)
    4568:	f2 48 0f 2c c0       	cvttsd2si %xmm0,%rax
    456d:	66 0f ef c9          	pxor   %xmm1,%xmm1
    4571:	f2 0f 10 2d 6f 5f 00 	movsd  0x5f6f(%rip),%xmm5        # a4e8 <_IO_stdin_used+0x4e8>
    4578:	00 
    4579:	66 0f 55 d8          	andnpd %xmm0,%xmm3
    457d:	f2 48 0f 2a c8       	cvtsi2sd %rax,%xmm1
    4582:	66 0f 28 e1          	movapd %xmm1,%xmm4
    4586:	f2 0f c2 e0 06       	cmpnlesd %xmm0,%xmm4
    458b:	66 0f 54 e5          	andpd  %xmm5,%xmm4
    458f:	f2 0f 5c cc          	subsd  %xmm4,%xmm1
    4593:	66 0f 56 cb          	orpd   %xmm3,%xmm1
    4597:	66 0f 28 c1          	movapd %xmm1,%xmm0
    459b:	f2 44 0f 2c c8       	cvttsd2si %xmm0,%r9d
    45a0:	e9 f2 fd ff ff       	jmp    4397 <_ZL7torqueldddddddjjPPPedddd+0x97>
    45a5:	0f 1f 00             	nopl   (%rax)
    45a8:	f2 0f 10 74 24 28    	movsd  0x28(%rsp),%xmm6
    45ae:	66 0f ef c0          	pxor   %xmm0,%xmm0
    45b2:	66 0f 2e f0          	ucomisd %xmm0,%xmm6
    45b6:	7a 06                	jp     45be <_ZL7torqueldddddddjjPPPedddd+0x2be>
    45b8:	0f 84 c3 00 00 00    	je     4681 <_ZL7torqueldddddddjjPPPedddd+0x381>
    45be:	dd 5c 24 50          	fstpl  0x50(%rsp)
    45c2:	f2 0f 10 44 24 08    	movsd  0x8(%rsp),%xmm0
    45c8:	f2 0f 5e 44 24 28    	divsd  0x28(%rsp),%xmm0
    45ce:	44 89 4c 24 70       	mov    %r9d,0x70(%rsp)
    45d3:	f2 44 0f 11 44 24 40 	movsd  %xmm8,0x40(%rsp)
    45da:	e8 31 de ff ff       	call   2410 <atan@plt>
    45df:	f2 0f 11 44 24 38    	movsd  %xmm0,0x38(%rsp)
    45e5:	dd 44 24 38          	fldl   0x38(%rsp)
    45e9:	f2 0f 10 44 24 18    	movsd  0x18(%rsp),%xmm0
    45ef:	f2 0f 5e 44 24 28    	divsd  0x28(%rsp),%xmm0
    45f5:	dd 54 24 78          	fstl   0x78(%rsp)
    45f9:	db 7c 24 60          	fstpt  0x60(%rsp)
    45fd:	e8 0e de ff ff       	call   2410 <atan@plt>
    4602:	44 8b 4c 24 70       	mov    0x70(%rsp),%r9d
    4607:	f2 44 0f 10 44 24 40 	movsd  0x40(%rsp),%xmm8
    460e:	f2 0f 11 44 24 38    	movsd  %xmm0,0x38(%rsp)
    4614:	66 0f ef c0          	pxor   %xmm0,%xmm0
    4618:	66 0f 2f 44 24 08    	comisd 0x8(%rsp),%xmm0
    461e:	dd 44 24 38          	fldl   0x38(%rsp)
    4622:	dd 44 24 50          	fldl   0x50(%rsp)
    4626:	0f 87 08 02 00 00    	ja     4834 <_ZL7torqueldddddddjjPPPedddd+0x534>
    462c:	f2 0f 10 74 24 08    	movsd  0x8(%rsp),%xmm6
    4632:	66 0f 2f f0          	comisd %xmm0,%xmm6
    4636:	0f 86 b1 0c 00 00    	jbe    52ed <_ZL7torqueldddddddjjPPPedddd+0xfed>
    463c:	66 0f 2f 44 24 28    	comisd 0x28(%rsp),%xmm0
    4642:	0f 87 6b 06 00 00    	ja     4cb3 <_ZL7torqueldddddddjjPPPedddd+0x9b3>
    4648:	dd 44 24 78          	fldl   0x78(%rsp)
    464c:	66 0f 2f 44 24 18    	comisd 0x18(%rsp),%xmm0
    4652:	db bc 24 30 01 00 00 	fstpt  0x130(%rsp)
    4659:	0f 87 91 13 00 00    	ja     59f0 <_ZL7torqueldddddddjjPPPedddd+0x16f0>
    465f:	f2 0f 10 7c 24 18    	movsd  0x18(%rsp),%xmm7
    4665:	66 0f 2f f8          	comisd %xmm0,%xmm7
    4669:	77 4f                	ja     46ba <_ZL7torqueldddddddjjPPPedddd+0x3ba>
    466b:	dd d9                	fstp   %st(1)
    466d:	f2 0f 10 74 24 28    	movsd  0x28(%rsp),%xmm6
    4673:	66 0f 2f f0          	comisd %xmm0,%xmm6
    4677:	0f 86 cf 13 00 00    	jbe    5a4c <_ZL7torqueldddddddjjPPPedddd+0x174c>
    467d:	d9 ee                	fldz
    467f:	eb 47                	jmp    46c8 <_ZL7torqueldddddddjjPPPedddd+0x3c8>
    4681:	f2 0f 10 74 24 08    	movsd  0x8(%rsp),%xmm6
    4687:	66 0f 2f f0          	comisd %xmm0,%xmm6
    468b:	0f 86 eb 01 00 00    	jbe    487c <_ZL7torqueldddddddjjPPPedddd+0x57c>
    4691:	dd 05 39 5e 00 00    	fldl   0x5e39(%rip)        # a4d0 <_IO_stdin_used+0x4d0>
    4697:	f2 0f 10 7c 24 18    	movsd  0x18(%rsp),%xmm7
    469d:	66 0f ef c0          	pxor   %xmm0,%xmm0
    46a1:	db bc 24 30 01 00 00 	fstpt  0x130(%rsp)
    46a8:	66 0f 2f f8          	comisd %xmm0,%xmm7
    46ac:	0f 86 5a 0b 00 00    	jbe    520c <_ZL7torqueldddddddjjPPPedddd+0xf0c>
    46b2:	dd 05 18 5e 00 00    	fldl   0x5e18(%rip)        # a4d0 <_IO_stdin_used+0x4d0>
    46b8:	eb 0e                	jmp    46c8 <_ZL7torqueldddddddjjPPPedddd+0x3c8>
    46ba:	d9 c9                	fxch   %st(1)
    46bc:	eb 0a                	jmp    46c8 <_ZL7torqueldddddddjjPPPedddd+0x3c8>
    46be:	d9 c9                	fxch   %st(1)
    46c0:	eb 06                	jmp    46c8 <_ZL7torqueldddddddjjPPPedddd+0x3c8>
    46c2:	d9 c9                	fxch   %st(1)
    46c4:	0f 1f 40 00          	nopl   0x0(%rax)
    46c8:	db bc 24 40 01 00 00 	fstpt  0x140(%rsp)
    46cf:	66 0f ef c0          	pxor   %xmm0,%xmm0
    46d3:	dd 54 24 38          	fstl   0x38(%rsp)
    46d7:	f2 0f 10 74 24 38    	movsd  0x38(%rsp),%xmm6
    46dd:	66 0f 2e f0          	ucomisd %xmm0,%xmm6
    46e1:	0f 8a 2a 06 00 00    	jp     4d11 <_ZL7torqueldddddddjjPPPedddd+0xa11>
    46e7:	0f 85 24 06 00 00    	jne    4d11 <_ZL7torqueldddddddjjPPPedddd+0xa11>
    46ed:	f2 0f 10 74 24 08    	movsd  0x8(%rsp),%xmm6
    46f3:	66 0f 2f f0          	comisd %xmm0,%xmm6
    46f7:	0f 86 9c 0b 00 00    	jbe    5299 <_ZL7torqueldddddddjjPPPedddd+0xf99>
    46fd:	dd 05 cd 5d 00 00    	fldl   0x5dcd(%rip)        # a4d0 <_IO_stdin_used+0x4d0>
    4703:	f2 0f 10 74 24 18    	movsd  0x18(%rsp),%xmm6
    4709:	66 0f ef c0          	pxor   %xmm0,%xmm0
    470d:	db bc 24 50 01 00 00 	fstpt  0x150(%rsp)
    4714:	66 0f 2f f0          	comisd %xmm0,%xmm6
    4718:	0f 86 11 0a 00 00    	jbe    512f <_ZL7torqueldddddddjjPPPedddd+0xe2f>
    471e:	dd 05 ac 5d 00 00    	fldl   0x5dac(%rip)        # a4d0 <_IO_stdin_used+0x4d0>
    4724:	d9 c9                	fxch   %st(1)
    4726:	4c 8d ac 24 30 01 00 	lea    0x130(%rsp),%r13
    472d:	00 
    472e:	dd 5c 24 70          	fstpl  0x70(%rsp)
    4732:	ba 04 00 00 00       	mov    $0x4,%edx
    4737:	48 8d b4 24 70 01 00 	lea    0x170(%rsp),%rsi
    473e:	00 
    473f:	4c 89 ef             	mov    %r13,%rdi
    4742:	44 89 4c 24 38       	mov    %r9d,0x38(%rsp)
    4747:	db bc 24 60 01 00 00 	fstpt  0x160(%rsp)
    474e:	e8 ed e1 ff ff       	call   2940 <_ZSt16__introsort_loopIPelN9__gnu_cxx5__ops15_Iter_less_iterEEvT_S4_T0_T1_.isra.0>
    4753:	44 8b 4c 24 38       	mov    0x38(%rsp),%r9d
    4758:	dd 44 24 70          	fldl   0x70(%rsp)
    475c:	4c 89 e9             	mov    %r13,%rcx
    475f:	4c 8d 94 24 60 01 00 	lea    0x160(%rsp),%r10
    4766:	00 
    4767:	eb 7f                	jmp    47e8 <_ZL7torqueldddddddjjPPPedddd+0x4e8>
    4769:	0f 1f 80 00 00 00 00 	nopl   0x0(%rax)
    4770:	4c 29 ea             	sub    %r13,%rdx
    4773:	48 83 fa 10          	cmp    $0x10,%rdx
    4777:	0f 8e 53 07 00 00    	jle    4ed0 <_ZL7torqueldddddddjjPPPedddd+0xbd0>
    477d:	dd d8                	fstp   %st(0)
    477f:	d9 c9                	fxch   %st(1)
    4781:	bf 10 00 00 00       	mov    $0x10,%edi
    4786:	dd 5c 24 78          	fstpl  0x78(%rsp)
    478a:	4c 89 ee             	mov    %r13,%rsi
    478d:	48 29 d7             	sub    %rdx,%rdi
    4790:	4c 89 54 24 50       	mov    %r10,0x50(%rsp)
    4795:	48 01 cf             	add    %rcx,%rdi
    4798:	db 7c 24 40          	fstpt  0x40(%rsp)
    479c:	44 89 4c 24 70       	mov    %r9d,0x70(%rsp)
    47a1:	48 89 4c 24 38       	mov    %rcx,0x38(%rsp)
    47a6:	f2 44 0f 11 44 24 60 	movsd  %xmm8,0x60(%rsp)
    47ad:	e8 ce dd ff ff       	call   2580 <memmove@plt>
    47b2:	dd 44 24 78          	fldl   0x78(%rsp)
    47b6:	db 6c 24 40          	fldt   0x40(%rsp)
    47ba:	48 8b 4c 24 38       	mov    0x38(%rsp),%rcx
    47bf:	44 8b 4c 24 70       	mov    0x70(%rsp),%r9d
    47c4:	4c 8b 54 24 50       	mov    0x50(%rsp),%r10
    47c9:	f2 44 0f 10 44 24 60 	movsd  0x60(%rsp),%xmm8
    47d0:	eb 06                	jmp    47d8 <_ZL7torqueldddddddjjPPPedddd+0x4d8>
    47d2:	dd d8                	fstp   %st(0)
    47d4:	0f 1f 40 00          	nopl   0x0(%rax)
    47d8:	db bc 24 30 01 00 00 	fstpt  0x130(%rsp)
    47df:	4c 39 d1             	cmp    %r10,%rcx
    47e2:	0f 84 a5 00 00 00    	je     488d <_ZL7torqueldddddddjjPPPedddd+0x58d>
    47e8:	48 89 ce             	mov    %rcx,%rsi
    47eb:	48 83 c1 10          	add    $0x10,%rcx
    47ef:	db 6e 10             	fldt   0x10(%rsi)
    47f2:	48 89 ca             	mov    %rcx,%rdx
    47f5:	48 89 f0             	mov    %rsi,%rax
    47f8:	db ac 24 30 01 00 00 	fldt   0x130(%rsp)
    47ff:	db f1                	fcomi  %st(1),%st
    4801:	0f 87 69 ff ff ff    	ja     4770 <_ZL7torqueldddddddjjPPPedddd+0x470>
    4807:	dd d8                	fstp   %st(0)
    4809:	db 2e                	fldt   (%rsi)
    480b:	db f1                	fcomi  %st(1),%st
    480d:	76 15                	jbe    4824 <_ZL7torqueldddddddjjPPPedddd+0x524>
    480f:	90                   	nop
    4810:	db 78 10             	fstpt  0x10(%rax)
    4813:	48 89 c2             	mov    %rax,%rdx
    4816:	48 83 e8 10          	sub    $0x10,%rax
    481a:	db 28                	fldt   (%rax)
    481c:	db f1                	fcomi  %st(1),%st
    481e:	77 f0                	ja     4810 <_ZL7torqueldddddddjjPPPedddd+0x510>
    4820:	dd d8                	fstp   %st(0)
    4822:	eb 0c                	jmp    4830 <_ZL7torqueldddddddjjPPPedddd+0x530>
    4824:	dd d8                	fstp   %st(0)
    4826:	66 2e 0f 1f 84 00 00 	cs nopw 0x0(%rax,%rax,1)
    482d:	00 00 00 
    4830:	db 3a                	fstpt  (%rdx)
    4832:	eb ab                	jmp    47df <_ZL7torqueldddddddjjPPPedddd+0x4df>
    4834:	f2 0f 10 7c 24 28    	movsd  0x28(%rsp),%xmm7
    483a:	66 0f 2f f8          	comisd %xmm0,%xmm7
    483e:	0f 86 df 09 00 00    	jbe    5223 <_ZL7torqueldddddddjjPPPedddd+0xf23>
    4844:	dd 05 a6 5c 00 00    	fldl   0x5ca6(%rip)        # a4f0 <_IO_stdin_used+0x4f0>
    484a:	db 6c 24 60          	fldt   0x60(%rsp)
    484e:	66 0f 2f 44 24 18    	comisd 0x18(%rsp),%xmm0
    4854:	d8 c1                	fadd   %st(1),%st
    4856:	db bc 24 30 01 00 00 	fstpt  0x130(%rsp)
    485d:	0f 87 2d 10 00 00    	ja     5890 <_ZL7torqueldddddddjjPPPedddd+0x1590>
    4863:	dd d8                	fstp   %st(0)
    4865:	f2 0f 10 74 24 18    	movsd  0x18(%rsp),%xmm6
    486b:	66 0f 2f f0          	comisd %xmm0,%xmm6
    486f:	0f 87 49 fe ff ff    	ja     46be <_ZL7torqueldddddddjjPPPedddd+0x3be>
    4875:	dd d9                	fstp   %st(1)
    4877:	e9 01 fe ff ff       	jmp    467d <_ZL7torqueldddddddjjPPPedddd+0x37d>
    487c:	66 0f 2f c6          	comisd %xmm6,%xmm0
    4880:	0f 87 d8 0f 00 00    	ja     585e <_ZL7torqueldddddddjjPPPedddd+0x155e>
    4886:	d9 ee                	fldz
    4888:	e9 0a fe ff ff       	jmp    4697 <_ZL7torqueldddddddjjPPPedddd+0x397>
    488d:	66 0f ef c0          	pxor   %xmm0,%xmm0
    4891:	66 0f 2f 44 24 28    	comisd 0x28(%rsp),%xmm0
    4897:	0f 83 58 05 00 00    	jae    4df5 <_ZL7torqueldddddddjjPPPedddd+0xaf5>
    489d:	d9 bc 24 de 00 00 00 	fnstcw 0xde(%rsp)
    48a4:	89 d8                	mov    %ebx,%eax
    48a6:	66 0f ef d2          	pxor   %xmm2,%xmm2
    48aa:	f2 0f 10 0d 3e 5c 00 	movsd  0x5c3e(%rip),%xmm1        # a4f0 <_IO_stdin_used+0x4f0>
    48b1:	00 
    48b2:	f2 48 0f 2a d0       	cvtsi2sd %rax,%xmm2
    48b7:	f2 0f 10 7c 24 28    	movsd  0x28(%rsp),%xmm7
    48bd:	0f b7 84 24 de 00 00 	movzwl 0xde(%rsp),%eax
    48c4:	00 
    48c5:	80 e4 f3             	and    $0xf3,%ah
    48c8:	f2 0f 5e ca          	divsd  %xmm2,%xmm1
    48cc:	80 cc 04             	or     $0x4,%ah
    48cf:	66 89 84 24 dc 00 00 	mov    %ax,0xdc(%rsp)
    48d6:	00 
    48d7:	0f b7 84 24 de 00 00 	movzwl 0xde(%rsp),%eax
    48de:	00 
    48df:	80 cc 0c             	or     $0xc,%ah
    48e2:	66 89 84 24 da 00 00 	mov    %ax,0xda(%rsp)
    48e9:	00 
    48ea:	0f b7 84 24 de 00 00 	movzwl 0xde(%rsp),%eax
    48f1:	00 
    48f2:	80 e4 f3             	and    $0xf3,%ah
    48f5:	80 cc 08             	or     $0x8,%ah
    48f8:	66 89 84 24 d8 00 00 	mov    %ax,0xd8(%rsp)
    48ff:	00 
    4900:	f2 0f 11 4c 24 38    	movsd  %xmm1,0x38(%rsp)
    4906:	dd 44 24 38          	fldl   0x38(%rsp)
    490a:	d9 c0                	fld    %st(0)
    490c:	db ac 24 30 01 00 00 	fldt   0x130(%rsp)
    4913:	d8 f2                	fdiv   %st(2),%st
    4915:	d9 ac 24 dc 00 00 00 	fldcw  0xdc(%rsp)
    491c:	d9 fc                	frndint
    491e:	d9 ac 24 de 00 00 00 	fldcw  0xde(%rsp)
    4925:	d9 ac 24 da 00 00 00 	fldcw  0xda(%rsp)
    492c:	db 5c 24 38          	fistpl 0x38(%rsp)
    4930:	d9 ac 24 de 00 00 00 	fldcw  0xde(%rsp)
    4937:	db ac 24 60 01 00 00 	fldt   0x160(%rsp)
    493e:	8b 54 24 38          	mov    0x38(%rsp),%edx
    4942:	de f2                	fdivp  %st,%st(2)
    4944:	d9 c9                	fxch   %st(1)
    4946:	d9 ac 24 d8 00 00 00 	fldcw  0xd8(%rsp)
    494d:	d9 fc                	frndint
    494f:	d9 ac 24 de 00 00 00 	fldcw  0xde(%rsp)
    4956:	d9 ac 24 da 00 00 00 	fldcw  0xda(%rsp)
    495d:	db 5c 24 38          	fistpl 0x38(%rsp)
    4961:	d9 ac 24 de 00 00 00 	fldcw  0xde(%rsp)
    4968:	8b 44 24 38          	mov    0x38(%rsp),%eax
    496c:	39 c3                	cmp    %eax,%ebx
    496e:	0f 47 d8             	cmova  %eax,%ebx
    4971:	66 0f 2f f8          	comisd %xmm0,%xmm7
    4975:	76 10                	jbe    4987 <_ZL7torqueldddddddjjPPPedddd+0x687>
    4977:	66 0f 2f 44 24 08    	comisd 0x8(%rsp),%xmm0
    497d:	0f 87 5b 05 00 00    	ja     4ede <_ZL7torqueldddddddjjPPPedddd+0xbde>
    4983:	dd d8                	fstp   %st(0)
    4985:	eb 09                	jmp    4990 <_ZL7torqueldddddddjjPPPedddd+0x690>
    4987:	dd d8                	fstp   %st(0)
    4989:	eb 05                	jmp    4990 <_ZL7torqueldddddddjjPPPedddd+0x690>
    498b:	dd d8                	fstp   %st(0)
    498d:	0f 1f 00             	nopl   (%rax)
    4990:	45 39 e1             	cmp    %r12d,%r9d
    4993:	0f 83 23 fa ff ff    	jae    43bc <_ZL7torqueldddddddjjPPPedddd+0xbc>
    4999:	39 da                	cmp    %ebx,%edx
    499b:	0f 83 1f fa ff ff    	jae    43c0 <_ZL7torqueldddddddjjPPPedddd+0xc0>
    49a1:	41 83 ec 01          	sub    $0x1,%r12d
    49a5:	44 89 c8             	mov    %r9d,%eax
    49a8:	83 eb 01             	sub    $0x1,%ebx
    49ab:	dd 44 24 28          	fldl   0x28(%rsp)
    49af:	45 29 cc             	sub    %r9d,%r12d
    49b2:	4c 8d 6c c5 00       	lea    0x0(%rbp,%rax,8),%r13
    49b7:	29 d3                	sub    %edx,%ebx
    49b9:	4c 01 e0             	add    %r12,%rax
    49bc:	4c 8d 74 c5 08       	lea    0x8(%rbp,%rax,8),%r14
    49c1:	89 d0                	mov    %edx,%eax
    49c3:	48 8d 6c 18 01       	lea    0x1(%rax,%rbx,1),%rbp
    49c8:	4c 8d 24 c5 00 00 00 	lea    0x0(,%rax,8),%r12
    49cf:	00 
    49d0:	48 c1 e5 03          	shl    $0x3,%rbp
    49d4:	0f 1f 40 00          	nopl   0x0(%rax)
    49d8:	4c 89 e3             	mov    %r12,%rbx
    49db:	0f 1f 44 00 00       	nopl   0x0(%rax,%rax,1)
    49e0:	49 8b 45 00          	mov    0x0(%r13),%rax
    49e4:	48 8b 04 18          	mov    (%rax,%rbx,1),%rax
    49e8:	db 28                	fldt   (%rax)
    49ea:	db f1                	fcomi  %st(1),%st
    49ec:	72 42                	jb     4a30 <_ZL7torqueldddddddjjPPPedddd+0x730>
    49ee:	d9 c2                	fld    %st(2)
    49f0:	df f1                	fcomip %st(1),%st
    49f2:	72 44                	jb     4a38 <_ZL7torqueldddddddjjPPPedddd+0x738>
    49f4:	dd 44 24 08          	fldl   0x8(%rsp)
    49f8:	db 68 10             	fldt   0x10(%rax)
    49fb:	db f1                	fcomi  %st(1),%st
    49fd:	dd d9                	fstp   %st(1)
    49ff:	72 3f                	jb     4a40 <_ZL7torqueldddddddjjPPPedddd+0x740>
    4a01:	dd 44 24 18          	fldl   0x18(%rsp)
    4a05:	df f1                	fcomip %st(1),%st
    4a07:	72 47                	jb     4a50 <_ZL7torqueldddddddjjPPPedddd+0x750>
    4a09:	dd 44 24 20          	fldl   0x20(%rsp)
    4a0d:	db 68 20             	fldt   0x20(%rax)
    4a10:	db f1                	fcomi  %st(1),%st
    4a12:	dd d9                	fstp   %st(1)
    4a14:	72 4a                	jb     4a60 <_ZL7torqueldddddddjjPPPedddd+0x760>
    4a16:	dd 44 24 10          	fldl   0x10(%rsp)
    4a1a:	df f1                	fcomip %st(1),%st
    4a1c:	73 75                	jae    4a93 <_ZL7torqueldddddddjjPPPedddd+0x793>
    4a1e:	dd d8                	fstp   %st(0)
    4a20:	dd d8                	fstp   %st(0)
    4a22:	dd d8                	fstp   %st(0)
    4a24:	eb 4a                	jmp    4a70 <_ZL7torqueldddddddjjPPPedddd+0x770>
    4a26:	66 2e 0f 1f 84 00 00 	cs nopw 0x0(%rax,%rax,1)
    4a2d:	00 00 00 
    4a30:	dd d8                	fstp   %st(0)
    4a32:	eb 3c                	jmp    4a70 <_ZL7torqueldddddddjjPPPedddd+0x770>
    4a34:	0f 1f 40 00          	nopl   0x0(%rax)
    4a38:	dd d8                	fstp   %st(0)
    4a3a:	eb 34                	jmp    4a70 <_ZL7torqueldddddddjjPPPedddd+0x770>
    4a3c:	0f 1f 40 00          	nopl   0x0(%rax)
    4a40:	dd d8                	fstp   %st(0)
    4a42:	dd d8                	fstp   %st(0)
    4a44:	eb 2a                	jmp    4a70 <_ZL7torqueldddddddjjPPPedddd+0x770>
    4a46:	66 2e 0f 1f 84 00 00 	cs nopw 0x0(%rax,%rax,1)
    4a4d:	00 00 00 
    4a50:	dd d8                	fstp   %st(0)
    4a52:	dd d8                	fstp   %st(0)
    4a54:	eb 1a                	jmp    4a70 <_ZL7torqueldddddddjjPPPedddd+0x770>
    4a56:	66 2e 0f 1f 84 00 00 	cs nopw 0x0(%rax,%rax,1)
    4a5d:	00 00 00 
    4a60:	dd d8                	fstp   %st(0)
    4a62:	dd d8                	fstp   %st(0)
    4a64:	dd d8                	fstp   %st(0)
    4a66:	66 2e 0f 1f 84 00 00 	cs nopw 0x0(%rax,%rax,1)
    4a6d:	00 00 00 
    4a70:	48 83 c3 08          	add    $0x8,%rbx
    4a74:	48 39 dd             	cmp    %rbx,%rbp
    4a77:	0f 85 63 ff ff ff    	jne    49e0 <_ZL7torqueldddddddjjPPPedddd+0x6e0>
    4a7d:	49 83 c5 08          	add    $0x8,%r13
    4a81:	4d 39 f5             	cmp    %r14,%r13
    4a84:	0f 85 4e ff ff ff    	jne    49d8 <_ZL7torqueldddddddjjPPPedddd+0x6d8>
    4a8a:	dd d8                	fstp   %st(0)
    4a8c:	dd d8                	fstp   %st(0)
    4a8e:	e9 3d f9 ff ff       	jmp    43d0 <_ZL7torqueldddddddjjPPPedddd+0xd0>
    4a93:	d9 cb                	fxch   %st(3)
    4a95:	db bc 24 90 00 00 00 	fstpt  0x90(%rsp)
    4a9c:	d9 cb                	fxch   %st(3)
    4a9e:	f2 0f 10 44 24 30    	movsd  0x30(%rsp),%xmm0
    4aa4:	48 8d bc 24 e0 00 00 	lea    0xe0(%rsp),%rdi
    4aab:	00 
    4aac:	f2 44 0f 11 44 24 78 	movsd  %xmm8,0x78(%rsp)
    4ab3:	dd 9c 24 a0 00 00 00 	fstpl  0xa0(%rsp)
    4aba:	d9 c1                	fld    %st(1)
    4abc:	dc 84 24 d0 01 00 00 	faddl  0x1d0(%rsp)
    4ac3:	dd 5c 24 28          	fstpl  0x28(%rsp)
    4ac7:	f2 0f 10 5c 24 28    	movsd  0x28(%rsp),%xmm3
    4acd:	d9 c2                	fld    %st(2)
    4acf:	dc 84 24 c8 01 00 00 	faddl  0x1c8(%rsp)
    4ad6:	dd 5c 24 28          	fstpl  0x28(%rsp)
    4ada:	f2 0f 10 54 24 28    	movsd  0x28(%rsp),%xmm2
    4ae0:	d9 c0                	fld    %st(0)
    4ae2:	dc 84 24 c0 01 00 00 	faddl  0x1c0(%rsp)
    4ae9:	f2 0f 11 54 24 50    	movsd  %xmm2,0x50(%rsp)
    4aef:	dd 5c 24 28          	fstpl  0x28(%rsp)
    4af3:	d9 c9                	fxch   %st(1)
    4af5:	f2 0f 10 6c 24 28    	movsd  0x28(%rsp),%xmm5
    4afb:	dd 5c 24 28          	fstpl  0x28(%rsp)
    4aff:	d9 c9                	fxch   %st(1)
    4b01:	f2 0f 10 74 24 28    	movsd  0x28(%rsp),%xmm6
    4b07:	dd 5c 24 28          	fstpl  0x28(%rsp)
    4b0b:	f2 0f 10 7c 24 28    	movsd  0x28(%rsp),%xmm7
    4b11:	dd 5c 24 28          	fstpl  0x28(%rsp)
    4b15:	f2 0f 10 4c 24 28    	movsd  0x28(%rsp),%xmm1
    4b1b:	f2 41 0f 5e f0       	divsd  %xmm8,%xmm6
    4b20:	db 68 30             	fldt   0x30(%rax)
    4b23:	f2 0f 11 6c 24 38    	movsd  %xmm5,0x38(%rsp)
    4b29:	66 0f 28 e1          	movapd %xmm1,%xmm4
    4b2d:	66 0f 28 cd          	movapd %xmm5,%xmm1
    4b31:	dd 5c 24 28          	fstpl  0x28(%rsp)
    4b35:	f2 41 0f 5e e0       	divsd  %xmm8,%xmm4
    4b3a:	f2 0f 11 b4 24 88 00 	movsd  %xmm6,0x88(%rsp)
    4b41:	00 00 
    4b43:	f2 41 0f 5e f8       	divsd  %xmm8,%xmm7
    4b48:	f2 0f 11 64 24 60    	movsd  %xmm4,0x60(%rsp)
    4b4e:	f2 0f 10 64 24 28    	movsd  0x28(%rsp),%xmm4
    4b54:	f2 0f 11 5c 24 28    	movsd  %xmm3,0x28(%rsp)
    4b5a:	66 0f 28 f4          	movapd %xmm4,%xmm6
    4b5e:	f2 0f 11 64 24 70    	movsd  %xmm4,0x70(%rsp)
    4b64:	66 0f 14 f6          	unpcklpd %xmm6,%xmm6
    4b68:	0f 29 74 24 40       	movaps %xmm6,0x40(%rsp)
    4b6d:	f2 0f 11 bc 24 80 00 	movsd  %xmm7,0x80(%rsp)
    4b74:	00 00 
    4b76:	e8 85 34 00 00       	call   8000 <_Z6stressdddd>
    4b7b:	f2 0f 10 64 24 60    	movsd  0x60(%rsp),%xmm4
    4b81:	f2 0f 10 bc 24 80 00 	movsd  0x80(%rsp),%xmm7
    4b88:	00 00 
    4b8a:	f2 44 0f 10 8c 24 f0 	movsd  0xf0(%rsp),%xmm9
    4b91:	00 00 00 
    4b94:	f2 0f 10 54 24 50    	movsd  0x50(%rsp),%xmm2
    4b9a:	f2 0f 10 84 24 08 01 	movsd  0x108(%rsp),%xmm0
    4ba1:	00 00 
    4ba3:	dd 84 24 a0 00 00 00 	fldl   0xa0(%rsp)
    4baa:	db ac 24 90 00 00 00 	fldt   0x90(%rsp)
    4bb1:	f2 0f 10 b4 24 88 00 	movsd  0x88(%rsp),%xmm6
    4bb8:	00 00 
    4bba:	f2 0f 59 c7          	mulsd  %xmm7,%xmm0
    4bbe:	f2 0f 10 ac 24 e8 00 	movsd  0xe8(%rsp),%xmm5
    4bc5:	00 00 
    4bc7:	f2 44 0f 59 cc       	mulsd  %xmm4,%xmm9
    4bcc:	f2 44 0f 10 44 24 78 	movsd  0x78(%rsp),%xmm8
    4bd3:	f2 0f 59 ec          	mulsd  %xmm4,%xmm5
    4bd7:	f2 0f 59 a4 24 e0 00 	mulsd  0xe0(%rsp),%xmm4
    4bde:	00 00 
    4be0:	f2 44 0f 58 c8       	addsd  %xmm0,%xmm9
    4be5:	f2 0f 10 84 24 20 01 	movsd  0x120(%rsp),%xmm0
    4bec:	00 00 
    4bee:	f2 0f 59 c6          	mulsd  %xmm6,%xmm0
    4bf2:	66 0f 28 cc          	movapd %xmm4,%xmm1
    4bf6:	66 0f 28 e2          	movapd %xmm2,%xmm4
    4bfa:	f2 44 0f 58 c8       	addsd  %xmm0,%xmm9
    4bff:	f2 0f 10 84 24 00 01 	movsd  0x100(%rsp),%xmm0
    4c06:	00 00 
    4c08:	f2 0f 59 c7          	mulsd  %xmm7,%xmm0
    4c0c:	f2 0f 59 bc 24 f8 00 	mulsd  0xf8(%rsp),%xmm7
    4c13:	00 00 
    4c15:	f2 41 0f 59 d1       	mulsd  %xmm9,%xmm2
    4c1a:	f2 0f 58 e8          	addsd  %xmm0,%xmm5
    4c1e:	f2 0f 10 84 24 18 01 	movsd  0x118(%rsp),%xmm0
    4c25:	00 00 
    4c27:	f2 0f 58 cf          	addsd  %xmm7,%xmm1
    4c2b:	f2 0f 10 7c 24 28    	movsd  0x28(%rsp),%xmm7
    4c31:	f2 0f 59 c6          	mulsd  %xmm6,%xmm0
    4c35:	f2 0f 59 b4 24 10 01 	mulsd  0x110(%rsp),%xmm6
    4c3c:	00 00 
    4c3e:	f2 0f 58 e8          	addsd  %xmm0,%xmm5
    4c42:	f2 0f 58 ce          	addsd  %xmm6,%xmm1
    4c46:	f2 0f 10 74 24 38    	movsd  0x38(%rsp),%xmm6
    4c4c:	66 0f 28 c6          	movapd %xmm6,%xmm0
    4c50:	f2 0f 59 c5          	mulsd  %xmm5,%xmm0
    4c54:	f2 0f 59 e1          	mulsd  %xmm1,%xmm4
    4c58:	f2 0f 59 ef          	mulsd  %xmm7,%xmm5
    4c5c:	f2 41 0f 59 f1       	mulsd  %xmm9,%xmm6
    4c61:	f2 0f 59 f9          	mulsd  %xmm1,%xmm7
    4c65:	f2 0f 5c c4          	subsd  %xmm4,%xmm0
    4c69:	f2 0f 59 44 24 70    	mulsd  0x70(%rsp),%xmm0
    4c6f:	f2 41 0f 58 47 10    	addsd  0x10(%r15),%xmm0
    4c75:	66 0f 28 d8          	movapd %xmm0,%xmm3
    4c79:	66 0f 28 c2          	movapd %xmm2,%xmm0
    4c7d:	66 0f 28 d6          	movapd %xmm6,%xmm2
    4c81:	66 41 0f 10 37       	movupd (%r15),%xmm6
    4c86:	f2 0f 5c c5          	subsd  %xmm5,%xmm0
    4c8a:	f2 0f 5c d7          	subsd  %xmm7,%xmm2
    4c8e:	66 0f 57 15 8a 58 00 	xorpd  0x588a(%rip),%xmm2        # a520 <_IO_stdin_used+0x520>
    4c95:	00 
    4c96:	f2 41 0f 11 5f 10    	movsd  %xmm3,0x10(%r15)
    4c9c:	66 0f 14 c2          	unpcklpd %xmm2,%xmm0
    4ca0:	66 0f 59 44 24 40    	mulpd  0x40(%rsp),%xmm0
    4ca6:	66 0f 58 c6          	addpd  %xmm6,%xmm0
    4caa:	41 0f 11 07          	movups %xmm0,(%r15)
    4cae:	e9 bd fd ff ff       	jmp    4a70 <_ZL7torqueldddddddjjPPPedddd+0x770>
    4cb3:	f2 0f 10 0d 1d 58 00 	movsd  0x581d(%rip),%xmm1        # a4d8 <_IO_stdin_used+0x4d8>
    4cba:	00 
    4cbb:	66 0f 2f 44 24 18    	comisd 0x18(%rsp),%xmm0
    4cc1:	f2 0f 11 4c 24 38    	movsd  %xmm1,0x38(%rsp)
    4cc7:	dd 44 24 38          	fldl   0x38(%rsp)
    4ccb:	db 6c 24 60          	fldt   0x60(%rsp)
    4ccf:	dc 44 24 38          	faddl  0x38(%rsp)
    4cd3:	db bc 24 30 01 00 00 	fstpt  0x130(%rsp)
    4cda:	0f 87 95 0b 00 00    	ja     5875 <_ZL7torqueldddddddjjPPPedddd+0x1575>
    4ce0:	f2 0f 10 7c 24 18    	movsd  0x18(%rsp),%xmm7
    4ce6:	66 0f 2f f8          	comisd %xmm0,%xmm7
    4cea:	0f 86 03 04 00 00    	jbe    50f3 <_ZL7torqueldddddddjjPPPedddd+0xdf3>
    4cf0:	de c2                	faddp  %st,%st(2)
    4cf2:	d9 c9                	fxch   %st(1)
    4cf4:	db bc 24 40 01 00 00 	fstpt  0x140(%rsp)
    4cfb:	dd 54 24 38          	fstl   0x38(%rsp)
    4cff:	f2 0f 10 74 24 38    	movsd  0x38(%rsp),%xmm6
    4d05:	66 0f 2e f0          	ucomisd %xmm0,%xmm6
    4d09:	7a 06                	jp     4d11 <_ZL7torqueldddddddjjPPPedddd+0xa11>
    4d0b:	0f 84 ec f9 ff ff    	je     46fd <_ZL7torqueldddddddjjPPPedddd+0x3fd>
    4d11:	dd 54 24 38          	fstl   0x38(%rsp)
    4d15:	f2 0f 10 44 24 08    	movsd  0x8(%rsp),%xmm0
    4d1b:	f2 0f 5e 44 24 38    	divsd  0x38(%rsp),%xmm0
    4d21:	44 89 4c 24 40       	mov    %r9d,0x40(%rsp)
    4d26:	f2 44 0f 11 44 24 50 	movsd  %xmm8,0x50(%rsp)
    4d2d:	dd 5c 24 70          	fstpl  0x70(%rsp)
    4d31:	e8 da d6 ff ff       	call   2410 <atan@plt>
    4d36:	f2 0f 11 44 24 38    	movsd  %xmm0,0x38(%rsp)
    4d3c:	dd 44 24 38          	fldl   0x38(%rsp)
    4d40:	f2 0f 10 44 24 18    	movsd  0x18(%rsp),%xmm0
    4d46:	dd 54 24 78          	fstl   0x78(%rsp)
    4d4a:	db 7c 24 60          	fstpt  0x60(%rsp)
    4d4e:	dd 44 24 70          	fldl   0x70(%rsp)
    4d52:	dd 5c 24 38          	fstpl  0x38(%rsp)
    4d56:	f2 0f 5e 44 24 38    	divsd  0x38(%rsp),%xmm0
    4d5c:	e8 af d6 ff ff       	call   2410 <atan@plt>
    4d61:	44 8b 4c 24 40       	mov    0x40(%rsp),%r9d
    4d66:	f2 44 0f 10 44 24 50 	movsd  0x50(%rsp),%xmm8
    4d6d:	f2 0f 11 44 24 38    	movsd  %xmm0,0x38(%rsp)
    4d73:	66 0f ef c0          	pxor   %xmm0,%xmm0
    4d77:	66 0f 2f 44 24 08    	comisd 0x8(%rsp),%xmm0
    4d7d:	dd 44 24 38          	fldl   0x38(%rsp)
    4d81:	dd 44 24 70          	fldl   0x70(%rsp)
    4d85:	0f 87 c1 03 00 00    	ja     514c <_ZL7torqueldddddddjjPPPedddd+0xe4c>
    4d8b:	f2 0f 10 7c 24 08    	movsd  0x8(%rsp),%xmm7
    4d91:	dd 54 24 38          	fstl   0x38(%rsp)
    4d95:	66 0f 2f f8          	comisd %xmm0,%xmm7
    4d99:	0f 86 b7 05 00 00    	jbe    5356 <_ZL7torqueldddddddjjPPPedddd+0x1056>
    4d9f:	66 0f 2f 44 24 38    	comisd 0x38(%rsp),%xmm0
    4da5:	0f 87 15 0b 00 00    	ja     58c0 <_ZL7torqueldddddddjjPPPedddd+0x15c0>
    4dab:	dd 44 24 78          	fldl   0x78(%rsp)
    4daf:	66 0f 2f 44 24 18    	comisd 0x18(%rsp),%xmm0
    4db5:	db bc 24 50 01 00 00 	fstpt  0x150(%rsp)
    4dbc:	0f 87 02 0c 00 00    	ja     59c4 <_ZL7torqueldddddddjjPPPedddd+0x16c4>
    4dc2:	f2 0f 10 74 24 18    	movsd  0x18(%rsp),%xmm6
    4dc8:	66 0f 2f f0          	comisd %xmm0,%xmm6
    4dcc:	0f 87 54 f9 ff ff    	ja     4726 <_ZL7torqueldddddddjjPPPedddd+0x426>
    4dd2:	dd d9                	fstp   %st(1)
    4dd4:	dd 54 24 38          	fstl   0x38(%rsp)
    4dd8:	f2 0f 10 7c 24 38    	movsd  0x38(%rsp),%xmm7
    4dde:	66 0f ef c0          	pxor   %xmm0,%xmm0
    4de2:	66 0f 2f f8          	comisd %xmm0,%xmm7
    4de6:	0f 86 06 0d 00 00    	jbe    5af2 <_ZL7torqueldddddddjjPPPedddd+0x17f2>
    4dec:	d9 ee                	fldz
    4dee:	d9 c9                	fxch   %st(1)
    4df0:	e9 31 f9 ff ff       	jmp    4726 <_ZL7torqueldddddddjjPPPedddd+0x426>
    4df5:	66 0f 2f 44 24 08    	comisd 0x8(%rsp),%xmm0
    4dfb:	0f 83 af 04 00 00    	jae    52b0 <_ZL7torqueldddddddjjPPPedddd+0xfb0>
    4e01:	d9 bc 24 de 00 00 00 	fnstcw 0xde(%rsp)
    4e08:	89 d8                	mov    %ebx,%eax
    4e0a:	66 0f ef c9          	pxor   %xmm1,%xmm1
    4e0e:	f2 0f 10 05 da 56 00 	movsd  0x56da(%rip),%xmm0        # a4f0 <_IO_stdin_used+0x4f0>
    4e15:	00 
    4e16:	f2 48 0f 2a c8       	cvtsi2sd %rax,%xmm1
    4e1b:	0f b7 84 24 de 00 00 	movzwl 0xde(%rsp),%eax
    4e22:	00 
    4e23:	80 e4 f3             	and    $0xf3,%ah
    4e26:	f2 0f 5e c1          	divsd  %xmm1,%xmm0
    4e2a:	80 cc 04             	or     $0x4,%ah
    4e2d:	66 89 84 24 dc 00 00 	mov    %ax,0xdc(%rsp)
    4e34:	00 
    4e35:	0f b7 84 24 de 00 00 	movzwl 0xde(%rsp),%eax
    4e3c:	00 
    4e3d:	80 cc 0c             	or     $0xc,%ah
    4e40:	66 89 84 24 da 00 00 	mov    %ax,0xda(%rsp)
    4e47:	00 
    4e48:	0f b7 84 24 de 00 00 	movzwl 0xde(%rsp),%eax
    4e4f:	00 
    4e50:	80 e4 f3             	and    $0xf3,%ah
    4e53:	80 cc 08             	or     $0x8,%ah
    4e56:	66 89 84 24 d8 00 00 	mov    %ax,0xd8(%rsp)
    4e5d:	00 
    4e5e:	f2 0f 11 44 24 38    	movsd  %xmm0,0x38(%rsp)
    4e64:	dd 44 24 38          	fldl   0x38(%rsp)
    4e68:	db ac 24 30 01 00 00 	fldt   0x130(%rsp)
    4e6f:	d8 f1                	fdiv   %st(1),%st
    4e71:	d9 ac 24 dc 00 00 00 	fldcw  0xdc(%rsp)
    4e78:	d9 fc                	frndint
    4e7a:	d9 ac 24 de 00 00 00 	fldcw  0xde(%rsp)
    4e81:	d9 ac 24 da 00 00 00 	fldcw  0xda(%rsp)
    4e88:	db 5c 24 38          	fistpl 0x38(%rsp)
    4e8c:	d9 ac 24 de 00 00 00 	fldcw  0xde(%rsp)
    4e93:	db ac 24 60 01 00 00 	fldt   0x160(%rsp)
    4e9a:	8b 54 24 38          	mov    0x38(%rsp),%edx
    4e9e:	de f1                	fdivp  %st,%st(1)
    4ea0:	d9 ac 24 d8 00 00 00 	fldcw  0xd8(%rsp)
    4ea7:	d9 fc                	frndint
    4ea9:	d9 ac 24 de 00 00 00 	fldcw  0xde(%rsp)
    4eb0:	d9 ac 24 da 00 00 00 	fldcw  0xda(%rsp)
    4eb7:	db 5c 24 38          	fistpl 0x38(%rsp)
    4ebb:	d9 ac 24 de 00 00 00 	fldcw  0xde(%rsp)
    4ec2:	8b 44 24 38          	mov    0x38(%rsp),%eax
    4ec6:	39 c3                	cmp    %eax,%ebx
    4ec8:	0f 47 d8             	cmova  %eax,%ebx
    4ecb:	e9 c0 fa ff ff       	jmp    4990 <_ZL7torqueldddddddjjPPPedddd+0x690>
    4ed0:	0f 85 fc f8 ff ff    	jne    47d2 <_ZL7torqueldddddddjjPPPedddd+0x4d2>
    4ed6:	db 7e 10             	fstpt  0x10(%rsi)
    4ed9:	e9 fa f8 ff ff       	jmp    47d8 <_ZL7torqueldddddddjjPPPedddd+0x4d8>
    4ede:	f2 0f 10 74 24 18    	movsd  0x18(%rsp),%xmm6
    4ee4:	66 0f 2f f0          	comisd %xmm0,%xmm6
    4ee8:	0f 82 9d fa ff ff    	jb     498b <_ZL7torqueldddddddjjPPPedddd+0x68b>
    4eee:	db ac 24 40 01 00 00 	fldt   0x140(%rsp)
    4ef5:	66 0f 2e f0          	ucomisd %xmm0,%xmm6
    4ef9:	7a 07                	jp     4f02 <_ZL7torqueldddddddjjPPPedddd+0xc02>
    4efb:	ba 01 00 00 00       	mov    $0x1,%edx
    4f00:	74 2a                	je     4f2c <_ZL7torqueldddddddjjPPPedddd+0xc2c>
    4f02:	d8 f1                	fdiv   %st(1),%st
    4f04:	d9 ac 24 d8 00 00 00 	fldcw  0xd8(%rsp)
    4f0b:	d9 fc                	frndint
    4f0d:	d9 ac 24 de 00 00 00 	fldcw  0xde(%rsp)
    4f14:	d9 ac 24 da 00 00 00 	fldcw  0xda(%rsp)
    4f1b:	db 5c 24 38          	fistpl 0x38(%rsp)
    4f1f:	d9 ac 24 de 00 00 00 	fldcw  0xde(%rsp)
    4f26:	8b 54 24 38          	mov    0x38(%rsp),%edx
    4f2a:	eb 02                	jmp    4f2e <_ZL7torqueldddddddjjPPPedddd+0xc2e>
    4f2c:	dd d8                	fstp   %st(0)
    4f2e:	db ac 24 50 01 00 00 	fldt   0x150(%rsp)
    4f35:	de f1                	fdivp  %st,%st(1)
    4f37:	d9 ac 24 dc 00 00 00 	fldcw  0xdc(%rsp)
    4f3e:	d9 fc                	frndint
    4f40:	d9 ac 24 de 00 00 00 	fldcw  0xde(%rsp)
    4f47:	d9 ac 24 da 00 00 00 	fldcw  0xda(%rsp)
    4f4e:	db 5c 24 38          	fistpl 0x38(%rsp)
    4f52:	d9 ac 24 de 00 00 00 	fldcw  0xde(%rsp)
    4f59:	44 8b 44 24 38       	mov    0x38(%rsp),%r8d
    4f5e:	45 39 e1             	cmp    %r12d,%r9d
    4f61:	0f 83 5d f4 ff ff    	jae    43c4 <_ZL7torqueldddddddjjPPPedddd+0xc4>
    4f67:	41 8d 44 24 ff       	lea    -0x1(%r12),%eax
    4f6c:	44 89 c9             	mov    %r9d,%ecx
    4f6f:	44 89 c7             	mov    %r8d,%edi
    4f72:	41 89 d4             	mov    %edx,%r12d
    4f75:	44 29 c8             	sub    %r9d,%eax
    4f78:	4c 8d 6c cd 00       	lea    0x0(%rbp,%rcx,8),%r13
    4f7d:	49 c1 e4 03          	shl    $0x3,%r12
    4f81:	48 8d 34 fd 00 00 00 	lea    0x0(,%rdi,8),%rsi
    4f88:	00 
    4f89:	48 01 c8             	add    %rcx,%rax
    4f8c:	48 8d 4c c5 08       	lea    0x8(%rbp,%rax,8),%rcx
    4f91:	41 8d 46 ff          	lea    -0x1(%r14),%eax
    4f95:	44 29 c0             	sub    %r8d,%eax
    4f98:	48 8d 6c 07 01       	lea    0x1(%rdi,%rax,1),%rbp
    4f9d:	48 c1 e5 03          	shl    $0x3,%rbp
    4fa1:	0f 1f 80 00 00 00 00 	nopl   0x0(%rax)
    4fa8:	85 d2                	test   %edx,%edx
    4faa:	0f 84 2b 03 00 00    	je     52db <_ZL7torqueldddddddjjPPPedddd+0xfdb>
    4fb0:	dd 44 24 28          	fldl   0x28(%rsp)
    4fb4:	31 db                	xor    %ebx,%ebx
    4fb6:	66 2e 0f 1f 84 00 00 	cs nopw 0x0(%rax,%rax,1)
    4fbd:	00 00 00 
    4fc0:	49 8b 45 00          	mov    0x0(%r13),%rax
    4fc4:	48 8b 04 18          	mov    (%rax,%rbx,1),%rax
    4fc8:	db 28                	fldt   (%rax)
    4fca:	db f1                	fcomi  %st(1),%st
    4fcc:	72 42                	jb     5010 <_ZL7torqueldddddddjjPPPedddd+0xd10>
    4fce:	d9 c2                	fld    %st(2)
    4fd0:	df f1                	fcomip %st(1),%st
    4fd2:	72 44                	jb     5018 <_ZL7torqueldddddddjjPPPedddd+0xd18>
    4fd4:	dd 44 24 08          	fldl   0x8(%rsp)
    4fd8:	db 68 10             	fldt   0x10(%rax)
    4fdb:	db f1                	fcomi  %st(1),%st
    4fdd:	dd d9                	fstp   %st(1)
    4fdf:	72 3f                	jb     5020 <_ZL7torqueldddddddjjPPPedddd+0xd20>
    4fe1:	dd 44 24 18          	fldl   0x18(%rsp)
    4fe5:	df f1                	fcomip %st(1),%st
    4fe7:	72 3d                	jb     5026 <_ZL7torqueldddddddjjPPPedddd+0xd26>
    4fe9:	dd 44 24 20          	fldl   0x20(%rsp)
    4fed:	db 68 20             	fldt   0x20(%rax)
    4ff0:	db f1                	fcomi  %st(1),%st
    4ff2:	dd d9                	fstp   %st(1)
    4ff4:	72 36                	jb     502c <_ZL7torqueldddddddjjPPPedddd+0xd2c>
    4ff6:	dd 44 24 10          	fldl   0x10(%rsp)
    4ffa:	df f1                	fcomip %st(1),%st
    4ffc:	0f 83 98 03 00 00    	jae    539a <_ZL7torqueldddddddjjPPPedddd+0x109a>
    5002:	dd d8                	fstp   %st(0)
    5004:	dd d8                	fstp   %st(0)
    5006:	dd d8                	fstp   %st(0)
    5008:	eb 2e                	jmp    5038 <_ZL7torqueldddddddjjPPPedddd+0xd38>
    500a:	66 0f 1f 44 00 00    	nopw   0x0(%rax,%rax,1)
    5010:	dd d8                	fstp   %st(0)
    5012:	eb 24                	jmp    5038 <_ZL7torqueldddddddjjPPPedddd+0xd38>
    5014:	0f 1f 40 00          	nopl   0x0(%rax)
    5018:	dd d8                	fstp   %st(0)
    501a:	eb 1c                	jmp    5038 <_ZL7torqueldddddddjjPPPedddd+0xd38>
    501c:	0f 1f 40 00          	nopl   0x0(%rax)
    5020:	dd d8                	fstp   %st(0)
    5022:	dd d8                	fstp   %st(0)
    5024:	eb 12                	jmp    5038 <_ZL7torqueldddddddjjPPPedddd+0xd38>
    5026:	dd d8                	fstp   %st(0)
    5028:	dd d8                	fstp   %st(0)
    502a:	eb 0c                	jmp    5038 <_ZL7torqueldddddddjjPPPedddd+0xd38>
    502c:	dd d8                	fstp   %st(0)
    502e:	dd d8                	fstp   %st(0)
    5030:	dd d8                	fstp   %st(0)
    5032:	66 0f 1f 44 00 00    	nopw   0x0(%rax,%rax,1)
    5038:	48 83 c3 08          	add    $0x8,%rbx
    503c:	49 39 dc             	cmp    %rbx,%r12
    503f:	0f 85 7b ff ff ff    	jne    4fc0 <_ZL7torqueldddddddjjPPPedddd+0xcc0>
    5045:	45 39 f0             	cmp    %r14d,%r8d
    5048:	0f 83 f2 02 00 00    	jae    5340 <_ZL7torqueldddddddjjPPPedddd+0x1040>
    504e:	48 89 f3             	mov    %rsi,%rbx
    5051:	0f 1f 80 00 00 00 00 	nopl   0x0(%rax)
    5058:	49 8b 45 00          	mov    0x0(%r13),%rax
    505c:	48 8b 04 18          	mov    (%rax,%rbx,1),%rax
    5060:	db 28                	fldt   (%rax)
    5062:	db f1                	fcomi  %st(1),%st
    5064:	72 42                	jb     50a8 <_ZL7torqueldddddddjjPPPedddd+0xda8>
    5066:	d9 c2                	fld    %st(2)
    5068:	df f1                	fcomip %st(1),%st
    506a:	72 44                	jb     50b0 <_ZL7torqueldddddddjjPPPedddd+0xdb0>
    506c:	dd 44 24 08          	fldl   0x8(%rsp)
    5070:	db 68 10             	fldt   0x10(%rax)
    5073:	db f1                	fcomi  %st(1),%st
    5075:	dd d9                	fstp   %st(1)
    5077:	72 3f                	jb     50b8 <_ZL7torqueldddddddjjPPPedddd+0xdb8>
    5079:	dd 44 24 18          	fldl   0x18(%rsp)
    507d:	df f1                	fcomip %st(1),%st
    507f:	72 3d                	jb     50be <_ZL7torqueldddddddjjPPPedddd+0xdbe>
    5081:	dd 44 24 20          	fldl   0x20(%rsp)
    5085:	db 68 20             	fldt   0x20(%rax)
    5088:	db f1                	fcomi  %st(1),%st
    508a:	dd d9                	fstp   %st(1)
    508c:	72 36                	jb     50c4 <_ZL7torqueldddddddjjPPPedddd+0xdc4>
    508e:	dd 44 24 10          	fldl   0x10(%rsp)
    5092:	df f1                	fcomip %st(1),%st
    5094:	0f 83 62 05 00 00    	jae    55fc <_ZL7torqueldddddddjjPPPedddd+0x12fc>
    509a:	dd d8                	fstp   %st(0)
    509c:	dd d8                	fstp   %st(0)
    509e:	dd d8                	fstp   %st(0)
    50a0:	eb 2e                	jmp    50d0 <_ZL7torqueldddddddjjPPPedddd+0xdd0>
    50a2:	66 0f 1f 44 00 00    	nopw   0x0(%rax,%rax,1)
    50a8:	dd d8                	fstp   %st(0)
    50aa:	eb 24                	jmp    50d0 <_ZL7torqueldddddddjjPPPedddd+0xdd0>
    50ac:	0f 1f 40 00          	nopl   0x0(%rax)
    50b0:	dd d8                	fstp   %st(0)
    50b2:	eb 1c                	jmp    50d0 <_ZL7torqueldddddddjjPPPedddd+0xdd0>
    50b4:	0f 1f 40 00          	nopl   0x0(%rax)
    50b8:	dd d8                	fstp   %st(0)
    50ba:	dd d8                	fstp   %st(0)
    50bc:	eb 12                	jmp    50d0 <_ZL7torqueldddddddjjPPPedddd+0xdd0>
    50be:	dd d8                	fstp   %st(0)
    50c0:	dd d8                	fstp   %st(0)
    50c2:	eb 0c                	jmp    50d0 <_ZL7torqueldddddddjjPPPedddd+0xdd0>
    50c4:	dd d8                	fstp   %st(0)
    50c6:	dd d8                	fstp   %st(0)
    50c8:	dd d8                	fstp   %st(0)
    50ca:	66 0f 1f 44 00 00    	nopw   0x0(%rax,%rax,1)
    50d0:	48 83 c3 08          	add    $0x8,%rbx
    50d4:	48 39 dd             	cmp    %rbx,%rbp
    50d7:	0f 85 7b ff ff ff    	jne    5058 <_ZL7torqueldddddddjjPPPedddd+0xd58>
    50dd:	dd d8                	fstp   %st(0)
    50df:	49 83 c5 08          	add    $0x8,%r13
    50e3:	4c 39 e9             	cmp    %r13,%rcx
    50e6:	0f 85 bc fe ff ff    	jne    4fa8 <_ZL7torqueldddddddjjPPPedddd+0xca8>
    50ec:	dd d8                	fstp   %st(0)
    50ee:	e9 dd f2 ff ff       	jmp    43d0 <_ZL7torqueldddddddjjPPPedddd+0xd0>
    50f3:	dd d8                	fstp   %st(0)
    50f5:	dd d9                	fstp   %st(1)
    50f7:	f2 0f 11 4c 24 38    	movsd  %xmm1,0x38(%rsp)
    50fd:	dd 44 24 38          	fldl   0x38(%rsp)
    5101:	db bc 24 40 01 00 00 	fstpt  0x140(%rsp)
    5108:	dd 54 24 38          	fstl   0x38(%rsp)
    510c:	f2 0f 10 74 24 38    	movsd  0x38(%rsp),%xmm6
    5112:	66 0f 2e f0          	ucomisd %xmm0,%xmm6
    5116:	0f 8a f5 fb ff ff    	jp     4d11 <_ZL7torqueldddddddjjPPPedddd+0xa11>
    511c:	0f 85 ef fb ff ff    	jne    4d11 <_ZL7torqueldddddddjjPPPedddd+0xa11>
    5122:	dd 05 a8 53 00 00    	fldl   0x53a8(%rip)        # a4d0 <_IO_stdin_used+0x4d0>
    5128:	db bc 24 50 01 00 00 	fstpt  0x150(%rsp)
    512f:	66 0f ef c0          	pxor   %xmm0,%xmm0
    5133:	66 0f 2f 44 24 18    	comisd 0x18(%rsp),%xmm0
    5139:	0f 86 ad fc ff ff    	jbe    4dec <_ZL7torqueldddddddjjPPPedddd+0xaec>
    513f:	dd 05 83 53 00 00    	fldl   0x5383(%rip)        # a4c8 <_IO_stdin_used+0x4c8>
    5145:	d9 c9                	fxch   %st(1)
    5147:	e9 da f5 ff ff       	jmp    4726 <_ZL7torqueldddddddjjPPPedddd+0x426>
    514c:	dd 54 24 38          	fstl   0x38(%rsp)
    5150:	f2 0f 10 74 24 38    	movsd  0x38(%rsp),%xmm6
    5156:	66 0f 2f f0          	comisd %xmm0,%xmm6
    515a:	76 3c                	jbe    5198 <_ZL7torqueldddddddjjPPPedddd+0xe98>
    515c:	f2 0f 10 0d 8c 53 00 	movsd  0x538c(%rip),%xmm1        # a4f0 <_IO_stdin_used+0x4f0>
    5163:	00 
    5164:	db 6c 24 60          	fldt   0x60(%rsp)
    5168:	66 0f 2f 44 24 18    	comisd 0x18(%rsp),%xmm0
    516e:	f2 0f 11 4c 24 38    	movsd  %xmm1,0x38(%rsp)
    5174:	dc 44 24 38          	faddl  0x38(%rsp)
    5178:	db bc 24 50 01 00 00 	fstpt  0x150(%rsp)
    517f:	77 64                	ja     51e5 <_ZL7torqueldddddddjjPPPedddd+0xee5>
    5181:	f2 0f 10 74 24 18    	movsd  0x18(%rsp),%xmm6
    5187:	66 0f 2f f0          	comisd %xmm0,%xmm6
    518b:	0f 87 95 f5 ff ff    	ja     4726 <_ZL7torqueldddddddjjPPPedddd+0x426>
    5191:	dd d9                	fstp   %st(1)
    5193:	e9 54 fc ff ff       	jmp    4dec <_ZL7torqueldddddddjjPPPedddd+0xaec>
    5198:	f2 0f 10 0d 38 53 00 	movsd  0x5338(%rip),%xmm1        # a4d8 <_IO_stdin_used+0x4d8>
    519f:	00 
    51a0:	db 6c 24 60          	fldt   0x60(%rsp)
    51a4:	66 0f 2f 44 24 18    	comisd 0x18(%rsp),%xmm0
    51aa:	f2 0f 11 4c 24 38    	movsd  %xmm1,0x38(%rsp)
    51b0:	dc 44 24 38          	faddl  0x38(%rsp)
    51b4:	db bc 24 50 01 00 00 	fstpt  0x150(%rsp)
    51bb:	77 2c                	ja     51e9 <_ZL7torqueldddddddjjPPPedddd+0xee9>
    51bd:	f2 0f 10 74 24 18    	movsd  0x18(%rsp),%xmm6
    51c3:	66 0f 2f f0          	comisd %xmm0,%xmm6
    51c7:	0f 86 34 07 00 00    	jbe    5901 <_ZL7torqueldddddddjjPPPedddd+0x1601>
    51cd:	66 0f ef c0          	pxor   %xmm0,%xmm0
    51d1:	dd 54 24 38          	fstl   0x38(%rsp)
    51d5:	66 0f 2f 44 24 38    	comisd 0x38(%rsp),%xmm0
    51db:	0f 86 45 f5 ff ff    	jbe    4726 <_ZL7torqueldddddddjjPPPedddd+0x426>
    51e1:	d9 c9                	fxch   %st(1)
    51e3:	eb 16                	jmp    51fb <_ZL7torqueldddddddjjPPPedddd+0xefb>
    51e5:	d9 c9                	fxch   %st(1)
    51e7:	eb 12                	jmp    51fb <_ZL7torqueldddddddjjPPPedddd+0xefb>
    51e9:	d9 c9                	fxch   %st(1)
    51eb:	eb 0e                	jmp    51fb <_ZL7torqueldddddddjjPPPedddd+0xefb>
    51ed:	d9 c9                	fxch   %st(1)
    51ef:	eb 0a                	jmp    51fb <_ZL7torqueldddddddjjPPPedddd+0xefb>
    51f1:	d9 c9                	fxch   %st(1)
    51f3:	eb 06                	jmp    51fb <_ZL7torqueldddddddjjPPPedddd+0xefb>
    51f5:	d9 c9                	fxch   %st(1)
    51f7:	eb 02                	jmp    51fb <_ZL7torqueldddddddjjPPPedddd+0xefb>
    51f9:	d9 c9                	fxch   %st(1)
    51fb:	f2 0f 11 4c 24 38    	movsd  %xmm1,0x38(%rsp)
    5201:	dc 44 24 38          	faddl  0x38(%rsp)
    5205:	d9 c9                	fxch   %st(1)
    5207:	e9 1a f5 ff ff       	jmp    4726 <_ZL7torqueldddddddjjPPPedddd+0x426>
    520c:	66 0f 2f 44 24 18    	comisd 0x18(%rsp),%xmm0
    5212:	0f 86 65 f4 ff ff    	jbe    467d <_ZL7torqueldddddddjjPPPedddd+0x37d>
    5218:	dd 05 aa 52 00 00    	fldl   0x52aa(%rip)        # a4c8 <_IO_stdin_used+0x4c8>
    521e:	e9 a5 f4 ff ff       	jmp    46c8 <_ZL7torqueldddddddjjPPPedddd+0x3c8>
    5223:	f2 0f 10 0d ad 52 00 	movsd  0x52ad(%rip),%xmm1        # a4d8 <_IO_stdin_used+0x4d8>
    522a:	00 
    522b:	db 6c 24 60          	fldt   0x60(%rsp)
    522f:	66 0f 2f 44 24 18    	comisd 0x18(%rsp),%xmm0
    5235:	f2 0f 11 4c 24 38    	movsd  %xmm1,0x38(%rsp)
    523b:	dc 44 24 38          	faddl  0x38(%rsp)
    523f:	db bc 24 30 01 00 00 	fstpt  0x130(%rsp)
    5246:	0f 87 2f 06 00 00    	ja     587b <_ZL7torqueldddddddjjPPPedddd+0x157b>
    524c:	f2 0f 10 7c 24 18    	movsd  0x18(%rsp),%xmm7
    5252:	66 0f 2f f8          	comisd %xmm0,%xmm7
    5256:	0f 86 b1 07 00 00    	jbe    5a0d <_ZL7torqueldddddddjjPPPedddd+0x170d>
    525c:	66 0f ef c0          	pxor   %xmm0,%xmm0
    5260:	66 0f 2f 44 24 28    	comisd 0x28(%rsp),%xmm0
    5266:	0f 86 56 f4 ff ff    	jbe    46c2 <_ZL7torqueldddddddjjPPPedddd+0x3c2>
    526c:	d9 c9                	fxch   %st(1)
    526e:	f2 0f 11 4c 24 38    	movsd  %xmm1,0x38(%rsp)
    5274:	dc 44 24 38          	faddl  0x38(%rsp)
    5278:	db bc 24 40 01 00 00 	fstpt  0x140(%rsp)
    527f:	dd 54 24 38          	fstl   0x38(%rsp)
    5283:	f2 0f 10 7c 24 38    	movsd  0x38(%rsp),%xmm7
    5289:	66 0f 2e f8          	ucomisd %xmm0,%xmm7
    528d:	0f 8a 7e fa ff ff    	jp     4d11 <_ZL7torqueldddddddjjPPPedddd+0xa11>
    5293:	0f 85 78 fa ff ff    	jne    4d11 <_ZL7torqueldddddddjjPPPedddd+0xa11>
    5299:	66 0f ef c0          	pxor   %xmm0,%xmm0
    529d:	66 0f 2f 44 24 08    	comisd 0x8(%rsp),%xmm0
    52a3:	0f 87 0c 06 00 00    	ja     58b5 <_ZL7torqueldddddddjjPPPedddd+0x15b5>
    52a9:	d9 ee                	fldz
    52ab:	e9 53 f4 ff ff       	jmp    4703 <_ZL7torqueldddddddjjPPPedddd+0x403>
    52b0:	dd 54 24 38          	fstl   0x38(%rsp)
    52b4:	f2 0f 10 7c 24 38    	movsd  0x38(%rsp),%xmm7
    52ba:	66 0f 2f f8          	comisd %xmm0,%xmm7
    52be:	0f 82 3d fb ff ff    	jb     4e01 <_ZL7torqueldddddddjjPPPedddd+0xb01>
    52c4:	f2 0f 10 74 24 18    	movsd  0x18(%rsp),%xmm6
    52ca:	31 d2                	xor    %edx,%edx
    52cc:	66 0f 2f f0          	comisd %xmm0,%xmm6
    52d0:	0f 83 ba f6 ff ff    	jae    4990 <_ZL7torqueldddddddjjPPPedddd+0x690>
    52d6:	e9 26 fb ff ff       	jmp    4e01 <_ZL7torqueldddddddjjPPPedddd+0xb01>
    52db:	45 39 f0             	cmp    %r14d,%r8d
    52de:	0f 83 fb fd ff ff    	jae    50df <_ZL7torqueldddddddjjPPPedddd+0xddf>
    52e4:	dd 44 24 28          	fldl   0x28(%rsp)
    52e8:	e9 61 fd ff ff       	jmp    504e <_ZL7torqueldddddddjjPPPedddd+0xd4e>
    52ed:	f2 0f 10 74 24 28    	movsd  0x28(%rsp),%xmm6
    52f3:	66 0f 2f f0          	comisd %xmm0,%xmm6
    52f7:	0f 86 1b 06 00 00    	jbe    5918 <_ZL7torqueldddddddjjPPPedddd+0x1618>
    52fd:	66 0f 2f 44 24 18    	comisd 0x18(%rsp),%xmm0
    5303:	d9 ee                	fldz
    5305:	db bc 24 30 01 00 00 	fstpt  0x130(%rsp)
    530c:	0f 86 53 f5 ff ff    	jbe    4865 <_ZL7torqueldddddddjjPPPedddd+0x565>
    5312:	d9 c9                	fxch   %st(1)
    5314:	dc 05 d6 51 00 00    	faddl  0x51d6(%rip)        # a4f0 <_IO_stdin_used+0x4f0>
    531a:	db bc 24 40 01 00 00 	fstpt  0x140(%rsp)
    5321:	dd 54 24 38          	fstl   0x38(%rsp)
    5325:	f2 0f 10 7c 24 38    	movsd  0x38(%rsp),%xmm7
    532b:	66 0f 2e f8          	ucomisd %xmm0,%xmm7
    532f:	0f 8a dc f9 ff ff    	jp     4d11 <_ZL7torqueldddddddjjPPPedddd+0xa11>
    5335:	0f 84 6e ff ff ff    	je     52a9 <_ZL7torqueldddddddjjPPPedddd+0xfa9>
    533b:	e9 d1 f9 ff ff       	jmp    4d11 <_ZL7torqueldddddddjjPPPedddd+0xa11>
    5340:	49 83 c5 08          	add    $0x8,%r13
    5344:	49 39 cd             	cmp    %rcx,%r13
    5347:	0f 85 67 fc ff ff    	jne    4fb4 <_ZL7torqueldddddddjjPPPedddd+0xcb4>
    534d:	dd d8                	fstp   %st(0)
    534f:	dd d8                	fstp   %st(0)
    5351:	e9 7a f0 ff ff       	jmp    43d0 <_ZL7torqueldddddddjjPPPedddd+0xd0>
    5356:	f2 0f 10 7c 24 38    	movsd  0x38(%rsp),%xmm7
    535c:	66 0f 2f f8          	comisd %xmm0,%xmm7
    5360:	0f 86 32 06 00 00    	jbe    5998 <_ZL7torqueldddddddjjPPPedddd+0x1698>
    5366:	66 0f 2f 44 24 18    	comisd 0x18(%rsp),%xmm0
    536c:	d9 ee                	fldz
    536e:	f2 0f 10 0d 7a 51 00 	movsd  0x517a(%rip),%xmm1        # a4f0 <_IO_stdin_used+0x4f0>
    5375:	00 
    5376:	db bc 24 50 01 00 00 	fstpt  0x150(%rsp)
    537d:	0f 87 6a fe ff ff    	ja     51ed <_ZL7torqueldddddddjjPPPedddd+0xeed>
    5383:	f2 0f 10 7c 24 18    	movsd  0x18(%rsp),%xmm7
    5389:	66 0f 2f f8          	comisd %xmm0,%xmm7
    538d:	0f 87 93 f3 ff ff    	ja     4726 <_ZL7torqueldddddddjjPPPedddd+0x426>
    5393:	dd d9                	fstp   %st(1)
    5395:	e9 52 fa ff ff       	jmp    4dec <_ZL7torqueldddddddjjPPPedddd+0xaec>
    539a:	d9 cb                	fxch   %st(3)
    539c:	db bc 24 c0 00 00 00 	fstpt  0xc0(%rsp)
    53a3:	d9 cb                	fxch   %st(3)
    53a5:	48 8d bc 24 e0 00 00 	lea    0xe0(%rsp),%rdi
    53ac:	00 
    53ad:	48 89 b4 24 b8 00 00 	mov    %rsi,0xb8(%rsp)
    53b4:	00 
    53b5:	dd 9c 24 d0 00 00 00 	fstpl  0xd0(%rsp)
    53bc:	d9 c1                	fld    %st(1)
    53be:	dc 84 24 d0 01 00 00 	faddl  0x1d0(%rsp)
    53c5:	48 89 8c 24 b0 00 00 	mov    %rcx,0xb0(%rsp)
    53cc:	00 
    53cd:	44 89 84 24 ac 00 00 	mov    %r8d,0xac(%rsp)
    53d4:	00 
    53d5:	89 94 24 90 00 00 00 	mov    %edx,0x90(%rsp)
    53dc:	f2 44 0f 11 84 24 80 	movsd  %xmm8,0x80(%rsp)
    53e3:	00 00 00 
    53e6:	dd 5c 24 38          	fstpl  0x38(%rsp)
    53ea:	f2 0f 10 5c 24 38    	movsd  0x38(%rsp),%xmm3
    53f0:	d9 c2                	fld    %st(2)
    53f2:	dc 84 24 c8 01 00 00 	faddl  0x1c8(%rsp)
    53f9:	dd 5c 24 38          	fstpl  0x38(%rsp)
    53fd:	f2 0f 10 54 24 38    	movsd  0x38(%rsp),%xmm2
    5403:	d9 c0                	fld    %st(0)
    5405:	dc 84 24 c0 01 00 00 	faddl  0x1c0(%rsp)
    540c:	f2 0f 11 54 24 60    	movsd  %xmm2,0x60(%rsp)
    5412:	dd 5c 24 38          	fstpl  0x38(%rsp)
    5416:	d9 c9                	fxch   %st(1)
    5418:	f2 0f 10 4c 24 38    	movsd  0x38(%rsp),%xmm1
    541e:	dd 5c 24 38          	fstpl  0x38(%rsp)
    5422:	d9 c9                	fxch   %st(1)
    5424:	f2 0f 10 74 24 38    	movsd  0x38(%rsp),%xmm6
    542a:	dd 5c 24 38          	fstpl  0x38(%rsp)
    542e:	f2 0f 10 6c 24 38    	movsd  0x38(%rsp),%xmm5
    5434:	dd 5c 24 38          	fstpl  0x38(%rsp)
    5438:	f2 0f 10 64 24 38    	movsd  0x38(%rsp),%xmm4
    543e:	f2 41 0f 5e f0       	divsd  %xmm8,%xmm6
    5443:	db 68 30             	fldt   0x30(%rax)
    5446:	dd 5c 24 38          	fstpl  0x38(%rsp)
    544a:	f2 41 0f 5e e0       	divsd  %xmm8,%xmm4
    544f:	f2 0f 11 b4 24 a0 00 	movsd  %xmm6,0xa0(%rsp)
    5456:	00 00 
    5458:	f2 41 0f 5e e8       	divsd  %xmm8,%xmm5
    545d:	f2 0f 11 64 24 78    	movsd  %xmm4,0x78(%rsp)
    5463:	f2 0f 10 64 24 38    	movsd  0x38(%rsp),%xmm4
    5469:	f2 0f 11 5c 24 38    	movsd  %xmm3,0x38(%rsp)
    546f:	66 0f 28 fc          	movapd %xmm4,%xmm7
    5473:	f2 0f 11 64 24 40    	movsd  %xmm4,0x40(%rsp)
    5479:	66 0f 14 ff          	unpcklpd %xmm7,%xmm7
    547d:	0f 29 7c 24 50       	movaps %xmm7,0x50(%rsp)
    5482:	f2 0f 11 ac 24 88 00 	movsd  %xmm5,0x88(%rsp)
    5489:	00 00 
    548b:	f2 0f 11 4c 24 70    	movsd  %xmm1,0x70(%rsp)
    5491:	f2 0f 10 44 24 30    	movsd  0x30(%rsp),%xmm0
    5497:	e8 64 2b 00 00       	call   8000 <_Z6stressdddd>
    549c:	f2 0f 10 64 24 78    	movsd  0x78(%rsp),%xmm4
    54a2:	f2 0f 10 94 24 f0 00 	movsd  0xf0(%rsp),%xmm2
    54a9:	00 00 
    54ab:	f2 0f 10 ac 24 88 00 	movsd  0x88(%rsp),%xmm5
    54b2:	00 00 
    54b4:	dd 84 24 d0 00 00 00 	fldl   0xd0(%rsp)
    54bb:	db ac 24 c0 00 00 00 	fldt   0xc0(%rsp)
    54c2:	f2 0f 10 84 24 08 01 	movsd  0x108(%rsp),%xmm0
    54c9:	00 00 
    54cb:	f2 0f 59 d4          	mulsd  %xmm4,%xmm2
    54cf:	f2 0f 10 b4 24 a0 00 	movsd  0xa0(%rsp),%xmm6
    54d6:	00 00 
    54d8:	f2 0f 59 c5          	mulsd  %xmm5,%xmm0
    54dc:	48 8b b4 24 b8 00 00 	mov    0xb8(%rsp),%rsi
    54e3:	00 
    54e4:	48 8b 8c 24 b0 00 00 	mov    0xb0(%rsp),%rcx
    54eb:	00 
    54ec:	44 8b 84 24 ac 00 00 	mov    0xac(%rsp),%r8d
    54f3:	00 
    54f4:	8b 94 24 90 00 00 00 	mov    0x90(%rsp),%edx
    54fb:	f2 44 0f 10 84 24 80 	movsd  0x80(%rsp),%xmm8
    5502:	00 00 00 
    5505:	66 0f 28 fa          	movapd %xmm2,%xmm7
    5509:	f2 0f 10 94 24 e8 00 	movsd  0xe8(%rsp),%xmm2
    5510:	00 00 
    5512:	f2 0f 58 f8          	addsd  %xmm0,%xmm7
    5516:	f2 0f 10 84 24 20 01 	movsd  0x120(%rsp),%xmm0
    551d:	00 00 
    551f:	f2 0f 59 d4          	mulsd  %xmm4,%xmm2
    5523:	f2 0f 59 c6          	mulsd  %xmm6,%xmm0
    5527:	f2 0f 59 a4 24 e0 00 	mulsd  0xe0(%rsp),%xmm4
    552e:	00 00 
    5530:	66 0f 28 da          	movapd %xmm2,%xmm3
    5534:	f2 0f 10 54 24 60    	movsd  0x60(%rsp),%xmm2
    553a:	f2 0f 58 f8          	addsd  %xmm0,%xmm7
    553e:	f2 0f 10 84 24 00 01 	movsd  0x100(%rsp),%xmm0
    5545:	00 00 
    5547:	66 0f 28 cc          	movapd %xmm4,%xmm1
    554b:	66 0f 28 e2          	movapd %xmm2,%xmm4
    554f:	f2 0f 59 c5          	mulsd  %xmm5,%xmm0
    5553:	f2 0f 59 ac 24 f8 00 	mulsd  0xf8(%rsp),%xmm5
    555a:	00 00 
    555c:	f2 0f 59 d7          	mulsd  %xmm7,%xmm2
    5560:	f2 0f 58 d8          	addsd  %xmm0,%xmm3
    5564:	f2 0f 10 84 24 18 01 	movsd  0x118(%rsp),%xmm0
    556b:	00 00 
    556d:	f2 0f 58 cd          	addsd  %xmm5,%xmm1
    5571:	f2 0f 10 6c 24 38    	movsd  0x38(%rsp),%xmm5
    5577:	f2 0f 59 c6          	mulsd  %xmm6,%xmm0
    557b:	f2 0f 59 b4 24 10 01 	mulsd  0x110(%rsp),%xmm6
    5582:	00 00 
    5584:	f2 0f 58 d8          	addsd  %xmm0,%xmm3
    5588:	f2 0f 58 ce          	addsd  %xmm6,%xmm1
    558c:	f2 0f 10 74 24 70    	movsd  0x70(%rsp),%xmm6
    5592:	f2 0f 59 fe          	mulsd  %xmm6,%xmm7
    5596:	66 0f 28 c6          	movapd %xmm6,%xmm0
    559a:	f2 0f 59 e1          	mulsd  %xmm1,%xmm4
    559e:	f2 0f 59 c3          	mulsd  %xmm3,%xmm0
    55a2:	f2 0f 59 dd          	mulsd  %xmm5,%xmm3
    55a6:	f2 0f 5c c4          	subsd  %xmm4,%xmm0
    55aa:	f2 0f 59 44 24 40    	mulsd  0x40(%rsp),%xmm0
    55b0:	f2 41 0f 10 67 10    	movsd  0x10(%r15),%xmm4
    55b6:	f2 0f 58 e0          	addsd  %xmm0,%xmm4
    55ba:	66 0f 28 c2          	movapd %xmm2,%xmm0
    55be:	f2 0f 5c c3          	subsd  %xmm3,%xmm0
    55c2:	66 0f 28 dd          	movapd %xmm5,%xmm3
    55c6:	f2 0f 59 d9          	mulsd  %xmm1,%xmm3
    55ca:	66 0f 28 cf          	movapd %xmm7,%xmm1
    55ce:	66 41 0f 10 3f       	movupd (%r15),%xmm7
    55d3:	f2 41 0f 11 67 10    	movsd  %xmm4,0x10(%r15)
    55d9:	f2 0f 5c cb          	subsd  %xmm3,%xmm1
    55dd:	66 0f 57 0d 3b 4f 00 	xorpd  0x4f3b(%rip),%xmm1        # a520 <_IO_stdin_used+0x520>
    55e4:	00 
    55e5:	66 0f 14 c1          	unpcklpd %xmm1,%xmm0
    55e9:	66 0f 59 44 24 50    	mulpd  0x50(%rsp),%xmm0
    55ef:	66 0f 58 c7          	addpd  %xmm7,%xmm0
    55f3:	41 0f 11 07          	movups %xmm0,(%r15)
    55f7:	e9 3c fa ff ff       	jmp    5038 <_ZL7torqueldddddddjjPPPedddd+0xd38>
    55fc:	d9 cb                	fxch   %st(3)
    55fe:	db bc 24 c0 00 00 00 	fstpt  0xc0(%rsp)
    5605:	d9 cb                	fxch   %st(3)
    5607:	48 8d bc 24 e0 00 00 	lea    0xe0(%rsp),%rdi
    560e:	00 
    560f:	48 89 b4 24 b8 00 00 	mov    %rsi,0xb8(%rsp)
    5616:	00 
    5617:	dd 9c 24 d0 00 00 00 	fstpl  0xd0(%rsp)
    561e:	d9 c1                	fld    %st(1)
    5620:	dc 84 24 d0 01 00 00 	faddl  0x1d0(%rsp)
    5627:	48 89 8c 24 b0 00 00 	mov    %rcx,0xb0(%rsp)
    562e:	00 
    562f:	44 89 84 24 ac 00 00 	mov    %r8d,0xac(%rsp)
    5636:	00 
    5637:	89 94 24 90 00 00 00 	mov    %edx,0x90(%rsp)
    563e:	f2 44 0f 11 84 24 80 	movsd  %xmm8,0x80(%rsp)
    5645:	00 00 00 
    5648:	dd 5c 24 38          	fstpl  0x38(%rsp)
    564c:	f2 0f 10 5c 24 38    	movsd  0x38(%rsp),%xmm3
    5652:	d9 c2                	fld    %st(2)
    5654:	dc 84 24 c8 01 00 00 	faddl  0x1c8(%rsp)
    565b:	dd 5c 24 38          	fstpl  0x38(%rsp)
    565f:	f2 0f 10 54 24 38    	movsd  0x38(%rsp),%xmm2
    5665:	d9 c0                	fld    %st(0)
    5667:	dc 84 24 c0 01 00 00 	faddl  0x1c0(%rsp)
    566e:	f2 0f 11 54 24 60    	movsd  %xmm2,0x60(%rsp)
    5674:	dd 5c 24 38          	fstpl  0x38(%rsp)
    5678:	d9 c9                	fxch   %st(1)
    567a:	f2 0f 10 4c 24 38    	movsd  0x38(%rsp),%xmm1
    5680:	dd 5c 24 38          	fstpl  0x38(%rsp)
    5684:	d9 c9                	fxch   %st(1)
    5686:	f2 0f 10 6c 24 38    	movsd  0x38(%rsp),%xmm5
    568c:	dd 5c 24 38          	fstpl  0x38(%rsp)
    5690:	f2 0f 10 74 24 38    	movsd  0x38(%rsp),%xmm6
    5696:	dd 5c 24 38          	fstpl  0x38(%rsp)
    569a:	f2 0f 10 64 24 38    	movsd  0x38(%rsp),%xmm4
    56a0:	f2 41 0f 5e e8       	divsd  %xmm8,%xmm5
    56a5:	db 68 30             	fldt   0x30(%rax)
    56a8:	dd 5c 24 38          	fstpl  0x38(%rsp)
    56ac:	f2 41 0f 5e e0       	divsd  %xmm8,%xmm4
    56b1:	f2 0f 11 ac 24 a0 00 	movsd  %xmm5,0xa0(%rsp)
    56b8:	00 00 
    56ba:	f2 41 0f 5e f0       	divsd  %xmm8,%xmm6
    56bf:	f2 0f 11 64 24 78    	movsd  %xmm4,0x78(%rsp)
    56c5:	f2 0f 10 64 24 38    	movsd  0x38(%rsp),%xmm4
    56cb:	f2 0f 11 5c 24 38    	movsd  %xmm3,0x38(%rsp)
    56d1:	66 0f 28 fc          	movapd %xmm4,%xmm7
    56d5:	f2 0f 11 64 24 40    	movsd  %xmm4,0x40(%rsp)
    56db:	66 0f 14 ff          	unpcklpd %xmm7,%xmm7
    56df:	0f 29 7c 24 50       	movaps %xmm7,0x50(%rsp)
    56e4:	f2 0f 11 b4 24 88 00 	movsd  %xmm6,0x88(%rsp)
    56eb:	00 00 
    56ed:	f2 0f 11 4c 24 70    	movsd  %xmm1,0x70(%rsp)
    56f3:	f2 0f 10 44 24 30    	movsd  0x30(%rsp),%xmm0
    56f9:	e8 02 29 00 00       	call   8000 <_Z6stressdddd>
    56fe:	f2 0f 10 64 24 78    	movsd  0x78(%rsp),%xmm4
    5704:	f2 0f 10 94 24 f0 00 	movsd  0xf0(%rsp),%xmm2
    570b:	00 00 
    570d:	f2 0f 10 b4 24 88 00 	movsd  0x88(%rsp),%xmm6
    5714:	00 00 
    5716:	dd 84 24 d0 00 00 00 	fldl   0xd0(%rsp)
    571d:	db ac 24 c0 00 00 00 	fldt   0xc0(%rsp)
    5724:	f2 0f 10 84 24 08 01 	movsd  0x108(%rsp),%xmm0
    572b:	00 00 
    572d:	f2 0f 59 d4          	mulsd  %xmm4,%xmm2
    5731:	f2 0f 10 ac 24 a0 00 	movsd  0xa0(%rsp),%xmm5
    5738:	00 00 
    573a:	f2 0f 59 c6          	mulsd  %xmm6,%xmm0
    573e:	48 8b b4 24 b8 00 00 	mov    0xb8(%rsp),%rsi
    5745:	00 
    5746:	48 8b 8c 24 b0 00 00 	mov    0xb0(%rsp),%rcx
    574d:	00 
    574e:	44 8b 84 24 ac 00 00 	mov    0xac(%rsp),%r8d
    5755:	00 
    5756:	8b 94 24 90 00 00 00 	mov    0x90(%rsp),%edx
    575d:	f2 44 0f 10 84 24 80 	movsd  0x80(%rsp),%xmm8
    5764:	00 00 00 
    5767:	66 0f 28 fa          	movapd %xmm2,%xmm7
    576b:	f2 0f 10 94 24 e8 00 	movsd  0xe8(%rsp),%xmm2
    5772:	00 00 
    5774:	f2 0f 58 f8          	addsd  %xmm0,%xmm7
    5778:	f2 0f 10 84 24 20 01 	movsd  0x120(%rsp),%xmm0
    577f:	00 00 
    5781:	f2 0f 59 d4          	mulsd  %xmm4,%xmm2
    5785:	f2 0f 59 c5          	mulsd  %xmm5,%xmm0
    5789:	f2 0f 59 a4 24 e0 00 	mulsd  0xe0(%rsp),%xmm4
    5790:	00 00 
    5792:	66 0f 28 da          	movapd %xmm2,%xmm3
    5796:	f2 0f 10 54 24 60    	movsd  0x60(%rsp),%xmm2
    579c:	f2 0f 58 f8          	addsd  %xmm0,%xmm7
    57a0:	f2 0f 10 84 24 00 01 	movsd  0x100(%rsp),%xmm0
    57a7:	00 00 
    57a9:	66 0f 28 cc          	movapd %xmm4,%xmm1
    57ad:	66 0f 28 e2          	movapd %xmm2,%xmm4
    57b1:	f2 0f 59 c6          	mulsd  %xmm6,%xmm0
    57b5:	f2 0f 59 b4 24 f8 00 	mulsd  0xf8(%rsp),%xmm6
    57bc:	00 00 
    57be:	f2 0f 59 d7          	mulsd  %xmm7,%xmm2
    57c2:	f2 0f 58 d8          	addsd  %xmm0,%xmm3
    57c6:	f2 0f 10 84 24 18 01 	movsd  0x118(%rsp),%xmm0
    57cd:	00 00 
    57cf:	f2 0f 58 ce          	addsd  %xmm6,%xmm1
    57d3:	f2 0f 10 74 24 70    	movsd  0x70(%rsp),%xmm6
    57d9:	f2 0f 59 c5          	mulsd  %xmm5,%xmm0
    57dd:	f2 0f 59 ac 24 10 01 	mulsd  0x110(%rsp),%xmm5
    57e4:	00 00 
    57e6:	f2 0f 59 fe          	mulsd  %xmm6,%xmm7
    57ea:	f2 0f 58 d8          	addsd  %xmm0,%xmm3
    57ee:	66 0f 28 c6          	movapd %xmm6,%xmm0
    57f2:	66 41 0f 10 37       	movupd (%r15),%xmm6
    57f7:	f2 0f 58 cd          	addsd  %xmm5,%xmm1
    57fb:	f2 0f 10 6c 24 38    	movsd  0x38(%rsp),%xmm5
    5801:	f2 0f 59 c3          	mulsd  %xmm3,%xmm0
    5805:	f2 0f 59 e1          	mulsd  %xmm1,%xmm4
    5809:	f2 0f 59 dd          	mulsd  %xmm5,%xmm3
    580d:	f2 0f 5c c4          	subsd  %xmm4,%xmm0
    5811:	f2 0f 59 44 24 40    	mulsd  0x40(%rsp),%xmm0
    5817:	f2 41 0f 10 67 10    	movsd  0x10(%r15),%xmm4
    581d:	f2 0f 58 e0          	addsd  %xmm0,%xmm4
    5821:	66 0f 28 c2          	movapd %xmm2,%xmm0
    5825:	f2 0f 5c c3          	subsd  %xmm3,%xmm0
    5829:	66 0f 28 dd          	movapd %xmm5,%xmm3
    582d:	f2 0f 59 d9          	mulsd  %xmm1,%xmm3
    5831:	66 0f 28 cf          	movapd %xmm7,%xmm1
    5835:	f2 41 0f 11 67 10    	movsd  %xmm4,0x10(%r15)
    583b:	f2 0f 5c cb          	subsd  %xmm3,%xmm1
    583f:	66 0f 57 0d d9 4c 00 	xorpd  0x4cd9(%rip),%xmm1        # a520 <_IO_stdin_used+0x520>
    5846:	00 
    5847:	66 0f 14 c1          	unpcklpd %xmm1,%xmm0
    584b:	66 0f 59 44 24 50    	mulpd  0x50(%rsp),%xmm0
    5851:	66 0f 58 c6          	addpd  %xmm6,%xmm0
    5855:	41 0f 11 07          	movups %xmm0,(%r15)
    5859:	e9 72 f8 ff ff       	jmp    50d0 <_ZL7torqueldddddddjjPPPedddd+0xdd0>
    585e:	dd 05 64 4c 00 00    	fldl   0x4c64(%rip)        # a4c8 <_IO_stdin_used+0x4c8>
    5864:	e9 2e ee ff ff       	jmp    4697 <_ZL7torqueldddddddjjPPPedddd+0x397>
    5869:	d9 c9                	fxch   %st(1)
    586b:	f2 0f 10 0d 65 4c 00 	movsd  0x4c65(%rip),%xmm1        # a4d8 <_IO_stdin_used+0x4d8>
    5872:	00 
    5873:	eb 0c                	jmp    5881 <_ZL7torqueldddddddjjPPPedddd+0x1581>
    5875:	dd d8                	fstp   %st(0)
    5877:	d9 c9                	fxch   %st(1)
    5879:	eb 06                	jmp    5881 <_ZL7torqueldddddddjjPPPedddd+0x1581>
    587b:	d9 c9                	fxch   %st(1)
    587d:	eb 02                	jmp    5881 <_ZL7torqueldddddddjjPPPedddd+0x1581>
    587f:	d9 c9                	fxch   %st(1)
    5881:	f2 0f 11 4c 24 38    	movsd  %xmm1,0x38(%rsp)
    5887:	dc 44 24 38          	faddl  0x38(%rsp)
    588b:	e9 38 ee ff ff       	jmp    46c8 <_ZL7torqueldddddddjjPPPedddd+0x3c8>
    5890:	de c2                	faddp  %st,%st(2)
    5892:	d9 c9                	fxch   %st(1)
    5894:	db bc 24 40 01 00 00 	fstpt  0x140(%rsp)
    589b:	dd 54 24 38          	fstl   0x38(%rsp)
    589f:	f2 0f 10 7c 24 38    	movsd  0x38(%rsp),%xmm7
    58a5:	66 0f 2e f8          	ucomisd %xmm0,%xmm7
    58a9:	0f 8a 62 f4 ff ff    	jp     4d11 <_ZL7torqueldddddddjjPPPedddd+0xa11>
    58af:	0f 85 5c f4 ff ff    	jne    4d11 <_ZL7torqueldddddddjjPPPedddd+0xa11>
    58b5:	dd 05 0d 4c 00 00    	fldl   0x4c0d(%rip)        # a4c8 <_IO_stdin_used+0x4c8>
    58bb:	e9 43 ee ff ff       	jmp    4703 <_ZL7torqueldddddddjjPPPedddd+0x403>
    58c0:	f2 0f 10 0d 10 4c 00 	movsd  0x4c10(%rip),%xmm1        # a4d8 <_IO_stdin_used+0x4d8>
    58c7:	00 
    58c8:	db 6c 24 60          	fldt   0x60(%rsp)
    58cc:	66 0f 2f 44 24 18    	comisd 0x18(%rsp),%xmm0
    58d2:	f2 0f 11 4c 24 38    	movsd  %xmm1,0x38(%rsp)
    58d8:	dc 44 24 38          	faddl  0x38(%rsp)
    58dc:	db bc 24 50 01 00 00 	fstpt  0x150(%rsp)
    58e3:	0f 87 08 f9 ff ff    	ja     51f1 <_ZL7torqueldddddddjjPPPedddd+0xef1>
    58e9:	f2 0f 10 74 24 18    	movsd  0x18(%rsp),%xmm6
    58ef:	66 0f ef c0          	pxor   %xmm0,%xmm0
    58f3:	66 0f 2f f0          	comisd %xmm0,%xmm6
    58f7:	0f 87 f8 f8 ff ff    	ja     51f5 <_ZL7torqueldddddddjjPPPedddd+0xef5>
    58fd:	dd d9                	fstp   %st(1)
    58ff:	eb 02                	jmp    5903 <_ZL7torqueldddddddjjPPPedddd+0x1603>
    5901:	dd d9                	fstp   %st(1)
    5903:	f2 0f 11 4c 24 38    	movsd  %xmm1,0x38(%rsp)
    5909:	dd 44 24 38          	fldl   0x38(%rsp)
    590d:	d9 c9                	fxch   %st(1)
    590f:	e9 12 ee ff ff       	jmp    4726 <_ZL7torqueldddddddjjPPPedddd+0x426>
    5914:	0f 1f 40 00          	nopl   0x0(%rax)
    5918:	f2 0f 10 0d b8 4b 00 	movsd  0x4bb8(%rip),%xmm1        # a4d8 <_IO_stdin_used+0x4d8>
    591f:	00 
    5920:	66 0f 2f 44 24 18    	comisd 0x18(%rsp),%xmm0
    5926:	f2 0f 11 4c 24 38    	movsd  %xmm1,0x38(%rsp)
    592c:	dd 44 24 38          	fldl   0x38(%rsp)
    5930:	db bc 24 30 01 00 00 	fstpt  0x130(%rsp)
    5937:	0f 87 42 ff ff ff    	ja     587f <_ZL7torqueldddddddjjPPPedddd+0x157f>
    593d:	f2 0f 10 74 24 18    	movsd  0x18(%rsp),%xmm6
    5943:	66 0f 2f f0          	comisd %xmm0,%xmm6
    5947:	0f 87 0f f9 ff ff    	ja     525c <_ZL7torqueldddddddjjPPPedddd+0xf5c>
    594d:	dd d9                	fstp   %st(1)
    594f:	f2 0f 11 4c 24 38    	movsd  %xmm1,0x38(%rsp)
    5955:	dd 44 24 38          	fldl   0x38(%rsp)
    5959:	db bc 24 40 01 00 00 	fstpt  0x140(%rsp)
    5960:	dd 54 24 38          	fstl   0x38(%rsp)
    5964:	f2 0f 10 7c 24 38    	movsd  0x38(%rsp),%xmm7
    596a:	66 0f 2f f8          	comisd %xmm0,%xmm7
    596e:	7a 0c                	jp     597c <_ZL7torqueldddddddjjPPPedddd+0x167c>
    5970:	0f 84 dd 01 00 00    	je     5b53 <_ZL7torqueldddddddjjPPPedddd+0x1853>
    5976:	0f 87 68 01 00 00    	ja     5ae4 <_ZL7torqueldddddddjjPPPedddd+0x17e4>
    597c:	f2 0f 11 4c 24 38    	movsd  %xmm1,0x38(%rsp)
    5982:	dd 44 24 38          	fldl   0x38(%rsp)
    5986:	db bc 24 50 01 00 00 	fstpt  0x150(%rsp)
    598d:	e9 71 ff ff ff       	jmp    5903 <_ZL7torqueldddddddjjPPPedddd+0x1603>
    5992:	66 0f 1f 44 00 00    	nopw   0x0(%rax,%rax,1)
    5998:	f2 0f 10 0d 38 4b 00 	movsd  0x4b38(%rip),%xmm1        # a4d8 <_IO_stdin_used+0x4d8>
    599f:	00 
    59a0:	66 0f 2f 44 24 18    	comisd 0x18(%rsp),%xmm0
    59a6:	f2 0f 11 4c 24 38    	movsd  %xmm1,0x38(%rsp)
    59ac:	dd 44 24 38          	fldl   0x38(%rsp)
    59b0:	db bc 24 50 01 00 00 	fstpt  0x150(%rsp)
    59b7:	0f 86 00 f8 ff ff    	jbe    51bd <_ZL7torqueldddddddjjPPPedddd+0xebd>
    59bd:	d9 c9                	fxch   %st(1)
    59bf:	e9 37 f8 ff ff       	jmp    51fb <_ZL7torqueldddddddjjPPPedddd+0xefb>
    59c4:	dd 54 24 38          	fstl   0x38(%rsp)
    59c8:	f2 0f 10 74 24 38    	movsd  0x38(%rsp),%xmm6
    59ce:	f2 0f 10 0d 1a 4b 00 	movsd  0x4b1a(%rip),%xmm1        # a4f0 <_IO_stdin_used+0x4f0>
    59d5:	00 
    59d6:	66 0f 2f f0          	comisd %xmm0,%xmm6
    59da:	0f 87 19 f8 ff ff    	ja     51f9 <_ZL7torqueldddddddjjPPPedddd+0xef9>
    59e0:	d9 c9                	fxch   %st(1)
    59e2:	f2 0f 10 0d ee 4a 00 	movsd  0x4aee(%rip),%xmm1        # a4d8 <_IO_stdin_used+0x4d8>
    59e9:	00 
    59ea:	e9 0c f8 ff ff       	jmp    51fb <_ZL7torqueldddddddjjPPPedddd+0xefb>
    59ef:	90                   	nop
    59f0:	f2 0f 10 7c 24 28    	movsd  0x28(%rsp),%xmm7
    59f6:	66 0f 2f f8          	comisd %xmm0,%xmm7
    59fa:	0f 86 69 fe ff ff    	jbe    5869 <_ZL7torqueldddddddjjPPPedddd+0x1569>
    5a00:	d9 c9                	fxch   %st(1)
    5a02:	dc 05 e8 4a 00 00    	faddl  0x4ae8(%rip)        # a4f0 <_IO_stdin_used+0x4f0>
    5a08:	e9 e7 f2 ff ff       	jmp    4cf4 <_ZL7torqueldddddddjjPPPedddd+0x9f4>
    5a0d:	dd d9                	fstp   %st(1)
    5a0f:	f2 0f 11 4c 24 38    	movsd  %xmm1,0x38(%rsp)
    5a15:	dd 44 24 38          	fldl   0x38(%rsp)
    5a19:	db bc 24 40 01 00 00 	fstpt  0x140(%rsp)
    5a20:	dd 54 24 38          	fstl   0x38(%rsp)
    5a24:	f2 0f 10 74 24 38    	movsd  0x38(%rsp),%xmm6
    5a2a:	66 0f 2e f0          	ucomisd %xmm0,%xmm6
    5a2e:	0f 8a dd f2 ff ff    	jp     4d11 <_ZL7torqueldddddddjjPPPedddd+0xa11>
    5a34:	0f 85 d7 f2 ff ff    	jne    4d11 <_ZL7torqueldddddddjjPPPedddd+0xa11>
    5a3a:	dd 05 88 4a 00 00    	fldl   0x4a88(%rip)        # a4c8 <_IO_stdin_used+0x4c8>
    5a40:	db bc 24 50 01 00 00 	fstpt  0x150(%rsp)
    5a47:	e9 e3 f6 ff ff       	jmp    512f <_ZL7torqueldddddddjjPPPedddd+0xe2f>
    5a4c:	f2 0f 10 0d 84 4a 00 	movsd  0x4a84(%rip),%xmm1        # a4d8 <_IO_stdin_used+0x4d8>
    5a53:	00 
    5a54:	f2 0f 11 4c 24 38    	movsd  %xmm1,0x38(%rsp)
    5a5a:	dd 44 24 38          	fldl   0x38(%rsp)
    5a5e:	db bc 24 40 01 00 00 	fstpt  0x140(%rsp)
    5a65:	dd 54 24 38          	fstl   0x38(%rsp)
    5a69:	f2 0f 10 7c 24 38    	movsd  0x38(%rsp),%xmm7
    5a6f:	66 0f 2e f8          	ucomisd %xmm0,%xmm7
    5a73:	7a 06                	jp     5a7b <_ZL7torqueldddddddjjPPPedddd+0x177b>
    5a75:	0f 84 a7 f6 ff ff    	je     5122 <_ZL7torqueldddddddjjPPPedddd+0xe22>
    5a7b:	dd 54 24 38          	fstl   0x38(%rsp)
    5a7f:	f2 0f 10 44 24 08    	movsd  0x8(%rsp),%xmm0
    5a85:	f2 0f 5e 44 24 38    	divsd  0x38(%rsp),%xmm0
    5a8b:	dd 5c 24 70          	fstpl  0x70(%rsp)
    5a8f:	44 89 4c 24 40       	mov    %r9d,0x40(%rsp)
    5a94:	f2 44 0f 11 44 24 50 	movsd  %xmm8,0x50(%rsp)
    5a9b:	f2 0f 11 4c 24 78    	movsd  %xmm1,0x78(%rsp)
    5aa1:	e8 6a c9 ff ff       	call   2410 <atan@plt>
    5aa6:	44 8b 4c 24 40       	mov    0x40(%rsp),%r9d
    5aab:	f2 44 0f 10 44 24 50 	movsd  0x50(%rsp),%xmm8
    5ab2:	f2 0f 11 44 24 38    	movsd  %xmm0,0x38(%rsp)
    5ab8:	dd 44 24 38          	fldl   0x38(%rsp)
    5abc:	66 0f ef c0          	pxor   %xmm0,%xmm0
    5ac0:	d9 c0                	fld    %st(0)
    5ac2:	db 7c 24 60          	fstpt  0x60(%rsp)
    5ac6:	dd 44 24 70          	fldl   0x70(%rsp)
    5aca:	dd 54 24 38          	fstl   0x38(%rsp)
    5ace:	66 0f 2f 44 24 38    	comisd 0x38(%rsp),%xmm0
    5ad4:	77 2e                	ja     5b04 <_ZL7torqueldddddddjjPPPedddd+0x1804>
    5ad6:	d9 c9                	fxch   %st(1)
    5ad8:	db bc 24 50 01 00 00 	fstpt  0x150(%rsp)
    5adf:	e9 f0 f2 ff ff       	jmp    4dd4 <_ZL7torqueldddddddjjPPPedddd+0xad4>
    5ae4:	d9 ee                	fldz
    5ae6:	db bc 24 50 01 00 00 	fstpt  0x150(%rsp)
    5aed:	e9 fa f2 ff ff       	jmp    4dec <_ZL7torqueldddddddjjPPPedddd+0xaec>
    5af2:	f2 0f 10 0d de 49 00 	movsd  0x49de(%rip),%xmm1        # a4d8 <_IO_stdin_used+0x4d8>
    5af9:	00 
    5afa:	e9 04 fe ff ff       	jmp    5903 <_ZL7torqueldddddddjjPPPedddd+0x1603>
    5aff:	e8 6c c9 ff ff       	call   2470 <__stack_chk_fail@plt>
    5b04:	dd d8                	fstp   %st(0)
    5b06:	dd d8                	fstp   %st(0)
    5b08:	f2 0f 10 44 24 18    	movsd  0x18(%rsp),%xmm0
    5b0e:	f2 0f 5e 44 24 38    	divsd  0x38(%rsp),%xmm0
    5b14:	e8 f7 c8 ff ff       	call   2410 <atan@plt>
    5b19:	f2 0f 10 4c 24 78    	movsd  0x78(%rsp),%xmm1
    5b1f:	44 8b 4c 24 40       	mov    0x40(%rsp),%r9d
    5b24:	f2 0f 11 44 24 38    	movsd  %xmm0,0x38(%rsp)
    5b2a:	dd 44 24 38          	fldl   0x38(%rsp)
    5b2e:	db 6c 24 60          	fldt   0x60(%rsp)
    5b32:	f2 0f 11 4c 24 38    	movsd  %xmm1,0x38(%rsp)
    5b38:	dc 44 24 38          	faddl  0x38(%rsp)
    5b3c:	f2 44 0f 10 44 24 50 	movsd  0x50(%rsp),%xmm8
    5b43:	db bc 24 50 01 00 00 	fstpt  0x150(%rsp)
    5b4a:	dd 44 24 70          	fldl   0x70(%rsp)
    5b4e:	e9 96 fd ff ff       	jmp    58e9 <_ZL7torqueldddddddjjPPPedddd+0x15e9>
    5b53:	d9 ee                	fldz
    5b55:	db bc 24 50 01 00 00 	fstpt  0x150(%rsp)
    5b5c:	e9 ce f5 ff ff       	jmp    512f <_ZL7torqueldddddddjjPPPedddd+0xe2f>
    5b61:	66 66 2e 0f 1f 84 00 	data16 cs nopw 0x0(%rax,%rax,1)
    5b68:	00 00 00 00 
    5b6c:	0f 1f 40 00          	nopl   0x0(%rax)

0000000000005b70 <_Z7angleofdd>:
    5b70:	f3 0f 1e fa          	endbr64
    5b74:	66 0f 28 d0          	movapd %xmm0,%xmm2
    5b78:	66 0f ef c0          	pxor   %xmm0,%xmm0
    5b7c:	66 0f 2e d0          	ucomisd %xmm0,%xmm2
    5b80:	7a 26                	jp     5ba8 <_Z7angleofdd+0x38>
    5b82:	75 24                	jne    5ba8 <_Z7angleofdd+0x38>
    5b84:	66 0f 2f c8          	comisd %xmm0,%xmm1
    5b88:	76 0e                	jbe    5b98 <_Z7angleofdd+0x28>
    5b8a:	dd 05 40 49 00 00    	fldl   0x4940(%rip)        # a4d0 <_IO_stdin_used+0x4d0>
    5b90:	c3                   	ret
    5b91:	0f 1f 80 00 00 00 00 	nopl   0x0(%rax)
    5b98:	66 0f 2f c1          	comisd %xmm1,%xmm0
    5b9c:	0f 87 96 00 00 00    	ja     5c38 <_Z7angleofdd+0xc8>
    5ba2:	d9 ee                	fldz
    5ba4:	c3                   	ret
    5ba5:	0f 1f 00             	nopl   (%rax)
    5ba8:	66 0f 28 c1          	movapd %xmm1,%xmm0
    5bac:	48 83 ec 28          	sub    $0x28,%rsp
    5bb0:	f2 0f 5e c2          	divsd  %xmm2,%xmm0
    5bb4:	f2 0f 11 4c 24 18    	movsd  %xmm1,0x18(%rsp)
    5bba:	f2 0f 11 54 24 10    	movsd  %xmm2,0x10(%rsp)
    5bc0:	e8 4b c8 ff ff       	call   2410 <atan@plt>
    5bc5:	f2 0f 10 4c 24 18    	movsd  0x18(%rsp),%xmm1
    5bcb:	f2 0f 10 54 24 10    	movsd  0x10(%rsp),%xmm2
    5bd1:	f2 0f 11 44 24 08    	movsd  %xmm0,0x8(%rsp)
    5bd7:	66 0f ef c0          	pxor   %xmm0,%xmm0
    5bdb:	dd 44 24 08          	fldl   0x8(%rsp)
    5bdf:	66 0f 2f c1          	comisd %xmm1,%xmm0
    5be3:	77 1b                	ja     5c00 <_Z7angleofdd+0x90>
    5be5:	66 0f 2f c8          	comisd %xmm0,%xmm1
    5be9:	76 2d                	jbe    5c18 <_Z7angleofdd+0xa8>
    5beb:	66 0f 2f c2          	comisd %xmm2,%xmm0
    5bef:	77 37                	ja     5c28 <_Z7angleofdd+0xb8>
    5bf1:	48 83 c4 28          	add    $0x28,%rsp
    5bf5:	c3                   	ret
    5bf6:	66 2e 0f 1f 84 00 00 	cs nopw 0x0(%rax,%rax,1)
    5bfd:	00 00 00 
    5c00:	66 0f 2f d0          	comisd %xmm0,%xmm2
    5c04:	76 22                	jbe    5c28 <_Z7angleofdd+0xb8>
    5c06:	dc 05 e4 48 00 00    	faddl  0x48e4(%rip)        # a4f0 <_IO_stdin_used+0x4f0>
    5c0c:	48 83 c4 28          	add    $0x28,%rsp
    5c10:	c3                   	ret
    5c11:	0f 1f 80 00 00 00 00 	nopl   0x0(%rax)
    5c18:	dd d8                	fstp   %st(0)
    5c1a:	66 0f 2f d0          	comisd %xmm0,%xmm2
    5c1e:	76 20                	jbe    5c40 <_Z7angleofdd+0xd0>
    5c20:	d9 ee                	fldz
    5c22:	eb cd                	jmp    5bf1 <_Z7angleofdd+0x81>
    5c24:	0f 1f 40 00          	nopl   0x0(%rax)
    5c28:	dc 05 aa 48 00 00    	faddl  0x48aa(%rip)        # a4d8 <_IO_stdin_used+0x4d8>
    5c2e:	48 83 c4 28          	add    $0x28,%rsp
    5c32:	c3                   	ret
    5c33:	0f 1f 44 00 00       	nopl   0x0(%rax,%rax,1)
    5c38:	dd 05 8a 48 00 00    	fldl   0x488a(%rip)        # a4c8 <_IO_stdin_used+0x4c8>
    5c3e:	c3                   	ret
    5c3f:	90                   	nop
    5c40:	dd 05 92 48 00 00    	fldl   0x4892(%rip)        # a4d8 <_IO_stdin_used+0x4d8>
    5c46:	eb a9                	jmp    5bf1 <_Z7angleofdd+0x81>
    5c48:	0f 1f 84 00 00 00 00 	nopl   0x0(%rax,%rax,1)
    5c4f:	00 

0000000000005c50 <_Z18compute_spheremeshdjj>:
    5c50:	f3 0f 1e fa          	endbr64
    5c54:	41 57                	push   %r15
    5c56:	ba 04 00 00 00       	mov    $0x4,%edx
    5c5b:	41 89 f7             	mov    %esi,%r15d
    5c5e:	41 56                	push   %r14
    5c60:	41 55                	push   %r13
    5c62:	41 54                	push   %r12
    5c64:	55                   	push   %rbp
    5c65:	53                   	push   %rbx
    5c66:	89 fb                	mov    %edi,%ebx
    5c68:	89 df                	mov    %ebx,%edi
    5c6a:	48 81 ec 08 01 00 00 	sub    $0x108,%rsp
    5c71:	f2 0f 11 04 24       	movsd  %xmm0,(%rsp)
    5c76:	e8 f5 1c 00 00       	call   7970 <_Z10allocate3djjj>
    5c7b:	66 0f ef c9          	pxor   %xmm1,%xmm1
    5c7f:	f2 0f 10 05 51 48 00 	movsd  0x4851(%rip),%xmm0        # a4d8 <_IO_stdin_used+0x4d8>
    5c86:	00 
    5c87:	48 89 c5             	mov    %rax,%rbp
    5c8a:	8d 04 1b             	lea    (%rbx,%rbx,1),%eax
    5c8d:	f2 48 0f 2a c8       	cvtsi2sd %rax,%xmm1
    5c92:	66 0f 28 d8          	movapd %xmm0,%xmm3
    5c96:	f2 0f 5e d9          	divsd  %xmm1,%xmm3
    5c9a:	f2 0f 11 5c 24 10    	movsd  %xmm3,0x10(%rsp)
    5ca0:	dd 44 24 10          	fldl   0x10(%rsp)
    5ca4:	85 db                	test   %ebx,%ebx
    5ca6:	0f 84 69 02 00 00    	je     5f15 <_Z18compute_spheremeshdjj+0x2c5>
    5cac:	66 0f ef c9          	pxor   %xmm1,%xmm1
    5cb0:	f2 0f 10 15 18 48 00 	movsd  0x4818(%rip),%xmm2        # a4d0 <_IO_stdin_used+0x4d0>
    5cb7:	00 
    5cb8:	f2 0f 10 3c 24       	movsd  (%rsp),%xmm7
    5cbd:	44 89 f8             	mov    %r15d,%eax
    5cc0:	f2 48 0f 2a cb       	cvtsi2sd %rbx,%xmm1
    5cc5:	f2 0f 10 1d 23 48 00 	movsd  0x4823(%rip),%xmm3        # a4f0 <_IO_stdin_used+0x4f0>
    5ccc:	00 
    5ccd:	66 0f 28 f7          	movapd %xmm7,%xmm6
    5cd1:	f2 0f 59 f7          	mulsd  %xmm7,%xmm6
    5cd5:	f2 0f 5e d1          	divsd  %xmm1,%xmm2
    5cd9:	f2 0f 11 74 24 10    	movsd  %xmm6,0x10(%rsp)
    5cdf:	dd 44 24 10          	fldl   0x10(%rsp)
    5ce3:	db 7c 24 70          	fstpt  0x70(%rsp)
    5ce7:	f2 0f 5e c1          	divsd  %xmm1,%xmm0
    5ceb:	f2 0f 11 54 24 10    	movsd  %xmm2,0x10(%rsp)
    5cf1:	66 0f ef d2          	pxor   %xmm2,%xmm2
    5cf5:	dd 44 24 10          	fldl   0x10(%rsp)
    5cf9:	f2 48 0f 2a d0       	cvtsi2sd %rax,%xmm2
    5cfe:	f2 0f 5e da          	divsd  %xmm2,%xmm3
    5d02:	f2 0f 11 44 24 10    	movsd  %xmm0,0x10(%rsp)
    5d08:	f2 0f 11 9c 24 80 00 	movsd  %xmm3,0x80(%rsp)
    5d0f:	00 00 
    5d11:	dd 84 24 80 00 00 00 	fldl   0x80(%rsp)
    5d18:	dd 44 24 10          	fldl   0x10(%rsp)
    5d1c:	dd 04 24             	fldl   (%rsp)
    5d1f:	45 85 ff             	test   %r15d,%r15d
    5d22:	0f 84 f1 01 00 00    	je     5f19 <_Z18compute_spheremeshdjj+0x2c9>
    5d28:	d9 cb                	fxch   %st(3)
    5d2a:	db 7c 24 50          	fstpt  0x50(%rsp)
    5d2e:	d9 c9                	fxch   %st(1)
    5d30:	48 8d 44 dd 00       	lea    0x0(%rbp,%rbx,8),%rax
    5d35:	45 8d 77 fe          	lea    -0x2(%r15),%r14d
    5d39:	49 89 ed             	mov    %rbp,%r13
    5d3c:	48 89 84 24 88 00 00 	mov    %rax,0x88(%rsp)
    5d43:	00 
    5d44:	4a 8d 04 f5 00 00 00 	lea    0x0(,%r14,8),%rax
    5d4b:	00 
    5d4c:	db bc 24 a0 00 00 00 	fstpt  0xa0(%rsp)
    5d53:	48 89 84 24 c0 00 00 	mov    %rax,0xc0(%rsp)
    5d5a:	00 
    5d5b:	48 8d 84 24 f0 00 00 	lea    0xf0(%rsp),%rax
    5d62:	00 
    5d63:	db bc 24 b0 00 00 00 	fstpt  0xb0(%rsp)
    5d6a:	d9 c9                	fxch   %st(1)
    5d6c:	48 89 84 24 98 00 00 	mov    %rax,0x98(%rsp)
    5d73:	00 
    5d74:	48 8d 84 24 e0 00 00 	lea    0xe0(%rsp),%rax
    5d7b:	00 
    5d7c:	db 7c 24 40          	fstpt  0x40(%rsp)
    5d80:	48 89 84 24 90 00 00 	mov    %rax,0x90(%rsp)
    5d87:	00 
    5d88:	db 7c 24 60          	fstpt  0x60(%rsp)
    5d8c:	48 89 ac 24 c8 00 00 	mov    %rbp,0xc8(%rsp)
    5d93:	00 
    5d94:	0f 1f 40 00          	nopl   0x0(%rax)
    5d98:	ff 74 24 48          	push   0x48(%rsp)
    5d9c:	ff 74 24 48          	push   0x48(%rsp)
    5da0:	48 8b b4 24 a0 00 00 	mov    0xa0(%rsp),%rsi
    5da7:	00 
    5da8:	48 8b bc 24 a8 00 00 	mov    0xa8(%rsp),%rdi
    5daf:	00 
    5db0:	e8 cb c6 ff ff       	call   2480 <sincosl@plt>
    5db5:	db ac 24 f0 00 00 00 	fldt   0xf0(%rsp)
    5dbc:	48 83 ec 10          	sub    $0x10,%rsp
    5dc0:	db ac 24 80 00 00 00 	fldt   0x80(%rsp)
    5dc7:	de c9                	fmulp  %st,%st(1)
    5dc9:	db 7c 24 40          	fstpt  0x40(%rsp)
    5dcd:	db 6c 24 60          	fldt   0x60(%rsp)
    5dd1:	db 6c 24 70          	fldt   0x70(%rsp)
    5dd5:	de e9                	fsubrp %st,%st(1)
    5dd7:	db 3c 24             	fstpt  (%rsp)
    5dda:	e8 e1 c6 ff ff       	call   24c0 <cosl@plt>
    5ddf:	db 7c 24 20          	fstpt  0x20(%rsp)
    5de3:	db 6c 24 60          	fldt   0x60(%rsp)
    5de7:	db 6c 24 70          	fldt   0x70(%rsp)
    5deb:	de c1                	faddp  %st,%st(1)
    5ded:	db 3c 24             	fstpt  (%rsp)
    5df0:	e8 cb c6 ff ff       	call   24c0 <cosl@plt>
    5df5:	db 6c 24 20          	fldt   0x20(%rsp)
    5df9:	49 8b 75 00          	mov    0x0(%r13),%rsi
    5dfd:	66 0f ef c0          	pxor   %xmm0,%xmm0
    5e01:	f2 0f 58 84 24 a0 00 	addsd  0xa0(%rsp),%xmm0
    5e08:	00 00 
    5e0a:	48 8b 06             	mov    (%rsi),%rax
    5e0d:	de e1                	fsubp  %st,%st(1)
    5e0f:	db ac 24 90 00 00 00 	fldt   0x90(%rsp)
    5e16:	de c9                	fmulp  %st,%st(1)
    5e18:	db ac 24 c0 00 00 00 	fldt   0xc0(%rsp)
    5e1f:	de c9                	fmulp  %st,%st(1)
    5e21:	db ac 24 10 01 00 00 	fldt   0x110(%rsp)
    5e28:	db ac 24 80 00 00 00 	fldt   0x80(%rsp)
    5e2f:	de c9                	fmulp  %st,%st(1)
    5e31:	d9 c0                	fld    %st(0)
    5e33:	db 38                	fstpt  (%rax)
    5e35:	d9 ee                	fldz
    5e37:	d8 c9                	fmul   %st(1),%st
    5e39:	db 78 10             	fstpt  0x10(%rax)
    5e3c:	db 6c 24 40          	fldt   0x40(%rsp)
    5e40:	48 83 c4 20          	add    $0x20,%rsp
    5e44:	db 78 20             	fstpt  0x20(%rax)
    5e47:	d9 c9                	fxch   %st(1)
    5e49:	d9 c0                	fld    %st(0)
    5e4b:	db 78 30             	fstpt  0x30(%rax)
    5e4e:	41 83 ff 01          	cmp    $0x1,%r15d
    5e52:	0f 84 88 00 00 00    	je     5ee0 <_Z18compute_spheremeshdjj+0x290>
    5e58:	48 8b 84 24 c0 00 00 	mov    0xc0(%rsp),%rax
    5e5f:	00 
    5e60:	4c 8d 76 08          	lea    0x8(%rsi),%r14
    5e64:	48 8d ac 24 d8 00 00 	lea    0xd8(%rsp),%rbp
    5e6b:	00 
    5e6c:	db 7c 24 30          	fstpt  0x30(%rsp)
    5e70:	48 8d 9c 24 d0 00 00 	lea    0xd0(%rsp),%rbx
    5e77:	00 
    5e78:	4c 8d 64 06 10       	lea    0x10(%rsi,%rax,1),%r12
    5e7d:	0f 1f 00             	nopl   (%rax)
    5e80:	48 89 de             	mov    %rbx,%rsi
    5e83:	48 89 ef             	mov    %rbp,%rdi
    5e86:	db 7c 24 10          	fstpt  0x10(%rsp)
    5e8a:	49 83 c6 08          	add    $0x8,%r14
    5e8e:	f2 0f 11 04 24       	movsd  %xmm0,(%rsp)
    5e93:	e8 08 c5 ff ff       	call   23a0 <sincos@plt>
    5e98:	dd 84 24 d8 00 00 00 	fldl   0xd8(%rsp)
    5e9f:	db 6c 24 10          	fldt   0x10(%rsp)
    5ea3:	49 8b 46 f8          	mov    -0x8(%r14),%rax
    5ea7:	f2 0f 10 04 24       	movsd  (%rsp),%xmm0
    5eac:	f2 0f 58 84 24 80 00 	addsd  0x80(%rsp),%xmm0
    5eb3:	00 00 
    5eb5:	d9 c0                	fld    %st(0)
    5eb7:	dc 8c 24 d0 00 00 00 	fmull  0xd0(%rsp)
    5ebe:	db 38                	fstpt  (%rax)
    5ec0:	dc c9                	fmul   %st,%st(1)
    5ec2:	d9 c9                	fxch   %st(1)
    5ec4:	db 78 10             	fstpt  0x10(%rax)
    5ec7:	db 6c 24 20          	fldt   0x20(%rsp)
    5ecb:	db 78 20             	fstpt  0x20(%rax)
    5ece:	db 6c 24 30          	fldt   0x30(%rsp)
    5ed2:	db 78 30             	fstpt  0x30(%rax)
    5ed5:	4d 39 e6             	cmp    %r12,%r14
    5ed8:	75 a6                	jne    5e80 <_Z18compute_spheremeshdjj+0x230>
    5eda:	dd d8                	fstp   %st(0)
    5edc:	eb 0a                	jmp    5ee8 <_Z18compute_spheremeshdjj+0x298>
    5ede:	66 90                	xchg   %ax,%ax
    5ee0:	dd d8                	fstp   %st(0)
    5ee2:	dd d8                	fstp   %st(0)
    5ee4:	0f 1f 40 00          	nopl   0x0(%rax)
    5ee8:	db 6c 24 40          	fldt   0x40(%rsp)
    5eec:	49 83 c5 08          	add    $0x8,%r13
    5ef0:	db ac 24 b0 00 00 00 	fldt   0xb0(%rsp)
    5ef7:	de c1                	faddp  %st,%st(1)
    5ef9:	db 7c 24 40          	fstpt  0x40(%rsp)
    5efd:	4c 39 ac 24 88 00 00 	cmp    %r13,0x88(%rsp)
    5f04:	00 
    5f05:	0f 85 8d fe ff ff    	jne    5d98 <_Z18compute_spheremeshdjj+0x148>
    5f0b:	48 8b ac 24 c8 00 00 	mov    0xc8(%rsp),%rbp
    5f12:	00 
    5f13:	eb 0e                	jmp    5f23 <_Z18compute_spheremeshdjj+0x2d3>
    5f15:	dd d8                	fstp   %st(0)
    5f17:	eb 0a                	jmp    5f23 <_Z18compute_spheremeshdjj+0x2d3>
    5f19:	dd d8                	fstp   %st(0)
    5f1b:	dd d8                	fstp   %st(0)
    5f1d:	dd d8                	fstp   %st(0)
    5f1f:	dd d8                	fstp   %st(0)
    5f21:	dd d8                	fstp   %st(0)
    5f23:	48 81 c4 08 01 00 00 	add    $0x108,%rsp
    5f2a:	48 89 e8             	mov    %rbp,%rax
    5f2d:	5b                   	pop    %rbx
    5f2e:	5d                   	pop    %rbp
    5f2f:	41 5c                	pop    %r12
    5f31:	41 5d                	pop    %r13
    5f33:	41 5e                	pop    %r14
    5f35:	41 5f                	pop    %r15
    5f37:	c3                   	ret
    5f38:	0f 1f 84 00 00 00 00 	nopl   0x0(%rax,%rax,1)
    5f3f:	00 

0000000000005f40 <_Z13compute_cubesdjPPe>:
    5f40:	f3 0f 1e fa          	endbr64
    5f44:	53                   	push   %rbx
    5f45:	89 fb                	mov    %edi,%ebx
    5f47:	0f af ff             	imul   %edi,%edi
    5f4a:	48 89 f2             	mov    %rsi,%rdx
    5f4d:	be 03 00 00 00       	mov    $0x3,%esi
    5f52:	0f af fb             	imul   %ebx,%edi
    5f55:	48 83 ec 20          	sub    $0x20,%rsp
    5f59:	f2 0f 11 04 24       	movsd  %xmm0,(%rsp)
    5f5e:	c1 e7 03             	shl    $0x3,%edi
    5f61:	e8 aa 19 00 00       	call   7910 <_Z10allocate2djjPPe>
    5f66:	66 0f ef c0          	pxor   %xmm0,%xmm0
    5f6a:	f2 0f 10 0c 24       	movsd  (%rsp),%xmm1
    5f6f:	44 8d 04 1b          	lea    (%rbx,%rbx,1),%r8d
    5f73:	49 89 c1             	mov    %rax,%r9
    5f76:	89 d8                	mov    %ebx,%eax
    5f78:	f2 48 0f 2a c0       	cvtsi2sd %rax,%xmm0
    5f7d:	f2 0f 5e c8          	divsd  %xmm0,%xmm1
    5f81:	f2 0f 11 4c 24 18    	movsd  %xmm1,0x18(%rsp)
    5f87:	dd 44 24 18          	fldl   0x18(%rsp)
    5f8b:	d9 c0                	fld    %st(0)
    5f8d:	d9 05 71 40 00 00    	flds   0x4071(%rip)        # a004 <_IO_stdin_used+0x4>
    5f93:	de ca                	fmulp  %st,%st(2)
    5f95:	45 85 c0             	test   %r8d,%r8d
    5f98:	0f 8e 9a 00 00 00    	jle    6038 <_Z13compute_cubesdjPPe+0xf8>
    5f9e:	dd 04 24             	fldl   (%rsp)
    5fa1:	45 8d 58 ff          	lea    -0x1(%r8),%r11d
    5fa5:	31 c0                	xor    %eax,%eax
    5fa7:	31 f6                	xor    %esi,%esi
    5fa9:	4d 8d 51 08          	lea    0x8(%r9),%r10
    5fad:	d9 c2                	fld    %st(2)
    5faf:	90                   	nop
    5fb0:	d9 c0                	fld    %st(0)
    5fb2:	31 ff                	xor    %edi,%edi
    5fb4:	d8 e2                	fsub   %st(2),%st
    5fb6:	d9 c4                	fld    %st(4)
    5fb8:	d9 ca                	fxch   %st(2)
    5fba:	db 3c 24             	fstpt  (%rsp)
    5fbd:	eb 03                	jmp    5fc2 <_Z13compute_cubesdjPPe+0x82>
    5fbf:	90                   	nop
    5fc0:	d9 c9                	fxch   %st(1)
    5fc2:	d9 c1                	fld    %st(1)
    5fc4:	48 63 d6             	movslq %esi,%rdx
    5fc7:	d8 e3                	fsub   %st(3),%st
    5fc9:	49 8d 1c d1          	lea    (%r9,%rdx,8),%rbx
    5fcd:	4c 01 da             	add    %r11,%rdx
    5fd0:	49 8d 0c d2          	lea    (%r10,%rdx,8),%rcx
    5fd4:	d9 c5                	fld    %st(5)
    5fd6:	eb 0e                	jmp    5fe6 <_Z13compute_cubesdjPPe+0xa6>
    5fd8:	0f 1f 84 00 00 00 00 	nopl   0x0(%rax,%rax,1)
    5fdf:	00 
    5fe0:	d9 c9                	fxch   %st(1)
    5fe2:	d9 ca                	fxch   %st(2)
    5fe4:	d9 c9                	fxch   %st(1)
    5fe6:	d9 c0                	fld    %st(0)
    5fe8:	48 8b 13             	mov    (%rbx),%rdx
    5feb:	48 83 c3 08          	add    $0x8,%rbx
    5fef:	d8 e5                	fsub   %st(5),%st
    5ff1:	db 3a                	fstpt  (%rdx)
    5ff3:	d9 c9                	fxch   %st(1)
    5ff5:	d9 c0                	fld    %st(0)
    5ff7:	db 7a 10             	fstpt  0x10(%rdx)
    5ffa:	d9 ca                	fxch   %st(2)
    5ffc:	d9 c0                	fld    %st(0)
    5ffe:	db 7a 20             	fstpt  0x20(%rdx)
    6001:	d9 c9                	fxch   %st(1)
    6003:	d8 c5                	fadd   %st(5),%st
    6005:	48 39 cb             	cmp    %rcx,%rbx
    6008:	75 d6                	jne    5fe0 <_Z13compute_cubesdjPPe+0xa0>
    600a:	dd d8                	fstp   %st(0)
    600c:	dd d9                	fstp   %st(1)
    600e:	d9 c9                	fxch   %st(1)
    6010:	83 c7 01             	add    $0x1,%edi
    6013:	d8 c3                	fadd   %st(3),%st
    6015:	44 01 c6             	add    %r8d,%esi
    6018:	44 39 c7             	cmp    %r8d,%edi
    601b:	75 a3                	jne    5fc0 <_Z13compute_cubesdjPPe+0x80>
    601d:	dd d8                	fstp   %st(0)
    601f:	dd d8                	fstp   %st(0)
    6021:	db 2c 24             	fldt   (%rsp)
    6024:	83 c0 01             	add    $0x1,%eax
    6027:	d8 c2                	fadd   %st(2),%st
    6029:	44 39 c0             	cmp    %r8d,%eax
    602c:	75 82                	jne    5fb0 <_Z13compute_cubesdjPPe+0x70>
    602e:	dd d8                	fstp   %st(0)
    6030:	dd d8                	fstp   %st(0)
    6032:	dd d8                	fstp   %st(0)
    6034:	dd d8                	fstp   %st(0)
    6036:	eb 04                	jmp    603c <_Z13compute_cubesdjPPe+0xfc>
    6038:	dd d8                	fstp   %st(0)
    603a:	dd d8                	fstp   %st(0)
    603c:	48 83 c4 20          	add    $0x20,%rsp
    6040:	4c 89 c8             	mov    %r9,%rax
    6043:	5b                   	pop    %rbx
    6044:	c3                   	ret
    6045:	66 66 2e 0f 1f 84 00 	data16 cs nopw 0x0(%rax,%rax,1)
    604c:	00 00 00 00 

0000000000006050 <_Z8pressureddd>:
    6050:	f3 0f 1e fa          	endbr64
    6054:	f2 0f 58 c1          	addsd  %xmm1,%xmm0
    6058:	f2 0f 58 c2          	addsd  %xmm2,%xmm0
    605c:	c3                   	ret
    605d:	0f 1f 00             	nopl   (%rax)

0000000000006060 <_Z5pgradddd>:
    6060:	f3 0f 1e fa          	endbr64
    6064:	66 0f 28 d8          	movapd %xmm0,%xmm3
    6068:	66 0f 28 e8          	movapd %xmm0,%xmm5
    606c:	66 0f 14 c1          	unpcklpd %xmm1,%xmm0
    6070:	48 89 f8             	mov    %rdi,%rax
    6073:	f2 0f 10 35 85 44 00 	movsd  0x4485(%rip),%xmm6        # a500 <_IO_stdin_used+0x500>
    607a:	00 
    607b:	f2 0f 58 e9          	addsd  %xmm1,%xmm5
    607f:	66 0f 14 cb          	unpcklpd %xmm3,%xmm1
    6083:	66 0f 28 e2          	movapd %xmm2,%xmm4
    6087:	66 0f 14 f6          	unpcklpd %xmm6,%xmm6
    608b:	66 0f 58 c6          	addpd  %xmm6,%xmm0
    608f:	f2 0f 58 e5          	addsd  %xmm5,%xmm4
    6093:	66 0f 58 c1          	addpd  %xmm1,%xmm0
    6097:	66 0f 28 ca          	movapd %xmm2,%xmm1
    609b:	66 0f 14 c9          	unpcklpd %xmm1,%xmm1
    609f:	66 0f 58 c1          	addpd  %xmm1,%xmm0
    60a3:	66 0f 28 cc          	movapd %xmm4,%xmm1
    60a7:	66 0f 14 c9          	unpcklpd %xmm1,%xmm1
    60ab:	66 0f 5c c1          	subpd  %xmm1,%xmm0
    60af:	66 0f 5e c6          	divpd  %xmm6,%xmm0
    60b3:	0f 11 07             	movups %xmm0,(%rdi)
    60b6:	f2 0f 10 05 42 44 00 	movsd  0x4442(%rip),%xmm0        # a500 <_IO_stdin_used+0x500>
    60bd:	00 
    60be:	f2 0f 58 d0          	addsd  %xmm0,%xmm2
    60c2:	f2 0f 58 d5          	addsd  %xmm5,%xmm2
    60c6:	f2 0f 5c d4          	subsd  %xmm4,%xmm2
    60ca:	f2 0f 5e d0          	divsd  %xmm0,%xmm2
    60ce:	f2 0f 11 57 10       	movsd  %xmm2,0x10(%rdi)
    60d3:	c3                   	ret
    60d4:	66 66 2e 0f 1f 84 00 	data16 cs nopw 0x0(%rax,%rax,1)
    60db:	00 00 00 00 
    60df:	90                   	nop

00000000000060e0 <_Z8plaplacedddd>:
    60e0:	f3 0f 1e fa          	endbr64
    60e4:	66 0f 28 f0          	movapd %xmm0,%xmm6
    60e8:	66 0f 28 e8          	movapd %xmm0,%xmm5
    60ec:	f2 0f 5c c3          	subsd  %xmm3,%xmm0
    60f0:	66 0f 28 fe          	movapd %xmm6,%xmm7
    60f4:	f2 0f 58 e9          	addsd  %xmm1,%xmm5
    60f8:	66 0f 28 e2          	movapd %xmm2,%xmm4
    60fc:	f2 0f 58 fb          	addsd  %xmm3,%xmm7
    6100:	f2 0f 58 c1          	addsd  %xmm1,%xmm0
    6104:	f2 0f 58 e5          	addsd  %xmm5,%xmm4
    6108:	f2 0f 58 f9          	addsd  %xmm1,%xmm7
    610c:	f2 0f 58 c2          	addsd  %xmm2,%xmm0
    6110:	f2 0f 58 e4          	addsd  %xmm4,%xmm4
    6114:	f2 0f 58 fa          	addsd  %xmm2,%xmm7
    6118:	f2 0f 58 c7          	addsd  %xmm7,%xmm0
    611c:	66 0f 28 fb          	movapd %xmm3,%xmm7
    6120:	f2 0f 58 f9          	addsd  %xmm1,%xmm7
    6124:	f2 0f 5c cb          	subsd  %xmm3,%xmm1
    6128:	f2 0f 5c c4          	subsd  %xmm4,%xmm0
    612c:	f2 0f 58 fe          	addsd  %xmm6,%xmm7
    6130:	f2 0f 58 ce          	addsd  %xmm6,%xmm1
    6134:	f2 0f 58 fa          	addsd  %xmm2,%xmm7
    6138:	f2 0f 58 ca          	addsd  %xmm2,%xmm1
    613c:	f2 0f 58 c7          	addsd  %xmm7,%xmm0
    6140:	f2 0f 58 c1          	addsd  %xmm1,%xmm0
    6144:	66 0f 28 cb          	movapd %xmm3,%xmm1
    6148:	f2 0f 58 ca          	addsd  %xmm2,%xmm1
    614c:	f2 0f 5c d3          	subsd  %xmm3,%xmm2
    6150:	f2 0f 5c c4          	subsd  %xmm4,%xmm0
    6154:	f2 0f 58 cd          	addsd  %xmm5,%xmm1
    6158:	f2 0f 58 d5          	addsd  %xmm5,%xmm2
    615c:	f2 0f 58 c1          	addsd  %xmm1,%xmm0
    6160:	f2 0f 58 c2          	addsd  %xmm2,%xmm0
    6164:	f2 0f 5c c4          	subsd  %xmm4,%xmm0
    6168:	f2 0f 5e c3          	divsd  %xmm3,%xmm0
    616c:	f2 0f 5e c3          	divsd  %xmm3,%xmm0
    6170:	c3                   	ret
    6171:	66 66 2e 0f 1f 84 00 	data16 cs nopw 0x0(%rax,%rax,1)
    6178:	00 00 00 00 
    617c:	0f 1f 40 00          	nopl   0x0(%rax)

0000000000006180 <_Z9checkcubeddddd>:
    6180:	f3 0f 1e fa          	endbr64
    6184:	f2 0f 59 db          	mulsd  %xmm3,%xmm3
    6188:	f2 0f 59 d2          	mulsd  %xmm2,%xmm2
    618c:	f2 0f 59 e4          	mulsd  %xmm4,%xmm4
    6190:	f2 0f 58 d3          	addsd  %xmm3,%xmm2
    6194:	66 0f 28 d9          	movapd %xmm1,%xmm3
    6198:	f2 0f 58 d4          	addsd  %xmm4,%xmm2
    619c:	f2 0f 51 d2          	sqrtsd %xmm2,%xmm2
    61a0:	f2 0f 58 da          	addsd  %xmm2,%xmm3
    61a4:	66 0f 2f c3          	comisd %xmm3,%xmm0
    61a8:	77 16                	ja     61c0 <_Z9checkcubeddddd+0x40>
    61aa:	f2 0f 5c d1          	subsd  %xmm1,%xmm2
    61ae:	31 c0                	xor    %eax,%eax
    61b0:	66 0f 2f d0          	comisd %xmm0,%xmm2
    61b4:	0f 97 c0             	seta   %al
    61b7:	f7 d8                	neg    %eax
    61b9:	c3                   	ret
    61ba:	66 0f 1f 44 00 00    	nopw   0x0(%rax,%rax,1)
    61c0:	b8 ff ff ff ff       	mov    $0xffffffff,%eax
    61c5:	c3                   	ret
    61c6:	66 2e 0f 1f 84 00 00 	cs nopw 0x0(%rax,%rax,1)
    61cd:	00 00 00 

00000000000061d0 <_Z5gradvdddidPPPPe>:
    61d0:	f3 0f 1e fa          	endbr64
    61d4:	41 57                	push   %r15
    61d6:	41 89 f0             	mov    %esi,%r8d
    61d9:	49 89 ff             	mov    %rdi,%r15
    61dc:	41 b9 03 00 00 00    	mov    $0x3,%r9d
    61e2:	41 56                	push   %r14
    61e4:	f2 44 0f 2c f2       	cvttsd2si %xmm2,%r14d
    61e9:	41 55                	push   %r13
    61eb:	f2 44 0f 2c e9       	cvttsd2si %xmm1,%r13d
    61f0:	41 54                	push   %r12
    61f2:	f2 44 0f 2c e0       	cvttsd2si %xmm0,%r12d
    61f7:	55                   	push   %rbp
    61f8:	89 f5                	mov    %esi,%ebp
    61fa:	53                   	push   %rbx
    61fb:	48 89 d3             	mov    %rdx,%rbx
    61fe:	44 89 f1             	mov    %r14d,%ecx
    6201:	44 89 ea             	mov    %r13d,%edx
    6204:	48 89 df             	mov    %rbx,%rdi
    6207:	44 89 e6             	mov    %r12d,%esi
    620a:	48 83 ec 60          	sub    $0x60,%rsp
    620e:	f2 0f 11 5c 24 10    	movsd  %xmm3,0x10(%rsp)
    6214:	6a 01                	push   $0x1
    6216:	f2 0f 10 44 24 18    	movsd  0x18(%rsp),%xmm0
    621c:	e8 af 1f 00 00       	call   81d0 <_Z7partdifPPPPeiiiidii>
    6221:	41 89 e8             	mov    %ebp,%r8d
    6224:	44 89 f1             	mov    %r14d,%ecx
    6227:	44 89 ea             	mov    %r13d,%edx
    622a:	f2 0f 11 44 24 28    	movsd  %xmm0,0x28(%rsp)
    6230:	f2 0f 10 44 24 18    	movsd  0x18(%rsp),%xmm0
    6236:	44 89 e6             	mov    %r12d,%esi
    6239:	48 89 df             	mov    %rbx,%rdi
    623c:	41 b9 02 00 00 00    	mov    $0x2,%r9d
    6242:	c7 04 24 01 00 00 00 	movl   $0x1,(%rsp)
    6249:	e8 82 1f 00 00       	call   81d0 <_Z7partdifPPPPeiiiidii>
    624e:	41 89 e8             	mov    %ebp,%r8d
    6251:	44 89 f1             	mov    %r14d,%ecx
    6254:	44 89 ea             	mov    %r13d,%edx
    6257:	f2 0f 11 44 24 20    	movsd  %xmm0,0x20(%rsp)
    625d:	f2 0f 10 44 24 18    	movsd  0x18(%rsp),%xmm0
    6263:	44 89 e6             	mov    %r12d,%esi
    6266:	48 89 df             	mov    %rbx,%rdi
    6269:	41 b9 01 00 00 00    	mov    $0x1,%r9d
    626f:	c7 04 24 01 00 00 00 	movl   $0x1,(%rsp)
    6276:	e8 55 1f 00 00       	call   81d0 <_Z7partdifPPPPeiiiidii>
    627b:	41 89 e8             	mov    %ebp,%r8d
    627e:	44 89 f1             	mov    %r14d,%ecx
    6281:	44 89 ea             	mov    %r13d,%edx
    6284:	f2 0f 10 54 24 20    	movsd  0x20(%rsp),%xmm2
    628a:	66 0f 28 e8          	movapd %xmm0,%xmm5
    628e:	44 89 e6             	mov    %r12d,%esi
    6291:	48 89 df             	mov    %rbx,%rdi
    6294:	f2 0f 10 44 24 18    	movsd  0x18(%rsp),%xmm0
    629a:	41 b9 03 00 00 00    	mov    $0x3,%r9d
    62a0:	c7 04 24 02 00 00 00 	movl   $0x2,(%rsp)
    62a7:	66 0f 14 ea          	unpcklpd %xmm2,%xmm5
    62ab:	0f 29 6c 24 50       	movaps %xmm5,0x50(%rsp)
    62b0:	e8 1b 1f 00 00       	call   81d0 <_Z7partdifPPPPeiiiidii>
    62b5:	41 89 e8             	mov    %ebp,%r8d
    62b8:	44 89 f1             	mov    %r14d,%ecx
    62bb:	44 89 ea             	mov    %r13d,%edx
    62be:	f2 0f 11 44 24 20    	movsd  %xmm0,0x20(%rsp)
    62c4:	f2 0f 10 44 24 18    	movsd  0x18(%rsp),%xmm0
    62ca:	44 89 e6             	mov    %r12d,%esi
    62cd:	48 89 df             	mov    %rbx,%rdi
    62d0:	41 b9 02 00 00 00    	mov    $0x2,%r9d
    62d6:	c7 04 24 02 00 00 00 	movl   $0x2,(%rsp)
    62dd:	e8 ee 1e 00 00       	call   81d0 <_Z7partdifPPPPeiiiidii>
    62e2:	41 89 e8             	mov    %ebp,%r8d
    62e5:	44 89 f1             	mov    %r14d,%ecx
    62e8:	44 89 ea             	mov    %r13d,%edx
    62eb:	f2 0f 10 54 24 20    	movsd  0x20(%rsp),%xmm2
    62f1:	66 0f 28 e0          	movapd %xmm0,%xmm4
    62f5:	44 89 e6             	mov    %r12d,%esi
    62f8:	48 89 df             	mov    %rbx,%rdi
    62fb:	f2 0f 10 44 24 18    	movsd  0x18(%rsp),%xmm0
    6301:	41 b9 01 00 00 00    	mov    $0x1,%r9d
    6307:	c7 04 24 02 00 00 00 	movl   $0x2,(%rsp)
    630e:	66 0f 14 e2          	unpcklpd %xmm2,%xmm4
    6312:	0f 29 64 24 40       	movaps %xmm4,0x40(%rsp)
    6317:	e8 b4 1e 00 00       	call   81d0 <_Z7partdifPPPPeiiiidii>
    631c:	41 89 e8             	mov    %ebp,%r8d
    631f:	44 89 f1             	mov    %r14d,%ecx
    6322:	44 89 ea             	mov    %r13d,%edx
    6325:	f2 0f 10 4c 24 28    	movsd  0x28(%rsp),%xmm1
    632b:	44 89 e6             	mov    %r12d,%esi
    632e:	48 89 df             	mov    %rbx,%rdi
    6331:	41 b9 03 00 00 00    	mov    $0x3,%r9d
    6337:	c7 04 24 03 00 00 00 	movl   $0x3,(%rsp)
    633e:	66 0f 14 c8          	unpcklpd %xmm0,%xmm1
    6342:	f2 0f 10 44 24 18    	movsd  0x18(%rsp),%xmm0
    6348:	0f 29 4c 24 30       	movaps %xmm1,0x30(%rsp)
    634d:	e8 7e 1e 00 00       	call   81d0 <_Z7partdifPPPPeiiiidii>
    6352:	41 89 e8             	mov    %ebp,%r8d
    6355:	44 89 f1             	mov    %r14d,%ecx
    6358:	44 89 ea             	mov    %r13d,%edx
    635b:	f2 0f 11 44 24 28    	movsd  %xmm0,0x28(%rsp)
    6361:	f2 0f 10 44 24 18    	movsd  0x18(%rsp),%xmm0
    6367:	44 89 e6             	mov    %r12d,%esi
    636a:	48 89 df             	mov    %rbx,%rdi
    636d:	41 b9 02 00 00 00    	mov    $0x2,%r9d
    6373:	c7 04 24 03 00 00 00 	movl   $0x3,(%rsp)
    637a:	e8 51 1e 00 00       	call   81d0 <_Z7partdifPPPPeiiiidii>
    637f:	41 89 e8             	mov    %ebp,%r8d
    6382:	44 89 f1             	mov    %r14d,%ecx
    6385:	44 89 ea             	mov    %r13d,%edx
    6388:	f2 0f 11 44 24 20    	movsd  %xmm0,0x20(%rsp)
    638e:	f2 0f 10 44 24 18    	movsd  0x18(%rsp),%xmm0
    6394:	44 89 e6             	mov    %r12d,%esi
    6397:	48 89 df             	mov    %rbx,%rdi
    639a:	41 b9 01 00 00 00    	mov    $0x1,%r9d
    63a0:	c7 04 24 03 00 00 00 	movl   $0x3,(%rsp)
    63a7:	e8 24 1e 00 00       	call   81d0 <_Z7partdifPPPPeiiiidii>
    63ac:	f2 0f 10 5c 24 20    	movsd  0x20(%rsp),%xmm3
    63b2:	4c 89 f8             	mov    %r15,%rax
    63b5:	66 0f 28 6c 24 50    	movapd 0x50(%rsp),%xmm5
    63bb:	66 0f 28 4c 24 30    	movapd 0x30(%rsp),%xmm1
    63c1:	66 0f 28 64 24 40    	movapd 0x40(%rsp),%xmm4
    63c7:	f2 0f 10 54 24 28    	movsd  0x28(%rsp),%xmm2
    63cd:	66 0f 14 c3          	unpcklpd %xmm3,%xmm0
    63d1:	41 0f 11 2f          	movups %xmm5,(%r15)
    63d5:	41 0f 11 4f 10       	movups %xmm1,0x10(%r15)
    63da:	41 0f 11 67 20       	movups %xmm4,0x20(%r15)
    63df:	41 0f 11 47 30       	movups %xmm0,0x30(%r15)
    63e4:	f2 41 0f 11 57 40    	movsd  %xmm2,0x40(%r15)
    63ea:	48 83 c4 68          	add    $0x68,%rsp
    63ee:	5b                   	pop    %rbx
    63ef:	5d                   	pop    %rbp
    63f0:	41 5c                	pop    %r12
    63f2:	41 5d                	pop    %r13
    63f4:	41 5e                	pop    %r14
    63f6:	41 5f                	pop    %r15
    63f8:	c3                   	ret
    63f9:	0f 1f 80 00 00 00 00 	nopl   0x0(%rax)

0000000000006400 <_Z5forcedddjjeeidPPeRKSt6vectorIiSaIiEEPS0_>:
    6400:	f3 0f 1e fa          	endbr64
    6404:	41 57                	push   %r15
    6406:	66 0f ef e4          	pxor   %xmm4,%xmm4
    640a:	41 56                	push   %r14
    640c:	41 55                	push   %r13
    640e:	41 54                	push   %r12
    6410:	55                   	push   %rbp
    6411:	53                   	push   %rbx
    6412:	48 81 ec b8 00 00 00 	sub    $0xb8,%rsp
    6419:	64 48 8b 04 25 28 00 	mov    %fs:0x28,%rax
    6420:	00 00 
    6422:	48 89 84 24 a8 00 00 	mov    %rax,0xa8(%rsp)
    6429:	00 
    642a:	31 c0                	xor    %eax,%eax
    642c:	89 0c 24             	mov    %ecx,(%rsp)
    642f:	db 04 24             	fildl  (%rsp)
    6432:	4c 8b a4 24 10 01 00 	mov    0x110(%rsp),%r12
    6439:	00 
    643a:	48 c7 47 10 00 00 00 	movq   $0x0,0x10(%rdi)
    6441:	00 
    6442:	db ac 24 00 01 00 00 	fldt   0x100(%rsp)
    6449:	0f 11 27             	movups %xmm4,(%rdi)
    644c:	de f1                	fdivp  %st,%st(1)
    644e:	d8 0d b0 3b 00 00    	fmuls  0x3bb0(%rip)        # a004 <_IO_stdin_used+0x4>
    6454:	4d 85 e4             	test   %r12,%r12
    6457:	0f 84 a3 01 00 00    	je     6600 <_Z5forcedddjjeeidPPeRKSt6vectorIiSaIiEEPS0_+0x200>
    645d:	49 8b 19             	mov    (%r9),%rbx
    6460:	49 8b 49 08          	mov    0x8(%r9),%rcx
    6464:	48 89 fd             	mov    %rdi,%rbp
    6467:	48 39 d9             	cmp    %rbx,%rcx
    646a:	0f 84 60 01 00 00    	je     65d0 <_Z5forcedddjjeeidPPeRKSt6vectorIiSaIiEEPS0_+0x1d0>
    6470:	89 94 24 8c 00 00 00 	mov    %edx,0x8c(%rsp)
    6477:	4d 89 c7             	mov    %r8,%r15
    647a:	41 89 f6             	mov    %esi,%r14d
    647d:	49 89 cd             	mov    %rcx,%r13
    6480:	db ac 24 f0 00 00 00 	fldt   0xf0(%rsp)
    6487:	66 45 0f ef c9       	pxor   %xmm9,%xmm9
    648c:	66 45 0f ef c0       	pxor   %xmm8,%xmm8
    6491:	f2 0f 11 44 24 70    	movsd  %xmm0,0x70(%rsp)
    6497:	48 8d 84 24 90 00 00 	lea    0x90(%rsp),%rax
    649e:	00 
    649f:	f2 0f 11 4c 24 78    	movsd  %xmm1,0x78(%rsp)
    64a5:	66 0f 28 fb          	movapd %xmm3,%xmm7
    64a9:	48 89 44 24 68       	mov    %rax,0x68(%rsp)
    64ae:	4c 89 e0             	mov    %r12,%rax
    64b1:	49 89 fc             	mov    %rdi,%r12
    64b4:	dd 5c 24 60          	fstpl  0x60(%rsp)
    64b8:	48 89 c5             	mov    %rax,%rbp
    64bb:	f2 0f 11 94 24 80 00 	movsd  %xmm2,0x80(%rsp)
    64c2:	00 00 
    64c4:	0f 1f 40 00          	nopl   0x0(%rax)
    64c8:	48 63 13             	movslq (%rbx),%rdx
    64cb:	44 0f 29 4c 24 40    	movaps %xmm9,0x40(%rsp)
    64d1:	48 83 ec 08          	sub    $0x8,%rsp
    64d5:	48 89 e9             	mov    %rbp,%rcx
    64d8:	f2 44 0f 11 44 24 60 	movsd  %xmm8,0x60(%rsp)
    64df:	48 83 c3 04          	add    $0x4,%rbx
    64e3:	49 8b 14 d7          	mov    (%r15,%rdx,8),%rdx
    64e7:	db 2a                	fldt   (%rdx)
    64e9:	db 6a 10             	fldt   0x10(%rdx)
    64ec:	db 6a 20             	fldt   0x20(%rdx)
    64ef:	44 89 f2             	mov    %r14d,%edx
    64f2:	d9 c0                	fld    %st(0)
    64f4:	d8 c4                	fadd   %st(4),%st
    64f6:	dd 5c 24 08          	fstpl  0x8(%rsp)
    64fa:	d8 e3                	fsub   %st(3),%st
    64fc:	dd 5c 24 10          	fstpl  0x10(%rsp)
    6500:	d9 c0                	fld    %st(0)
    6502:	d8 c3                	fadd   %st(3),%st
    6504:	dd 5c 24 18          	fstpl  0x18(%rsp)
    6508:	d8 e2                	fsub   %st(2),%st
    650a:	dd 5c 24 20          	fstpl  0x20(%rsp)
    650e:	d9 c0                	fld    %st(0)
    6510:	d8 c2                	fadd   %st(2),%st
    6512:	dd 5c 24 28          	fstpl  0x28(%rsp)
    6516:	d8 e1                	fsub   %st(1),%st
    6518:	d9 c9                	fxch   %st(1)
    651a:	db 7c 24 38          	fstpt  0x38(%rsp)
    651e:	dd 5c 24 30          	fstpl  0x30(%rsp)
    6522:	ff b4 24 88 00 00 00 	push   0x88(%rsp)
    6529:	ff b4 24 88 00 00 00 	push   0x88(%rsp)
    6530:	ff b4 24 88 00 00 00 	push   0x88(%rsp)
    6537:	8b b4 24 ac 00 00 00 	mov    0xac(%rsp),%esi
    653e:	f2 0f 10 74 24 20    	movsd  0x20(%rsp),%xmm6
    6544:	f2 0f 10 6c 24 28    	movsd  0x28(%rsp),%xmm5
    654a:	f2 0f 10 64 24 30    	movsd  0x30(%rsp),%xmm4
    6550:	f2 0f 10 5c 24 38    	movsd  0x38(%rsp),%xmm3
    6556:	f2 0f 11 7c 24 70    	movsd  %xmm7,0x70(%rsp)
    655c:	f2 0f 10 54 24 40    	movsd  0x40(%rsp),%xmm2
    6562:	f2 0f 10 4c 24 48    	movsd  0x48(%rsp),%xmm1
    6568:	f2 0f 10 84 24 80 00 	movsd  0x80(%rsp),%xmm0
    656f:	00 00 
    6571:	48 8b bc 24 88 00 00 	mov    0x88(%rsp),%rdi
    6578:	00 
    6579:	e8 b2 c5 ff ff       	call   2b30 <_ZL6forceldddddddjjPPPedddd>
    657e:	f2 44 0f 10 44 24 78 	movsd  0x78(%rsp),%xmm8
    6585:	66 44 0f 28 4c 24 60 	movapd 0x60(%rsp),%xmm9
    658c:	f2 44 0f 58 84 24 c0 	addsd  0xc0(%rsp),%xmm8
    6593:	00 00 00 
    6596:	66 44 0f 58 8c 24 b0 	addpd  0xb0(%rsp),%xmm9
    659d:	00 00 00 
    65a0:	48 83 c4 20          	add    $0x20,%rsp
    65a4:	49 39 dd             	cmp    %rbx,%r13
    65a7:	f2 0f 10 7c 24 50    	movsd  0x50(%rsp),%xmm7
    65ad:	db 6c 24 30          	fldt   0x30(%rsp)
    65b1:	45 0f 11 0c 24       	movups %xmm9,(%r12)
    65b6:	f2 45 0f 11 44 24 10 	movsd  %xmm8,0x10(%r12)
    65bd:	0f 85 05 ff ff ff    	jne    64c8 <_Z5forcedddjjeeidPPeRKSt6vectorIiSaIiEEPS0_+0xc8>
    65c3:	dd d8                	fstp   %st(0)
    65c5:	4c 89 e5             	mov    %r12,%rbp
    65c8:	eb 0e                	jmp    65d8 <_Z5forcedddjjeeidPPeRKSt6vectorIiSaIiEEPS0_+0x1d8>
    65ca:	66 0f 1f 44 00 00    	nopw   0x0(%rax,%rax,1)
    65d0:	dd d8                	fstp   %st(0)
    65d2:	66 0f 1f 44 00 00    	nopw   0x0(%rax,%rax,1)
    65d8:	48 8b 84 24 a8 00 00 	mov    0xa8(%rsp),%rax
    65df:	00 
    65e0:	64 48 2b 04 25 28 00 	sub    %fs:0x28,%rax
    65e7:	00 00 
    65e9:	75 36                	jne    6621 <_Z5forcedddjjeeidPPeRKSt6vectorIiSaIiEEPS0_+0x221>
    65eb:	48 81 c4 b8 00 00 00 	add    $0xb8,%rsp
    65f2:	48 89 e8             	mov    %rbp,%rax
    65f5:	5b                   	pop    %rbx
    65f6:	5d                   	pop    %rbp
    65f7:	41 5c                	pop    %r12
    65f9:	41 5d                	pop    %r13
    65fb:	41 5e                	pop    %r14
    65fd:	41 5f                	pop    %r15
    65ff:	c3                   	ret
    6600:	dd d8                	fstp   %st(0)
    6602:	48 8d 0d 0f 3a 00 00 	lea    0x3a0f(%rip),%rcx        # a018 <_IO_stdin_used+0x18>
    6609:	ba 6a 01 00 00       	mov    $0x16a,%edx
    660e:	48 8d 35 0b 3d 00 00 	lea    0x3d0b(%rip),%rsi        # a320 <_IO_stdin_used+0x320>
    6615:	48 8d 3d 11 3d 00 00 	lea    0x3d11(%rip),%rdi        # a32d <_IO_stdin_used+0x32d>
    661c:	e8 9f bd ff ff       	call   23c0 <__assert_fail@plt>
    6621:	e8 4a be ff ff       	call   2470 <__stack_chk_fail@plt>
    6626:	66 2e 0f 1f 84 00 00 	cs nopw 0x0(%rax,%rax,1)
    662d:	00 00 00 

0000000000006630 <_Z6torquedddjjeeidPPeRKSt6vectorIiSaIiEEPS0_>:
    6630:	f3 0f 1e fa          	endbr64
    6634:	41 57                	push   %r15
    6636:	66 0f ef e4          	pxor   %xmm4,%xmm4
    663a:	41 56                	push   %r14
    663c:	41 55                	push   %r13
    663e:	41 54                	push   %r12
    6640:	55                   	push   %rbp
    6641:	53                   	push   %rbx
    6642:	48 81 ec b8 00 00 00 	sub    $0xb8,%rsp
    6649:	64 48 8b 04 25 28 00 	mov    %fs:0x28,%rax
    6650:	00 00 
    6652:	48 89 84 24 a8 00 00 	mov    %rax,0xa8(%rsp)
    6659:	00 
    665a:	31 c0                	xor    %eax,%eax
    665c:	89 0c 24             	mov    %ecx,(%rsp)
    665f:	db 04 24             	fildl  (%rsp)
    6662:	4c 8b a4 24 10 01 00 	mov    0x110(%rsp),%r12
    6669:	00 
    666a:	48 c7 47 10 00 00 00 	movq   $0x0,0x10(%rdi)
    6671:	00 
    6672:	db ac 24 00 01 00 00 	fldt   0x100(%rsp)
    6679:	0f 11 27             	movups %xmm4,(%rdi)
    667c:	de f1                	fdivp  %st,%st(1)
    667e:	d8 0d 80 39 00 00    	fmuls  0x3980(%rip)        # a004 <_IO_stdin_used+0x4>
    6684:	4d 85 e4             	test   %r12,%r12
    6687:	0f 84 a3 01 00 00    	je     6830 <_Z6torquedddjjeeidPPeRKSt6vectorIiSaIiEEPS0_+0x200>
    668d:	49 8b 19             	mov    (%r9),%rbx
    6690:	49 8b 49 08          	mov    0x8(%r9),%rcx
    6694:	48 89 fd             	mov    %rdi,%rbp
    6697:	48 39 d9             	cmp    %rbx,%rcx
    669a:	0f 84 60 01 00 00    	je     6800 <_Z6torquedddjjeeidPPeRKSt6vectorIiSaIiEEPS0_+0x1d0>
    66a0:	89 94 24 8c 00 00 00 	mov    %edx,0x8c(%rsp)
    66a7:	4d 89 c7             	mov    %r8,%r15
    66aa:	41 89 f6             	mov    %esi,%r14d
    66ad:	49 89 cd             	mov    %rcx,%r13
    66b0:	db ac 24 f0 00 00 00 	fldt   0xf0(%rsp)
    66b7:	66 45 0f ef c9       	pxor   %xmm9,%xmm9
    66bc:	66 45 0f ef c0       	pxor   %xmm8,%xmm8
    66c1:	f2 0f 11 44 24 70    	movsd  %xmm0,0x70(%rsp)
    66c7:	48 8d 84 24 90 00 00 	lea    0x90(%rsp),%rax
    66ce:	00 
    66cf:	f2 0f 11 4c 24 78    	movsd  %xmm1,0x78(%rsp)
    66d5:	66 0f 28 fb          	movapd %xmm3,%xmm7
    66d9:	48 89 44 24 68       	mov    %rax,0x68(%rsp)
    66de:	4c 89 e0             	mov    %r12,%rax
    66e1:	49 89 fc             	mov    %rdi,%r12
    66e4:	dd 5c 24 60          	fstpl  0x60(%rsp)
    66e8:	48 89 c5             	mov    %rax,%rbp
    66eb:	f2 0f 11 94 24 80 00 	movsd  %xmm2,0x80(%rsp)
    66f2:	00 00 
    66f4:	0f 1f 40 00          	nopl   0x0(%rax)
    66f8:	48 63 13             	movslq (%rbx),%rdx
    66fb:	44 0f 29 4c 24 40    	movaps %xmm9,0x40(%rsp)
    6701:	48 83 ec 08          	sub    $0x8,%rsp
    6705:	48 89 e9             	mov    %rbp,%rcx
    6708:	f2 44 0f 11 44 24 60 	movsd  %xmm8,0x60(%rsp)
    670f:	48 83 c3 04          	add    $0x4,%rbx
    6713:	49 8b 14 d7          	mov    (%r15,%rdx,8),%rdx
    6717:	db 2a                	fldt   (%rdx)
    6719:	db 6a 10             	fldt   0x10(%rdx)
    671c:	db 6a 20             	fldt   0x20(%rdx)
    671f:	44 89 f2             	mov    %r14d,%edx
    6722:	d9 c0                	fld    %st(0)
    6724:	d8 c4                	fadd   %st(4),%st
    6726:	dd 5c 24 08          	fstpl  0x8(%rsp)
    672a:	d8 e3                	fsub   %st(3),%st
    672c:	dd 5c 24 10          	fstpl  0x10(%rsp)
    6730:	d9 c0                	fld    %st(0)
    6732:	d8 c3                	fadd   %st(3),%st
    6734:	dd 5c 24 18          	fstpl  0x18(%rsp)
    6738:	d8 e2                	fsub   %st(2),%st
    673a:	dd 5c 24 20          	fstpl  0x20(%rsp)
    673e:	d9 c0                	fld    %st(0)
    6740:	d8 c2                	fadd   %st(2),%st
    6742:	dd 5c 24 28          	fstpl  0x28(%rsp)
    6746:	d8 e1                	fsub   %st(1),%st
    6748:	d9 c9                	fxch   %st(1)
    674a:	db 7c 24 38          	fstpt  0x38(%rsp)
    674e:	dd 5c 24 30          	fstpl  0x30(%rsp)
    6752:	ff b4 24 88 00 00 00 	push   0x88(%rsp)
    6759:	ff b4 24 88 00 00 00 	push   0x88(%rsp)
    6760:	ff b4 24 88 00 00 00 	push   0x88(%rsp)
    6767:	8b b4 24 ac 00 00 00 	mov    0xac(%rsp),%esi
    676e:	f2 0f 10 74 24 20    	movsd  0x20(%rsp),%xmm6
    6774:	f2 0f 10 6c 24 28    	movsd  0x28(%rsp),%xmm5
    677a:	f2 0f 10 64 24 30    	movsd  0x30(%rsp),%xmm4
    6780:	f2 0f 10 5c 24 38    	movsd  0x38(%rsp),%xmm3
    6786:	f2 0f 11 7c 24 70    	movsd  %xmm7,0x70(%rsp)
    678c:	f2 0f 10 54 24 40    	movsd  0x40(%rsp),%xmm2
    6792:	f2 0f 10 4c 24 48    	movsd  0x48(%rsp),%xmm1
    6798:	f2 0f 10 84 24 80 00 	movsd  0x80(%rsp),%xmm0
    679f:	00 00 
    67a1:	48 8b bc 24 88 00 00 	mov    0x88(%rsp),%rdi
    67a8:	00 
    67a9:	e8 52 db ff ff       	call   4300 <_ZL7torqueldddddddjjPPPedddd>
    67ae:	f2 44 0f 10 44 24 78 	movsd  0x78(%rsp),%xmm8
    67b5:	66 44 0f 28 4c 24 60 	movapd 0x60(%rsp),%xmm9
    67bc:	f2 44 0f 58 84 24 c0 	addsd  0xc0(%rsp),%xmm8
    67c3:	00 00 00 
    67c6:	66 44 0f 58 8c 24 b0 	addpd  0xb0(%rsp),%xmm9
    67cd:	00 00 00 
    67d0:	48 83 c4 20          	add    $0x20,%rsp
    67d4:	49 39 dd             	cmp    %rbx,%r13
    67d7:	f2 0f 10 7c 24 50    	movsd  0x50(%rsp),%xmm7
    67dd:	db 6c 24 30          	fldt   0x30(%rsp)
    67e1:	45 0f 11 0c 24       	movups %xmm9,(%r12)
    67e6:	f2 45 0f 11 44 24 10 	movsd  %xmm8,0x10(%r12)
    67ed:	0f 85 05 ff ff ff    	jne    66f8 <_Z6torquedddjjeeidPPeRKSt6vectorIiSaIiEEPS0_+0xc8>
    67f3:	dd d8                	fstp   %st(0)
    67f5:	4c 89 e5             	mov    %r12,%rbp
    67f8:	eb 0e                	jmp    6808 <_Z6torquedddjjeeidPPeRKSt6vectorIiSaIiEEPS0_+0x1d8>
    67fa:	66 0f 1f 44 00 00    	nopw   0x0(%rax,%rax,1)
    6800:	dd d8                	fstp   %st(0)
    6802:	66 0f 1f 44 00 00    	nopw   0x0(%rax,%rax,1)
    6808:	48 8b 84 24 a8 00 00 	mov    0xa8(%rsp),%rax
    680f:	00 
    6810:	64 48 2b 04 25 28 00 	sub    %fs:0x28,%rax
    6817:	00 00 
    6819:	75 36                	jne    6851 <_Z6torquedddjjeeidPPeRKSt6vectorIiSaIiEEPS0_+0x221>
    681b:	48 81 c4 b8 00 00 00 	add    $0xb8,%rsp
    6822:	48 89 e8             	mov    %rbp,%rax
    6825:	5b                   	pop    %rbx
    6826:	5d                   	pop    %rbp
    6827:	41 5c                	pop    %r12
    6829:	41 5d                	pop    %r13
    682b:	41 5e                	pop    %r14
    682d:	41 5f                	pop    %r15
    682f:	c3                   	ret
    6830:	dd d8                	fstp   %st(0)
    6832:	48 8d 0d 7f 38 00 00 	lea    0x387f(%rip),%rcx        # a0b8 <_IO_stdin_used+0xb8>
    6839:	ba 82 01 00 00       	mov    $0x182,%edx
    683e:	48 8d 35 db 3a 00 00 	lea    0x3adb(%rip),%rsi        # a320 <_IO_stdin_used+0x320>
    6845:	48 8d 3d e1 3a 00 00 	lea    0x3ae1(%rip),%rdi        # a32d <_IO_stdin_used+0x32d>
    684c:	e8 6f bb ff ff       	call   23c0 <__assert_fail@plt>
    6851:	e8 1a bc ff ff       	call   2470 <__stack_chk_fail@plt>
    6856:	66 2e 0f 1f 84 00 00 	cs nopw 0x0(%rax,%rax,1)
    685d:	00 00 00 

0000000000006860 <_Z7blearghv>:
    6860:	f3 0f 1e fa          	endbr64
    6864:	55                   	push   %rbp
    6865:	ba 5a 00 00 00       	mov    $0x5a,%edx
    686a:	48 8d 35 ef 38 00 00 	lea    0x38ef(%rip),%rsi        # a160 <_IO_stdin_used+0x160>
    6871:	48 8d 3d c8 57 00 00 	lea    0x57c8(%rip),%rdi        # c040 <_ZSt4cout@GLIBCXX_3.4>
    6878:	48 89 e5             	mov    %rsp,%rbp
    687b:	41 57                	push   %r15
    687d:	41 56                	push   %r14
    687f:	41 55                	push   %r13
    6881:	41 54                	push   %r12
    6883:	53                   	push   %rbx
    6884:	48 8d 1d d5 58 00 00 	lea    0x58d5(%rip),%rbx        # c160 <_ZSt3cin@GLIBCXX_3.4>
    688b:	48 81 ec d8 01 00 00 	sub    $0x1d8,%rsp
    6892:	64 48 8b 04 25 28 00 	mov    %fs:0x28,%rax
    6899:	00 00 
    689b:	48 89 45 c8          	mov    %rax,-0x38(%rbp)
    689f:	31 c0                	xor    %eax,%eax
    68a1:	e8 ea bb ff ff       	call   2490 <_ZSt16__ostream_insertIcSt11char_traitsIcEERSt13basic_ostreamIT_T0_ES6_PKS3_l@plt>
    68a6:	48 89 df             	mov    %rbx,%rdi
    68a9:	48 8d b5 00 ff ff ff 	lea    -0x100(%rbp),%rsi
    68b0:	e8 1b bb ff ff       	call   23d0 <_ZNSi10_M_extractIdEERSiRT_@plt>
    68b5:	48 8d b5 08 ff ff ff 	lea    -0xf8(%rbp),%rsi
    68bc:	48 89 c7             	mov    %rax,%rdi
    68bf:	e8 0c bb ff ff       	call   23d0 <_ZNSi10_M_extractIdEERSiRT_@plt>
    68c4:	48 8d b5 10 ff ff ff 	lea    -0xf0(%rbp),%rsi
    68cb:	48 89 c7             	mov    %rax,%rdi
    68ce:	e8 fd ba ff ff       	call   23d0 <_ZNSi10_M_extractIdEERSiRT_@plt>
    68d3:	ba 41 00 00 00       	mov    $0x41,%edx
    68d8:	48 8d 35 e1 38 00 00 	lea    0x38e1(%rip),%rsi        # a1c0 <_IO_stdin_used+0x1c0>
    68df:	48 8d 3d 5a 57 00 00 	lea    0x575a(%rip),%rdi        # c040 <_ZSt4cout@GLIBCXX_3.4>
    68e6:	e8 a5 bb ff ff       	call   2490 <_ZSt16__ostream_insertIcSt11char_traitsIcEERSt13basic_ostreamIT_T0_ES6_PKS3_l@plt>
    68eb:	48 89 df             	mov    %rbx,%rdi
    68ee:	48 8d b5 f4 fe ff ff 	lea    -0x10c(%rbp),%rsi
    68f5:	e8 b6 ba ff ff       	call   23b0 <_ZNSirsERi@plt>
    68fa:	ba 40 00 00 00       	mov    $0x40,%edx
    68ff:	48 8d 35 02 39 00 00 	lea    0x3902(%rip),%rsi        # a208 <_IO_stdin_used+0x208>
    6906:	48 8d 3d 33 57 00 00 	lea    0x5733(%rip),%rdi        # c040 <_ZSt4cout@GLIBCXX_3.4>
    690d:	e8 7e bb ff ff       	call   2490 <_ZSt16__ostream_insertIcSt11char_traitsIcEERSt13basic_ostreamIT_T0_ES6_PKS3_l@plt>
    6912:	48 89 df             	mov    %rbx,%rdi
    6915:	48 8d b5 f8 fe ff ff 	lea    -0x108(%rbp),%rsi
    691c:	e8 8f ba ff ff       	call   23b0 <_ZNSirsERi@plt>
    6921:	ba 21 00 00 00       	mov    $0x21,%edx
    6926:	48 8d 35 23 39 00 00 	lea    0x3923(%rip),%rsi        # a250 <_IO_stdin_used+0x250>
    692d:	48 8d 3d 0c 57 00 00 	lea    0x570c(%rip),%rdi        # c040 <_ZSt4cout@GLIBCXX_3.4>
    6934:	e8 57 bb ff ff       	call   2490 <_ZSt16__ostream_insertIcSt11char_traitsIcEERSt13basic_ostreamIT_T0_ES6_PKS3_l@plt>
    6939:	48 89 df             	mov    %rbx,%rdi
    693c:	48 8d b5 30 ff ff ff 	lea    -0xd0(%rbp),%rsi
    6943:	e8 98 bb ff ff       	call   24e0 <_ZNSi10_M_extractIeEERSiRT_@plt>
    6948:	ba a7 00 00 00       	mov    $0xa7,%edx
    694d:	48 8d 35 24 39 00 00 	lea    0x3924(%rip),%rsi        # a278 <_IO_stdin_used+0x278>
    6954:	48 8d 3d e5 56 00 00 	lea    0x56e5(%rip),%rdi        # c040 <_ZSt4cout@GLIBCXX_3.4>
    695b:	e8 30 bb ff ff       	call   2490 <_ZSt16__ostream_insertIcSt11char_traitsIcEERSt13basic_ostreamIT_T0_ES6_PKS3_l@plt>
    6960:	48 89 df             	mov    %rbx,%rdi
    6963:	48 8d b5 fc fe ff ff 	lea    -0x104(%rbp),%rsi
    696a:	e8 41 ba ff ff       	call   23b0 <_ZNSirsERi@plt>
    696f:	ba 15 00 00 00       	mov    $0x15,%edx
    6974:	48 8d 35 c8 39 00 00 	lea    0x39c8(%rip),%rsi        # a343 <_IO_stdin_used+0x343>
    697b:	48 8d 3d be 56 00 00 	lea    0x56be(%rip),%rdi        # c040 <_ZSt4cout@GLIBCXX_3.4>
    6982:	e8 09 bb ff ff       	call   2490 <_ZSt16__ostream_insertIcSt11char_traitsIcEERSt13basic_ostreamIT_T0_ES6_PKS3_l@plt>
    6987:	48 89 df             	mov    %rbx,%rdi
    698a:	48 8d b5 18 ff ff ff 	lea    -0xe8(%rbp),%rsi
    6991:	e8 3a ba ff ff       	call   23d0 <_ZNSi10_M_extractIdEERSiRT_@plt>
    6996:	ba 11 00 00 00       	mov    $0x11,%edx
    699b:	48 8d 35 b7 39 00 00 	lea    0x39b7(%rip),%rsi        # a359 <_IO_stdin_used+0x359>
    69a2:	48 8d 3d 97 56 00 00 	lea    0x5697(%rip),%rdi        # c040 <_ZSt4cout@GLIBCXX_3.4>
    69a9:	e8 e2 ba ff ff       	call   2490 <_ZSt16__ostream_insertIcSt11char_traitsIcEERSt13basic_ostreamIT_T0_ES6_PKS3_l@plt>
    69ae:	48 89 df             	mov    %rbx,%rdi
    69b1:	48 8d b5 20 ff ff ff 	lea    -0xe0(%rbp),%rsi
    69b8:	e8 13 ba ff ff       	call   23d0 <_ZNSi10_M_extractIdEERSiRT_@plt>
    69bd:	ba 18 00 00 00       	mov    $0x18,%edx
    69c2:	48 8d 35 a2 39 00 00 	lea    0x39a2(%rip),%rsi        # a36b <_IO_stdin_used+0x36b>
    69c9:	48 8d 3d 70 56 00 00 	lea    0x5670(%rip),%rdi        # c040 <_ZSt4cout@GLIBCXX_3.4>
    69d0:	e8 bb ba ff ff       	call   2490 <_ZSt16__ostream_insertIcSt11char_traitsIcEERSt13basic_ostreamIT_T0_ES6_PKS3_l@plt>
    69d5:	48 89 df             	mov    %rbx,%rdi
    69d8:	48 8d b5 28 ff ff ff 	lea    -0xd8(%rbp),%rsi
    69df:	e8 ec b9 ff ff       	call   23d0 <_ZNSi10_M_extractIdEERSiRT_@plt>
    69e4:	8b 9d fc fe ff ff    	mov    -0x104(%rbp),%ebx
    69ea:	db ad 30 ff ff ff    	fldt   -0xd0(%rbp)
    69f0:	31 d2                	xor    %edx,%edx
    69f2:	be 03 00 00 00       	mov    $0x3,%esi
    69f7:	f2 0f 10 85 28 ff ff 	movsd  -0xd8(%rbp),%xmm0
    69fe:	ff 
    69ff:	f2 0f 5e 05 01 3b 00 	divsd  0x3b01(%rip),%xmm0        # a508 <_IO_stdin_used+0x508>
    6a06:	00 
    6a07:	f2 0f 11 85 80 fe ff 	movsd  %xmm0,-0x180(%rbp)
    6a0e:	ff 
    6a0f:	89 df                	mov    %ebx,%edi
    6a11:	0f af fb             	imul   %ebx,%edi
