
cubyboxy:     file format elf64-x86-64


Disassembly of section .init:

0000000000002000 <_init>:
    2000:	f3 0f 1e fa          	endbr64
    2004:	48 83 ec 08          	sub    $0x8,%rsp
    2008:	48 8b 05 e1 9f 00 00 	mov    0x9fe1(%rip),%rax        # bff0 <__gmon_start__@Base>
    200f:	48 85 c0             	test   %rax,%rax
    2012:	74 02                	je     2016 <_init+0x16>
    2014:	ff d0                	call   *%rax
    2016:	48 83 c4 08          	add    $0x8,%rsp
    201a:	c3                   	ret

Disassembly of section .plt:

0000000000002020 <.plt>:
    2020:	ff 35 3a 9e 00 00    	push   0x9e3a(%rip)        # be60 <_GLOBAL_OFFSET_TABLE_+0x8>
    2026:	ff 25 3c 9e 00 00    	jmp    *0x9e3c(%rip)        # be68 <_GLOBAL_OFFSET_TABLE_+0x10>
    202c:	0f 1f 40 00          	nopl   0x0(%rax)
    2030:	f3 0f 1e fa          	endbr64
    2034:	68 00 00 00 00       	push   $0x0
    2039:	e9 e2 ff ff ff       	jmp    2020 <_init+0x20>
    203e:	66 90                	xchg   %ax,%ax
    2040:	f3 0f 1e fa          	endbr64
    2044:	68 01 00 00 00       	push   $0x1
    2049:	e9 d2 ff ff ff       	jmp    2020 <_init+0x20>
    204e:	66 90                	xchg   %ax,%ax
    2050:	f3 0f 1e fa          	endbr64
    2054:	68 02 00 00 00       	push   $0x2
    2059:	e9 c2 ff ff ff       	jmp    2020 <_init+0x20>
    205e:	66 90                	xchg   %ax,%ax
    2060:	f3 0f 1e fa          	endbr64
    2064:	68 03 00 00 00       	push   $0x3
    2069:	e9 b2 ff ff ff       	jmp    2020 <_init+0x20>
    206e:	66 90                	xchg   %ax,%ax
    2070:	f3 0f 1e fa          	endbr64
    2074:	68 04 00 00 00       	push   $0x4
    2079:	e9 a2 ff ff ff       	jmp    2020 <_init+0x20>
    207e:	66 90                	xchg   %ax,%ax
    2080:	f3 0f 1e fa          	endbr64
    2084:	68 05 00 00 00       	push   $0x5
    2089:	e9 92 ff ff ff       	jmp    2020 <_init+0x20>
    208e:	66 90                	xchg   %ax,%ax
    2090:	f3 0f 1e fa          	endbr64
    2094:	68 06 00 00 00       	push   $0x6
    2099:	e9 82 ff ff ff       	jmp    2020 <_init+0x20>
    209e:	66 90                	xchg   %ax,%ax
    20a0:	f3 0f 1e fa          	endbr64
    20a4:	68 07 00 00 00       	push   $0x7
    20a9:	e9 72 ff ff ff       	jmp    2020 <_init+0x20>
    20ae:	66 90                	xchg   %ax,%ax
    20b0:	f3 0f 1e fa          	endbr64
    20b4:	68 08 00 00 00       	push   $0x8
    20b9:	e9 62 ff ff ff       	jmp    2020 <_init+0x20>
    20be:	66 90                	xchg   %ax,%ax
    20c0:	f3 0f 1e fa          	endbr64
    20c4:	68 09 00 00 00       	push   $0x9
    20c9:	e9 52 ff ff ff       	jmp    2020 <_init+0x20>
    20ce:	66 90                	xchg   %ax,%ax
    20d0:	f3 0f 1e fa          	endbr64
    20d4:	68 0a 00 00 00       	push   $0xa
    20d9:	e9 42 ff ff ff       	jmp    2020 <_init+0x20>
    20de:	66 90                	xchg   %ax,%ax
    20e0:	f3 0f 1e fa          	endbr64
    20e4:	68 0b 00 00 00       	push   $0xb
    20e9:	e9 32 ff ff ff       	jmp    2020 <_init+0x20>
    20ee:	66 90                	xchg   %ax,%ax
    20f0:	f3 0f 1e fa          	endbr64
    20f4:	68 0c 00 00 00       	push   $0xc
    20f9:	e9 22 ff ff ff       	jmp    2020 <_init+0x20>
    20fe:	66 90                	xchg   %ax,%ax
    2100:	f3 0f 1e fa          	endbr64
    2104:	68 0d 00 00 00       	push   $0xd
    2109:	e9 12 ff ff ff       	jmp    2020 <_init+0x20>
    210e:	66 90                	xchg   %ax,%ax
    2110:	f3 0f 1e fa          	endbr64
    2114:	68 0e 00 00 00       	push   $0xe
    2119:	e9 02 ff ff ff       	jmp    2020 <_init+0x20>
    211e:	66 90                	xchg   %ax,%ax
    2120:	f3 0f 1e fa          	endbr64
    2124:	68 0f 00 00 00       	push   $0xf
    2129:	e9 f2 fe ff ff       	jmp    2020 <_init+0x20>
    212e:	66 90                	xchg   %ax,%ax
    2130:	f3 0f 1e fa          	endbr64
    2134:	68 10 00 00 00       	push   $0x10
    2139:	e9 e2 fe ff ff       	jmp    2020 <_init+0x20>
    213e:	66 90                	xchg   %ax,%ax
    2140:	f3 0f 1e fa          	endbr64
    2144:	68 11 00 00 00       	push   $0x11
    2149:	e9 d2 fe ff ff       	jmp    2020 <_init+0x20>
    214e:	66 90                	xchg   %ax,%ax
    2150:	f3 0f 1e fa          	endbr64
    2154:	68 12 00 00 00       	push   $0x12
    2159:	e9 c2 fe ff ff       	jmp    2020 <_init+0x20>
    215e:	66 90                	xchg   %ax,%ax
    2160:	f3 0f 1e fa          	endbr64
    2164:	68 13 00 00 00       	push   $0x13
    2169:	e9 b2 fe ff ff       	jmp    2020 <_init+0x20>
    216e:	66 90                	xchg   %ax,%ax
    2170:	f3 0f 1e fa          	endbr64
    2174:	68 14 00 00 00       	push   $0x14
    2179:	e9 a2 fe ff ff       	jmp    2020 <_init+0x20>
    217e:	66 90                	xchg   %ax,%ax
    2180:	f3 0f 1e fa          	endbr64
    2184:	68 15 00 00 00       	push   $0x15
    2189:	e9 92 fe ff ff       	jmp    2020 <_init+0x20>
    218e:	66 90                	xchg   %ax,%ax
    2190:	f3 0f 1e fa          	endbr64
    2194:	68 16 00 00 00       	push   $0x16
    2199:	e9 82 fe ff ff       	jmp    2020 <_init+0x20>
    219e:	66 90                	xchg   %ax,%ax
    21a0:	f3 0f 1e fa          	endbr64
    21a4:	68 17 00 00 00       	push   $0x17
    21a9:	e9 72 fe ff ff       	jmp    2020 <_init+0x20>
    21ae:	66 90                	xchg   %ax,%ax
    21b0:	f3 0f 1e fa          	endbr64
    21b4:	68 18 00 00 00       	push   $0x18
    21b9:	e9 62 fe ff ff       	jmp    2020 <_init+0x20>
    21be:	66 90                	xchg   %ax,%ax
    21c0:	f3 0f 1e fa          	endbr64
    21c4:	68 19 00 00 00       	push   $0x19
    21c9:	e9 52 fe ff ff       	jmp    2020 <_init+0x20>
    21ce:	66 90                	xchg   %ax,%ax
    21d0:	f3 0f 1e fa          	endbr64
    21d4:	68 1a 00 00 00       	push   $0x1a
    21d9:	e9 42 fe ff ff       	jmp    2020 <_init+0x20>
    21de:	66 90                	xchg   %ax,%ax
    21e0:	f3 0f 1e fa          	endbr64
    21e4:	68 1b 00 00 00       	push   $0x1b
    21e9:	e9 32 fe ff ff       	jmp    2020 <_init+0x20>
    21ee:	66 90                	xchg   %ax,%ax
    21f0:	f3 0f 1e fa          	endbr64
    21f4:	68 1c 00 00 00       	push   $0x1c
    21f9:	e9 22 fe ff ff       	jmp    2020 <_init+0x20>
    21fe:	66 90                	xchg   %ax,%ax
    2200:	f3 0f 1e fa          	endbr64
    2204:	68 1d 00 00 00       	push   $0x1d
    2209:	e9 12 fe ff ff       	jmp    2020 <_init+0x20>
    220e:	66 90                	xchg   %ax,%ax
    2210:	f3 0f 1e fa          	endbr64
    2214:	68 1e 00 00 00       	push   $0x1e
    2219:	e9 02 fe ff ff       	jmp    2020 <_init+0x20>
    221e:	66 90                	xchg   %ax,%ax
    2220:	f3 0f 1e fa          	endbr64
    2224:	68 1f 00 00 00       	push   $0x1f
    2229:	e9 f2 fd ff ff       	jmp    2020 <_init+0x20>
    222e:	66 90                	xchg   %ax,%ax
    2230:	f3 0f 1e fa          	endbr64
    2234:	68 20 00 00 00       	push   $0x20
    2239:	e9 e2 fd ff ff       	jmp    2020 <_init+0x20>
    223e:	66 90                	xchg   %ax,%ax
    2240:	f3 0f 1e fa          	endbr64
    2244:	68 21 00 00 00       	push   $0x21
    2249:	e9 d2 fd ff ff       	jmp    2020 <_init+0x20>
    224e:	66 90                	xchg   %ax,%ax
    2250:	f3 0f 1e fa          	endbr64
    2254:	68 22 00 00 00       	push   $0x22
    2259:	e9 c2 fd ff ff       	jmp    2020 <_init+0x20>
    225e:	66 90                	xchg   %ax,%ax
    2260:	f3 0f 1e fa          	endbr64
    2264:	68 23 00 00 00       	push   $0x23
    2269:	e9 b2 fd ff ff       	jmp    2020 <_init+0x20>
    226e:	66 90                	xchg   %ax,%ax
    2270:	f3 0f 1e fa          	endbr64
    2274:	68 24 00 00 00       	push   $0x24
    2279:	e9 a2 fd ff ff       	jmp    2020 <_init+0x20>
    227e:	66 90                	xchg   %ax,%ax
    2280:	f3 0f 1e fa          	endbr64
    2284:	68 25 00 00 00       	push   $0x25
    2289:	e9 92 fd ff ff       	jmp    2020 <_init+0x20>
    228e:	66 90                	xchg   %ax,%ax
    2290:	f3 0f 1e fa          	endbr64
    2294:	68 26 00 00 00       	push   $0x26
    2299:	e9 82 fd ff ff       	jmp    2020 <_init+0x20>
    229e:	66 90                	xchg   %ax,%ax
    22a0:	f3 0f 1e fa          	endbr64
    22a4:	68 27 00 00 00       	push   $0x27
    22a9:	e9 72 fd ff ff       	jmp    2020 <_init+0x20>
    22ae:	66 90                	xchg   %ax,%ax
    22b0:	f3 0f 1e fa          	endbr64
    22b4:	68 28 00 00 00       	push   $0x28
    22b9:	e9 62 fd ff ff       	jmp    2020 <_init+0x20>
    22be:	66 90                	xchg   %ax,%ax
    22c0:	f3 0f 1e fa          	endbr64
    22c4:	68 29 00 00 00       	push   $0x29
    22c9:	e9 52 fd ff ff       	jmp    2020 <_init+0x20>
    22ce:	66 90                	xchg   %ax,%ax
    22d0:	f3 0f 1e fa          	endbr64
    22d4:	68 2a 00 00 00       	push   $0x2a
    22d9:	e9 42 fd ff ff       	jmp    2020 <_init+0x20>
    22de:	66 90                	xchg   %ax,%ax
    22e0:	f3 0f 1e fa          	endbr64
    22e4:	68 2b 00 00 00       	push   $0x2b
    22e9:	e9 32 fd ff ff       	jmp    2020 <_init+0x20>
    22ee:	66 90                	xchg   %ax,%ax
    22f0:	f3 0f 1e fa          	endbr64
    22f4:	68 2c 00 00 00       	push   $0x2c
    22f9:	e9 22 fd ff ff       	jmp    2020 <_init+0x20>
    22fe:	66 90                	xchg   %ax,%ax

Disassembly of section .plt.got:

0000000000002300 <__cxa_finalize@plt>:
    2300:	f3 0f 1e fa          	endbr64
    2304:	ff 25 ce 9c 00 00    	jmp    *0x9cce(%rip)        # bfd8 <__cxa_finalize@GLIBC_2.2.5>
    230a:	66 0f 1f 44 00 00    	nopw   0x0(%rax,%rax,1)

Disassembly of section .plt.sec:

0000000000002310 <_Znam@plt>:
    2310:	f3 0f 1e fa          	endbr64
    2314:	ff 25 56 9b 00 00    	jmp    *0x9b56(%rip)        # be70 <_Znam@GLIBCXX_3.4>
    231a:	66 0f 1f 44 00 00    	nopw   0x0(%rax,%rax,1)

0000000000002320 <_ZNSo3putEc@plt>:
    2320:	f3 0f 1e fa          	endbr64
    2324:	ff 25 4e 9b 00 00    	jmp    *0x9b4e(%rip)        # be78 <_ZNSo3putEc@GLIBCXX_3.4>
    232a:	66 0f 1f 44 00 00    	nopw   0x0(%rax,%rax,1)

0000000000002330 <_ZNSt13basic_filebufIcSt11char_traitsIcEE5closeEv@plt>:
    2330:	f3 0f 1e fa          	endbr64
    2334:	ff 25 46 9b 00 00    	jmp    *0x9b46(%rip)        # be80 <_ZNSt13basic_filebufIcSt11char_traitsIcEE5closeEv@GLIBCXX_3.4>
    233a:	66 0f 1f 44 00 00    	nopw   0x0(%rax,%rax,1)

0000000000002340 <_ZNSt8ios_baseC2Ev@plt>:
    2340:	f3 0f 1e fa          	endbr64
    2344:	ff 25 3e 9b 00 00    	jmp    *0x9b3e(%rip)        # be88 <_ZNSt8ios_baseC2Ev@GLIBCXX_3.4>
    234a:	66 0f 1f 44 00 00    	nopw   0x0(%rax,%rax,1)

0000000000002350 <_ZNSt7__cxx1112basic_stringIcSt11char_traitsIcESaIcEE9_M_appendEPKcm@plt>:
    2350:	f3 0f 1e fa          	endbr64
    2354:	ff 25 36 9b 00 00    	jmp    *0x9b36(%rip)        # be90 <_ZNSt7__cxx1112basic_stringIcSt11char_traitsIcESaIcEE9_M_appendEPKcm@GLIBCXX_3.4.21>
    235a:	66 0f 1f 44 00 00    	nopw   0x0(%rax,%rax,1)

0000000000002360 <_ZNSt8ios_baseD2Ev@plt>:
    2360:	f3 0f 1e fa          	endbr64
    2364:	ff 25 2e 9b 00 00    	jmp    *0x9b2e(%rip)        # be98 <_ZNSt8ios_baseD2Ev@GLIBCXX_3.4>
    236a:	66 0f 1f 44 00 00    	nopw   0x0(%rax,%rax,1)

0000000000002370 <__cxa_begin_catch@plt>:
    2370:	f3 0f 1e fa          	endbr64
    2374:	ff 25 26 9b 00 00    	jmp    *0x9b26(%rip)        # bea0 <__cxa_begin_catch@CXXABI_1.3>
    237a:	66 0f 1f 44 00 00    	nopw   0x0(%rax,%rax,1)

0000000000002380 <_ZNSo9_M_insertIeEERSoT_@plt>:
    2380:	f3 0f 1e fa          	endbr64
    2384:	ff 25 1e 9b 00 00    	jmp    *0x9b1e(%rip)        # bea8 <_ZNSo9_M_insertIeEERSoT_@GLIBCXX_3.4.9>
    238a:	66 0f 1f 44 00 00    	nopw   0x0(%rax,%rax,1)

0000000000002390 <_ZSt20__throw_length_errorPKc@plt>:
    2390:	f3 0f 1e fa          	endbr64
    2394:	ff 25 16 9b 00 00    	jmp    *0x9b16(%rip)        # beb0 <_ZSt20__throw_length_errorPKc@GLIBCXX_3.4>
    239a:	66 0f 1f 44 00 00    	nopw   0x0(%rax,%rax,1)

00000000000023a0 <sincos@plt>:
    23a0:	f3 0f 1e fa          	endbr64
    23a4:	ff 25 0e 9b 00 00    	jmp    *0x9b0e(%rip)        # beb8 <sincos@GLIBC_2.2.5>
    23aa:	66 0f 1f 44 00 00    	nopw   0x0(%rax,%rax,1)

00000000000023b0 <_ZNSirsERi@plt>:
    23b0:	f3 0f 1e fa          	endbr64
    23b4:	ff 25 06 9b 00 00    	jmp    *0x9b06(%rip)        # bec0 <_ZNSirsERi@GLIBCXX_3.4>
    23ba:	66 0f 1f 44 00 00    	nopw   0x0(%rax,%rax,1)

00000000000023c0 <__assert_fail@plt>:
    23c0:	f3 0f 1e fa          	endbr64
    23c4:	ff 25 fe 9a 00 00    	jmp    *0x9afe(%rip)        # bec8 <__assert_fail@GLIBC_2.2.5>
    23ca:	66 0f 1f 44 00 00    	nopw   0x0(%rax,%rax,1)

00000000000023d0 <_ZNSi10_M_extractIdEERSiRT_@plt>:
    23d0:	f3 0f 1e fa          	endbr64
    23d4:	ff 25 f6 9a 00 00    	jmp    *0x9af6(%rip)        # bed0 <_ZNSi10_M_extractIdEERSiRT_@GLIBCXX_3.4.9>
    23da:	66 0f 1f 44 00 00    	nopw   0x0(%rax,%rax,1)

00000000000023e0 <_ZNSo9_M_insertImEERSoT_@plt>:
    23e0:	f3 0f 1e fa          	endbr64
    23e4:	ff 25 ee 9a 00 00    	jmp    *0x9aee(%rip)        # bed8 <_ZNSo9_M_insertImEERSoT_@GLIBCXX_3.4.9>
    23ea:	66 0f 1f 44 00 00    	nopw   0x0(%rax,%rax,1)

00000000000023f0 <_ZNSo5flushEv@plt>:
    23f0:	f3 0f 1e fa          	endbr64
    23f4:	ff 25 e6 9a 00 00    	jmp    *0x9ae6(%rip)        # bee0 <_ZNSo5flushEv@GLIBCXX_3.4>
    23fa:	66 0f 1f 44 00 00    	nopw   0x0(%rax,%rax,1)

0000000000002400 <memcpy@plt>:
    2400:	f3 0f 1e fa          	endbr64
    2404:	ff 25 de 9a 00 00    	jmp    *0x9ade(%rip)        # bee8 <memcpy@GLIBC_2.14>
    240a:	66 0f 1f 44 00 00    	nopw   0x0(%rax,%rax,1)

0000000000002410 <atan@plt>:
    2410:	f3 0f 1e fa          	endbr64
    2414:	ff 25 d6 9a 00 00    	jmp    *0x9ad6(%rip)        # bef0 <atan@GLIBC_2.2.5>
    241a:	66 0f 1f 44 00 00    	nopw   0x0(%rax,%rax,1)

0000000000002420 <_ZNSt13basic_filebufIcSt11char_traitsIcEE4openEPKcSt13_Ios_Openmode@plt>:
    2420:	f3 0f 1e fa          	endbr64
    2424:	ff 25 ce 9a 00 00    	jmp    *0x9ace(%rip)        # bef8 <_ZNSt13basic_filebufIcSt11char_traitsIcEE4openEPKcSt13_Ios_Openmode@GLIBCXX_3.4>
    242a:	66 0f 1f 44 00 00    	nopw   0x0(%rax,%rax,1)

0000000000002430 <acos@plt>:
    2430:	f3 0f 1e fa          	endbr64
    2434:	ff 25 c6 9a 00 00    	jmp    *0x9ac6(%rip)        # bf00 <acos@GLIBC_2.2.5>
    243a:	66 0f 1f 44 00 00    	nopw   0x0(%rax,%rax,1)

0000000000002440 <_Znwm@plt>:
    2440:	f3 0f 1e fa          	endbr64
    2444:	ff 25 be 9a 00 00    	jmp    *0x9abe(%rip)        # bf08 <_Znwm@GLIBCXX_3.4>
    244a:	66 0f 1f 44 00 00    	nopw   0x0(%rax,%rax,1)

0000000000002450 <_ZdlPvm@plt>:
    2450:	f3 0f 1e fa          	endbr64
    2454:	ff 25 b6 9a 00 00    	jmp    *0x9ab6(%rip)        # bf10 <_ZdlPvm@CXXABI_1.3.9>
    245a:	66 0f 1f 44 00 00    	nopw   0x0(%rax,%rax,1)

0000000000002460 <_ZNSt13basic_filebufIcSt11char_traitsIcEEC1Ev@plt>:
    2460:	f3 0f 1e fa          	endbr64
    2464:	ff 25 ae 9a 00 00    	jmp    *0x9aae(%rip)        # bf18 <_ZNSt13basic_filebufIcSt11char_traitsIcEEC1Ev@GLIBCXX_3.4>
    246a:	66 0f 1f 44 00 00    	nopw   0x0(%rax,%rax,1)

0000000000002470 <__stack_chk_fail@plt>:
    2470:	f3 0f 1e fa          	endbr64
    2474:	ff 25 a6 9a 00 00    	jmp    *0x9aa6(%rip)        # bf20 <__stack_chk_fail@GLIBC_2.4>
    247a:	66 0f 1f 44 00 00    	nopw   0x0(%rax,%rax,1)

0000000000002480 <sincosl@plt>:
    2480:	f3 0f 1e fa          	endbr64
    2484:	ff 25 9e 9a 00 00    	jmp    *0x9a9e(%rip)        # bf28 <sincosl@GLIBC_2.2.5>
    248a:	66 0f 1f 44 00 00    	nopw   0x0(%rax,%rax,1)

0000000000002490 <_ZSt16__ostream_insertIcSt11char_traitsIcEERSt13basic_ostreamIT_T0_ES6_PKS3_l@plt>:
    2490:	f3 0f 1e fa          	endbr64
    2494:	ff 25 96 9a 00 00    	jmp    *0x9a96(%rip)        # bf30 <_ZSt16__ostream_insertIcSt11char_traitsIcEERSt13basic_ostreamIT_T0_ES6_PKS3_l@GLIBCXX_3.4.9>
    249a:	66 0f 1f 44 00 00    	nopw   0x0(%rax,%rax,1)

00000000000024a0 <_ZNKSt5ctypeIcE13_M_widen_initEv@plt>:
    24a0:	f3 0f 1e fa          	endbr64
    24a4:	ff 25 8e 9a 00 00    	jmp    *0x9a8e(%rip)        # bf38 <_ZNKSt5ctypeIcE13_M_widen_initEv@GLIBCXX_3.4.11>
    24aa:	66 0f 1f 44 00 00    	nopw   0x0(%rax,%rax,1)

00000000000024b0 <_ZNSt7__cxx1112basic_stringIcSt11char_traitsIcESaIcEE12_M_constructEmc@plt>:
    24b0:	f3 0f 1e fa          	endbr64
    24b4:	ff 25 86 9a 00 00    	jmp    *0x9a86(%rip)        # bf40 <_ZNSt7__cxx1112basic_stringIcSt11char_traitsIcESaIcEE12_M_constructEmc@GLIBCXX_3.4.21>
    24ba:	66 0f 1f 44 00 00    	nopw   0x0(%rax,%rax,1)

00000000000024c0 <cosl@plt>:
    24c0:	f3 0f 1e fa          	endbr64
    24c4:	ff 25 7e 9a 00 00    	jmp    *0x9a7e(%rip)        # bf48 <cosl@GLIBC_2.2.5>
    24ca:	66 0f 1f 44 00 00    	nopw   0x0(%rax,%rax,1)

00000000000024d0 <exit@plt>:
    24d0:	f3 0f 1e fa          	endbr64
    24d4:	ff 25 76 9a 00 00    	jmp    *0x9a76(%rip)        # bf50 <exit@GLIBC_2.2.5>
    24da:	66 0f 1f 44 00 00    	nopw   0x0(%rax,%rax,1)

00000000000024e0 <_ZNSi10_M_extractIeEERSiRT_@plt>:
    24e0:	f3 0f 1e fa          	endbr64
    24e4:	ff 25 6e 9a 00 00    	jmp    *0x9a6e(%rip)        # bf58 <_ZNSi10_M_extractIeEERSiRT_@GLIBCXX_3.4.9>
    24ea:	66 0f 1f 44 00 00    	nopw   0x0(%rax,%rax,1)

00000000000024f0 <_ZNSt7__cxx1112basic_stringIcSt11char_traitsIcESaIcEE10_M_disposeEv@plt>:
    24f0:	f3 0f 1e fa          	endbr64
    24f4:	ff 25 66 9a 00 00    	jmp    *0x9a66(%rip)        # bf60 <_ZNSt7__cxx1112basic_stringIcSt11char_traitsIcESaIcEE10_M_disposeEv@GLIBCXX_3.4.21>
    24fa:	66 0f 1f 44 00 00    	nopw   0x0(%rax,%rax,1)

0000000000002500 <_ZSt16__throw_bad_castv@plt>:
    2500:	f3 0f 1e fa          	endbr64
    2504:	ff 25 5e 9a 00 00    	jmp    *0x9a5e(%rip)        # bf68 <_ZSt16__throw_bad_castv@GLIBCXX_3.4>
    250a:	66 0f 1f 44 00 00    	nopw   0x0(%rax,%rax,1)

0000000000002510 <_ZNSt9basic_iosIcSt11char_traitsIcEE4initEPSt15basic_streambufIcS1_E@plt>:
    2510:	f3 0f 1e fa          	endbr64
    2514:	ff 25 56 9a 00 00    	jmp    *0x9a56(%rip)        # bf70 <_ZNSt9basic_iosIcSt11char_traitsIcEE4initEPSt15basic_streambufIcS1_E@GLIBCXX_3.4>
    251a:	66 0f 1f 44 00 00    	nopw   0x0(%rax,%rax,1)

0000000000002520 <_ZNSt6localeD1Ev@plt>:
    2520:	f3 0f 1e fa          	endbr64
    2524:	ff 25 4e 9a 00 00    	jmp    *0x9a4e(%rip)        # bf78 <_ZNSt6localeD1Ev@GLIBCXX_3.4>
    252a:	66 0f 1f 44 00 00    	nopw   0x0(%rax,%rax,1)

0000000000002530 <__cxa_throw_bad_array_new_length@plt>:
    2530:	f3 0f 1e fa          	endbr64
    2534:	ff 25 46 9a 00 00    	jmp    *0x9a46(%rip)        # bf80 <__cxa_throw_bad_array_new_length@CXXABI_1.3.8>
    253a:	66 0f 1f 44 00 00    	nopw   0x0(%rax,%rax,1)

0000000000002540 <_ZNSt14basic_ofstreamIcSt11char_traitsIcEED1Ev@plt>:
    2540:	f3 0f 1e fa          	endbr64
    2544:	ff 25 3e 9a 00 00    	jmp    *0x9a3e(%rip)        # bf88 <_ZNSt14basic_ofstreamIcSt11char_traitsIcEED1Ev@GLIBCXX_3.4>
    254a:	66 0f 1f 44 00 00    	nopw   0x0(%rax,%rax,1)

0000000000002550 <_ZNSt7__cxx1112basic_stringIcSt11char_traitsIcESaIcEE10_M_replaceEmmPKcm@plt>:
    2550:	f3 0f 1e fa          	endbr64
    2554:	ff 25 36 9a 00 00    	jmp    *0x9a36(%rip)        # bf90 <_ZNSt7__cxx1112basic_stringIcSt11char_traitsIcESaIcEE10_M_replaceEmmPKcm@GLIBCXX_3.4.21>
    255a:	66 0f 1f 44 00 00    	nopw   0x0(%rax,%rax,1)

0000000000002560 <_ZNSt13basic_filebufIcSt11char_traitsIcEED1Ev@plt>:
    2560:	f3 0f 1e fa          	endbr64
    2564:	ff 25 2e 9a 00 00    	jmp    *0x9a2e(%rip)        # bf98 <_ZNSt13basic_filebufIcSt11char_traitsIcEED1Ev@GLIBCXX_3.4>
    256a:	66 0f 1f 44 00 00    	nopw   0x0(%rax,%rax,1)

0000000000002570 <_ZNSo9_M_insertIdEERSoT_@plt>:
    2570:	f3 0f 1e fa          	endbr64
    2574:	ff 25 26 9a 00 00    	jmp    *0x9a26(%rip)        # bfa0 <_ZNSo9_M_insertIdEERSoT_@GLIBCXX_3.4.9>
    257a:	66 0f 1f 44 00 00    	nopw   0x0(%rax,%rax,1)

0000000000002580 <memmove@plt>:
    2580:	f3 0f 1e fa          	endbr64
    2584:	ff 25 1e 9a 00 00    	jmp    *0x9a1e(%rip)        # bfa8 <memmove@GLIBC_2.2.5>
    258a:	66 0f 1f 44 00 00    	nopw   0x0(%rax,%rax,1)

0000000000002590 <__cxa_end_catch@plt>:
    2590:	f3 0f 1e fa          	endbr64
    2594:	ff 25 16 9a 00 00    	jmp    *0x9a16(%rip)        # bfb0 <__cxa_end_catch@CXXABI_1.3>
    259a:	66 0f 1f 44 00 00    	nopw   0x0(%rax,%rax,1)

00000000000025a0 <_ZNSt9basic_iosIcSt11char_traitsIcEE5clearESt12_Ios_Iostate@plt>:
    25a0:	f3 0f 1e fa          	endbr64
    25a4:	ff 25 0e 9a 00 00    	jmp    *0x9a0e(%rip)        # bfb8 <_ZNSt9basic_iosIcSt11char_traitsIcEE5clearESt12_Ios_Iostate@GLIBCXX_3.4>
    25aa:	66 0f 1f 44 00 00    	nopw   0x0(%rax,%rax,1)

00000000000025b0 <_ZNSolsEi@plt>:
    25b0:	f3 0f 1e fa          	endbr64
    25b4:	ff 25 06 9a 00 00    	jmp    *0x9a06(%rip)        # bfc0 <_ZNSolsEi@GLIBCXX_3.4>
    25ba:	66 0f 1f 44 00 00    	nopw   0x0(%rax,%rax,1)

00000000000025c0 <_Unwind_Resume@plt>:
    25c0:	f3 0f 1e fa          	endbr64
    25c4:	ff 25 fe 99 00 00    	jmp    *0x99fe(%rip)        # bfc8 <_Unwind_Resume@GCC_3.0>
    25ca:	66 0f 1f 44 00 00    	nopw   0x0(%rax,%rax,1)

00000000000025d0 <_ZNSt12__basic_fileIcED1Ev@plt>:
    25d0:	f3 0f 1e fa          	endbr64
    25d4:	ff 25 f6 99 00 00    	jmp    *0x99f6(%rip)        # bfd0 <_ZNSt12__basic_fileIcED1Ev@GLIBCXX_3.4>
    25da:	66 0f 1f 44 00 00    	nopw   0x0(%rax,%rax,1)

Disassembly of section .text:

00000000000025e0 <_Z7blearghv.cold>:
    25e0:	48 8b bd 40 ff ff ff 	mov    -0xc0(%rbp),%rdi
    25e7:	48 8b b5 50 ff ff ff 	mov    -0xb0(%rbp),%rsi
    25ee:	48 29 fe             	sub    %rdi,%rsi
    25f1:	48 85 ff             	test   %rdi,%rdi
    25f4:	74 05                	je     25fb <_Z7blearghv.cold+0x1b>
    25f6:	e8 55 fe ff ff       	call   2450 <_ZdlPvm@plt>
    25fb:	48 8b 45 c8          	mov    -0x38(%rbp),%rax
    25ff:	64 48 2b 04 25 28 00 	sub    %fs:0x28,%rax
    2606:	00 00 
    2608:	75 08                	jne    2612 <_Z7blearghv.cold+0x32>
    260a:	48 89 df             	mov    %rbx,%rdi
    260d:	e8 ae ff ff ff       	call   25c0 <_Unwind_Resume@plt>
    2612:	e8 59 fe ff ff       	call   2470 <__stack_chk_fail@plt>

0000000000002617 <_Z10allocate3djjj.cold>:
    2617:	e8 14 ff ff ff       	call   2530 <__cxa_throw_bad_array_new_length@plt>

000000000000261c <_Z11allocate3dtjjj.cold>:
    261c:	e8 0f ff ff ff       	call   2530 <__cxa_throw_bad_array_new_length@plt>

0000000000002621 <_Z12writeVTKFileiPPPPeiiieee.cold>:
    2621:	48 8d bd d0 fc ff ff 	lea    -0x330(%rbp),%rdi
    2628:	e8 c3 fe ff ff       	call   24f0 <_ZNSt7__cxx1112basic_stringIcSt11char_traitsIcESaIcEE10_M_disposeEv@plt>
    262d:	4c 89 ff             	mov    %r15,%rdi
    2630:	4d 89 f7             	mov    %r14,%r15
    2633:	e8 b8 fe ff ff       	call   24f0 <_ZNSt7__cxx1112basic_stringIcSt11char_traitsIcESaIcEE10_M_disposeEv@plt>
    2638:	48 89 df             	mov    %rbx,%rdi
    263b:	4c 89 fb             	mov    %r15,%rbx
    263e:	e8 ad fe ff ff       	call   24f0 <_ZNSt7__cxx1112basic_stringIcSt11char_traitsIcESaIcEE10_M_disposeEv@plt>
    2643:	48 8b bd 88 fc ff ff 	mov    -0x378(%rbp),%rdi
    264a:	e8 f1 fe ff ff       	call   2540 <_ZNSt14basic_ofstreamIcSt11char_traitsIcEED1Ev@plt>
    264f:	48 8b 45 c8          	mov    -0x38(%rbp),%rax
    2653:	64 48 2b 04 25 28 00 	sub    %fs:0x28,%rax
    265a:	00 00 
    265c:	75 08                	jne    2666 <_Z12writeVTKFileiPPPPeiiieee.cold+0x45>
    265e:	48 89 df             	mov    %rbx,%rdi
    2661:	e8 5a ff ff ff       	call   25c0 <_Unwind_Resume@plt>
    2666:	e8 05 fe ff ff       	call   2470 <__stack_chk_fail@plt>
    266b:	48 8b bd 50 fc ff ff 	mov    -0x3b0(%rbp),%rdi
    2672:	e8 e9 fe ff ff       	call   2560 <_ZNSt13basic_filebufIcSt11char_traitsIcEED1Ev@plt>
    2677:	48 8b 05 ca 94 00 00 	mov    0x94ca(%rip),%rax        # bb48 <_ZTTSt14basic_ofstreamIcSt11char_traitsIcEE@GLIBCXX_3.4+0x8>
    267e:	48 8b 0d cb 94 00 00 	mov    0x94cb(%rip),%rcx        # bb50 <_ZTTSt14basic_ofstreamIcSt11char_traitsIcEE@GLIBCXX_3.4+0x10>
    2685:	48 89 85 f0 fc ff ff 	mov    %rax,-0x310(%rbp)
    268c:	48 8b 40 e8          	mov    -0x18(%rax),%rax
    2690:	48 89 8c 05 f0 fc ff 	mov    %rcx,-0x310(%rbp,%rax,1)
    2697:	ff 
    2698:	48 8b bd 48 fc ff ff 	mov    -0x3b8(%rbp),%rdi
    269f:	48 8d 05 0a 94 00 00 	lea    0x940a(%rip),%rax        # bab0 <_ZTVSt9basic_iosIcSt11char_traitsIcEE@GLIBCXX_3.4+0x10>
    26a6:	48 89 85 e8 fd ff ff 	mov    %rax,-0x218(%rbp)
    26ad:	e8 ae fc ff ff       	call   2360 <_ZNSt8ios_baseD2Ev@plt>
    26b2:	48 8b 45 c8          	mov    -0x38(%rbp),%rax
    26b6:	64 48 2b 04 25 28 00 	sub    %fs:0x28,%rax
    26bd:	00 00 
    26bf:	75 17                	jne    26d8 <_Z12writeVTKFileiPPPPeiiieee.cold+0xb7>
    26c1:	48 89 df             	mov    %rbx,%rdi
    26c4:	e8 f7 fe ff ff       	call   25c0 <_Unwind_Resume@plt>
    26c9:	e8 a2 fc ff ff       	call   2370 <__cxa_begin_catch@plt>
    26ce:	e8 bd fe ff ff       	call   2590 <__cxa_end_catch@plt>
    26d3:	e9 5a 6e 00 00       	jmp    9532 <_Z12writeVTKFileiPPPPeiiieee+0x932>
    26d8:	e8 93 fd ff ff       	call   2470 <__stack_chk_fail@plt>
    26dd:	0f 1f 00             	nopl   (%rax)

00000000000026e0 <main>:
    26e0:	f3 0f 1e fa          	endbr64
    26e4:	50                   	push   %rax
    26e5:	58                   	pop    %rax
    26e6:	48 83 ec 08          	sub    $0x8,%rsp
    26ea:	e8 71 41 00 00       	call   6860 <_Z7blearghv>
    26ef:	31 ff                	xor    %edi,%edi
    26f1:	e8 da fd ff ff       	call   24d0 <exit@plt>
    26f6:	66 2e 0f 1f 84 00 00 	cs nopw 0x0(%rax,%rax,1)
    26fd:	00 00 00 

0000000000002700 <_start>:
    2700:	f3 0f 1e fa          	endbr64
    2704:	31 ed                	xor    %ebp,%ebp
    2706:	49 89 d1             	mov    %rdx,%r9
    2709:	5e                   	pop    %rsi
    270a:	48 89 e2             	mov    %rsp,%rdx
    270d:	48 83 e4 f0          	and    $0xfffffffffffffff0,%rsp
    2711:	50                   	push   %rax
    2712:	54                   	push   %rsp
    2713:	45 31 c0             	xor    %r8d,%r8d
    2716:	31 c9                	xor    %ecx,%ecx
    2718:	48 8d 3d c1 ff ff ff 	lea    -0x3f(%rip),%rdi        # 26e0 <main>
    271f:	ff 15 bb 98 00 00    	call   *0x98bb(%rip)        # bfe0 <__libc_start_main@GLIBC_2.34>
    2725:	f4                   	hlt
    2726:	66 2e 0f 1f 84 00 00 	cs nopw 0x0(%rax,%rax,1)
    272d:	00 00 00 

0000000000002730 <deregister_tm_clones>:
    2730:	48 8d 3d e1 98 00 00 	lea    0x98e1(%rip),%rdi        # c018 <__TMC_END__>
    2737:	48 8d 05 da 98 00 00 	lea    0x98da(%rip),%rax        # c018 <__TMC_END__>
    273e:	48 39 f8             	cmp    %rdi,%rax
    2741:	74 15                	je     2758 <deregister_tm_clones+0x28>
    2743:	48 8b 05 9e 98 00 00 	mov    0x989e(%rip),%rax        # bfe8 <_ITM_deregisterTMCloneTable@Base>
    274a:	48 85 c0             	test   %rax,%rax
    274d:	74 09                	je     2758 <deregister_tm_clones+0x28>
    274f:	ff e0                	jmp    *%rax
    2751:	0f 1f 80 00 00 00 00 	nopl   0x0(%rax)
    2758:	c3                   	ret
    2759:	0f 1f 80 00 00 00 00 	nopl   0x0(%rax)

0000000000002760 <register_tm_clones>:
    2760:	48 8d 3d b1 98 00 00 	lea    0x98b1(%rip),%rdi        # c018 <__TMC_END__>
    2767:	48 8d 35 aa 98 00 00 	lea    0x98aa(%rip),%rsi        # c018 <__TMC_END__>
    276e:	48 29 fe             	sub    %rdi,%rsi
    2771:	48 89 f0             	mov    %rsi,%rax
    2774:	48 c1 ee 3f          	shr    $0x3f,%rsi
    2778:	48 c1 f8 03          	sar    $0x3,%rax
    277c:	48 01 c6             	add    %rax,%rsi
    277f:	48 d1 fe             	sar    $1,%rsi
    2782:	74 14                	je     2798 <register_tm_clones+0x38>
    2784:	48 8b 05 6d 98 00 00 	mov    0x986d(%rip),%rax        # bff8 <_ITM_registerTMCloneTable@Base>
    278b:	48 85 c0             	test   %rax,%rax
    278e:	74 08                	je     2798 <register_tm_clones+0x38>
    2790:	ff e0                	jmp    *%rax
    2792:	66 0f 1f 44 00 00    	nopw   0x0(%rax,%rax,1)
    2798:	c3                   	ret
    2799:	0f 1f 80 00 00 00 00 	nopl   0x0(%rax)

00000000000027a0 <__do_global_dtors_aux>:
    27a0:	f3 0f 1e fa          	endbr64
    27a4:	80 3d cd 9a 00 00 00 	cmpb   $0x0,0x9acd(%rip)        # c278 <completed.0>
    27ab:	75 2b                	jne    27d8 <__do_global_dtors_aux+0x38>
    27ad:	55                   	push   %rbp
    27ae:	48 83 3d 22 98 00 00 	cmpq   $0x0,0x9822(%rip)        # bfd8 <__cxa_finalize@GLIBC_2.2.5>
    27b5:	00 
    27b6:	48 89 e5             	mov    %rsp,%rbp
    27b9:	74 0c                	je     27c7 <__do_global_dtors_aux+0x27>
    27bb:	48 8b 3d 46 98 00 00 	mov    0x9846(%rip),%rdi        # c008 <__dso_handle>
    27c2:	e8 39 fb ff ff       	call   2300 <__cxa_finalize@plt>
    27c7:	e8 64 ff ff ff       	call   2730 <deregister_tm_clones>
    27cc:	c6 05 a5 9a 00 00 01 	movb   $0x1,0x9aa5(%rip)        # c278 <completed.0>
    27d3:	5d                   	pop    %rbp
    27d4:	c3                   	ret
    27d5:	0f 1f 00             	nopl   (%rax)
    27d8:	c3                   	ret
    27d9:	0f 1f 80 00 00 00 00 	nopl   0x0(%rax)

00000000000027e0 <frame_dummy>:
    27e0:	f3 0f 1e fa          	endbr64
    27e4:	e9 77 ff ff ff       	jmp    2760 <register_tm_clones>
    27e9:	0f 1f 80 00 00 00 00 	nopl   0x0(%rax)

00000000000027f0 <_ZSt13__adjust_heapIPeleN9__gnu_cxx5__ops15_Iter_less_iterEEvT_T0_S5_T1_T2_.isra.0>:
    27f0:	48 8d 42 ff          	lea    -0x1(%rdx),%rax
    27f4:	49 89 d3             	mov    %rdx,%r11
    27f7:	48 89 f9             	mov    %rdi,%rcx
    27fa:	49 89 d2             	mov    %rdx,%r10
    27fd:	db 6c 24 08          	fldt   0x8(%rsp)
    2801:	49 89 c1             	mov    %rax,%r9
    2804:	48 89 f7             	mov    %rsi,%rdi
    2807:	41 83 e3 01          	and    $0x1,%r11d
    280b:	49 c1 e9 3f          	shr    $0x3f,%r9
    280f:	49 01 c1             	add    %rax,%r9
    2812:	49 d1 f9             	sar    $1,%r9
    2815:	4c 39 ce             	cmp    %r9,%rsi
    2818:	7c 27                	jl     2841 <_ZSt13__adjust_heapIPeleN9__gnu_cxx5__ops15_Iter_less_iterEEvT_T0_S5_T1_T2_.isra.0+0x51>
    281a:	e9 b1 00 00 00       	jmp    28d0 <_ZSt13__adjust_heapIPeleN9__gnu_cxx5__ops15_Iter_less_iterEEvT_T0_S5_T1_T2_.isra.0+0xe0>
    281f:	90                   	nop
    2820:	dd d8                	fstp   %st(0)
    2822:	49 83 e8 01          	sub    $0x1,%r8
    2826:	48 c1 e6 04          	shl    $0x4,%rsi
    282a:	4c 89 c0             	mov    %r8,%rax
    282d:	48 c1 e0 04          	shl    $0x4,%rax
    2831:	48 01 c8             	add    %rcx,%rax
    2834:	db 28                	fldt   (%rax)
    2836:	db 3c 31             	fstpt  (%rcx,%rsi,1)
    2839:	4d 39 c8             	cmp    %r9,%r8
    283c:	7d 29                	jge    2867 <_ZSt13__adjust_heapIPeleN9__gnu_cxx5__ops15_Iter_less_iterEEvT_T0_S5_T1_T2_.isra.0+0x77>
    283e:	4c 89 c6             	mov    %r8,%rsi
    2841:	48 8d 56 01          	lea    0x1(%rsi),%rdx
    2845:	4c 8d 04 12          	lea    (%rdx,%rdx,1),%r8
    2849:	48 c1 e2 05          	shl    $0x5,%rdx
    284d:	48 8d 04 11          	lea    (%rcx,%rdx,1),%rax
    2851:	db 28                	fldt   (%rax)
    2853:	db 6c 11 f0          	fldt   -0x10(%rcx,%rdx,1)
    2857:	df f1                	fcomip %st(1),%st
    2859:	77 c5                	ja     2820 <_ZSt13__adjust_heapIPeleN9__gnu_cxx5__ops15_Iter_less_iterEEvT_T0_S5_T1_T2_.isra.0+0x30>
    285b:	48 c1 e6 04          	shl    $0x4,%rsi
    285f:	db 3c 31             	fstpt  (%rcx,%rsi,1)
    2862:	4d 39 c8             	cmp    %r9,%r8
    2865:	7c d7                	jl     283e <_ZSt13__adjust_heapIPeleN9__gnu_cxx5__ops15_Iter_less_iterEEvT_T0_S5_T1_T2_.isra.0+0x4e>
    2867:	4d 85 db             	test   %r11,%r11
    286a:	74 7c                	je     28e8 <_ZSt13__adjust_heapIPeleN9__gnu_cxx5__ops15_Iter_less_iterEEvT_T0_S5_T1_T2_.isra.0+0xf8>
    286c:	49 8d 70 ff          	lea    -0x1(%r8),%rsi
    2870:	48 89 f2             	mov    %rsi,%rdx
    2873:	48 c1 ea 3f          	shr    $0x3f,%rdx
    2877:	48 01 f2             	add    %rsi,%rdx
    287a:	48 d1 fa             	sar    $1,%rdx
    287d:	49 39 f8             	cmp    %rdi,%r8
    2880:	7f 2a                	jg     28ac <_ZSt13__adjust_heapIPeleN9__gnu_cxx5__ops15_Iter_less_iterEEvT_T0_S5_T1_T2_.isra.0+0xbc>
    2882:	eb 46                	jmp    28ca <_ZSt13__adjust_heapIPeleN9__gnu_cxx5__ops15_Iter_less_iterEEvT_T0_S5_T1_T2_.isra.0+0xda>
    2884:	0f 1f 40 00          	nopl   0x0(%rax)
    2888:	d9 c9                	fxch   %st(1)
    288a:	4c 8d 42 ff          	lea    -0x1(%rdx),%r8
    288e:	db 38                	fstpt  (%rax)
    2890:	4c 89 c0             	mov    %r8,%rax
    2893:	48 c1 e8 3f          	shr    $0x3f,%rax
    2897:	4c 01 c0             	add    %r8,%rax
    289a:	49 89 d0             	mov    %rdx,%r8
    289d:	48 d1 f8             	sar    $1,%rax
    28a0:	48 39 d7             	cmp    %rdx,%rdi
    28a3:	0f 8d 87 00 00 00    	jge    2930 <_ZSt13__adjust_heapIPeleN9__gnu_cxx5__ops15_Iter_less_iterEEvT_T0_S5_T1_T2_.isra.0+0x140>
    28a9:	48 89 c2             	mov    %rax,%rdx
    28ac:	48 89 d6             	mov    %rdx,%rsi
    28af:	4c 89 c0             	mov    %r8,%rax
    28b2:	48 c1 e6 04          	shl    $0x4,%rsi
    28b6:	48 c1 e0 04          	shl    $0x4,%rax
    28ba:	48 01 ce             	add    %rcx,%rsi
    28bd:	48 01 c8             	add    %rcx,%rax
    28c0:	db 2e                	fldt   (%rsi)
    28c2:	d9 c9                	fxch   %st(1)
    28c4:	db f1                	fcomi  %st(1),%st
    28c6:	77 c0                	ja     2888 <_ZSt13__adjust_heapIPeleN9__gnu_cxx5__ops15_Iter_less_iterEEvT_T0_S5_T1_T2_.isra.0+0x98>
    28c8:	dd d9                	fstp   %st(1)
    28ca:	db 38                	fstpt  (%rax)
    28cc:	c3                   	ret
    28cd:	0f 1f 00             	nopl   (%rax)
    28d0:	48 89 f0             	mov    %rsi,%rax
    28d3:	48 c1 e0 04          	shl    $0x4,%rax
    28d7:	48 01 c8             	add    %rcx,%rax
    28da:	4d 85 db             	test   %r11,%r11
    28dd:	75 eb                	jne    28ca <_ZSt13__adjust_heapIPeleN9__gnu_cxx5__ops15_Iter_less_iterEEvT_T0_S5_T1_T2_.isra.0+0xda>
    28df:	49 89 f8             	mov    %rdi,%r8
    28e2:	66 0f 1f 44 00 00    	nopw   0x0(%rax,%rax,1)
    28e8:	49 83 ea 02          	sub    $0x2,%r10
    28ec:	4c 89 d2             	mov    %r10,%rdx
    28ef:	48 c1 ea 3f          	shr    $0x3f,%rdx
    28f3:	4c 01 d2             	add    %r10,%rdx
    28f6:	48 d1 fa             	sar    $1,%rdx
    28f9:	49 39 d0             	cmp    %rdx,%r8
    28fc:	0f 85 6a ff ff ff    	jne    286c <_ZSt13__adjust_heapIPeleN9__gnu_cxx5__ops15_Iter_less_iterEEvT_T0_S5_T1_T2_.isra.0+0x7c>
    2902:	49 83 c0 01          	add    $0x1,%r8
    2906:	4c 89 c2             	mov    %r8,%rdx
    2909:	4f 8d 44 00 ff       	lea    -0x1(%r8,%r8,1),%r8
    290e:	48 c1 e2 05          	shl    $0x5,%rdx
    2912:	db 6c 11 f0          	fldt   -0x10(%rcx,%rdx,1)
    2916:	db 38                	fstpt  (%rax)
    2918:	4c 89 c0             	mov    %r8,%rax
    291b:	48 c1 e0 04          	shl    $0x4,%rax
    291f:	48 01 c8             	add    %rcx,%rax
    2922:	e9 45 ff ff ff       	jmp    286c <_ZSt13__adjust_heapIPeleN9__gnu_cxx5__ops15_Iter_less_iterEEvT_T0_S5_T1_T2_.isra.0+0x7c>
    2927:	66 0f 1f 84 00 00 00 	nopw   0x0(%rax,%rax,1)
    292e:	00 00 
    2930:	48 89 f0             	mov    %rsi,%rax
    2933:	db 38                	fstpt  (%rax)
    2935:	c3                   	ret
    2936:	66 2e 0f 1f 84 00 00 	cs nopw 0x0(%rax,%rax,1)
    293d:	00 00 00 

0000000000002940 <_ZSt16__introsort_loopIPelN9__gnu_cxx5__ops15_Iter_less_iterEEvT_S4_T0_T1_.isra.0>:
    2940:	48 89 f0             	mov    %rsi,%rax
    2943:	48 29 f8             	sub    %rdi,%rax
    2946:	48 3d 00 01 00 00    	cmp    $0x100,%rax
    294c:	0f 8e db 01 00 00    	jle    2b2d <_ZSt16__introsort_loopIPelN9__gnu_cxx5__ops15_Iter_less_iterEEvT_S4_T0_T1_.isra.0+0x1ed>
    2952:	41 55                	push   %r13
    2954:	49 89 d5             	mov    %rdx,%r13
    2957:	41 54                	push   %r12
    2959:	4c 8d 67 10          	lea    0x10(%rdi),%r12
    295d:	55                   	push   %rbp
    295e:	48 89 fd             	mov    %rdi,%rbp
    2961:	53                   	push   %rbx
    2962:	48 83 ec 08          	sub    $0x8,%rsp
    2966:	48 85 d2             	test   %rdx,%rdx
    2969:	0f 84 40 01 00 00    	je     2aaf <_ZSt16__introsort_loopIPelN9__gnu_cxx5__ops15_Iter_less_iterEEvT_S4_T0_T1_.isra.0+0x16f>
    296f:	db 6d 10             	fldt   0x10(%rbp)
    2972:	48 c1 f8 05          	sar    $0x5,%rax
    2976:	49 83 ed 01          	sub    $0x1,%r13
    297a:	48 c1 e0 04          	shl    $0x4,%rax
    297e:	48 01 e8             	add    %rbp,%rax
    2981:	db 28                	fldt   (%rax)
    2983:	db 6e f0             	fldt   -0x10(%rsi)
    2986:	db 6d 00             	fldt   0x0(%rbp)
    2989:	d9 ca                	fxch   %st(2)
    298b:	db f3                	fcomi  %st(3),%st
    298d:	0f 86 96 00 00 00    	jbe    2a29 <_ZSt16__introsort_loopIPelN9__gnu_cxx5__ops15_Iter_less_iterEEvT_S4_T0_T1_.isra.0+0xe9>
    2993:	d9 c9                	fxch   %st(1)
    2995:	db f1                	fcomi  %st(1),%st
    2997:	0f 87 f1 00 00 00    	ja     2a8e <_ZSt16__introsort_loopIPelN9__gnu_cxx5__ops15_Iter_less_iterEEvT_S4_T0_T1_.isra.0+0x14e>
    299d:	dd d9                	fstp   %st(1)
    299f:	db f2                	fcomi  %st(2),%st
    29a1:	0f 87 9a 00 00 00    	ja     2a41 <_ZSt16__introsort_loopIPelN9__gnu_cxx5__ops15_Iter_less_iterEEvT_S4_T0_T1_.isra.0+0x101>
    29a7:	dd d8                	fstp   %st(0)
    29a9:	d9 c9                	fxch   %st(1)
    29ab:	eb 06                	jmp    29b3 <_ZSt16__introsort_loopIPelN9__gnu_cxx5__ops15_Iter_less_iterEEvT_S4_T0_T1_.isra.0+0x73>
    29ad:	dd d8                	fstp   %st(0)
    29af:	dd d8                	fstp   %st(0)
    29b1:	d9 c9                	fxch   %st(1)
    29b3:	d9 c0                	fld    %st(0)
    29b5:	db 7d 00             	fstpt  0x0(%rbp)
    29b8:	d9 c9                	fxch   %st(1)
    29ba:	d9 c0                	fld    %st(0)
    29bc:	db 7d 10             	fstpt  0x10(%rbp)
    29bf:	db 6e f0             	fldt   -0x10(%rsi)
    29c2:	d9 ca                	fxch   %st(2)
    29c4:	48 89 f0             	mov    %rsi,%rax
    29c7:	4c 89 e3             	mov    %r12,%rbx
    29ca:	eb 0f                	jmp    29db <_ZSt16__introsort_loopIPelN9__gnu_cxx5__ops15_Iter_less_iterEEvT_S4_T0_T1_.isra.0+0x9b>
    29cc:	0f 1f 40 00          	nopl   0x0(%rax)
    29d0:	dd d9                	fstp   %st(1)
    29d2:	db 6b 10             	fldt   0x10(%rbx)
    29d5:	d9 c9                	fxch   %st(1)
    29d7:	48 83 c3 10          	add    $0x10,%rbx
    29db:	db f1                	fcomi  %st(1),%st
    29dd:	77 f1                	ja     29d0 <_ZSt16__introsort_loopIPelN9__gnu_cxx5__ops15_Iter_less_iterEEvT_S4_T0_T1_.isra.0+0x90>
    29df:	d9 ca                	fxch   %st(2)
    29e1:	48 83 e8 10          	sub    $0x10,%rax
    29e5:	db f2                	fcomi  %st(2),%st
    29e7:	76 1f                	jbe    2a08 <_ZSt16__introsort_loopIPelN9__gnu_cxx5__ops15_Iter_less_iterEEvT_S4_T0_T1_.isra.0+0xc8>
    29e9:	dd d8                	fstp   %st(0)
    29eb:	eb 05                	jmp    29f2 <_ZSt16__introsort_loopIPelN9__gnu_cxx5__ops15_Iter_less_iterEEvT_S4_T0_T1_.isra.0+0xb2>
    29ed:	0f 1f 00             	nopl   (%rax)
    29f0:	dd d8                	fstp   %st(0)
    29f2:	db 68 f0             	fldt   -0x10(%rax)
    29f5:	48 83 e8 10          	sub    $0x10,%rax
    29f9:	db f2                	fcomi  %st(2),%st
    29fb:	77 f3                	ja     29f0 <_ZSt16__introsort_loopIPelN9__gnu_cxx5__ops15_Iter_less_iterEEvT_S4_T0_T1_.isra.0+0xb0>
    29fd:	dd da                	fstp   %st(2)
    29ff:	d9 c9                	fxch   %st(1)
    2a01:	eb 0d                	jmp    2a10 <_ZSt16__introsort_loopIPelN9__gnu_cxx5__ops15_Iter_less_iterEEvT_S4_T0_T1_.isra.0+0xd0>
    2a03:	0f 1f 44 00 00       	nopl   0x0(%rax,%rax,1)
    2a08:	dd da                	fstp   %st(2)
    2a0a:	d9 c9                	fxch   %st(1)
    2a0c:	0f 1f 40 00          	nopl   0x0(%rax)
    2a10:	48 39 c3             	cmp    %rax,%rbx
    2a13:	73 4b                	jae    2a60 <_ZSt16__introsort_loopIPelN9__gnu_cxx5__ops15_Iter_less_iterEEvT_S4_T0_T1_.isra.0+0x120>
    2a15:	db 3b                	fstpt  (%rbx)
    2a17:	48 83 c3 10          	add    $0x10,%rbx
    2a1b:	db 38                	fstpt  (%rax)
    2a1d:	db 6d 00             	fldt   0x0(%rbp)
    2a20:	db 2b                	fldt   (%rbx)
    2a22:	db 68 f0             	fldt   -0x10(%rax)
    2a25:	d9 ca                	fxch   %st(2)
    2a27:	eb b2                	jmp    29db <_ZSt16__introsort_loopIPelN9__gnu_cxx5__ops15_Iter_less_iterEEvT_S4_T0_T1_.isra.0+0x9b>
    2a29:	d9 c9                	fxch   %st(1)
    2a2b:	db f3                	fcomi  %st(3),%st
    2a2d:	0f 87 7a ff ff ff    	ja     29ad <_ZSt16__introsort_loopIPelN9__gnu_cxx5__ops15_Iter_less_iterEEvT_S4_T0_T1_.isra.0+0x6d>
    2a33:	dd db                	fstp   %st(3)
    2a35:	d9 c9                	fxch   %st(1)
    2a37:	d9 ca                	fxch   %st(2)
    2a39:	db f1                	fcomi  %st(1),%st
    2a3b:	76 59                	jbe    2a96 <_ZSt16__introsort_loopIPelN9__gnu_cxx5__ops15_Iter_less_iterEEvT_S4_T0_T1_.isra.0+0x156>
    2a3d:	dd d9                	fstp   %st(1)
    2a3f:	eb 04                	jmp    2a45 <_ZSt16__introsort_loopIPelN9__gnu_cxx5__ops15_Iter_less_iterEEvT_S4_T0_T1_.isra.0+0x105>
    2a41:	dd da                	fstp   %st(2)
    2a43:	d9 c9                	fxch   %st(1)
    2a45:	db 7d 00             	fstpt  0x0(%rbp)
    2a48:	d9 c0                	fld    %st(0)
    2a4a:	db 7e f0             	fstpt  -0x10(%rsi)
    2a4d:	db 6d 10             	fldt   0x10(%rbp)
    2a50:	db 6d 00             	fldt   0x0(%rbp)
    2a53:	d9 ca                	fxch   %st(2)
    2a55:	e9 68 ff ff ff       	jmp    29c2 <_ZSt16__introsort_loopIPelN9__gnu_cxx5__ops15_Iter_less_iterEEvT_S4_T0_T1_.isra.0+0x82>
    2a5a:	66 0f 1f 44 00 00    	nopw   0x0(%rax,%rax,1)
    2a60:	dd d8                	fstp   %st(0)
    2a62:	dd d8                	fstp   %st(0)
    2a64:	4c 89 ea             	mov    %r13,%rdx
    2a67:	48 89 df             	mov    %rbx,%rdi
    2a6a:	e8 d1 fe ff ff       	call   2940 <_ZSt16__introsort_loopIPelN9__gnu_cxx5__ops15_Iter_less_iterEEvT_S4_T0_T1_.isra.0>
    2a6f:	48 89 d8             	mov    %rbx,%rax
    2a72:	48 29 e8             	sub    %rbp,%rax
    2a75:	48 3d 00 01 00 00    	cmp    $0x100,%rax
    2a7b:	0f 8e a1 00 00 00    	jle    2b22 <_ZSt16__introsort_loopIPelN9__gnu_cxx5__ops15_Iter_less_iterEEvT_S4_T0_T1_.isra.0+0x1e2>
    2a81:	4d 85 ed             	test   %r13,%r13
    2a84:	74 2c                	je     2ab2 <_ZSt16__introsort_loopIPelN9__gnu_cxx5__ops15_Iter_less_iterEEvT_S4_T0_T1_.isra.0+0x172>
    2a86:	48 89 de             	mov    %rbx,%rsi
    2a89:	e9 e1 fe ff ff       	jmp    296f <_ZSt16__introsort_loopIPelN9__gnu_cxx5__ops15_Iter_less_iterEEvT_S4_T0_T1_.isra.0+0x2f>
    2a8e:	dd d8                	fstp   %st(0)
    2a90:	dd da                	fstp   %st(2)
    2a92:	d9 c9                	fxch   %st(1)
    2a94:	eb 02                	jmp    2a98 <_ZSt16__introsort_loopIPelN9__gnu_cxx5__ops15_Iter_less_iterEEvT_S4_T0_T1_.isra.0+0x158>
    2a96:	dd d8                	fstp   %st(0)
    2a98:	db 7d 00             	fstpt  0x0(%rbp)
    2a9b:	db 38                	fstpt  (%rax)
    2a9d:	db 6d 10             	fldt   0x10(%rbp)
    2aa0:	db 6e f0             	fldt   -0x10(%rsi)
    2aa3:	db 6d 00             	fldt   0x0(%rbp)
    2aa6:	d9 ca                	fxch   %st(2)
    2aa8:	d9 c9                	fxch   %st(1)
    2aaa:	e9 13 ff ff ff       	jmp    29c2 <_ZSt16__introsort_loopIPelN9__gnu_cxx5__ops15_Iter_less_iterEEvT_S4_T0_T1_.isra.0+0x82>
    2aaf:	48 89 f3             	mov    %rsi,%rbx
    2ab2:	48 c1 f8 04          	sar    $0x4,%rax
    2ab6:	4c 8d 68 fe          	lea    -0x2(%rax),%r13
    2aba:	49 89 c4             	mov    %rax,%r12
    2abd:	49 d1 fd             	sar    $1,%r13
    2ac0:	eb 04                	jmp    2ac6 <_ZSt16__introsort_loopIPelN9__gnu_cxx5__ops15_Iter_less_iterEEvT_S4_T0_T1_.isra.0+0x186>
    2ac2:	49 83 ed 01          	sub    $0x1,%r13
    2ac6:	4c 89 e8             	mov    %r13,%rax
    2ac9:	4c 89 ee             	mov    %r13,%rsi
    2acc:	4c 89 e2             	mov    %r12,%rdx
    2acf:	48 89 ef             	mov    %rbp,%rdi
    2ad2:	48 c1 e0 04          	shl    $0x4,%rax
    2ad6:	ff 74 05 08          	push   0x8(%rbp,%rax,1)
    2ada:	ff 74 05 00          	push   0x0(%rbp,%rax,1)
    2ade:	e8 0d fd ff ff       	call   27f0 <_ZSt13__adjust_heapIPeleN9__gnu_cxx5__ops15_Iter_less_iterEEvT_T0_S5_T1_T2_.isra.0>
    2ae3:	59                   	pop    %rcx
    2ae4:	5e                   	pop    %rsi
    2ae5:	4d 85 ed             	test   %r13,%r13
    2ae8:	75 d8                	jne    2ac2 <_ZSt16__introsort_loopIPelN9__gnu_cxx5__ops15_Iter_less_iterEEvT_S4_T0_T1_.isra.0+0x182>
    2aea:	66 0f 1f 44 00 00    	nopw   0x0(%rax,%rax,1)
    2af0:	db 6b f0             	fldt   -0x10(%rbx)
    2af3:	48 83 eb 10          	sub    $0x10,%rbx
    2af7:	48 83 ec 10          	sub    $0x10,%rsp
    2afb:	31 f6                	xor    %esi,%esi
    2afd:	49 89 dc             	mov    %rbx,%r12
    2b00:	48 89 ef             	mov    %rbp,%rdi
    2b03:	db 6d 00             	fldt   0x0(%rbp)
    2b06:	49 29 ec             	sub    %rbp,%r12
    2b09:	4c 89 e2             	mov    %r12,%rdx
    2b0c:	48 c1 fa 04          	sar    $0x4,%rdx
    2b10:	db 3b                	fstpt  (%rbx)
    2b12:	db 3c 24             	fstpt  (%rsp)
    2b15:	e8 d6 fc ff ff       	call   27f0 <_ZSt13__adjust_heapIPeleN9__gnu_cxx5__ops15_Iter_less_iterEEvT_T0_S5_T1_T2_.isra.0>
    2b1a:	58                   	pop    %rax
    2b1b:	5a                   	pop    %rdx
    2b1c:	49 83 fc 10          	cmp    $0x10,%r12
    2b20:	7f ce                	jg     2af0 <_ZSt16__introsort_loopIPelN9__gnu_cxx5__ops15_Iter_less_iterEEvT_S4_T0_T1_.isra.0+0x1b0>
    2b22:	48 83 c4 08          	add    $0x8,%rsp
    2b26:	5b                   	pop    %rbx
    2b27:	5d                   	pop    %rbp
    2b28:	41 5c                	pop    %r12
    2b2a:	41 5d                	pop    %r13
    2b2c:	c3                   	ret
    2b2d:	c3                   	ret
    2b2e:	66 90                	xchg   %ax,%ax

0000000000002b30 <_ZL6forceldddddddjjPPPedddd>:
    2b30:	41 57                	push   %r15
    2b32:	66 44 0f 28 c0       	movapd %xmm0,%xmm8
    2b37:	66 0f ef c0          	pxor   %xmm0,%xmm0
    2b3b:	41 89 f7             	mov    %esi,%r15d
    2b3e:	41 56                	push   %r14
    2b40:	41 89 f6             	mov    %esi,%r14d
    2b43:	41 55                	push   %r13
    2b45:	49 89 cd             	mov    %rcx,%r13
    2b48:	41 54                	push   %r12
    2b4a:	49 89 fc             	mov    %rdi,%r12
    2b4d:	55                   	push   %rbp
    2b4e:	53                   	push   %rbx
    2b4f:	89 d3                	mov    %edx,%ebx
    2b51:	48 81 ec d8 01 00 00 	sub    $0x1d8,%rsp
    2b58:	f2 0f 11 14 24       	movsd  %xmm2,(%rsp)
    2b5d:	66 41 0f 28 d0       	movapd %xmm8,%xmm2
    2b62:	dd 04 24             	fldl   (%rsp)
    2b65:	66 0f 57 15 b3 79 00 	xorpd  0x79b3(%rip),%xmm2        # a520 <_IO_stdin_used+0x520>
    2b6c:	00 
    2b6d:	f2 0f 11 4c 24 10    	movsd  %xmm1,0x10(%rsp)
    2b73:	f2 0f 11 1c 24       	movsd  %xmm3,(%rsp)
    2b78:	f2 0f 11 64 24 08    	movsd  %xmm4,0x8(%rsp)
    2b7e:	f2 0f 11 7c 24 18    	movsd  %xmm7,0x18(%rsp)
    2b84:	64 48 8b 04 25 28 00 	mov    %fs:0x28,%rax
    2b8b:	00 00 
    2b8d:	48 89 84 24 c8 01 00 	mov    %rax,0x1c8(%rsp)
    2b94:	00 
    2b95:	31 c0                	xor    %eax,%eax
    2b97:	66 0f 2f ea          	comisd %xmm2,%xmm5
    2b9b:	48 c7 47 10 00 00 00 	movq   $0x0,0x10(%rdi)
    2ba2:	00 
    2ba3:	0f 11 07             	movups %xmm0,(%rdi)
    2ba6:	0f 87 14 01 00 00    	ja     2cc0 <_ZL6forceldddddddjjPPPedddd+0x190>
    2bac:	31 c0                	xor    %eax,%eax
    2bae:	66 44 0f 2f c6       	comisd %xmm6,%xmm8
    2bb3:	77 5b                	ja     2c10 <_ZL6forceldddddddjjPPPedddd+0xe0>
    2bb5:	66 0f 2f d6          	comisd %xmm6,%xmm2
    2bb9:	77 15                	ja     2bd0 <_ZL6forceldddddddjjPPPedddd+0xa0>
    2bbb:	66 41 0f 2f e8       	comisd %xmm8,%xmm5
    2bc0:	0f 86 22 02 00 00    	jbe    2de8 <_ZL6forceldddddddjjPPPedddd+0x2b8>
    2bc6:	dd d8                	fstp   %st(0)
    2bc8:	eb 16                	jmp    2be0 <_ZL6forceldddddddjjPPPedddd+0xb0>
    2bca:	66 0f 1f 44 00 00    	nopw   0x0(%rax,%rax,1)
    2bd0:	dd d8                	fstp   %st(0)
    2bd2:	eb 0c                	jmp    2be0 <_ZL6forceldddddddjjPPPedddd+0xb0>
    2bd4:	dd d8                	fstp   %st(0)
    2bd6:	eb 08                	jmp    2be0 <_ZL6forceldddddddjjPPPedddd+0xb0>
    2bd8:	dd d8                	fstp   %st(0)
    2bda:	eb 04                	jmp    2be0 <_ZL6forceldddddddjjPPPedddd+0xb0>
    2bdc:	dd d8                	fstp   %st(0)
    2bde:	66 90                	xchg   %ax,%ax
    2be0:	48 8b 84 24 c8 01 00 	mov    0x1c8(%rsp),%rax
    2be7:	00 
    2be8:	64 48 2b 04 25 28 00 	sub    %fs:0x28,%rax
    2bef:	00 00 
    2bf1:	0f 85 8d 16 00 00    	jne    4284 <_ZL6forceldddddddjjPPPedddd+0x1754>
    2bf7:	48 81 c4 d8 01 00 00 	add    $0x1d8,%rsp
    2bfe:	4c 89 e0             	mov    %r12,%rax
    2c01:	5b                   	pop    %rbx
    2c02:	5d                   	pop    %rbp
    2c03:	41 5c                	pop    %r12
    2c05:	41 5d                	pop    %r13
    2c07:	41 5e                	pop    %r14
    2c09:	41 5f                	pop    %r15
    2c0b:	c3                   	ret
    2c0c:	0f 1f 40 00          	nopl   0x0(%rax)
    2c10:	66 0f 28 c6          	movapd %xmm6,%xmm0
    2c14:	f2 0f 11 6c 24 40    	movsd  %xmm5,0x40(%rsp)
    2c1a:	f2 41 0f 5e c0       	divsd  %xmm8,%xmm0
    2c1f:	dd 5c 24 70          	fstpl  0x70(%rsp)
    2c23:	f2 0f 11 54 24 38    	movsd  %xmm2,0x38(%rsp)
    2c29:	f2 0f 11 74 24 30    	movsd  %xmm6,0x30(%rsp)
    2c2f:	f2 44 0f 11 44 24 20 	movsd  %xmm8,0x20(%rsp)
    2c36:	e8 f5 f7 ff ff       	call   2430 <acos@plt>
    2c3b:	43 8d 04 3f          	lea    (%r15,%r15,1),%eax
    2c3f:	66 0f ef e4          	pxor   %xmm4,%xmm4
    2c43:	f2 0f 10 0d 8d 78 00 	movsd  0x788d(%rip),%xmm1        # a4d8 <_IO_stdin_used+0x4d8>
    2c4a:	00 
    2c4b:	f2 48 0f 2a e0       	cvtsi2sd %rax,%xmm4
    2c50:	44 89 f8             	mov    %r15d,%eax
    2c53:	dd 44 24 70          	fldl   0x70(%rsp)
    2c57:	f2 44 0f 10 44 24 20 	movsd  0x20(%rsp),%xmm8
    2c5e:	66 0f 28 d9          	movapd %xmm1,%xmm3
    2c62:	f2 0f 10 74 24 30    	movsd  0x30(%rsp),%xmm6
    2c68:	f2 0f 10 54 24 38    	movsd  0x38(%rsp),%xmm2
    2c6e:	f2 0f 10 6c 24 40    	movsd  0x40(%rsp),%xmm5
    2c74:	f2 0f 5e dc          	divsd  %xmm4,%xmm3
    2c78:	f2 0f 10 25 60 78 00 	movsd  0x7860(%rip),%xmm4        # a4e0 <_IO_stdin_used+0x4e0>
    2c7f:	00 
    2c80:	f2 0f 5c c3          	subsd  %xmm3,%xmm0
    2c84:	66 0f ef db          	pxor   %xmm3,%xmm3
    2c88:	f2 48 0f 2a d8       	cvtsi2sd %rax,%xmm3
    2c8d:	f2 0f 5e cb          	divsd  %xmm3,%xmm1
    2c91:	f2 0f 10 1d 5f 78 00 	movsd  0x785f(%rip),%xmm3        # a4f8 <_IO_stdin_used+0x4f8>
    2c98:	00 
    2c99:	f2 0f 5e c1          	divsd  %xmm1,%xmm0
    2c9d:	66 0f 28 c8          	movapd %xmm0,%xmm1
    2ca1:	66 0f 54 cb          	andpd  %xmm3,%xmm1
    2ca5:	66 0f 2e e1          	ucomisd %xmm1,%xmm4
    2ca9:	0f 87 f9 00 00 00    	ja     2da8 <_ZL6forceldddddddjjPPPedddd+0x278>
    2caf:	f2 0f 2c c0          	cvttsd2si %xmm0,%eax
    2cb3:	e9 fd fe ff ff       	jmp    2bb5 <_ZL6forceldddddddjjPPPedddd+0x85>
    2cb8:	0f 1f 84 00 00 00 00 	nopl   0x0(%rax,%rax,1)
    2cbf:	00 
    2cc0:	66 0f 28 c5          	movapd %xmm5,%xmm0
    2cc4:	f2 0f 11 74 24 40    	movsd  %xmm6,0x40(%rsp)
    2cca:	f2 41 0f 5e c0       	divsd  %xmm8,%xmm0
    2ccf:	dd 5c 24 70          	fstpl  0x70(%rsp)
    2cd3:	f2 0f 11 54 24 38    	movsd  %xmm2,0x38(%rsp)
    2cd9:	f2 0f 11 6c 24 30    	movsd  %xmm5,0x30(%rsp)
    2cdf:	f2 44 0f 11 44 24 20 	movsd  %xmm8,0x20(%rsp)
    2ce6:	e8 45 f7 ff ff       	call   2430 <acos@plt>
    2ceb:	43 8d 04 3f          	lea    (%r15,%r15,1),%eax
    2cef:	66 0f ef e4          	pxor   %xmm4,%xmm4
    2cf3:	f2 0f 10 0d dd 77 00 	movsd  0x77dd(%rip),%xmm1        # a4d8 <_IO_stdin_used+0x4d8>
    2cfa:	00 
    2cfb:	f2 48 0f 2a e0       	cvtsi2sd %rax,%xmm4
    2d00:	44 89 f8             	mov    %r15d,%eax
    2d03:	dd 44 24 70          	fldl   0x70(%rsp)
    2d07:	f2 44 0f 10 44 24 20 	movsd  0x20(%rsp),%xmm8
    2d0e:	66 0f 28 d9          	movapd %xmm1,%xmm3
    2d12:	f2 0f 10 6c 24 30    	movsd  0x30(%rsp),%xmm5
    2d18:	f2 0f 10 54 24 38    	movsd  0x38(%rsp),%xmm2
    2d1e:	f2 0f 10 74 24 40    	movsd  0x40(%rsp),%xmm6
    2d24:	f2 0f 5e dc          	divsd  %xmm4,%xmm3
    2d28:	f2 0f 10 25 b0 77 00 	movsd  0x77b0(%rip),%xmm4        # a4e0 <_IO_stdin_used+0x4e0>
    2d2f:	00 
    2d30:	f2 0f 5c c3          	subsd  %xmm3,%xmm0
    2d34:	66 0f ef db          	pxor   %xmm3,%xmm3
    2d38:	f2 48 0f 2a d8       	cvtsi2sd %rax,%xmm3
    2d3d:	f2 0f 5e cb          	divsd  %xmm3,%xmm1
    2d41:	f2 0f 10 1d af 77 00 	movsd  0x77af(%rip),%xmm3        # a4f8 <_IO_stdin_used+0x4f8>
    2d48:	00 
    2d49:	f2 0f 5e c1          	divsd  %xmm1,%xmm0
    2d4d:	66 0f 28 c8          	movapd %xmm0,%xmm1
    2d51:	66 0f 54 cb          	andpd  %xmm3,%xmm1
    2d55:	66 0f 2e e1          	ucomisd %xmm1,%xmm4
    2d59:	77 0d                	ja     2d68 <_ZL6forceldddddddjjPPPedddd+0x238>
    2d5b:	f2 44 0f 2c f0       	cvttsd2si %xmm0,%r14d
    2d60:	e9 47 fe ff ff       	jmp    2bac <_ZL6forceldddddddjjPPPedddd+0x7c>
    2d65:	0f 1f 00             	nopl   (%rax)
    2d68:	f2 48 0f 2c c0       	cvttsd2si %xmm0,%rax
    2d6d:	66 0f ef c9          	pxor   %xmm1,%xmm1
    2d71:	66 0f 28 e0          	movapd %xmm0,%xmm4
    2d75:	f2 0f 10 3d 6b 77 00 	movsd  0x776b(%rip),%xmm7        # a4e8 <_IO_stdin_used+0x4e8>
    2d7c:	00 
    2d7d:	66 0f 55 d8          	andnpd %xmm0,%xmm3
    2d81:	f2 48 0f 2a c8       	cvtsi2sd %rax,%xmm1
    2d86:	f2 0f c2 e1 06       	cmpnlesd %xmm1,%xmm4
    2d8b:	66 0f 54 e7          	andpd  %xmm7,%xmm4
    2d8f:	f2 0f 58 cc          	addsd  %xmm4,%xmm1
    2d93:	66 0f 56 cb          	orpd   %xmm3,%xmm1
    2d97:	66 0f 28 c1          	movapd %xmm1,%xmm0
    2d9b:	f2 44 0f 2c f0       	cvttsd2si %xmm0,%r14d
    2da0:	e9 07 fe ff ff       	jmp    2bac <_ZL6forceldddddddjjPPPedddd+0x7c>
    2da5:	0f 1f 00             	nopl   (%rax)
    2da8:	f2 48 0f 2c c0       	cvttsd2si %xmm0,%rax
    2dad:	66 0f ef c9          	pxor   %xmm1,%xmm1
    2db1:	f2 0f 10 3d 2f 77 00 	movsd  0x772f(%rip),%xmm7        # a4e8 <_IO_stdin_used+0x4e8>
    2db8:	00 
    2db9:	66 0f 55 d8          	andnpd %xmm0,%xmm3
    2dbd:	f2 48 0f 2a c8       	cvtsi2sd %rax,%xmm1
    2dc2:	66 0f 28 e1          	movapd %xmm1,%xmm4
    2dc6:	f2 0f c2 e0 06       	cmpnlesd %xmm0,%xmm4
    2dcb:	66 0f 54 e7          	andpd  %xmm7,%xmm4
    2dcf:	f2 0f 5c cc          	subsd  %xmm4,%xmm1
    2dd3:	66 0f 56 cb          	orpd   %xmm3,%xmm1
    2dd7:	66 0f 28 c1          	movapd %xmm1,%xmm0
    2ddb:	f2 0f 2c c0          	cvttsd2si %xmm0,%eax
    2ddf:	e9 d1 fd ff ff       	jmp    2bb5 <_ZL6forceldddddddjjPPPedddd+0x85>
    2de4:	0f 1f 40 00          	nopl   0x0(%rax)
    2de8:	f2 0f 10 7c 24 10    	movsd  0x10(%rsp),%xmm7
    2dee:	66 0f ef c0          	pxor   %xmm0,%xmm0
    2df2:	66 0f 2e f8          	ucomisd %xmm0,%xmm7
    2df6:	7a 06                	jp     2dfe <_ZL6forceldddddddjjPPPedddd+0x2ce>
    2df8:	0f 84 d6 00 00 00    	je     2ed4 <_ZL6forceldddddddjjPPPedddd+0x3a4>
    2dfe:	dd 5c 24 70          	fstpl  0x70(%rsp)
    2e02:	f2 0f 10 04 24       	movsd  (%rsp),%xmm0
    2e07:	f2 0f 5e 44 24 10    	divsd  0x10(%rsp),%xmm0
    2e0d:	89 44 24 30          	mov    %eax,0x30(%rsp)
    2e11:	f2 0f 11 74 24 50    	movsd  %xmm6,0x50(%rsp)
    2e17:	f2 0f 11 6c 24 40    	movsd  %xmm5,0x40(%rsp)
    2e1d:	f2 44 0f 11 44 24 38 	movsd  %xmm8,0x38(%rsp)
    2e24:	e8 e7 f5 ff ff       	call   2410 <atan@plt>
    2e29:	f2 0f 11 44 24 20    	movsd  %xmm0,0x20(%rsp)
    2e2f:	dd 44 24 20          	fldl   0x20(%rsp)
    2e33:	f2 0f 10 44 24 08    	movsd  0x8(%rsp),%xmm0
    2e39:	f2 0f 5e 44 24 10    	divsd  0x10(%rsp),%xmm0
    2e3f:	dd 54 24 78          	fstl   0x78(%rsp)
    2e43:	db 7c 24 60          	fstpt  0x60(%rsp)
    2e47:	e8 c4 f5 ff ff       	call   2410 <atan@plt>
    2e4c:	8b 44 24 30          	mov    0x30(%rsp),%eax
    2e50:	f2 44 0f 10 44 24 38 	movsd  0x38(%rsp),%xmm8
    2e57:	f2 0f 11 44 24 20    	movsd  %xmm0,0x20(%rsp)
    2e5d:	66 0f ef c0          	pxor   %xmm0,%xmm0
    2e61:	66 0f 2f 04 24       	comisd (%rsp),%xmm0
    2e66:	dd 44 24 20          	fldl   0x20(%rsp)
    2e6a:	f2 0f 10 6c 24 40    	movsd  0x40(%rsp),%xmm5
    2e70:	dd 44 24 70          	fldl   0x70(%rsp)
    2e74:	f2 0f 10 74 24 50    	movsd  0x50(%rsp),%xmm6
    2e7a:	0f 87 f4 01 00 00    	ja     3074 <_ZL6forceldddddddjjPPPedddd+0x544>
    2e80:	f2 0f 10 3c 24       	movsd  (%rsp),%xmm7
    2e85:	66 0f 2f f8          	comisd %xmm0,%xmm7
    2e89:	0f 86 81 0c 00 00    	jbe    3b10 <_ZL6forceldddddddjjPPPedddd+0xfe0>
    2e8f:	66 0f 2f 44 24 10    	comisd 0x10(%rsp),%xmm0
    2e95:	0f 87 1a 06 00 00    	ja     34b5 <_ZL6forceldddddddjjPPPedddd+0x985>
    2e9b:	dd 44 24 78          	fldl   0x78(%rsp)
    2e9f:	66 0f 2f 44 24 08    	comisd 0x8(%rsp),%xmm0
    2ea5:	db bc 24 80 01 00 00 	fstpt  0x180(%rsp)
    2eac:	0f 87 ae 12 00 00    	ja     4160 <_ZL6forceldddddddjjPPPedddd+0x1630>
    2eb2:	f2 0f 10 7c 24 08    	movsd  0x8(%rsp),%xmm7
    2eb8:	66 0f 2f f8          	comisd %xmm0,%xmm7
    2ebc:	77 4e                	ja     2f0c <_ZL6forceldddddddjjPPPedddd+0x3dc>
    2ebe:	dd d9                	fstp   %st(1)
    2ec0:	f2 0f 10 7c 24 10    	movsd  0x10(%rsp),%xmm7
    2ec6:	66 0f 2f f8          	comisd %xmm0,%xmm7
    2eca:	0f 86 ec 12 00 00    	jbe    41bc <_ZL6forceldddddddjjPPPedddd+0x168c>
    2ed0:	d9 ee                	fldz
    2ed2:	eb 4c                	jmp    2f20 <_ZL6forceldddddddjjPPPedddd+0x3f0>
    2ed4:	f2 0f 10 3c 24       	movsd  (%rsp),%xmm7
    2ed9:	66 0f 2f f8          	comisd %xmm0,%xmm7
    2edd:	0f 86 d9 01 00 00    	jbe    30bc <_ZL6forceldddddddjjPPPedddd+0x58c>
    2ee3:	dd 05 e7 75 00 00    	fldl   0x75e7(%rip)        # a4d0 <_IO_stdin_used+0x4d0>
    2ee9:	f2 0f 10 7c 24 08    	movsd  0x8(%rsp),%xmm7
    2eef:	66 0f ef c0          	pxor   %xmm0,%xmm0
    2ef3:	db bc 24 80 01 00 00 	fstpt  0x180(%rsp)
    2efa:	66 0f 2f f8          	comisd %xmm0,%xmm7
    2efe:	0f 86 2c 0b 00 00    	jbe    3a30 <_ZL6forceldddddddjjPPPedddd+0xf00>
    2f04:	dd 05 c6 75 00 00    	fldl   0x75c6(%rip)        # a4d0 <_IO_stdin_used+0x4d0>
    2f0a:	eb 14                	jmp    2f20 <_ZL6forceldddddddjjPPPedddd+0x3f0>
    2f0c:	d9 c9                	fxch   %st(1)
    2f0e:	eb 10                	jmp    2f20 <_ZL6forceldddddddjjPPPedddd+0x3f0>
    2f10:	d9 c9                	fxch   %st(1)
    2f12:	eb 0c                	jmp    2f20 <_ZL6forceldddddddjjPPPedddd+0x3f0>
    2f14:	d9 c9                	fxch   %st(1)
    2f16:	66 2e 0f 1f 84 00 00 	cs nopw 0x0(%rax,%rax,1)
    2f1d:	00 00 00 
    2f20:	db bc 24 90 01 00 00 	fstpt  0x190(%rsp)
    2f27:	66 0f ef c0          	pxor   %xmm0,%xmm0
    2f2b:	dd 54 24 20          	fstl   0x20(%rsp)
    2f2f:	f2 0f 10 7c 24 20    	movsd  0x20(%rsp),%xmm7
    2f35:	66 0f 2e f8          	ucomisd %xmm0,%xmm7
    2f39:	0f 8a d4 05 00 00    	jp     3513 <_ZL6forceldddddddjjPPPedddd+0x9e3>
    2f3f:	0f 85 ce 05 00 00    	jne    3513 <_ZL6forceldddddddjjPPPedddd+0x9e3>
    2f45:	f2 0f 10 3c 24       	movsd  (%rsp),%xmm7
    2f4a:	66 0f 2f f8          	comisd %xmm0,%xmm7
    2f4e:	0f 86 69 0b 00 00    	jbe    3abd <_ZL6forceldddddddjjPPPedddd+0xf8d>
    2f54:	dd 05 76 75 00 00    	fldl   0x7576(%rip)        # a4d0 <_IO_stdin_used+0x4d0>
    2f5a:	f2 0f 10 7c 24 08    	movsd  0x8(%rsp),%xmm7
    2f60:	66 0f ef c0          	pxor   %xmm0,%xmm0
    2f64:	db bc 24 a0 01 00 00 	fstpt  0x1a0(%rsp)
    2f6b:	66 0f 2f f8          	comisd %xmm0,%xmm7
    2f6f:	0f 86 e2 09 00 00    	jbe    3957 <_ZL6forceldddddddjjPPPedddd+0xe27>
    2f75:	dd 05 55 75 00 00    	fldl   0x7555(%rip)        # a4d0 <_IO_stdin_used+0x4d0>
    2f7b:	d9 c9                	fxch   %st(1)
    2f7d:	48 8d ac 24 80 01 00 	lea    0x180(%rsp),%rbp
    2f84:	00 
    2f85:	dd 5c 24 40          	fstpl  0x40(%rsp)
    2f89:	ba 04 00 00 00       	mov    $0x4,%edx
    2f8e:	48 8d b4 24 c0 01 00 	lea    0x1c0(%rsp),%rsi
    2f95:	00 
    2f96:	48 89 ef             	mov    %rbp,%rdi
    2f99:	89 44 24 20          	mov    %eax,0x20(%rsp)
    2f9d:	db bc 24 b0 01 00 00 	fstpt  0x1b0(%rsp)
    2fa4:	e8 97 f9 ff ff       	call   2940 <_ZSt16__introsort_loopIPelN9__gnu_cxx5__ops15_Iter_less_iterEEvT_S4_T0_T1_.isra.0>
    2fa9:	8b 44 24 20          	mov    0x20(%rsp),%eax
    2fad:	4c 8d 84 24 b0 01 00 	lea    0x1b0(%rsp),%r8
    2fb4:	00 
    2fb5:	4c 89 64 24 38       	mov    %r12,0x38(%rsp)
    2fba:	49 89 ec             	mov    %rbp,%r12
    2fbd:	89 5c 24 78          	mov    %ebx,0x78(%rsp)
    2fc1:	48 89 eb             	mov    %rbp,%rbx
    2fc4:	4c 89 c5             	mov    %r8,%rbp
    2fc7:	89 44 24 30          	mov    %eax,0x30(%rsp)
    2fcb:	f2 44 0f 11 44 24 70 	movsd  %xmm8,0x70(%rsp)
    2fd2:	f2 0f 11 6c 24 50    	movsd  %xmm5,0x50(%rsp)
    2fd8:	f2 0f 11 74 24 60    	movsd  %xmm6,0x60(%rsp)
    2fde:	eb 48                	jmp    3028 <_ZL6forceldddddddjjPPPedddd+0x4f8>
    2fe0:	48 89 da             	mov    %rbx,%rdx
    2fe3:	4c 29 e2             	sub    %r12,%rdx
    2fe6:	48 83 fa 10          	cmp    $0x10,%rdx
    2fea:	0f 8e f4 06 00 00    	jle    36e4 <_ZL6forceldddddddjjPPPedddd+0xbb4>
    2ff0:	dd d8                	fstp   %st(0)
    2ff2:	bf 10 00 00 00       	mov    $0x10,%edi
    2ff7:	4c 89 e6             	mov    %r12,%rsi
    2ffa:	db 7c 24 20          	fstpt  0x20(%rsp)
    2ffe:	48 29 d7             	sub    %rdx,%rdi
    3001:	48 01 df             	add    %rbx,%rdi
    3004:	e8 77 f5 ff ff       	call   2580 <memmove@plt>
    3009:	db 6c 24 20          	fldt   0x20(%rsp)
    300d:	eb 09                	jmp    3018 <_ZL6forceldddddddjjPPPedddd+0x4e8>
    300f:	dd d8                	fstp   %st(0)
    3011:	0f 1f 80 00 00 00 00 	nopl   0x0(%rax)
    3018:	db bc 24 80 01 00 00 	fstpt  0x180(%rsp)
    301f:	48 39 eb             	cmp    %rbp,%rbx
    3022:	0f 84 a5 00 00 00    	je     30cd <_ZL6forceldddddddjjPPPedddd+0x59d>
    3028:	48 89 df             	mov    %rbx,%rdi
    302b:	48 83 c3 10          	add    $0x10,%rbx
    302f:	db 6f 10             	fldt   0x10(%rdi)
    3032:	48 89 de             	mov    %rbx,%rsi
    3035:	48 89 fa             	mov    %rdi,%rdx
    3038:	db ac 24 80 01 00 00 	fldt   0x180(%rsp)
    303f:	db f1                	fcomi  %st(1),%st
    3041:	77 9d                	ja     2fe0 <_ZL6forceldddddddjjPPPedddd+0x4b0>
    3043:	dd d8                	fstp   %st(0)
    3045:	db 2f                	fldt   (%rdi)
    3047:	db f1                	fcomi  %st(1),%st
    3049:	76 19                	jbe    3064 <_ZL6forceldddddddjjPPPedddd+0x534>
    304b:	0f 1f 44 00 00       	nopl   0x0(%rax,%rax,1)
    3050:	db 7a 10             	fstpt  0x10(%rdx)
    3053:	48 89 d6             	mov    %rdx,%rsi
    3056:	48 83 ea 10          	sub    $0x10,%rdx
    305a:	db 2a                	fldt   (%rdx)
    305c:	db f1                	fcomi  %st(1),%st
    305e:	77 f0                	ja     3050 <_ZL6forceldddddddjjPPPedddd+0x520>
    3060:	dd d8                	fstp   %st(0)
    3062:	eb 0c                	jmp    3070 <_ZL6forceldddddddjjPPPedddd+0x540>
    3064:	dd d8                	fstp   %st(0)
    3066:	66 2e 0f 1f 84 00 00 	cs nopw 0x0(%rax,%rax,1)
    306d:	00 00 00 
    3070:	db 3e                	fstpt  (%rsi)
    3072:	eb ab                	jmp    301f <_ZL6forceldddddddjjPPPedddd+0x4ef>
    3074:	f2 0f 10 7c 24 10    	movsd  0x10(%rsp),%xmm7
    307a:	66 0f 2f f8          	comisd %xmm0,%xmm7
    307e:	0f 86 c3 09 00 00    	jbe    3a47 <_ZL6forceldddddddjjPPPedddd+0xf17>
    3084:	dd 05 66 74 00 00    	fldl   0x7466(%rip)        # a4f0 <_IO_stdin_used+0x4f0>
    308a:	db 6c 24 60          	fldt   0x60(%rsp)
    308e:	66 0f 2f 44 24 08    	comisd 0x8(%rsp),%xmm0
    3094:	d8 c1                	fadd   %st(1),%st
    3096:	db bc 24 80 01 00 00 	fstpt  0x180(%rsp)
    309d:	0f 87 5e 0f 00 00    	ja     4001 <_ZL6forceldddddddjjPPPedddd+0x14d1>
    30a3:	dd d8                	fstp   %st(0)
    30a5:	f2 0f 10 7c 24 08    	movsd  0x8(%rsp),%xmm7
    30ab:	66 0f 2f f8          	comisd %xmm0,%xmm7
    30af:	0f 87 5b fe ff ff    	ja     2f10 <_ZL6forceldddddddjjPPPedddd+0x3e0>
    30b5:	dd d9                	fstp   %st(1)
    30b7:	e9 14 fe ff ff       	jmp    2ed0 <_ZL6forceldddddddjjPPPedddd+0x3a0>
    30bc:	66 0f 2f c7          	comisd %xmm7,%xmm0
    30c0:	0f 87 09 0f 00 00    	ja     3fcf <_ZL6forceldddddddjjPPPedddd+0x149f>
    30c6:	d9 ee                	fldz
    30c8:	e9 1c fe ff ff       	jmp    2ee9 <_ZL6forceldddddddjjPPPedddd+0x3b9>
    30cd:	f2 44 0f 10 44 24 70 	movsd  0x70(%rsp),%xmm8
    30d4:	66 0f ef c0          	pxor   %xmm0,%xmm0
    30d8:	66 0f 2f 44 24 10    	comisd 0x10(%rsp),%xmm0
    30de:	dd 44 24 40          	fldl   0x40(%rsp)
    30e2:	8b 44 24 30          	mov    0x30(%rsp),%eax
    30e6:	66 45 0f 28 c8       	movapd %xmm8,%xmm9
    30eb:	4c 8b 64 24 38       	mov    0x38(%rsp),%r12
    30f0:	f2 0f 10 6c 24 50    	movsd  0x50(%rsp),%xmm5
    30f6:	f2 0f 10 74 24 60    	movsd  0x60(%rsp),%xmm6
    30fc:	8b 5c 24 78          	mov    0x78(%rsp),%ebx
    3100:	66 45 0f 14 c9       	unpcklpd %xmm9,%xmm9
    3105:	0f 83 ff 04 00 00    	jae    360a <_ZL6forceldddddddjjPPPedddd+0xada>
    310b:	d9 bc 24 2e 01 00 00 	fnstcw 0x12e(%rsp)
    3112:	89 da                	mov    %ebx,%edx
    3114:	66 0f ef d2          	pxor   %xmm2,%xmm2
    3118:	f2 0f 10 0d d0 73 00 	movsd  0x73d0(%rip),%xmm1        # a4f0 <_IO_stdin_used+0x4f0>
    311f:	00 
    3120:	f2 48 0f 2a d2       	cvtsi2sd %rdx,%xmm2
    3125:	f2 0f 10 7c 24 10    	movsd  0x10(%rsp),%xmm7
    312b:	0f b7 94 24 2e 01 00 	movzwl 0x12e(%rsp),%edx
    3132:	00 
    3133:	80 e6 f3             	and    $0xf3,%dh
    3136:	f2 0f 5e ca          	divsd  %xmm2,%xmm1
    313a:	80 ce 04             	or     $0x4,%dh
    313d:	66 89 94 24 2c 01 00 	mov    %dx,0x12c(%rsp)
    3144:	00 
    3145:	0f b7 94 24 2e 01 00 	movzwl 0x12e(%rsp),%edx
    314c:	00 
    314d:	80 ce 0c             	or     $0xc,%dh
    3150:	66 89 94 24 2a 01 00 	mov    %dx,0x12a(%rsp)
    3157:	00 
    3158:	0f b7 94 24 2e 01 00 	movzwl 0x12e(%rsp),%edx
    315f:	00 
    3160:	80 e6 f3             	and    $0xf3,%dh
    3163:	80 ce 08             	or     $0x8,%dh
    3166:	66 89 94 24 28 01 00 	mov    %dx,0x128(%rsp)
    316d:	00 
    316e:	f2 0f 11 4c 24 20    	movsd  %xmm1,0x20(%rsp)
    3174:	dd 44 24 20          	fldl   0x20(%rsp)
    3178:	d9 c0                	fld    %st(0)
    317a:	db ac 24 80 01 00 00 	fldt   0x180(%rsp)
    3181:	d8 f2                	fdiv   %st(2),%st
    3183:	d9 ac 24 2c 01 00 00 	fldcw  0x12c(%rsp)
    318a:	d9 fc                	frndint
    318c:	d9 ac 24 2e 01 00 00 	fldcw  0x12e(%rsp)
    3193:	d9 ac 24 2a 01 00 00 	fldcw  0x12a(%rsp)
    319a:	db 5c 24 20          	fistpl 0x20(%rsp)
    319e:	d9 ac 24 2e 01 00 00 	fldcw  0x12e(%rsp)
    31a5:	db ac 24 b0 01 00 00 	fldt   0x1b0(%rsp)
    31ac:	8b 4c 24 20          	mov    0x20(%rsp),%ecx
    31b0:	de f2                	fdivp  %st,%st(2)
    31b2:	d9 c9                	fxch   %st(1)
    31b4:	d9 ac 24 28 01 00 00 	fldcw  0x128(%rsp)
    31bb:	d9 fc                	frndint
    31bd:	d9 ac 24 2e 01 00 00 	fldcw  0x12e(%rsp)
    31c4:	d9 ac 24 2a 01 00 00 	fldcw  0x12a(%rsp)
    31cb:	db 5c 24 20          	fistpl 0x20(%rsp)
    31cf:	d9 ac 24 2e 01 00 00 	fldcw  0x12e(%rsp)
    31d6:	8b 54 24 20          	mov    0x20(%rsp),%edx
    31da:	39 d3                	cmp    %edx,%ebx
    31dc:	0f 47 da             	cmova  %edx,%ebx
    31df:	66 0f 2f f8          	comisd %xmm0,%xmm7
    31e3:	76 0f                	jbe    31f4 <_ZL6forceldddddddjjPPPedddd+0x6c4>
    31e5:	66 0f 2f 04 24       	comisd (%rsp),%xmm0
    31ea:	0f 87 02 05 00 00    	ja     36f2 <_ZL6forceldddddddjjPPPedddd+0xbc2>
    31f0:	dd d8                	fstp   %st(0)
    31f2:	eb 0c                	jmp    3200 <_ZL6forceldddddddjjPPPedddd+0x6d0>
    31f4:	dd d8                	fstp   %st(0)
    31f6:	eb 08                	jmp    3200 <_ZL6forceldddddddjjPPPedddd+0x6d0>
    31f8:	dd d8                	fstp   %st(0)
    31fa:	66 0f 1f 44 00 00    	nopw   0x0(%rax,%rax,1)
    3200:	44 39 f0             	cmp    %r14d,%eax
    3203:	0f 83 cb f9 ff ff    	jae    2bd4 <_ZL6forceldddddddjjPPPedddd+0xa4>
    3209:	39 d9                	cmp    %ebx,%ecx
    320b:	0f 83 c7 f9 ff ff    	jae    2bd8 <_ZL6forceldddddddjjPPPedddd+0xa8>
    3211:	41 83 ee 01          	sub    $0x1,%r14d
    3215:	89 c2                	mov    %eax,%edx
    3217:	83 eb 01             	sub    $0x1,%ebx
    321a:	dd 44 24 10          	fldl   0x10(%rsp)
    321e:	41 29 c6             	sub    %eax,%r14d
    3221:	29 cb                	sub    %ecx,%ebx
    3223:	49 8d 6c d5 00       	lea    0x0(%r13,%rdx,8),%rbp
    3228:	f2 0f 11 6c 24 10    	movsd  %xmm5,0x10(%rsp)
    322e:	49 8d 04 16          	lea    (%r14,%rdx,1),%rax
    3232:	f2 0f 11 74 24 20    	movsd  %xmm6,0x20(%rsp)
    3238:	4d 8d 7c c5 08       	lea    0x8(%r13,%rax,8),%r15
    323d:	89 c8                	mov    %ecx,%eax
    323f:	4c 8d 6c 18 01       	lea    0x1(%rax,%rbx,1),%r13
    3244:	4c 8d 34 c5 00 00 00 	lea    0x0(,%rax,8),%r14
    324b:	00 
    324c:	49 c1 e5 03          	shl    $0x3,%r13
    3250:	4c 89 f3             	mov    %r14,%rbx
    3253:	0f 1f 44 00 00       	nopl   0x0(%rax,%rax,1)
    3258:	48 8b 45 00          	mov    0x0(%rbp),%rax
    325c:	48 8b 04 18          	mov    (%rax,%rbx,1),%rax
    3260:	db 28                	fldt   (%rax)
    3262:	db f1                	fcomi  %st(1),%st
    3264:	72 3a                	jb     32a0 <_ZL6forceldddddddjjPPPedddd+0x770>
    3266:	d9 c2                	fld    %st(2)
    3268:	df f1                	fcomip %st(1),%st
    326a:	72 3c                	jb     32a8 <_ZL6forceldddddddjjPPPedddd+0x778>
    326c:	dd 04 24             	fldl   (%rsp)
    326f:	db 68 10             	fldt   0x10(%rax)
    3272:	db f1                	fcomi  %st(1),%st
    3274:	dd d9                	fstp   %st(1)
    3276:	72 38                	jb     32b0 <_ZL6forceldddddddjjPPPedddd+0x780>
    3278:	dd 44 24 08          	fldl   0x8(%rsp)
    327c:	df f1                	fcomip %st(1),%st
    327e:	72 40                	jb     32c0 <_ZL6forceldddddddjjPPPedddd+0x790>
    3280:	dd 44 24 10          	fldl   0x10(%rsp)
    3284:	db 68 20             	fldt   0x20(%rax)
    3287:	db f1                	fcomi  %st(1),%st
    3289:	dd d9                	fstp   %st(1)
    328b:	72 43                	jb     32d0 <_ZL6forceldddddddjjPPPedddd+0x7a0>
    328d:	dd 44 24 20          	fldl   0x20(%rsp)
    3291:	df f1                	fcomip %st(1),%st
    3293:	73 6e                	jae    3303 <_ZL6forceldddddddjjPPPedddd+0x7d3>
    3295:	dd d8                	fstp   %st(0)
    3297:	dd d8                	fstp   %st(0)
    3299:	dd d8                	fstp   %st(0)
    329b:	eb 43                	jmp    32e0 <_ZL6forceldddddddjjPPPedddd+0x7b0>
    329d:	0f 1f 00             	nopl   (%rax)
    32a0:	dd d8                	fstp   %st(0)
    32a2:	eb 3c                	jmp    32e0 <_ZL6forceldddddddjjPPPedddd+0x7b0>
    32a4:	0f 1f 40 00          	nopl   0x0(%rax)
    32a8:	dd d8                	fstp   %st(0)
    32aa:	eb 34                	jmp    32e0 <_ZL6forceldddddddjjPPPedddd+0x7b0>
    32ac:	0f 1f 40 00          	nopl   0x0(%rax)
    32b0:	dd d8                	fstp   %st(0)
    32b2:	dd d8                	fstp   %st(0)
    32b4:	eb 2a                	jmp    32e0 <_ZL6forceldddddddjjPPPedddd+0x7b0>
    32b6:	66 2e 0f 1f 84 00 00 	cs nopw 0x0(%rax,%rax,1)
    32bd:	00 00 00 
    32c0:	dd d8                	fstp   %st(0)
    32c2:	dd d8                	fstp   %st(0)
    32c4:	eb 1a                	jmp    32e0 <_ZL6forceldddddddjjPPPedddd+0x7b0>
    32c6:	66 2e 0f 1f 84 00 00 	cs nopw 0x0(%rax,%rax,1)
    32cd:	00 00 00 
    32d0:	dd d8                	fstp   %st(0)
    32d2:	dd d8                	fstp   %st(0)
    32d4:	dd d8                	fstp   %st(0)
    32d6:	66 2e 0f 1f 84 00 00 	cs nopw 0x0(%rax,%rax,1)
    32dd:	00 00 00 
    32e0:	48 83 c3 08          	add    $0x8,%rbx
    32e4:	49 39 dd             	cmp    %rbx,%r13
    32e7:	0f 85 6b ff ff ff    	jne    3258 <_ZL6forceldddddddjjPPPedddd+0x728>
    32ed:	48 83 c5 08          	add    $0x8,%rbp
    32f1:	4c 39 fd             	cmp    %r15,%rbp
    32f4:	0f 85 56 ff ff ff    	jne    3250 <_ZL6forceldddddddjjPPPedddd+0x720>
    32fa:	dd d8                	fstp   %st(0)
    32fc:	dd d8                	fstp   %st(0)
    32fe:	e9 dd f8 ff ff       	jmp    2be0 <_ZL6forceldddddddjjPPPedddd+0xb0>
    3303:	d9 cb                	fxch   %st(3)
    3305:	db bc 24 c0 00 00 00 	fstpt  0xc0(%rsp)
    330c:	d9 cb                	fxch   %st(3)
    330e:	48 8d bc 24 30 01 00 	lea    0x130(%rsp),%rdi
    3315:	00 
    3316:	f2 44 0f 11 84 24 e8 	movsd  %xmm8,0xe8(%rsp)
    331d:	00 00 00 
    3320:	dd 9c 24 e0 00 00 00 	fstpl  0xe0(%rsp)
    3327:	d9 c9                	fxch   %st(1)
    3329:	dd 54 24 30          	fstl   0x30(%rsp)
    332d:	d9 ca                	fxch   %st(2)
    332f:	f2 0f 10 4c 24 30    	movsd  0x30(%rsp),%xmm1
    3335:	dd 54 24 38          	fstl   0x38(%rsp)
    3339:	d9 c9                	fxch   %st(1)
    333b:	dd 54 24 70          	fstl   0x70(%rsp)
    333f:	db 68 30             	fldt   0x30(%rax)
    3342:	66 0f 28 e1          	movapd %xmm1,%xmm4
    3346:	f2 0f 10 44 24 70    	movsd  0x70(%rsp),%xmm0
    334c:	66 0f 14 e4          	unpcklpd %xmm4,%xmm4
    3350:	f2 0f 10 4c 24 38    	movsd  0x38(%rsp),%xmm1
    3356:	44 0f 29 8c 24 d0 00 	movaps %xmm9,0xd0(%rsp)
    335d:	00 00 
    335f:	0f 29 a4 24 b0 00 00 	movaps %xmm4,0xb0(%rsp)
    3366:	00 
    3367:	66 0f 28 e8          	movapd %xmm0,%xmm5
    336b:	f2 0f 10 44 24 18    	movsd  0x18(%rsp),%xmm0
    3371:	dd 5c 24 40          	fstpl  0x40(%rsp)
    3375:	d9 ca                	fxch   %st(2)
    3377:	dc 84 24 20 02 00 00 	faddl  0x220(%rsp)
    337e:	66 0f 28 f1          	movapd %xmm1,%xmm6
    3382:	66 0f 14 ed          	unpcklpd %xmm5,%xmm5
    3386:	f2 0f 10 64 24 40    	movsd  0x40(%rsp),%xmm4
    338c:	66 0f 14 f6          	unpcklpd %xmm6,%xmm6
    3390:	0f 29 ac 24 90 00 00 	movaps %xmm5,0x90(%rsp)
    3397:	00 
    3398:	0f 29 b4 24 a0 00 00 	movaps %xmm6,0xa0(%rsp)
    339f:	00 
    33a0:	66 0f 28 fc          	movapd %xmm4,%xmm7
    33a4:	66 0f 14 ff          	unpcklpd %xmm7,%xmm7
    33a8:	dd 5c 24 60          	fstpl  0x60(%rsp)
    33ac:	dc 84 24 18 02 00 00 	faddl  0x218(%rsp)
    33b3:	f2 0f 10 5c 24 60    	movsd  0x60(%rsp),%xmm3
    33b9:	0f 29 7c 24 50       	movaps %xmm7,0x50(%rsp)
    33be:	dd 5c 24 78          	fstpl  0x78(%rsp)
    33c2:	dc 84 24 10 02 00 00 	faddl  0x210(%rsp)
    33c9:	f2 0f 10 54 24 78    	movsd  0x78(%rsp),%xmm2
    33cf:	dd 9c 24 80 00 00 00 	fstpl  0x80(%rsp)
    33d6:	f2 0f 10 8c 24 80 00 	movsd  0x80(%rsp),%xmm1
    33dd:	00 00 
    33df:	e8 1c 4c 00 00       	call   8000 <_Z6stressdddd>
    33e4:	f2 0f 10 44 24 70    	movsd  0x70(%rsp),%xmm0
    33ea:	f2 0f 10 4c 24 38    	movsd  0x38(%rsp),%xmm1
    33f0:	f2 0f 59 84 24 40 01 	mulsd  0x140(%rsp),%xmm0
    33f7:	00 00 
    33f9:	66 41 0f 10 3c 24    	movupd (%r12),%xmm7
    33ff:	66 0f 28 b4 24 a0 00 	movapd 0xa0(%rsp),%xmm6
    3406:	00 00 
    3408:	dd 84 24 e0 00 00 00 	fldl   0xe0(%rsp)
    340f:	db ac 24 c0 00 00 00 	fldt   0xc0(%rsp)
    3416:	66 0f 28 ac 24 90 00 	movapd 0x90(%rsp),%xmm5
    341d:	00 00 
    341f:	f2 0f 59 8c 24 58 01 	mulsd  0x158(%rsp),%xmm1
    3426:	00 00 
    3428:	66 0f 28 a4 24 b0 00 	movapd 0xb0(%rsp),%xmm4
    342f:	00 00 
    3431:	66 0f 59 ac 24 30 01 	mulpd  0x130(%rsp),%xmm5
    3438:	00 00 
    343a:	66 44 0f 28 8c 24 d0 	movapd 0xd0(%rsp),%xmm9
    3441:	00 00 00 
    3444:	66 0f 59 a4 24 60 01 	mulpd  0x160(%rsp),%xmm4
    344b:	00 00 
    344d:	f2 44 0f 10 84 24 e8 	movsd  0xe8(%rsp),%xmm8
    3454:	00 00 00 
    3457:	f2 0f 58 c1          	addsd  %xmm1,%xmm0
    345b:	f2 0f 10 4c 24 30    	movsd  0x30(%rsp),%xmm1
    3461:	f2 0f 59 8c 24 70 01 	mulsd  0x170(%rsp),%xmm1
    3468:	00 00 
    346a:	f2 0f 58 c1          	addsd  %xmm1,%xmm0
    346e:	f2 0f 59 44 24 40    	mulsd  0x40(%rsp),%xmm0
    3474:	66 0f 10 8c 24 48 01 	movupd 0x148(%rsp),%xmm1
    347b:	00 00 
    347d:	66 0f 59 ce          	mulpd  %xmm6,%xmm1
    3481:	f2 41 0f 5e c0       	divsd  %xmm8,%xmm0
    3486:	66 0f 58 cd          	addpd  %xmm5,%xmm1
    348a:	66 0f 58 cc          	addpd  %xmm4,%xmm1
    348e:	66 0f 59 4c 24 50    	mulpd  0x50(%rsp),%xmm1
    3494:	66 41 0f 5e c9       	divpd  %xmm9,%xmm1
    3499:	f2 41 0f 58 44 24 10 	addsd  0x10(%r12),%xmm0
    34a0:	f2 41 0f 11 44 24 10 	movsd  %xmm0,0x10(%r12)
    34a7:	66 0f 58 cf          	addpd  %xmm7,%xmm1
    34ab:	41 0f 11 0c 24       	movups %xmm1,(%r12)
    34b0:	e9 2b fe ff ff       	jmp    32e0 <_ZL6forceldddddddjjPPPedddd+0x7b0>
    34b5:	f2 0f 10 0d 1b 70 00 	movsd  0x701b(%rip),%xmm1        # a4d8 <_IO_stdin_used+0x4d8>
    34bc:	00 
    34bd:	66 0f 2f 44 24 08    	comisd 0x8(%rsp),%xmm0
    34c3:	f2 0f 11 4c 24 20    	movsd  %xmm1,0x20(%rsp)
    34c9:	dd 44 24 20          	fldl   0x20(%rsp)
    34cd:	db 6c 24 60          	fldt   0x60(%rsp)
    34d1:	dc 44 24 20          	faddl  0x20(%rsp)
    34d5:	db bc 24 80 01 00 00 	fstpt  0x180(%rsp)
    34dc:	0f 87 04 0b 00 00    	ja     3fe6 <_ZL6forceldddddddjjPPPedddd+0x14b6>
    34e2:	f2 0f 10 7c 24 08    	movsd  0x8(%rsp),%xmm7
    34e8:	66 0f 2f f8          	comisd %xmm0,%xmm7
    34ec:	0f 86 29 04 00 00    	jbe    391b <_ZL6forceldddddddjjPPPedddd+0xdeb>
    34f2:	de c2                	faddp  %st,%st(2)
    34f4:	d9 c9                	fxch   %st(1)
    34f6:	db bc 24 90 01 00 00 	fstpt  0x190(%rsp)
    34fd:	dd 54 24 20          	fstl   0x20(%rsp)
    3501:	f2 0f 10 7c 24 20    	movsd  0x20(%rsp),%xmm7
    3507:	66 0f 2e f8          	ucomisd %xmm0,%xmm7
    350b:	7a 06                	jp     3513 <_ZL6forceldddddddjjPPPedddd+0x9e3>
    350d:	0f 84 41 fa ff ff    	je     2f54 <_ZL6forceldddddddjjPPPedddd+0x424>
    3513:	dd 54 24 20          	fstl   0x20(%rsp)
    3517:	f2 0f 10 04 24       	movsd  (%rsp),%xmm0
    351c:	f2 0f 5e 44 24 20    	divsd  0x20(%rsp),%xmm0
    3522:	89 44 24 38          	mov    %eax,0x38(%rsp)
    3526:	f2 0f 11 74 24 50    	movsd  %xmm6,0x50(%rsp)
    352c:	f2 0f 11 6c 24 40    	movsd  %xmm5,0x40(%rsp)
    3532:	f2 44 0f 11 44 24 70 	movsd  %xmm8,0x70(%rsp)
    3539:	dd 5c 24 30          	fstpl  0x30(%rsp)
    353d:	e8 ce ee ff ff       	call   2410 <atan@plt>
    3542:	f2 0f 11 44 24 20    	movsd  %xmm0,0x20(%rsp)
    3548:	dd 44 24 20          	fldl   0x20(%rsp)
    354c:	f2 0f 10 44 24 08    	movsd  0x8(%rsp),%xmm0
    3552:	dd 54 24 78          	fstl   0x78(%rsp)
    3556:	db 7c 24 60          	fstpt  0x60(%rsp)
    355a:	dd 44 24 30          	fldl   0x30(%rsp)
    355e:	dd 5c 24 20          	fstpl  0x20(%rsp)
    3562:	f2 0f 5e 44 24 20    	divsd  0x20(%rsp),%xmm0
    3568:	e8 a3 ee ff ff       	call   2410 <atan@plt>
    356d:	8b 44 24 38          	mov    0x38(%rsp),%eax
    3571:	f2 44 0f 10 44 24 70 	movsd  0x70(%rsp),%xmm8
    3578:	f2 0f 11 44 24 20    	movsd  %xmm0,0x20(%rsp)
    357e:	66 0f ef c0          	pxor   %xmm0,%xmm0
    3582:	66 0f 2f 04 24       	comisd (%rsp),%xmm0
    3587:	dd 44 24 20          	fldl   0x20(%rsp)
    358b:	f2 0f 10 6c 24 40    	movsd  0x40(%rsp),%xmm5
    3591:	dd 44 24 30          	fldl   0x30(%rsp)
    3595:	f2 0f 10 74 24 50    	movsd  0x50(%rsp),%xmm6
    359b:	0f 87 d3 03 00 00    	ja     3974 <_ZL6forceldddddddjjPPPedddd+0xe44>
    35a1:	f2 0f 10 3c 24       	movsd  (%rsp),%xmm7
    35a6:	dd 54 24 20          	fstl   0x20(%rsp)
    35aa:	66 0f 2f f8          	comisd %xmm0,%xmm7
    35ae:	0f 86 c5 05 00 00    	jbe    3b79 <_ZL6forceldddddddjjPPPedddd+0x1049>
    35b4:	66 0f 2f 44 24 20    	comisd 0x20(%rsp),%xmm0
    35ba:	0f 87 71 0a 00 00    	ja     4031 <_ZL6forceldddddddjjPPPedddd+0x1501>
    35c0:	dd 44 24 78          	fldl   0x78(%rsp)
    35c4:	66 0f 2f 44 24 08    	comisd 0x8(%rsp),%xmm0
    35ca:	db bc 24 a0 01 00 00 	fstpt  0x1a0(%rsp)
    35d1:	0f 87 5d 0b 00 00    	ja     4134 <_ZL6forceldddddddjjPPPedddd+0x1604>
    35d7:	f2 0f 10 7c 24 08    	movsd  0x8(%rsp),%xmm7
    35dd:	66 0f 2f f8          	comisd %xmm0,%xmm7
    35e1:	0f 87 96 f9 ff ff    	ja     2f7d <_ZL6forceldddddddjjPPPedddd+0x44d>
    35e7:	dd d9                	fstp   %st(1)
    35e9:	dd 54 24 20          	fstl   0x20(%rsp)
    35ed:	f2 0f 10 7c 24 20    	movsd  0x20(%rsp),%xmm7
    35f3:	66 0f ef c0          	pxor   %xmm0,%xmm0
    35f7:	66 0f 2f f8          	comisd %xmm0,%xmm7
    35fb:	0f 86 76 0c 00 00    	jbe    4277 <_ZL6forceldddddddjjPPPedddd+0x1747>
    3601:	d9 ee                	fldz
    3603:	d9 c9                	fxch   %st(1)
    3605:	e9 73 f9 ff ff       	jmp    2f7d <_ZL6forceldddddddjjPPPedddd+0x44d>
    360a:	66 0f 2f 04 24       	comisd (%rsp),%xmm0
    360f:	0f 83 be 04 00 00    	jae    3ad3 <_ZL6forceldddddddjjPPPedddd+0xfa3>
    3615:	d9 bc 24 2e 01 00 00 	fnstcw 0x12e(%rsp)
    361c:	89 da                	mov    %ebx,%edx
    361e:	66 0f ef c9          	pxor   %xmm1,%xmm1
    3622:	f2 0f 10 05 c6 6e 00 	movsd  0x6ec6(%rip),%xmm0        # a4f0 <_IO_stdin_used+0x4f0>
    3629:	00 
    362a:	f2 48 0f 2a ca       	cvtsi2sd %rdx,%xmm1
    362f:	0f b7 94 24 2e 01 00 	movzwl 0x12e(%rsp),%edx
    3636:	00 
    3637:	80 e6 f3             	and    $0xf3,%dh
    363a:	f2 0f 5e c1          	divsd  %xmm1,%xmm0
    363e:	80 ce 04             	or     $0x4,%dh
    3641:	66 89 94 24 2c 01 00 	mov    %dx,0x12c(%rsp)
    3648:	00 
    3649:	0f b7 94 24 2e 01 00 	movzwl 0x12e(%rsp),%edx
    3650:	00 
    3651:	80 ce 0c             	or     $0xc,%dh
    3654:	66 89 94 24 2a 01 00 	mov    %dx,0x12a(%rsp)
    365b:	00 
    365c:	0f b7 94 24 2e 01 00 	movzwl 0x12e(%rsp),%edx
    3663:	00 
    3664:	80 e6 f3             	and    $0xf3,%dh
    3667:	80 ce 08             	or     $0x8,%dh
    366a:	66 89 94 24 28 01 00 	mov    %dx,0x128(%rsp)
    3671:	00 
    3672:	f2 0f 11 44 24 20    	movsd  %xmm0,0x20(%rsp)
    3678:	dd 44 24 20          	fldl   0x20(%rsp)
    367c:	db ac 24 80 01 00 00 	fldt   0x180(%rsp)
    3683:	d8 f1                	fdiv   %st(1),%st
    3685:	d9 ac 24 2c 01 00 00 	fldcw  0x12c(%rsp)
    368c:	d9 fc                	frndint
    368e:	d9 ac 24 2e 01 00 00 	fldcw  0x12e(%rsp)
    3695:	d9 ac 24 2a 01 00 00 	fldcw  0x12a(%rsp)
    369c:	db 5c 24 20          	fistpl 0x20(%rsp)
    36a0:	d9 ac 24 2e 01 00 00 	fldcw  0x12e(%rsp)
    36a7:	db ac 24 b0 01 00 00 	fldt   0x1b0(%rsp)
    36ae:	8b 4c 24 20          	mov    0x20(%rsp),%ecx
    36b2:	de f1                	fdivp  %st,%st(1)
    36b4:	d9 ac 24 28 01 00 00 	fldcw  0x128(%rsp)
    36bb:	d9 fc                	frndint
    36bd:	d9 ac 24 2e 01 00 00 	fldcw  0x12e(%rsp)
    36c4:	d9 ac 24 2a 01 00 00 	fldcw  0x12a(%rsp)
    36cb:	db 5c 24 20          	fistpl 0x20(%rsp)
    36cf:	d9 ac 24 2e 01 00 00 	fldcw  0x12e(%rsp)
    36d6:	8b 54 24 20          	mov    0x20(%rsp),%edx
    36da:	39 d3                	cmp    %edx,%ebx
    36dc:	0f 47 da             	cmova  %edx,%ebx
    36df:	e9 1c fb ff ff       	jmp    3200 <_ZL6forceldddddddjjPPPedddd+0x6d0>
    36e4:	0f 85 25 f9 ff ff    	jne    300f <_ZL6forceldddddddjjPPPedddd+0x4df>
    36ea:	db 7f 10             	fstpt  0x10(%rdi)
    36ed:	e9 26 f9 ff ff       	jmp    3018 <_ZL6forceldddddddjjPPPedddd+0x4e8>
    36f2:	f2 0f 10 7c 24 08    	movsd  0x8(%rsp),%xmm7
    36f8:	66 0f 2f f8          	comisd %xmm0,%xmm7
    36fc:	0f 82 f6 fa ff ff    	jb     31f8 <_ZL6forceldddddddjjPPPedddd+0x6c8>
    3702:	db ac 24 90 01 00 00 	fldt   0x190(%rsp)
    3709:	66 0f 2e f8          	ucomisd %xmm0,%xmm7
    370d:	7a 07                	jp     3716 <_ZL6forceldddddddjjPPPedddd+0xbe6>
    370f:	b9 01 00 00 00       	mov    $0x1,%ecx
    3714:	74 2a                	je     3740 <_ZL6forceldddddddjjPPPedddd+0xc10>
    3716:	d8 f1                	fdiv   %st(1),%st
    3718:	d9 ac 24 28 01 00 00 	fldcw  0x128(%rsp)
    371f:	d9 fc                	frndint
    3721:	d9 ac 24 2e 01 00 00 	fldcw  0x12e(%rsp)
    3728:	d9 ac 24 2a 01 00 00 	fldcw  0x12a(%rsp)
    372f:	db 5c 24 20          	fistpl 0x20(%rsp)
    3733:	d9 ac 24 2e 01 00 00 	fldcw  0x12e(%rsp)
    373a:	8b 4c 24 20          	mov    0x20(%rsp),%ecx
    373e:	eb 02                	jmp    3742 <_ZL6forceldddddddjjPPPedddd+0xc12>
    3740:	dd d8                	fstp   %st(0)
    3742:	db ac 24 a0 01 00 00 	fldt   0x1a0(%rsp)
    3749:	de f1                	fdivp  %st,%st(1)
    374b:	d9 ac 24 2c 01 00 00 	fldcw  0x12c(%rsp)
    3752:	d9 fc                	frndint
    3754:	d9 ac 24 2e 01 00 00 	fldcw  0x12e(%rsp)
    375b:	d9 ac 24 2a 01 00 00 	fldcw  0x12a(%rsp)
    3762:	db 5c 24 20          	fistpl 0x20(%rsp)
    3766:	d9 ac 24 2e 01 00 00 	fldcw  0x12e(%rsp)
    376d:	8b 54 24 20          	mov    0x20(%rsp),%edx
    3771:	44 39 f0             	cmp    %r14d,%eax
    3774:	0f 83 62 f4 ff ff    	jae    2bdc <_ZL6forceldddddddjjPPPedddd+0xac>
    377a:	41 83 ee 01          	sub    $0x1,%r14d
    377e:	89 c6                	mov    %eax,%esi
    3780:	89 d7                	mov    %edx,%edi
    3782:	41 29 c6             	sub    %eax,%r14d
    3785:	49 8d 6c f5 00       	lea    0x0(%r13,%rsi,8),%rbp
    378a:	4c 8d 04 fd 00 00 00 	lea    0x0(,%rdi,8),%r8
    3791:	00 
    3792:	49 8d 04 36          	lea    (%r14,%rsi,1),%rax
    3796:	41 89 ce             	mov    %ecx,%r14d
    3799:	49 8d 74 c5 08       	lea    0x8(%r13,%rax,8),%rsi
    379e:	41 8d 47 ff          	lea    -0x1(%r15),%eax
    37a2:	49 c1 e6 03          	shl    $0x3,%r14
    37a6:	29 d0                	sub    %edx,%eax
    37a8:	4c 8d 6c 07 01       	lea    0x1(%rdi,%rax,1),%r13
    37ad:	49 c1 e5 03          	shl    $0x3,%r13
    37b1:	0f 1f 80 00 00 00 00 	nopl   0x0(%rax)
    37b8:	85 c9                	test   %ecx,%ecx
    37ba:	0f 84 3e 03 00 00    	je     3afe <_ZL6forceldddddddjjPPPedddd+0xfce>
    37c0:	dd 44 24 10          	fldl   0x10(%rsp)
    37c4:	31 db                	xor    %ebx,%ebx
    37c6:	66 2e 0f 1f 84 00 00 	cs nopw 0x0(%rax,%rax,1)
    37cd:	00 00 00 
    37d0:	48 8b 45 00          	mov    0x0(%rbp),%rax
    37d4:	48 8b 04 18          	mov    (%rax,%rbx,1),%rax
    37d8:	db 28                	fldt   (%rax)
    37da:	db f1                	fcomi  %st(1),%st
    37dc:	72 52                	jb     3830 <_ZL6forceldddddddjjPPPedddd+0xd00>
    37de:	d9 c2                	fld    %st(2)
    37e0:	df f1                	fcomip %st(1),%st
    37e2:	72 54                	jb     3838 <_ZL6forceldddddddjjPPPedddd+0xd08>
    37e4:	dd 04 24             	fldl   (%rsp)
    37e7:	db 68 10             	fldt   0x10(%rax)
    37ea:	db f1                	fcomi  %st(1),%st
    37ec:	dd d9                	fstp   %st(1)
    37ee:	72 50                	jb     3840 <_ZL6forceldddddddjjPPPedddd+0xd10>
    37f0:	dd 44 24 08          	fldl   0x8(%rsp)
    37f4:	df f1                	fcomip %st(1),%st
    37f6:	72 4e                	jb     3846 <_ZL6forceldddddddjjPPPedddd+0xd16>
    37f8:	db 68 20             	fldt   0x20(%rax)
    37fb:	f2 0f 11 6c 24 20    	movsd  %xmm5,0x20(%rsp)
    3801:	dd 44 24 20          	fldl   0x20(%rsp)
    3805:	d9 c9                	fxch   %st(1)
    3807:	db f1                	fcomi  %st(1),%st
    3809:	dd d9                	fstp   %st(1)
    380b:	72 3f                	jb     384c <_ZL6forceldddddddjjPPPedddd+0xd1c>
    380d:	f2 0f 11 74 24 20    	movsd  %xmm6,0x20(%rsp)
    3813:	dd 44 24 20          	fldl   0x20(%rsp)
    3817:	df f1                	fcomip %st(1),%st
    3819:	0f 83 8e 03 00 00    	jae    3bad <_ZL6forceldddddddjjPPPedddd+0x107d>
    381f:	dd d8                	fstp   %st(0)
    3821:	dd d8                	fstp   %st(0)
    3823:	dd d8                	fstp   %st(0)
    3825:	eb 31                	jmp    3858 <_ZL6forceldddddddjjPPPedddd+0xd28>
    3827:	66 0f 1f 84 00 00 00 	nopw   0x0(%rax,%rax,1)
    382e:	00 00 
    3830:	dd d8                	fstp   %st(0)
    3832:	eb 24                	jmp    3858 <_ZL6forceldddddddjjPPPedddd+0xd28>
    3834:	0f 1f 40 00          	nopl   0x0(%rax)
    3838:	dd d8                	fstp   %st(0)
    383a:	eb 1c                	jmp    3858 <_ZL6forceldddddddjjPPPedddd+0xd28>
    383c:	0f 1f 40 00          	nopl   0x0(%rax)
    3840:	dd d8                	fstp   %st(0)
    3842:	dd d8                	fstp   %st(0)
    3844:	eb 12                	jmp    3858 <_ZL6forceldddddddjjPPPedddd+0xd28>
    3846:	dd d8                	fstp   %st(0)
    3848:	dd d8                	fstp   %st(0)
    384a:	eb 0c                	jmp    3858 <_ZL6forceldddddddjjPPPedddd+0xd28>
    384c:	dd d8                	fstp   %st(0)
    384e:	dd d8                	fstp   %st(0)
    3850:	dd d8                	fstp   %st(0)
    3852:	66 0f 1f 44 00 00    	nopw   0x0(%rax,%rax,1)
    3858:	48 83 c3 08          	add    $0x8,%rbx
    385c:	49 39 de             	cmp    %rbx,%r14
    385f:	0f 85 6b ff ff ff    	jne    37d0 <_ZL6forceldddddddjjPPPedddd+0xca0>
    3865:	44 39 fa             	cmp    %r15d,%edx
    3868:	0f 83 f5 02 00 00    	jae    3b63 <_ZL6forceldddddddjjPPPedddd+0x1033>
    386e:	4c 89 c3             	mov    %r8,%rbx
    3871:	0f 1f 80 00 00 00 00 	nopl   0x0(%rax)
    3878:	48 8b 45 00          	mov    0x0(%rbp),%rax
    387c:	48 8b 04 18          	mov    (%rax,%rbx,1),%rax
    3880:	db 28                	fldt   (%rax)
    3882:	db f1                	fcomi  %st(1),%st
    3884:	72 4a                	jb     38d0 <_ZL6forceldddddddjjPPPedddd+0xda0>
    3886:	d9 c2                	fld    %st(2)
    3888:	df f1                	fcomip %st(1),%st
    388a:	72 4c                	jb     38d8 <_ZL6forceldddddddjjPPPedddd+0xda8>
    388c:	dd 04 24             	fldl   (%rsp)
    388f:	db 68 10             	fldt   0x10(%rax)
    3892:	db f1                	fcomi  %st(1),%st
    3894:	dd d9                	fstp   %st(1)
    3896:	72 48                	jb     38e0 <_ZL6forceldddddddjjPPPedddd+0xdb0>
    3898:	dd 44 24 08          	fldl   0x8(%rsp)
    389c:	df f1                	fcomip %st(1),%st
    389e:	72 46                	jb     38e6 <_ZL6forceldddddddjjPPPedddd+0xdb6>
    38a0:	db 68 20             	fldt   0x20(%rax)
    38a3:	f2 0f 11 6c 24 20    	movsd  %xmm5,0x20(%rsp)
    38a9:	dd 44 24 20          	fldl   0x20(%rsp)
    38ad:	d9 c9                	fxch   %st(1)
    38af:	db f1                	fcomi  %st(1),%st
    38b1:	dd d9                	fstp   %st(1)
    38b3:	72 37                	jb     38ec <_ZL6forceldddddddjjPPPedddd+0xdbc>
    38b5:	f2 0f 11 74 24 20    	movsd  %xmm6,0x20(%rsp)
    38bb:	dd 44 24 20          	fldl   0x20(%rsp)
    38bf:	df f1                	fcomip %st(1),%st
    38c1:	0f 83 f7 04 00 00    	jae    3dbe <_ZL6forceldddddddjjPPPedddd+0x128e>
    38c7:	dd d8                	fstp   %st(0)
    38c9:	dd d8                	fstp   %st(0)
    38cb:	dd d8                	fstp   %st(0)
    38cd:	eb 29                	jmp    38f8 <_ZL6forceldddddddjjPPPedddd+0xdc8>
    38cf:	90                   	nop
    38d0:	dd d8                	fstp   %st(0)
    38d2:	eb 24                	jmp    38f8 <_ZL6forceldddddddjjPPPedddd+0xdc8>
    38d4:	0f 1f 40 00          	nopl   0x0(%rax)
    38d8:	dd d8                	fstp   %st(0)
    38da:	eb 1c                	jmp    38f8 <_ZL6forceldddddddjjPPPedddd+0xdc8>
    38dc:	0f 1f 40 00          	nopl   0x0(%rax)
    38e0:	dd d8                	fstp   %st(0)
    38e2:	dd d8                	fstp   %st(0)
    38e4:	eb 12                	jmp    38f8 <_ZL6forceldddddddjjPPPedddd+0xdc8>
    38e6:	dd d8                	fstp   %st(0)
    38e8:	dd d8                	fstp   %st(0)
    38ea:	eb 0c                	jmp    38f8 <_ZL6forceldddddddjjPPPedddd+0xdc8>
    38ec:	dd d8                	fstp   %st(0)
    38ee:	dd d8                	fstp   %st(0)
    38f0:	dd d8                	fstp   %st(0)
    38f2:	66 0f 1f 44 00 00    	nopw   0x0(%rax,%rax,1)
    38f8:	48 83 c3 08          	add    $0x8,%rbx
    38fc:	49 39 dd             	cmp    %rbx,%r13
    38ff:	0f 85 73 ff ff ff    	jne    3878 <_ZL6forceldddddddjjPPPedddd+0xd48>
    3905:	dd d8                	fstp   %st(0)
    3907:	48 83 c5 08          	add    $0x8,%rbp
    390b:	48 39 ee             	cmp    %rbp,%rsi
    390e:	0f 85 a4 fe ff ff    	jne    37b8 <_ZL6forceldddddddjjPPPedddd+0xc88>
    3914:	dd d8                	fstp   %st(0)
    3916:	e9 c5 f2 ff ff       	jmp    2be0 <_ZL6forceldddddddjjPPPedddd+0xb0>
    391b:	dd d8                	fstp   %st(0)
    391d:	dd d9                	fstp   %st(1)
    391f:	f2 0f 11 4c 24 20    	movsd  %xmm1,0x20(%rsp)
    3925:	dd 44 24 20          	fldl   0x20(%rsp)
    3929:	db bc 24 90 01 00 00 	fstpt  0x190(%rsp)
    3930:	dd 54 24 20          	fstl   0x20(%rsp)
    3934:	f2 0f 10 7c 24 20    	movsd  0x20(%rsp),%xmm7
    393a:	66 0f 2e f8          	ucomisd %xmm0,%xmm7
    393e:	0f 8a cf fb ff ff    	jp     3513 <_ZL6forceldddddddjjPPPedddd+0x9e3>
    3944:	0f 85 c9 fb ff ff    	jne    3513 <_ZL6forceldddddddjjPPPedddd+0x9e3>
    394a:	dd 05 80 6b 00 00    	fldl   0x6b80(%rip)        # a4d0 <_IO_stdin_used+0x4d0>
    3950:	db bc 24 a0 01 00 00 	fstpt  0x1a0(%rsp)
    3957:	66 0f ef c0          	pxor   %xmm0,%xmm0
    395b:	66 0f 2f 44 24 08    	comisd 0x8(%rsp),%xmm0
    3961:	0f 86 9a fc ff ff    	jbe    3601 <_ZL6forceldddddddjjPPPedddd+0xad1>
    3967:	dd 05 5b 6b 00 00    	fldl   0x6b5b(%rip)        # a4c8 <_IO_stdin_used+0x4c8>
    396d:	d9 c9                	fxch   %st(1)
    396f:	e9 09 f6 ff ff       	jmp    2f7d <_ZL6forceldddddddjjPPPedddd+0x44d>
    3974:	dd 54 24 20          	fstl   0x20(%rsp)
    3978:	f2 0f 10 7c 24 20    	movsd  0x20(%rsp),%xmm7
    397e:	66 0f 2f f8          	comisd %xmm0,%xmm7
    3982:	76 3c                	jbe    39c0 <_ZL6forceldddddddjjPPPedddd+0xe90>
    3984:	f2 0f 10 0d 64 6b 00 	movsd  0x6b64(%rip),%xmm1        # a4f0 <_IO_stdin_used+0x4f0>
    398b:	00 
    398c:	db 6c 24 60          	fldt   0x60(%rsp)
    3990:	66 0f 2f 44 24 08    	comisd 0x8(%rsp),%xmm0
    3996:	f2 0f 11 4c 24 20    	movsd  %xmm1,0x20(%rsp)
    399c:	dc 44 24 20          	faddl  0x20(%rsp)
    39a0:	db bc 24 a0 01 00 00 	fstpt  0x1a0(%rsp)
    39a7:	77 64                	ja     3a0d <_ZL6forceldddddddjjPPPedddd+0xedd>
    39a9:	f2 0f 10 7c 24 08    	movsd  0x8(%rsp),%xmm7
    39af:	66 0f 2f f8          	comisd %xmm0,%xmm7
    39b3:	0f 87 c4 f5 ff ff    	ja     2f7d <_ZL6forceldddddddjjPPPedddd+0x44d>
    39b9:	dd d9                	fstp   %st(1)
    39bb:	e9 41 fc ff ff       	jmp    3601 <_ZL6forceldddddddjjPPPedddd+0xad1>
    39c0:	f2 0f 10 0d 10 6b 00 	movsd  0x6b10(%rip),%xmm1        # a4d8 <_IO_stdin_used+0x4d8>
    39c7:	00 
    39c8:	db 6c 24 60          	fldt   0x60(%rsp)
    39cc:	66 0f 2f 44 24 08    	comisd 0x8(%rsp),%xmm0
    39d2:	f2 0f 11 4c 24 20    	movsd  %xmm1,0x20(%rsp)
    39d8:	dc 44 24 20          	faddl  0x20(%rsp)
    39dc:	db bc 24 a0 01 00 00 	fstpt  0x1a0(%rsp)
    39e3:	77 2c                	ja     3a11 <_ZL6forceldddddddjjPPPedddd+0xee1>
    39e5:	f2 0f 10 7c 24 08    	movsd  0x8(%rsp),%xmm7
    39eb:	66 0f 2f f8          	comisd %xmm0,%xmm7
    39ef:	0f 86 7d 06 00 00    	jbe    4072 <_ZL6forceldddddddjjPPPedddd+0x1542>
    39f5:	66 0f ef c0          	pxor   %xmm0,%xmm0
    39f9:	dd 54 24 20          	fstl   0x20(%rsp)
    39fd:	66 0f 2f 44 24 20    	comisd 0x20(%rsp),%xmm0
    3a03:	0f 86 74 f5 ff ff    	jbe    2f7d <_ZL6forceldddddddjjPPPedddd+0x44d>
    3a09:	d9 c9                	fxch   %st(1)
    3a0b:	eb 12                	jmp    3a1f <_ZL6forceldddddddjjPPPedddd+0xeef>
    3a0d:	d9 c9                	fxch   %st(1)
    3a0f:	eb 0e                	jmp    3a1f <_ZL6forceldddddddjjPPPedddd+0xeef>
    3a11:	d9 c9                	fxch   %st(1)
    3a13:	eb 0a                	jmp    3a1f <_ZL6forceldddddddjjPPPedddd+0xeef>
    3a15:	d9 c9                	fxch   %st(1)
    3a17:	eb 06                	jmp    3a1f <_ZL6forceldddddddjjPPPedddd+0xeef>
    3a19:	d9 c9                	fxch   %st(1)
    3a1b:	eb 02                	jmp    3a1f <_ZL6forceldddddddjjPPPedddd+0xeef>
    3a1d:	d9 c9                	fxch   %st(1)
    3a1f:	f2 0f 11 4c 24 20    	movsd  %xmm1,0x20(%rsp)
    3a25:	dc 44 24 20          	faddl  0x20(%rsp)
    3a29:	d9 c9                	fxch   %st(1)
    3a2b:	e9 4d f5 ff ff       	jmp    2f7d <_ZL6forceldddddddjjPPPedddd+0x44d>
    3a30:	66 0f 2f 44 24 08    	comisd 0x8(%rsp),%xmm0
    3a36:	0f 86 94 f4 ff ff    	jbe    2ed0 <_ZL6forceldddddddjjPPPedddd+0x3a0>
    3a3c:	dd 05 86 6a 00 00    	fldl   0x6a86(%rip)        # a4c8 <_IO_stdin_used+0x4c8>
    3a42:	e9 d9 f4 ff ff       	jmp    2f20 <_ZL6forceldddddddjjPPPedddd+0x3f0>
    3a47:	f2 0f 10 0d 89 6a 00 	movsd  0x6a89(%rip),%xmm1        # a4d8 <_IO_stdin_used+0x4d8>
    3a4e:	00 
    3a4f:	db 6c 24 60          	fldt   0x60(%rsp)
    3a53:	66 0f 2f 44 24 08    	comisd 0x8(%rsp),%xmm0
    3a59:	f2 0f 11 4c 24 20    	movsd  %xmm1,0x20(%rsp)
    3a5f:	dc 44 24 20          	faddl  0x20(%rsp)
    3a63:	db bc 24 80 01 00 00 	fstpt  0x180(%rsp)
    3a6a:	0f 87 7c 05 00 00    	ja     3fec <_ZL6forceldddddddjjPPPedddd+0x14bc>
    3a70:	f2 0f 10 7c 24 08    	movsd  0x8(%rsp),%xmm7
    3a76:	66 0f 2f f8          	comisd %xmm0,%xmm7
    3a7a:	0f 86 fd 06 00 00    	jbe    417d <_ZL6forceldddddddjjPPPedddd+0x164d>
    3a80:	66 0f ef c0          	pxor   %xmm0,%xmm0
    3a84:	66 0f 2f 44 24 10    	comisd 0x10(%rsp),%xmm0
    3a8a:	0f 86 84 f4 ff ff    	jbe    2f14 <_ZL6forceldddddddjjPPPedddd+0x3e4>
    3a90:	d9 c9                	fxch   %st(1)
    3a92:	f2 0f 11 4c 24 20    	movsd  %xmm1,0x20(%rsp)
    3a98:	dc 44 24 20          	faddl  0x20(%rsp)
    3a9c:	db bc 24 90 01 00 00 	fstpt  0x190(%rsp)
    3aa3:	dd 54 24 20          	fstl   0x20(%rsp)
    3aa7:	f2 0f 10 7c 24 20    	movsd  0x20(%rsp),%xmm7
    3aad:	66 0f 2e f8          	ucomisd %xmm0,%xmm7
    3ab1:	0f 8a 5c fa ff ff    	jp     3513 <_ZL6forceldddddddjjPPPedddd+0x9e3>
    3ab7:	0f 85 56 fa ff ff    	jne    3513 <_ZL6forceldddddddjjPPPedddd+0x9e3>
    3abd:	66 0f ef c0          	pxor   %xmm0,%xmm0
    3ac1:	66 0f 2f 04 24       	comisd (%rsp),%xmm0
    3ac6:	0f 87 5a 05 00 00    	ja     4026 <_ZL6forceldddddddjjPPPedddd+0x14f6>
    3acc:	d9 ee                	fldz
    3ace:	e9 87 f4 ff ff       	jmp    2f5a <_ZL6forceldddddddjjPPPedddd+0x42a>
    3ad3:	dd 54 24 20          	fstl   0x20(%rsp)
    3ad7:	f2 0f 10 7c 24 20    	movsd  0x20(%rsp),%xmm7
    3add:	66 0f 2f f8          	comisd %xmm0,%xmm7
    3ae1:	0f 82 2e fb ff ff    	jb     3615 <_ZL6forceldddddddjjPPPedddd+0xae5>
    3ae7:	f2 0f 10 7c 24 08    	movsd  0x8(%rsp),%xmm7
    3aed:	31 c9                	xor    %ecx,%ecx
    3aef:	66 0f 2f f8          	comisd %xmm0,%xmm7
    3af3:	0f 83 07 f7 ff ff    	jae    3200 <_ZL6forceldddddddjjPPPedddd+0x6d0>
    3af9:	e9 17 fb ff ff       	jmp    3615 <_ZL6forceldddddddjjPPPedddd+0xae5>
    3afe:	44 39 fa             	cmp    %r15d,%edx
    3b01:	0f 83 00 fe ff ff    	jae    3907 <_ZL6forceldddddddjjPPPedddd+0xdd7>
    3b07:	dd 44 24 10          	fldl   0x10(%rsp)
    3b0b:	e9 5e fd ff ff       	jmp    386e <_ZL6forceldddddddjjPPPedddd+0xd3e>
    3b10:	f2 0f 10 7c 24 10    	movsd  0x10(%rsp),%xmm7
    3b16:	66 0f 2f f8          	comisd %xmm0,%xmm7
    3b1a:	0f 86 68 05 00 00    	jbe    4088 <_ZL6forceldddddddjjPPPedddd+0x1558>
    3b20:	66 0f 2f 44 24 08    	comisd 0x8(%rsp),%xmm0
    3b26:	d9 ee                	fldz
    3b28:	db bc 24 80 01 00 00 	fstpt  0x180(%rsp)
    3b2f:	0f 86 70 f5 ff ff    	jbe    30a5 <_ZL6forceldddddddjjPPPedddd+0x575>
    3b35:	d9 c9                	fxch   %st(1)
    3b37:	dc 05 b3 69 00 00    	faddl  0x69b3(%rip)        # a4f0 <_IO_stdin_used+0x4f0>
    3b3d:	db bc 24 90 01 00 00 	fstpt  0x190(%rsp)
    3b44:	dd 54 24 20          	fstl   0x20(%rsp)
    3b48:	f2 0f 10 7c 24 20    	movsd  0x20(%rsp),%xmm7
    3b4e:	66 0f 2e f8          	ucomisd %xmm0,%xmm7
    3b52:	0f 8a bb f9 ff ff    	jp     3513 <_ZL6forceldddddddjjPPPedddd+0x9e3>
    3b58:	0f 84 6e ff ff ff    	je     3acc <_ZL6forceldddddddjjPPPedddd+0xf9c>
    3b5e:	e9 b0 f9 ff ff       	jmp    3513 <_ZL6forceldddddddjjPPPedddd+0x9e3>
    3b63:	48 83 c5 08          	add    $0x8,%rbp
    3b67:	48 39 f5             	cmp    %rsi,%rbp
    3b6a:	0f 85 54 fc ff ff    	jne    37c4 <_ZL6forceldddddddjjPPPedddd+0xc94>
    3b70:	dd d8                	fstp   %st(0)
    3b72:	dd d8                	fstp   %st(0)
    3b74:	e9 67 f0 ff ff       	jmp    2be0 <_ZL6forceldddddddjjPPPedddd+0xb0>
    3b79:	f2 0f 10 7c 24 20    	movsd  0x20(%rsp),%xmm7
    3b7f:	66 0f 2f f8          	comisd %xmm0,%xmm7
    3b83:	0f 86 7f 05 00 00    	jbe    4108 <_ZL6forceldddddddjjPPPedddd+0x15d8>
    3b89:	66 0f 2f 44 24 08    	comisd 0x8(%rsp),%xmm0
    3b8f:	d9 ee                	fldz
    3b91:	f2 0f 10 0d 57 69 00 	movsd  0x6957(%rip),%xmm1        # a4f0 <_IO_stdin_used+0x4f0>
    3b98:	00 
    3b99:	db bc 24 a0 01 00 00 	fstpt  0x1a0(%rsp)
    3ba0:	0f 86 03 fe ff ff    	jbe    39a9 <_ZL6forceldddddddjjPPPedddd+0xe79>
    3ba6:	d9 c9                	fxch   %st(1)
    3ba8:	e9 72 fe ff ff       	jmp    3a1f <_ZL6forceldddddddjjPPPedddd+0xeef>
    3bad:	d9 cb                	fxch   %st(3)
    3baf:	db bc 24 f0 00 00 00 	fstpt  0xf0(%rsp)
    3bb6:	d9 cb                	fxch   %st(3)
    3bb8:	48 8d bc 24 30 01 00 	lea    0x130(%rsp),%rdi
    3bbf:	00 
    3bc0:	4c 89 84 24 d0 00 00 	mov    %r8,0xd0(%rsp)
    3bc7:	00 
    3bc8:	dd 9c 24 e8 00 00 00 	fstpl  0xe8(%rsp)
    3bcf:	d9 c9                	fxch   %st(1)
    3bd1:	dd 54 24 20          	fstl   0x20(%rsp)
    3bd5:	d9 ca                	fxch   %st(2)
    3bd7:	f2 0f 10 4c 24 20    	movsd  0x20(%rsp),%xmm1
    3bdd:	dd 54 24 30          	fstl   0x30(%rsp)
    3be1:	d9 c9                	fxch   %st(1)
    3be3:	dd 54 24 38          	fstl   0x38(%rsp)
    3be7:	db 68 30             	fldt   0x30(%rax)
    3bea:	f2 0f 10 44 24 38    	movsd  0x38(%rsp),%xmm0
    3bf0:	66 0f 28 e1          	movapd %xmm1,%xmm4
    3bf4:	66 0f 14 e4          	unpcklpd %xmm4,%xmm4
    3bf8:	f2 0f 10 4c 24 30    	movsd  0x30(%rsp),%xmm1
    3bfe:	48 89 b4 24 c0 00 00 	mov    %rsi,0xc0(%rsp)
    3c05:	00 
    3c06:	0f 29 a4 24 a0 00 00 	movaps %xmm4,0xa0(%rsp)
    3c0d:	00 
    3c0e:	66 0f 28 f8          	movapd %xmm0,%xmm7
    3c12:	dd 5c 24 70          	fstpl  0x70(%rsp)
    3c16:	d9 ca                	fxch   %st(2)
    3c18:	66 0f 14 ff          	unpcklpd %xmm7,%xmm7
    3c1c:	dc 84 24 20 02 00 00 	faddl  0x220(%rsp)
    3c23:	f2 0f 10 64 24 70    	movsd  0x70(%rsp),%xmm4
    3c29:	66 44 0f 28 d1       	movapd %xmm1,%xmm10
    3c2e:	0f 29 bc 24 80 00 00 	movaps %xmm7,0x80(%rsp)
    3c35:	00 
    3c36:	66 0f 28 fc          	movapd %xmm4,%xmm7
    3c3a:	66 45 0f 14 d2       	unpcklpd %xmm10,%xmm10
    3c3f:	89 94 24 e0 00 00 00 	mov    %edx,0xe0(%rsp)
    3c46:	66 0f 14 ff          	unpcklpd %xmm7,%xmm7
    3c4a:	89 8c 24 b0 00 00 00 	mov    %ecx,0xb0(%rsp)
    3c51:	f2 0f 11 b4 24 20 01 	movsd  %xmm6,0x120(%rsp)
    3c58:	00 00 
    3c5a:	dd 5c 24 50          	fstpl  0x50(%rsp)
    3c5e:	dc 84 24 18 02 00 00 	faddl  0x218(%rsp)
    3c65:	f2 0f 10 5c 24 50    	movsd  0x50(%rsp),%xmm3
    3c6b:	f2 0f 11 ac 24 18 01 	movsd  %xmm5,0x118(%rsp)
    3c72:	00 00 
    3c74:	f2 44 0f 11 84 24 10 	movsd  %xmm8,0x110(%rsp)
    3c7b:	01 00 00 
    3c7e:	44 0f 29 8c 24 00 01 	movaps %xmm9,0x100(%rsp)
    3c85:	00 00 
    3c87:	44 0f 29 94 24 90 00 	movaps %xmm10,0x90(%rsp)
    3c8e:	00 00 
    3c90:	dd 5c 24 60          	fstpl  0x60(%rsp)
    3c94:	dc 84 24 10 02 00 00 	faddl  0x210(%rsp)
    3c9b:	f2 0f 10 54 24 60    	movsd  0x60(%rsp),%xmm2
    3ca1:	0f 29 7c 24 40       	movaps %xmm7,0x40(%rsp)
    3ca6:	dd 5c 24 78          	fstpl  0x78(%rsp)
    3caa:	f2 0f 10 4c 24 78    	movsd  0x78(%rsp),%xmm1
    3cb0:	f2 0f 10 44 24 18    	movsd  0x18(%rsp),%xmm0
    3cb6:	e8 45 43 00 00       	call   8000 <_Z6stressdddd>
    3cbb:	f2 0f 10 44 24 38    	movsd  0x38(%rsp),%xmm0
    3cc1:	f2 0f 10 4c 24 30    	movsd  0x30(%rsp),%xmm1
    3cc7:	f2 0f 59 84 24 40 01 	mulsd  0x140(%rsp),%xmm0
    3cce:	00 00 
    3cd0:	8b 94 24 e0 00 00 00 	mov    0xe0(%rsp),%edx
    3cd7:	f2 0f 59 8c 24 58 01 	mulsd  0x158(%rsp),%xmm1
    3cde:	00 00 
    3ce0:	8b 8c 24 b0 00 00 00 	mov    0xb0(%rsp),%ecx
    3ce7:	66 0f 28 bc 24 80 00 	movapd 0x80(%rsp),%xmm7
    3cee:	00 00 
    3cf0:	66 44 0f 28 94 24 90 	movapd 0x90(%rsp),%xmm10
    3cf7:	00 00 00 
    3cfa:	66 0f 28 a4 24 a0 00 	movapd 0xa0(%rsp),%xmm4
    3d01:	00 00 
    3d03:	66 0f 59 bc 24 30 01 	mulpd  0x130(%rsp),%xmm7
    3d0a:	00 00 
    3d0c:	dd 84 24 e8 00 00 00 	fldl   0xe8(%rsp)
    3d13:	db ac 24 f0 00 00 00 	fldt   0xf0(%rsp)
    3d1a:	4c 8b 84 24 d0 00 00 	mov    0xd0(%rsp),%r8
    3d21:	00 
    3d22:	66 44 0f 28 8c 24 00 	movapd 0x100(%rsp),%xmm9
    3d29:	01 00 00 
    3d2c:	f2 0f 58 c1          	addsd  %xmm1,%xmm0
    3d30:	f2 0f 10 4c 24 20    	movsd  0x20(%rsp),%xmm1
    3d36:	f2 0f 59 8c 24 70 01 	mulsd  0x170(%rsp),%xmm1
    3d3d:	00 00 
    3d3f:	66 0f 59 a4 24 60 01 	mulpd  0x160(%rsp),%xmm4
    3d46:	00 00 
    3d48:	f2 44 0f 10 84 24 10 	movsd  0x110(%rsp),%xmm8
    3d4f:	01 00 00 
    3d52:	48 8b b4 24 c0 00 00 	mov    0xc0(%rsp),%rsi
    3d59:	00 
    3d5a:	f2 0f 10 b4 24 20 01 	movsd  0x120(%rsp),%xmm6
    3d61:	00 00 
    3d63:	f2 0f 10 ac 24 18 01 	movsd  0x118(%rsp),%xmm5
    3d6a:	00 00 
    3d6c:	f2 0f 58 c1          	addsd  %xmm1,%xmm0
    3d70:	f2 0f 59 44 24 70    	mulsd  0x70(%rsp),%xmm0
    3d76:	66 0f 10 8c 24 48 01 	movupd 0x148(%rsp),%xmm1
    3d7d:	00 00 
    3d7f:	66 41 0f 59 ca       	mulpd  %xmm10,%xmm1
    3d84:	f2 41 0f 5e c0       	divsd  %xmm8,%xmm0
    3d89:	66 0f 58 cf          	addpd  %xmm7,%xmm1
    3d8d:	66 41 0f 10 3c 24    	movupd (%r12),%xmm7
    3d93:	66 0f 58 cc          	addpd  %xmm4,%xmm1
    3d97:	66 0f 59 4c 24 40    	mulpd  0x40(%rsp),%xmm1
    3d9d:	66 41 0f 5e c9       	divpd  %xmm9,%xmm1
    3da2:	f2 41 0f 58 44 24 10 	addsd  0x10(%r12),%xmm0
    3da9:	f2 41 0f 11 44 24 10 	movsd  %xmm0,0x10(%r12)
    3db0:	66 0f 58 cf          	addpd  %xmm7,%xmm1
    3db4:	41 0f 11 0c 24       	movups %xmm1,(%r12)
    3db9:	e9 9a fa ff ff       	jmp    3858 <_ZL6forceldddddddjjPPPedddd+0xd28>
    3dbe:	d9 cb                	fxch   %st(3)
    3dc0:	db bc 24 f0 00 00 00 	fstpt  0xf0(%rsp)
    3dc7:	d9 cb                	fxch   %st(3)
    3dc9:	48 8d bc 24 30 01 00 	lea    0x130(%rsp),%rdi
    3dd0:	00 
    3dd1:	4c 89 84 24 d0 00 00 	mov    %r8,0xd0(%rsp)
    3dd8:	00 
    3dd9:	dd 9c 24 e8 00 00 00 	fstpl  0xe8(%rsp)
    3de0:	d9 c9                	fxch   %st(1)
    3de2:	dd 54 24 20          	fstl   0x20(%rsp)
    3de6:	d9 ca                	fxch   %st(2)
    3de8:	f2 0f 10 4c 24 20    	movsd  0x20(%rsp),%xmm1
    3dee:	dd 54 24 30          	fstl   0x30(%rsp)
    3df2:	d9 c9                	fxch   %st(1)
    3df4:	dd 54 24 38          	fstl   0x38(%rsp)
    3df8:	db 68 30             	fldt   0x30(%rax)
    3dfb:	f2 0f 10 44 24 38    	movsd  0x38(%rsp),%xmm0
    3e01:	66 0f 28 e1          	movapd %xmm1,%xmm4
    3e05:	66 0f 14 e4          	unpcklpd %xmm4,%xmm4
    3e09:	f2 0f 10 4c 24 30    	movsd  0x30(%rsp),%xmm1
    3e0f:	48 89 b4 24 c0 00 00 	mov    %rsi,0xc0(%rsp)
    3e16:	00 
    3e17:	0f 29 a4 24 a0 00 00 	movaps %xmm4,0xa0(%rsp)
    3e1e:	00 
    3e1f:	66 0f 28 f8          	movapd %xmm0,%xmm7
    3e23:	dd 5c 24 70          	fstpl  0x70(%rsp)
    3e27:	d9 ca                	fxch   %st(2)
    3e29:	66 0f 14 ff          	unpcklpd %xmm7,%xmm7
    3e2d:	dc 84 24 20 02 00 00 	faddl  0x220(%rsp)
    3e34:	f2 0f 10 64 24 70    	movsd  0x70(%rsp),%xmm4
    3e3a:	66 44 0f 28 d1       	movapd %xmm1,%xmm10
    3e3f:	0f 29 bc 24 80 00 00 	movaps %xmm7,0x80(%rsp)
    3e46:	00 
    3e47:	66 0f 28 fc          	movapd %xmm4,%xmm7
    3e4b:	66 45 0f 14 d2       	unpcklpd %xmm10,%xmm10
    3e50:	89 94 24 e0 00 00 00 	mov    %edx,0xe0(%rsp)
    3e57:	66 0f 14 ff          	unpcklpd %xmm7,%xmm7
    3e5b:	89 8c 24 b0 00 00 00 	mov    %ecx,0xb0(%rsp)
    3e62:	f2 0f 11 b4 24 20 01 	movsd  %xmm6,0x120(%rsp)
    3e69:	00 00 
    3e6b:	dd 5c 24 50          	fstpl  0x50(%rsp)
    3e6f:	dc 84 24 18 02 00 00 	faddl  0x218(%rsp)
    3e76:	f2 0f 10 5c 24 50    	movsd  0x50(%rsp),%xmm3
    3e7c:	f2 0f 11 ac 24 18 01 	movsd  %xmm5,0x118(%rsp)
    3e83:	00 00 
    3e85:	f2 44 0f 11 84 24 10 	movsd  %xmm8,0x110(%rsp)
    3e8c:	01 00 00 
    3e8f:	44 0f 29 8c 24 00 01 	movaps %xmm9,0x100(%rsp)
    3e96:	00 00 
    3e98:	44 0f 29 94 24 90 00 	movaps %xmm10,0x90(%rsp)
    3e9f:	00 00 
    3ea1:	dd 5c 24 60          	fstpl  0x60(%rsp)
    3ea5:	dc 84 24 10 02 00 00 	faddl  0x210(%rsp)
    3eac:	f2 0f 10 54 24 60    	movsd  0x60(%rsp),%xmm2
    3eb2:	0f 29 7c 24 40       	movaps %xmm7,0x40(%rsp)
    3eb7:	dd 5c 24 78          	fstpl  0x78(%rsp)
    3ebb:	f2 0f 10 4c 24 78    	movsd  0x78(%rsp),%xmm1
    3ec1:	f2 0f 10 44 24 18    	movsd  0x18(%rsp),%xmm0
    3ec7:	e8 34 41 00 00       	call   8000 <_Z6stressdddd>
    3ecc:	f2 0f 10 44 24 38    	movsd  0x38(%rsp),%xmm0
    3ed2:	f2 0f 10 4c 24 30    	movsd  0x30(%rsp),%xmm1
    3ed8:	f2 0f 59 84 24 40 01 	mulsd  0x140(%rsp),%xmm0
    3edf:	00 00 
    3ee1:	8b 94 24 e0 00 00 00 	mov    0xe0(%rsp),%edx
    3ee8:	f2 0f 59 8c 24 58 01 	mulsd  0x158(%rsp),%xmm1
    3eef:	00 00 
    3ef1:	8b 8c 24 b0 00 00 00 	mov    0xb0(%rsp),%ecx
    3ef8:	66 0f 28 bc 24 80 00 	movapd 0x80(%rsp),%xmm7
    3eff:	00 00 
    3f01:	66 44 0f 28 94 24 90 	movapd 0x90(%rsp),%xmm10
    3f08:	00 00 00 
    3f0b:	66 0f 28 a4 24 a0 00 	movapd 0xa0(%rsp),%xmm4
    3f12:	00 00 
    3f14:	66 0f 59 bc 24 30 01 	mulpd  0x130(%rsp),%xmm7
    3f1b:	00 00 
    3f1d:	dd 84 24 e8 00 00 00 	fldl   0xe8(%rsp)
    3f24:	db ac 24 f0 00 00 00 	fldt   0xf0(%rsp)
    3f2b:	4c 8b 84 24 d0 00 00 	mov    0xd0(%rsp),%r8
    3f32:	00 
    3f33:	66 44 0f 28 8c 24 00 	movapd 0x100(%rsp),%xmm9
    3f3a:	01 00 00 
    3f3d:	f2 0f 58 c1          	addsd  %xmm1,%xmm0
    3f41:	f2 0f 10 4c 24 20    	movsd  0x20(%rsp),%xmm1
    3f47:	f2 0f 59 8c 24 70 01 	mulsd  0x170(%rsp),%xmm1
    3f4e:	00 00 
    3f50:	66 0f 59 a4 24 60 01 	mulpd  0x160(%rsp),%xmm4
    3f57:	00 00 
    3f59:	f2 44 0f 10 84 24 10 	movsd  0x110(%rsp),%xmm8
    3f60:	01 00 00 
    3f63:	48 8b b4 24 c0 00 00 	mov    0xc0(%rsp),%rsi
    3f6a:	00 
    3f6b:	f2 0f 10 b4 24 20 01 	movsd  0x120(%rsp),%xmm6
    3f72:	00 00 
    3f74:	f2 0f 10 ac 24 18 01 	movsd  0x118(%rsp),%xmm5
    3f7b:	00 00 
    3f7d:	f2 0f 58 c1          	addsd  %xmm1,%xmm0
    3f81:	f2 0f 59 44 24 70    	mulsd  0x70(%rsp),%xmm0
    3f87:	66 0f 10 8c 24 48 01 	movupd 0x148(%rsp),%xmm1
    3f8e:	00 00 
    3f90:	66 41 0f 59 ca       	mulpd  %xmm10,%xmm1
    3f95:	f2 41 0f 5e c0       	divsd  %xmm8,%xmm0
    3f9a:	66 0f 58 cf          	addpd  %xmm7,%xmm1
    3f9e:	66 41 0f 10 3c 24    	movupd (%r12),%xmm7
    3fa4:	66 0f 58 cc          	addpd  %xmm4,%xmm1
    3fa8:	66 0f 59 4c 24 40    	mulpd  0x40(%rsp),%xmm1
    3fae:	66 41 0f 5e c9       	divpd  %xmm9,%xmm1
    3fb3:	f2 41 0f 58 44 24 10 	addsd  0x10(%r12),%xmm0
    3fba:	f2 41 0f 11 44 24 10 	movsd  %xmm0,0x10(%r12)
    3fc1:	66 0f 58 cf          	addpd  %xmm7,%xmm1
    3fc5:	41 0f 11 0c 24       	movups %xmm1,(%r12)
    3fca:	e9 29 f9 ff ff       	jmp    38f8 <_ZL6forceldddddddjjPPPedddd+0xdc8>
    3fcf:	dd 05 f3 64 00 00    	fldl   0x64f3(%rip)        # a4c8 <_IO_stdin_used+0x4c8>
    3fd5:	e9 0f ef ff ff       	jmp    2ee9 <_ZL6forceldddddddjjPPPedddd+0x3b9>
    3fda:	d9 c9                	fxch   %st(1)
    3fdc:	f2 0f 10 0d f4 64 00 	movsd  0x64f4(%rip),%xmm1        # a4d8 <_IO_stdin_used+0x4d8>
    3fe3:	00 
    3fe4:	eb 0c                	jmp    3ff2 <_ZL6forceldddddddjjPPPedddd+0x14c2>
    3fe6:	dd d8                	fstp   %st(0)
    3fe8:	d9 c9                	fxch   %st(1)
    3fea:	eb 06                	jmp    3ff2 <_ZL6forceldddddddjjPPPedddd+0x14c2>
    3fec:	d9 c9                	fxch   %st(1)
    3fee:	eb 02                	jmp    3ff2 <_ZL6forceldddddddjjPPPedddd+0x14c2>
    3ff0:	d9 c9                	fxch   %st(1)
    3ff2:	f2 0f 11 4c 24 20    	movsd  %xmm1,0x20(%rsp)
    3ff8:	dc 44 24 20          	faddl  0x20(%rsp)
    3ffc:	e9 1f ef ff ff       	jmp    2f20 <_ZL6forceldddddddjjPPPedddd+0x3f0>
    4001:	de c2                	faddp  %st,%st(2)
    4003:	d9 c9                	fxch   %st(1)
    4005:	db bc 24 90 01 00 00 	fstpt  0x190(%rsp)
    400c:	dd 54 24 20          	fstl   0x20(%rsp)
    4010:	f2 0f 10 7c 24 20    	movsd  0x20(%rsp),%xmm7
    4016:	66 0f 2e f8          	ucomisd %xmm0,%xmm7
    401a:	0f 8a f3 f4 ff ff    	jp     3513 <_ZL6forceldddddddjjPPPedddd+0x9e3>
    4020:	0f 85 ed f4 ff ff    	jne    3513 <_ZL6forceldddddddjjPPPedddd+0x9e3>
    4026:	dd 05 9c 64 00 00    	fldl   0x649c(%rip)        # a4c8 <_IO_stdin_used+0x4c8>
    402c:	e9 29 ef ff ff       	jmp    2f5a <_ZL6forceldddddddjjPPPedddd+0x42a>
    4031:	f2 0f 10 0d 9f 64 00 	movsd  0x649f(%rip),%xmm1        # a4d8 <_IO_stdin_used+0x4d8>
    4038:	00 
    4039:	db 6c 24 60          	fldt   0x60(%rsp)
    403d:	66 0f 2f 44 24 08    	comisd 0x8(%rsp),%xmm0
    4043:	f2 0f 11 4c 24 20    	movsd  %xmm1,0x20(%rsp)
    4049:	dc 44 24 20          	faddl  0x20(%rsp)
    404d:	db bc 24 a0 01 00 00 	fstpt  0x1a0(%rsp)
    4054:	0f 87 bb f9 ff ff    	ja     3a15 <_ZL6forceldddddddjjPPPedddd+0xee5>
    405a:	f2 0f 10 7c 24 08    	movsd  0x8(%rsp),%xmm7
    4060:	66 0f ef c0          	pxor   %xmm0,%xmm0
    4064:	66 0f 2f f8          	comisd %xmm0,%xmm7
    4068:	0f 87 ab f9 ff ff    	ja     3a19 <_ZL6forceldddddddjjPPPedddd+0xee9>
    406e:	dd d9                	fstp   %st(1)
    4070:	eb 02                	jmp    4074 <_ZL6forceldddddddjjPPPedddd+0x1544>
    4072:	dd d9                	fstp   %st(1)
    4074:	f2 0f 11 4c 24 20    	movsd  %xmm1,0x20(%rsp)
    407a:	dd 44 24 20          	fldl   0x20(%rsp)
    407e:	d9 c9                	fxch   %st(1)
    4080:	e9 f8 ee ff ff       	jmp    2f7d <_ZL6forceldddddddjjPPPedddd+0x44d>
    4085:	0f 1f 00             	nopl   (%rax)
    4088:	f2 0f 10 0d 48 64 00 	movsd  0x6448(%rip),%xmm1        # a4d8 <_IO_stdin_used+0x4d8>
    408f:	00 
    4090:	66 0f 2f 44 24 08    	comisd 0x8(%rsp),%xmm0
    4096:	f2 0f 11 4c 24 20    	movsd  %xmm1,0x20(%rsp)
    409c:	dd 44 24 20          	fldl   0x20(%rsp)
    40a0:	db bc 24 80 01 00 00 	fstpt  0x180(%rsp)
    40a7:	0f 87 43 ff ff ff    	ja     3ff0 <_ZL6forceldddddddjjPPPedddd+0x14c0>
    40ad:	f2 0f 10 7c 24 08    	movsd  0x8(%rsp),%xmm7
    40b3:	66 0f 2f f8          	comisd %xmm0,%xmm7
    40b7:	0f 87 c3 f9 ff ff    	ja     3a80 <_ZL6forceldddddddjjPPPedddd+0xf50>
    40bd:	dd d9                	fstp   %st(1)
    40bf:	f2 0f 11 4c 24 20    	movsd  %xmm1,0x20(%rsp)
    40c5:	dd 44 24 20          	fldl   0x20(%rsp)
    40c9:	db bc 24 90 01 00 00 	fstpt  0x190(%rsp)
    40d0:	dd 54 24 20          	fstl   0x20(%rsp)
    40d4:	f2 0f 10 7c 24 20    	movsd  0x20(%rsp),%xmm7
    40da:	66 0f 2f f8          	comisd %xmm0,%xmm7
    40de:	7a 0c                	jp     40ec <_ZL6forceldddddddjjPPPedddd+0x15bc>
    40e0:	0f 84 fd 01 00 00    	je     42e3 <_ZL6forceldddddddjjPPPedddd+0x17b3>
    40e6:	0f 87 7d 01 00 00    	ja     4269 <_ZL6forceldddddddjjPPPedddd+0x1739>
    40ec:	f2 0f 11 4c 24 20    	movsd  %xmm1,0x20(%rsp)
    40f2:	dd 44 24 20          	fldl   0x20(%rsp)
    40f6:	db bc 24 a0 01 00 00 	fstpt  0x1a0(%rsp)
    40fd:	e9 72 ff ff ff       	jmp    4074 <_ZL6forceldddddddjjPPPedddd+0x1544>
    4102:	66 0f 1f 44 00 00    	nopw   0x0(%rax,%rax,1)
    4108:	f2 0f 10 0d c8 63 00 	movsd  0x63c8(%rip),%xmm1        # a4d8 <_IO_stdin_used+0x4d8>
    410f:	00 
    4110:	66 0f 2f 44 24 08    	comisd 0x8(%rsp),%xmm0
    4116:	f2 0f 11 4c 24 20    	movsd  %xmm1,0x20(%rsp)
    411c:	dd 44 24 20          	fldl   0x20(%rsp)
    4120:	db bc 24 a0 01 00 00 	fstpt  0x1a0(%rsp)
    4127:	0f 86 b8 f8 ff ff    	jbe    39e5 <_ZL6forceldddddddjjPPPedddd+0xeb5>
    412d:	d9 c9                	fxch   %st(1)
    412f:	e9 eb f8 ff ff       	jmp    3a1f <_ZL6forceldddddddjjPPPedddd+0xeef>
    4134:	dd 54 24 20          	fstl   0x20(%rsp)
    4138:	f2 0f 10 7c 24 20    	movsd  0x20(%rsp),%xmm7
    413e:	f2 0f 10 0d aa 63 00 	movsd  0x63aa(%rip),%xmm1        # a4f0 <_IO_stdin_used+0x4f0>
    4145:	00 
    4146:	66 0f 2f f8          	comisd %xmm0,%xmm7
    414a:	0f 87 cd f8 ff ff    	ja     3a1d <_ZL6forceldddddddjjPPPedddd+0xeed>
    4150:	d9 c9                	fxch   %st(1)
    4152:	f2 0f 10 0d 7e 63 00 	movsd  0x637e(%rip),%xmm1        # a4d8 <_IO_stdin_used+0x4d8>
    4159:	00 
    415a:	e9 c0 f8 ff ff       	jmp    3a1f <_ZL6forceldddddddjjPPPedddd+0xeef>
    415f:	90                   	nop
    4160:	f2 0f 10 7c 24 10    	movsd  0x10(%rsp),%xmm7
    4166:	66 0f 2f f8          	comisd %xmm0,%xmm7
    416a:	0f 86 6a fe ff ff    	jbe    3fda <_ZL6forceldddddddjjPPPedddd+0x14aa>
    4170:	d9 c9                	fxch   %st(1)
    4172:	dc 05 78 63 00 00    	faddl  0x6378(%rip)        # a4f0 <_IO_stdin_used+0x4f0>
    4178:	e9 79 f3 ff ff       	jmp    34f6 <_ZL6forceldddddddjjPPPedddd+0x9c6>
    417d:	dd d9                	fstp   %st(1)
    417f:	f2 0f 11 4c 24 20    	movsd  %xmm1,0x20(%rsp)
    4185:	dd 44 24 20          	fldl   0x20(%rsp)
    4189:	db bc 24 90 01 00 00 	fstpt  0x190(%rsp)
    4190:	dd 54 24 20          	fstl   0x20(%rsp)
    4194:	f2 0f 10 7c 24 20    	movsd  0x20(%rsp),%xmm7
    419a:	66 0f 2e f8          	ucomisd %xmm0,%xmm7
    419e:	0f 8a 6f f3 ff ff    	jp     3513 <_ZL6forceldddddddjjPPPedddd+0x9e3>
    41a4:	0f 85 69 f3 ff ff    	jne    3513 <_ZL6forceldddddddjjPPPedddd+0x9e3>
    41aa:	dd 05 18 63 00 00    	fldl   0x6318(%rip)        # a4c8 <_IO_stdin_used+0x4c8>
    41b0:	db bc 24 a0 01 00 00 	fstpt  0x1a0(%rsp)
    41b7:	e9 9b f7 ff ff       	jmp    3957 <_ZL6forceldddddddjjPPPedddd+0xe27>
    41bc:	f2 0f 10 0d 14 63 00 	movsd  0x6314(%rip),%xmm1        # a4d8 <_IO_stdin_used+0x4d8>
    41c3:	00 
    41c4:	f2 0f 11 4c 24 20    	movsd  %xmm1,0x20(%rsp)
    41ca:	dd 44 24 20          	fldl   0x20(%rsp)
    41ce:	db bc 24 90 01 00 00 	fstpt  0x190(%rsp)
    41d5:	dd 54 24 20          	fstl   0x20(%rsp)
    41d9:	f2 0f 10 7c 24 20    	movsd  0x20(%rsp),%xmm7
    41df:	66 0f 2e f8          	ucomisd %xmm0,%xmm7
    41e3:	7a 06                	jp     41eb <_ZL6forceldddddddjjPPPedddd+0x16bb>
    41e5:	0f 84 5f f7 ff ff    	je     394a <_ZL6forceldddddddjjPPPedddd+0xe1a>
    41eb:	dd 54 24 20          	fstl   0x20(%rsp)
    41ef:	f2 0f 10 04 24       	movsd  (%rsp),%xmm0
    41f4:	f2 0f 5e 44 24 20    	divsd  0x20(%rsp),%xmm0
    41fa:	dd 5c 24 30          	fstpl  0x30(%rsp)
    41fe:	89 44 24 38          	mov    %eax,0x38(%rsp)
    4202:	f2 0f 11 74 24 50    	movsd  %xmm6,0x50(%rsp)
    4208:	f2 0f 11 6c 24 40    	movsd  %xmm5,0x40(%rsp)
    420e:	f2 44 0f 11 44 24 70 	movsd  %xmm8,0x70(%rsp)
    4215:	f2 0f 11 4c 24 78    	movsd  %xmm1,0x78(%rsp)
    421b:	e8 f0 e1 ff ff       	call   2410 <atan@plt>
    4220:	8b 44 24 38          	mov    0x38(%rsp),%eax
    4224:	f2 44 0f 10 44 24 70 	movsd  0x70(%rsp),%xmm8
    422b:	f2 0f 11 44 24 20    	movsd  %xmm0,0x20(%rsp)
    4231:	dd 44 24 20          	fldl   0x20(%rsp)
    4235:	66 0f ef c0          	pxor   %xmm0,%xmm0
    4239:	f2 0f 10 6c 24 40    	movsd  0x40(%rsp),%xmm5
    423f:	f2 0f 10 74 24 50    	movsd  0x50(%rsp),%xmm6
    4245:	d9 c0                	fld    %st(0)
    4247:	db 7c 24 60          	fstpt  0x60(%rsp)
    424b:	dd 44 24 30          	fldl   0x30(%rsp)
    424f:	dd 54 24 20          	fstl   0x20(%rsp)
    4253:	66 0f 2f 44 24 20    	comisd 0x20(%rsp),%xmm0
    4259:	77 2e                	ja     4289 <_ZL6forceldddddddjjPPPedddd+0x1759>
    425b:	d9 c9                	fxch   %st(1)
    425d:	db bc 24 a0 01 00 00 	fstpt  0x1a0(%rsp)
    4264:	e9 80 f3 ff ff       	jmp    35e9 <_ZL6forceldddddddjjPPPedddd+0xab9>
    4269:	d9 ee                	fldz
    426b:	db bc 24 a0 01 00 00 	fstpt  0x1a0(%rsp)
    4272:	e9 8a f3 ff ff       	jmp    3601 <_ZL6forceldddddddjjPPPedddd+0xad1>
    4277:	f2 0f 10 0d 59 62 00 	movsd  0x6259(%rip),%xmm1        # a4d8 <_IO_stdin_used+0x4d8>
    427e:	00 
    427f:	e9 f0 fd ff ff       	jmp    4074 <_ZL6forceldddddddjjPPPedddd+0x1544>
    4284:	e8 e7 e1 ff ff       	call   2470 <__stack_chk_fail@plt>
    4289:	dd d8                	fstp   %st(0)
    428b:	dd d8                	fstp   %st(0)
    428d:	f2 0f 10 44 24 08    	movsd  0x8(%rsp),%xmm0
    4293:	f2 0f 5e 44 24 20    	divsd  0x20(%rsp),%xmm0
    4299:	e8 72 e1 ff ff       	call   2410 <atan@plt>
    429e:	f2 0f 10 4c 24 78    	movsd  0x78(%rsp),%xmm1
    42a4:	8b 44 24 38          	mov    0x38(%rsp),%eax
    42a8:	f2 0f 11 44 24 20    	movsd  %xmm0,0x20(%rsp)
    42ae:	dd 44 24 20          	fldl   0x20(%rsp)
    42b2:	db 6c 24 60          	fldt   0x60(%rsp)
    42b6:	f2 0f 11 4c 24 20    	movsd  %xmm1,0x20(%rsp)
    42bc:	dc 44 24 20          	faddl  0x20(%rsp)
    42c0:	f2 44 0f 10 44 24 70 	movsd  0x70(%rsp),%xmm8
    42c7:	f2 0f 10 6c 24 40    	movsd  0x40(%rsp),%xmm5
    42cd:	f2 0f 10 74 24 50    	movsd  0x50(%rsp),%xmm6
    42d3:	db bc 24 a0 01 00 00 	fstpt  0x1a0(%rsp)
    42da:	dd 44 24 30          	fldl   0x30(%rsp)
    42de:	e9 77 fd ff ff       	jmp    405a <_ZL6forceldddddddjjPPPedddd+0x152a>
    42e3:	d9 ee                	fldz
    42e5:	db bc 24 a0 01 00 00 	fstpt  0x1a0(%rsp)
    42ec:	e9 66 f6 ff ff       	jmp    3957 <_ZL6forceldddddddjjPPPedddd+0xe27>
    42f1:	66 66 2e 0f 1f 84 00 	data16 cs nopw 0x0(%rax,%rax,1)
    42f8:	00 00 00 00 
    42fc:	0f 1f 40 00          	nopl   0x0(%rax)

0000000000004300 <_ZL7torqueldddddddjjPPPedddd>:
    4300:	41 57                	push   %r15
    4302:	66 44 0f 28 c0       	movapd %xmm0,%xmm8
    4307:	66 0f ef c0          	pxor   %xmm0,%xmm0
    430b:	49 89 ff             	mov    %rdi,%r15
    430e:	41 56                	push   %r14
    4310:	41 89 f6             	mov    %esi,%r14d
    4313:	41 55                	push   %r13
    4315:	41 54                	push   %r12
    4317:	41 89 f4             	mov    %esi,%r12d
    431a:	55                   	push   %rbp
    431b:	48 89 cd             	mov    %rcx,%rbp
    431e:	53                   	push   %rbx
    431f:	89 d3                	mov    %edx,%ebx
    4321:	48 81 ec 88 01 00 00 	sub    $0x188,%rsp
    4328:	f2 0f 11 54 24 08    	movsd  %xmm2,0x8(%rsp)
    432e:	66 41 0f 28 d0       	movapd %xmm8,%xmm2
    4333:	dd 44 24 08          	fldl   0x8(%rsp)
    4337:	66 0f 57 15 e1 61 00 	xorpd  0x61e1(%rip),%xmm2        # a520 <_IO_stdin_used+0x520>
    433e:	00 
    433f:	f2 0f 11 4c 24 28    	movsd  %xmm1,0x28(%rsp)
    4345:	f2 0f 11 5c 24 08    	movsd  %xmm3,0x8(%rsp)
    434b:	f2 0f 11 64 24 18    	movsd  %xmm4,0x18(%rsp)
    4351:	f2 0f 11 6c 24 20    	movsd  %xmm5,0x20(%rsp)
    4357:	f2 0f 11 74 24 10    	movsd  %xmm6,0x10(%rsp)
    435d:	f2 0f 11 7c 24 30    	movsd  %xmm7,0x30(%rsp)
    4363:	64 48 8b 04 25 28 00 	mov    %fs:0x28,%rax
    436a:	00 00 
    436c:	48 89 84 24 78 01 00 	mov    %rax,0x178(%rsp)
    4373:	00 
    4374:	31 c0                	xor    %eax,%eax
    4376:	66 0f 2f ea          	comisd %xmm2,%xmm5
    437a:	48 c7 47 10 00 00 00 	movq   $0x0,0x10(%rdi)
    4381:	00 
    4382:	0f 11 07             	movups %xmm0,(%rdi)
    4385:	0f 87 0d 01 00 00    	ja     4498 <_ZL7torqueldddddddjjPPPedddd+0x198>
    438b:	45 31 c9             	xor    %r9d,%r9d
    438e:	66 44 0f 2f 44 24 10 	comisd 0x10(%rsp),%xmm8
    4395:	77 69                	ja     4400 <_ZL7torqueldddddddjjPPPedddd+0x100>
    4397:	66 0f 2f 54 24 10    	comisd 0x10(%rsp),%xmm2
    439d:	77 19                	ja     43b8 <_ZL7torqueldddddddjjPPPedddd+0xb8>
    439f:	f2 0f 10 7c 24 20    	movsd  0x20(%rsp),%xmm7
    43a5:	66 41 0f 2f f8       	comisd %xmm8,%xmm7
    43aa:	0f 86 f8 01 00 00    	jbe    45a8 <_ZL7torqueldddddddjjPPPedddd+0x2a8>
    43b0:	dd d8                	fstp   %st(0)
    43b2:	eb 1c                	jmp    43d0 <_ZL7torqueldddddddjjPPPedddd+0xd0>
    43b4:	0f 1f 40 00          	nopl   0x0(%rax)
    43b8:	dd d8                	fstp   %st(0)
    43ba:	eb 14                	jmp    43d0 <_ZL7torqueldddddddjjPPPedddd+0xd0>
    43bc:	dd d8                	fstp   %st(0)
    43be:	eb 10                	jmp    43d0 <_ZL7torqueldddddddjjPPPedddd+0xd0>
    43c0:	dd d8                	fstp   %st(0)
    43c2:	eb 0c                	jmp    43d0 <_ZL7torqueldddddddjjPPPedddd+0xd0>
    43c4:	dd d8                	fstp   %st(0)
    43c6:	66 2e 0f 1f 84 00 00 	cs nopw 0x0(%rax,%rax,1)
    43cd:	00 00 00 
    43d0:	48 8b 84 24 78 01 00 	mov    0x178(%rsp),%rax
    43d7:	00 
    43d8:	64 48 2b 04 25 28 00 	sub    %fs:0x28,%rax
    43df:	00 00 
    43e1:	0f 85 18 17 00 00    	jne    5aff <_ZL7torqueldddddddjjPPPedddd+0x17ff>
    43e7:	48 81 c4 88 01 00 00 	add    $0x188,%rsp
    43ee:	4c 89 f8             	mov    %r15,%rax
    43f1:	5b                   	pop    %rbx
    43f2:	5d                   	pop    %rbp
    43f3:	41 5c                	pop    %r12
    43f5:	41 5d                	pop    %r13
    43f7:	41 5e                	pop    %r14
    43f9:	41 5f                	pop    %r15
    43fb:	c3                   	ret
    43fc:	0f 1f 40 00          	nopl   0x0(%rax)
    4400:	f2 0f 10 44 24 10    	movsd  0x10(%rsp),%xmm0
    4406:	dd 5c 24 40          	fstpl  0x40(%rsp)
    440a:	f2 0f 11 54 24 70    	movsd  %xmm2,0x70(%rsp)
    4410:	f2 41 0f 5e c0       	divsd  %xmm8,%xmm0
    4415:	f2 44 0f 11 44 24 38 	movsd  %xmm8,0x38(%rsp)
    441c:	e8 0f e0 ff ff       	call   2430 <acos@plt>
    4421:	43 8d 04 36          	lea    (%r14,%r14,1),%eax
    4425:	66 0f ef e4          	pxor   %xmm4,%xmm4
    4429:	f2 0f 10 0d a7 60 00 	movsd  0x60a7(%rip),%xmm1        # a4d8 <_IO_stdin_used+0x4d8>
    4430:	00 
    4431:	f2 48 0f 2a e0       	cvtsi2sd %rax,%xmm4
    4436:	44 89 f0             	mov    %r14d,%eax
    4439:	dd 44 24 40          	fldl   0x40(%rsp)
    443d:	f2 44 0f 10 44 24 38 	movsd  0x38(%rsp),%xmm8
    4444:	66 0f 28 d9          	movapd %xmm1,%xmm3
    4448:	f2 0f 10 54 24 70    	movsd  0x70(%rsp),%xmm2
    444e:	f2 0f 5e dc          	divsd  %xmm4,%xmm3
    4452:	f2 0f 10 25 86 60 00 	movsd  0x6086(%rip),%xmm4        # a4e0 <_IO_stdin_used+0x4e0>
    4459:	00 
    445a:	f2 0f 5c c3          	subsd  %xmm3,%xmm0
    445e:	66 0f ef db          	pxor   %xmm3,%xmm3
    4462:	f2 48 0f 2a d8       	cvtsi2sd %rax,%xmm3
    4467:	f2 0f 5e cb          	divsd  %xmm3,%xmm1
    446b:	f2 0f 10 1d 85 60 00 	movsd  0x6085(%rip),%xmm3        # a4f8 <_IO_stdin_used+0x4f8>
    4472:	00 
    4473:	f2 0f 5e c1          	divsd  %xmm1,%xmm0
    4477:	66 0f 28 c8          	movapd %xmm0,%xmm1
    447b:	66 0f 54 cb          	andpd  %xmm3,%xmm1
    447f:	66 0f 2e e1          	ucomisd %xmm1,%xmm4
    4483:	0f 87 df 00 00 00    	ja     4568 <_ZL7torqueldddddddjjPPPedddd+0x268>
    4489:	f2 44 0f 2c c8       	cvttsd2si %xmm0,%r9d
    448e:	e9 04 ff ff ff       	jmp    4397 <_ZL7torqueldddddddjjPPPedddd+0x97>
    4493:	0f 1f 44 00 00       	nopl   0x0(%rax,%rax,1)
    4498:	66 0f 28 c5          	movapd %xmm5,%xmm0
    449c:	dd 5c 24 40          	fstpl  0x40(%rsp)
    44a0:	f2 41 0f 5e c0       	divsd  %xmm8,%xmm0
    44a5:	f2 0f 11 54 24 70    	movsd  %xmm2,0x70(%rsp)
    44ab:	f2 44 0f 11 44 24 38 	movsd  %xmm8,0x38(%rsp)
    44b2:	e8 79 df ff ff       	call   2430 <acos@plt>
    44b7:	43 8d 04 36          	lea    (%r14,%r14,1),%eax
    44bb:	66 0f ef e4          	pxor   %xmm4,%xmm4
    44bf:	f2 0f 10 0d 11 60 00 	movsd  0x6011(%rip),%xmm1        # a4d8 <_IO_stdin_used+0x4d8>
    44c6:	00 
    44c7:	f2 48 0f 2a e0       	cvtsi2sd %rax,%xmm4
    44cc:	44 89 f0             	mov    %r14d,%eax
    44cf:	dd 44 24 40          	fldl   0x40(%rsp)
    44d3:	f2 44 0f 10 44 24 38 	movsd  0x38(%rsp),%xmm8
    44da:	66 0f 28 d9          	movapd %xmm1,%xmm3
    44de:	f2 0f 10 54 24 70    	movsd  0x70(%rsp),%xmm2
    44e4:	f2 0f 5e dc          	divsd  %xmm4,%xmm3
    44e8:	f2 0f 10 25 f0 5f 00 	movsd  0x5ff0(%rip),%xmm4        # a4e0 <_IO_stdin_used+0x4e0>
    44ef:	00 
    44f0:	f2 0f 5c c3          	subsd  %xmm3,%xmm0
    44f4:	66 0f ef db          	pxor   %xmm3,%xmm3
    44f8:	f2 48 0f 2a d8       	cvtsi2sd %rax,%xmm3
    44fd:	f2 0f 5e cb          	divsd  %xmm3,%xmm1
    4501:	f2 0f 10 1d ef 5f 00 	movsd  0x5fef(%rip),%xmm3        # a4f8 <_IO_stdin_used+0x4f8>
    4508:	00 
    4509:	f2 0f 5e c1          	divsd  %xmm1,%xmm0
    450d:	66 0f 28 c8          	movapd %xmm0,%xmm1
    4511:	66 0f 54 cb          	andpd  %xmm3,%xmm1
    4515:	66 0f 2e e1          	ucomisd %xmm1,%xmm4
    4519:	77 0d                	ja     4528 <_ZL7torqueldddddddjjPPPedddd+0x228>
    451b:	f2 44 0f 2c e0       	cvttsd2si %xmm0,%r12d
    4520:	e9 66 fe ff ff       	jmp    438b <_ZL7torqueldddddddjjPPPedddd+0x8b>
    4525:	0f 1f 00             	nopl   (%rax)
    4528:	f2 48 0f 2c c0       	cvttsd2si %xmm0,%rax
    452d:	66 0f ef c9          	pxor   %xmm1,%xmm1
    4531:	66 0f 28 e0          	movapd %xmm0,%xmm4
    4535:	f2 0f 10 2d ab 5f 00 	movsd  0x5fab(%rip),%xmm5        # a4e8 <_IO_stdin_used+0x4e8>
    453c:	00 
    453d:	66 0f 55 d8          	andnpd %xmm0,%xmm3
    4541:	f2 48 0f 2a c8       	cvtsi2sd %rax,%xmm1
    4546:	f2 0f c2 e1 06       	cmpnlesd %xmm1,%xmm4
    454b:	66 0f 54 e5          	andpd  %xmm5,%xmm4
    454f:	f2 0f 58 cc          	addsd  %xmm4,%xmm1
    4553:	66 0f 56 cb          	orpd   %xmm3,%xmm1
    4557:	66 0f 28 c1          	movapd %xmm1,%xmm0
    455b:	f2 44 0f 2c e0       	cvttsd2si %xmm0,%r12d
    4560:	e9 26 fe ff ff       	jmp    438b <_ZL7torqueldddddddjjPPPedddd+0x8b>
    4565:	0f 1f 00             	nopl   (%rax)
    4568:	f2 48 0f 2c c0       	cvttsd2si %xmm0,%rax
    456d:	66 0f ef c9          	pxor   %xmm1,%xmm1
    4571:	f2 0f 10 2d 6f 5f 00 	movsd  0x5f6f(%rip),%xmm5        # a4e8 <_IO_stdin_used+0x4e8>
    4578:	00 
    4579:	66 0f 55 d8          	andnpd %xmm0,%xmm3
    457d:	f2 48 0f 2a c8       	cvtsi2sd %rax,%xmm1
    4582:	66 0f 28 e1          	movapd %xmm1,%xmm4
    4586:	f2 0f c2 e0 06       	cmpnlesd %xmm0,%xmm4
    458b:	66 0f 54 e5          	andpd  %xmm5,%xmm4
    458f:	f2 0f 5c cc          	subsd  %xmm4,%xmm1
    4593:	66 0f 56 cb          	orpd   %xmm3,%xmm1
    4597:	66 0f 28 c1          	movapd %xmm1,%xmm0
    459b:	f2 44 0f 2c c8       	cvttsd2si %xmm0,%r9d
    45a0:	e9 f2 fd ff ff       	jmp    4397 <_ZL7torqueldddddddjjPPPedddd+0x97>
    45a5:	0f 1f 00             	nopl   (%rax)
    45a8:	f2 0f 10 74 24 28    	movsd  0x28(%rsp),%xmm6
    45ae:	66 0f ef c0          	pxor   %xmm0,%xmm0
    45b2:	66 0f 2e f0          	ucomisd %xmm0,%xmm6
    45b6:	7a 06                	jp     45be <_ZL7torqueldddddddjjPPPedddd+0x2be>
    45b8:	0f 84 c3 00 00 00    	je     4681 <_ZL7torqueldddddddjjPPPedddd+0x381>
    45be:	dd 5c 24 50          	fstpl  0x50(%rsp)
    45c2:	f2 0f 10 44 24 08    	movsd  0x8(%rsp),%xmm0
    45c8:	f2 0f 5e 44 24 28    	divsd  0x28(%rsp),%xmm0
    45ce:	44 89 4c 24 70       	mov    %r9d,0x70(%rsp)
    45d3:	f2 44 0f 11 44 24 40 	movsd  %xmm8,0x40(%rsp)
    45da:	e8 31 de ff ff       	call   2410 <atan@plt>
    45df:	f2 0f 11 44 24 38    	movsd  %xmm0,0x38(%rsp)
    45e5:	dd 44 24 38          	fldl   0x38(%rsp)
    45e9:	f2 0f 10 44 24 18    	movsd  0x18(%rsp),%xmm0
    45ef:	f2 0f 5e 44 24 28    	divsd  0x28(%rsp),%xmm0
    45f5:	dd 54 24 78          	fstl   0x78(%rsp)
    45f9:	db 7c 24 60          	fstpt  0x60(%rsp)
    45fd:	e8 0e de ff ff       	call   2410 <atan@plt>
    4602:	44 8b 4c 24 70       	mov    0x70(%rsp),%r9d
    4607:	f2 44 0f 10 44 24 40 	movsd  0x40(%rsp),%xmm8
    460e:	f2 0f 11 44 24 38    	movsd  %xmm0,0x38(%rsp)
    4614:	66 0f ef c0          	pxor   %xmm0,%xmm0
    4618:	66 0f 2f 44 24 08    	comisd 0x8(%rsp),%xmm0
    461e:	dd 44 24 38          	fldl   0x38(%rsp)
    4622:	dd 44 24 50          	fldl   0x50(%rsp)
    4626:	0f 87 08 02 00 00    	ja     4834 <_ZL7torqueldddddddjjPPPedddd+0x534>
    462c:	f2 0f 10 74 24 08    	movsd  0x8(%rsp),%xmm6
    4632:	66 0f 2f f0          	comisd %xmm0,%xmm6
    4636:	0f 86 b1 0c 00 00    	jbe    52ed <_ZL7torqueldddddddjjPPPedddd+0xfed>
    463c:	66 0f 2f 44 24 28    	comisd 0x28(%rsp),%xmm0
    4642:	0f 87 6b 06 00 00    	ja     4cb3 <_ZL7torqueldddddddjjPPPedddd+0x9b3>
    4648:	dd 44 24 78          	fldl   0x78(%rsp)
    464c:	66 0f 2f 44 24 18    	comisd 0x18(%rsp),%xmm0
    4652:	db bc 24 30 01 00 00 	fstpt  0x130(%rsp)
    4659:	0f 87 91 13 00 00    	ja     59f0 <_ZL7torqueldddddddjjPPPedddd+0x16f0>
    465f:	f2 0f 10 7c 24 18    	movsd  0x18(%rsp),%xmm7
    4665:	66 0f 2f f8          	comisd %xmm0,%xmm7
    4669:	77 4f                	ja     46ba <_ZL7torqueldddddddjjPPPedddd+0x3ba>
    466b:	dd d9                	fstp   %st(1)
    466d:	f2 0f 10 74 24 28    	movsd  0x28(%rsp),%xmm6
    4673:	66 0f 2f f0          	comisd %xmm0,%xmm6
    4677:	0f 86 cf 13 00 00    	jbe    5a4c <_ZL7torqueldddddddjjPPPedddd+0x174c>
    467d:	d9 ee                	fldz
    467f:	eb 47                	jmp    46c8 <_ZL7torqueldddddddjjPPPedddd+0x3c8>
    4681:	f2 0f 10 74 24 08    	movsd  0x8(%rsp),%xmm6
    4687:	66 0f 2f f0          	comisd %xmm0,%xmm6
    468b:	0f 86 eb 01 00 00    	jbe    487c <_ZL7torqueldddddddjjPPPedddd+0x57c>
    4691:	dd 05 39 5e 00 00    	fldl   0x5e39(%rip)        # a4d0 <_IO_stdin_used+0x4d0>
    4697:	f2 0f 10 7c 24 18    	movsd  0x18(%rsp),%xmm7
    469d:	66 0f ef c0          	pxor   %xmm0,%xmm0
    46a1:	db bc 24 30 01 00 00 	fstpt  0x130(%rsp)
    46a8:	66 0f 2f f8          	comisd %xmm0,%xmm7
    46ac:	0f 86 5a 0b 00 00    	jbe    520c <_ZL7torqueldddddddjjPPPedddd+0xf0c>
    46b2:	dd 05 18 5e 00 00    	fldl   0x5e18(%rip)        # a4d0 <_IO_stdin_used+0x4d0>
    46b8:	eb 0e                	jmp    46c8 <_ZL7torqueldddddddjjPPPedddd+0x3c8>
    46ba:	d9 c9                	fxch   %st(1)
    46bc:	eb 0a                	jmp    46c8 <_ZL7torqueldddddddjjPPPedddd+0x3c8>
    46be:	d9 c9                	fxch   %st(1)
    46c0:	eb 06                	jmp    46c8 <_ZL7torqueldddddddjjPPPedddd+0x3c8>
    46c2:	d9 c9                	fxch   %st(1)
    46c4:	0f 1f 40 00          	nopl   0x0(%rax)
    46c8:	db bc 24 40 01 00 00 	fstpt  0x140(%rsp)
    46cf:	66 0f ef c0          	pxor   %xmm0,%xmm0
    46d3:	dd 54 24 38          	fstl   0x38(%rsp)
    46d7:	f2 0f 10 74 24 38    	movsd  0x38(%rsp),%xmm6
    46dd:	66 0f 2e f0          	ucomisd %xmm0,%xmm6
    46e1:	0f 8a 2a 06 00 00    	jp     4d11 <_ZL7torqueldddddddjjPPPedddd+0xa11>
    46e7:	0f 85 24 06 00 00    	jne    4d11 <_ZL7torqueldddddddjjPPPedddd+0xa11>
    46ed:	f2 0f 10 74 24 08    	movsd  0x8(%rsp),%xmm6
    46f3:	66 0f 2f f0          	comisd %xmm0,%xmm6
    46f7:	0f 86 9c 0b 00 00    	jbe    5299 <_ZL7torqueldddddddjjPPPedddd+0xf99>
    46fd:	dd 05 cd 5d 00 00    	fldl   0x5dcd(%rip)        # a4d0 <_IO_stdin_used+0x4d0>
    4703:	f2 0f 10 74 24 18    	movsd  0x18(%rsp),%xmm6
    4709:	66 0f ef c0          	pxor   %xmm0,%xmm0
    470d:	db bc 24 50 01 00 00 	fstpt  0x150(%rsp)
    4714:	66 0f 2f f0          	comisd %xmm0,%xmm6
    4718:	0f 86 11 0a 00 00    	jbe    512f <_ZL7torqueldddddddjjPPPedddd+0xe2f>
    471e:	dd 05 ac 5d 00 00    	fldl   0x5dac(%rip)        # a4d0 <_IO_stdin_used+0x4d0>
    4724:	d9 c9                	fxch   %st(1)
    4726:	4c 8d ac 24 30 01 00 	lea    0x130(%rsp),%r13
    472d:	00 
    472e:	dd 5c 24 70          	fstpl  0x70(%rsp)
    4732:	ba 04 00 00 00       	mov    $0x4,%edx
    4737:	48 8d b4 24 70 01 00 	lea    0x170(%rsp),%rsi
    473e:	00 
    473f:	4c 89 ef             	mov    %r13,%rdi
    4742:	44 89 4c 24 38       	mov    %r9d,0x38(%rsp)
    4747:	db bc 24 60 01 00 00 	fstpt  0x160(%rsp)
    474e:	e8 ed e1 ff ff       	call   2940 <_ZSt16__introsort_loopIPelN9__gnu_cxx5__ops15_Iter_less_iterEEvT_S4_T0_T1_.isra.0>
    4753:	44 8b 4c 24 38       	mov    0x38(%rsp),%r9d
    4758:	dd 44 24 70          	fldl   0x70(%rsp)
    475c:	4c 89 e9             	mov    %r13,%rcx
    475f:	4c 8d 94 24 60 01 00 	lea    0x160(%rsp),%r10
    4766:	00 
    4767:	eb 7f                	jmp    47e8 <_ZL7torqueldddddddjjPPPedddd+0x4e8>
    4769:	0f 1f 80 00 00 00 00 	nopl   0x0(%rax)
    4770:	4c 29 ea             	sub    %r13,%rdx
    4773:	48 83 fa 10          	cmp    $0x10,%rdx
    4777:	0f 8e 53 07 00 00    	jle    4ed0 <_ZL7torqueldddddddjjPPPedddd+0xbd0>
    477d:	dd d8                	fstp   %st(0)
    477f:	d9 c9                	fxch   %st(1)
    4781:	bf 10 00 00 00       	mov    $0x10,%edi
    4786:	dd 5c 24 78          	fstpl  0x78(%rsp)
    478a:	4c 89 ee             	mov    %r13,%rsi
    478d:	48 29 d7             	sub    %rdx,%rdi
    4790:	4c 89 54 24 50       	mov    %r10,0x50(%rsp)
    4795:	48 01 cf             	add    %rcx,%rdi
    4798:	db 7c 24 40          	fstpt  0x40(%rsp)
    479c:	44 89 4c 24 70       	mov    %r9d,0x70(%rsp)
    47a1:	48 89 4c 24 38       	mov    %rcx,0x38(%rsp)
    47a6:	f2 44 0f 11 44 24 60 	movsd  %xmm8,0x60(%rsp)
    47ad:	e8 ce dd ff ff       	call   2580 <memmove@plt>
    47b2:	dd 44 24 78          	fldl   0x78(%rsp)
    47b6:	db 6c 24 40          	fldt   0x40(%rsp)
    47ba:	48 8b 4c 24 38       	mov    0x38(%rsp),%rcx
    47bf:	44 8b 4c 24 70       	mov    0x70(%rsp),%r9d
    47c4:	4c 8b 54 24 50       	mov    0x50(%rsp),%r10
    47c9:	f2 44 0f 10 44 24 60 	movsd  0x60(%rsp),%xmm8
    47d0:	eb 06                	jmp    47d8 <_ZL7torqueldddddddjjPPPedddd+0x4d8>
    47d2:	dd d8                	fstp   %st(0)
    47d4:	0f 1f 40 00          	nopl   0x0(%rax)
    47d8:	db bc 24 30 01 00 00 	fstpt  0x130(%rsp)
    47df:	4c 39 d1             	cmp    %r10,%rcx
    47e2:	0f 84 a5 00 00 00    	je     488d <_ZL7torqueldddddddjjPPPedddd+0x58d>
    47e8:	48 89 ce             	mov    %rcx,%rsi
    47eb:	48 83 c1 10          	add    $0x10,%rcx
    47ef:	db 6e 10             	fldt   0x10(%rsi)
    47f2:	48 89 ca             	mov    %rcx,%rdx
    47f5:	48 89 f0             	mov    %rsi,%rax
    47f8:	db ac 24 30 01 00 00 	fldt   0x130(%rsp)
    47ff:	db f1                	fcomi  %st(1),%st
    4801:	0f 87 69 ff ff ff    	ja     4770 <_ZL7torqueldddddddjjPPPedddd+0x470>
    4807:	dd d8                	fstp   %st(0)
    4809:	db 2e                	fldt   (%rsi)
    480b:	db f1                	fcomi  %st(1),%st
    480d:	76 15                	jbe    4824 <_ZL7torqueldddddddjjPPPedddd+0x524>
    480f:	90                   	nop
    4810:	db 78 10             	fstpt  0x10(%rax)
    4813:	48 89 c2             	mov    %rax,%rdx
    4816:	48 83 e8 10          	sub    $0x10,%rax
    481a:	db 28                	fldt   (%rax)
    481c:	db f1                	fcomi  %st(1),%st
    481e:	77 f0                	ja     4810 <_ZL7torqueldddddddjjPPPedddd+0x510>
    4820:	dd d8                	fstp   %st(0)
    4822:	eb 0c                	jmp    4830 <_ZL7torqueldddddddjjPPPedddd+0x530>
    4824:	dd d8                	fstp   %st(0)
    4826:	66 2e 0f 1f 84 00 00 	cs nopw 0x0(%rax,%rax,1)
    482d:	00 00 00 
    4830:	db 3a                	fstpt  (%rdx)
    4832:	eb ab                	jmp    47df <_ZL7torqueldddddddjjPPPedddd+0x4df>
    4834:	f2 0f 10 7c 24 28    	movsd  0x28(%rsp),%xmm7
    483a:	66 0f 2f f8          	comisd %xmm0,%xmm7
    483e:	0f 86 df 09 00 00    	jbe    5223 <_ZL7torqueldddddddjjPPPedddd+0xf23>
    4844:	dd 05 a6 5c 00 00    	fldl   0x5ca6(%rip)        # a4f0 <_IO_stdin_used+0x4f0>
    484a:	db 6c 24 60          	fldt   0x60(%rsp)
    484e:	66 0f 2f 44 24 18    	comisd 0x18(%rsp),%xmm0
    4854:	d8 c1                	fadd   %st(1),%st
    4856:	db bc 24 30 01 00 00 	fstpt  0x130(%rsp)
    485d:	0f 87 2d 10 00 00    	ja     5890 <_ZL7torqueldddddddjjPPPedddd+0x1590>
    4863:	dd d8                	fstp   %st(0)
    4865:	f2 0f 10 74 24 18    	movsd  0x18(%rsp),%xmm6
    486b:	66 0f 2f f0          	comisd %xmm0,%xmm6
    486f:	0f 87 49 fe ff ff    	ja     46be <_ZL7torqueldddddddjjPPPedddd+0x3be>
    4875:	dd d9                	fstp   %st(1)
    4877:	e9 01 fe ff ff       	jmp    467d <_ZL7torqueldddddddjjPPPedddd+0x37d>
    487c:	66 0f 2f c6          	comisd %xmm6,%xmm0
    4880:	0f 87 d8 0f 00 00    	ja     585e <_ZL7torqueldddddddjjPPPedddd+0x155e>
    4886:	d9 ee                	fldz
    4888:	e9 0a fe ff ff       	jmp    4697 <_ZL7torqueldddddddjjPPPedddd+0x397>
    488d:	66 0f ef c0          	pxor   %xmm0,%xmm0
    4891:	66 0f 2f 44 24 28    	comisd 0x28(%rsp),%xmm0
    4897:	0f 83 58 05 00 00    	jae    4df5 <_ZL7torqueldddddddjjPPPedddd+0xaf5>
    489d:	d9 bc 24 de 00 00 00 	fnstcw 0xde(%rsp)
    48a4:	89 d8                	mov    %ebx,%eax
    48a6:	66 0f ef d2          	pxor   %xmm2,%xmm2
    48aa:	f2 0f 10 0d 3e 5c 00 	movsd  0x5c3e(%rip),%xmm1        # a4f0 <_IO_stdin_used+0x4f0>
    48b1:	00 
    48b2:	f2 48 0f 2a d0       	cvtsi2sd %rax,%xmm2
    48b7:	f2 0f 10 7c 24 28    	movsd  0x28(%rsp),%xmm7
    48bd:	0f b7 84 24 de 00 00 	movzwl 0xde(%rsp),%eax
    48c4:	00 
    48c5:	80 e4 f3             	and    $0xf3,%ah
    48c8:	f2 0f 5e ca          	divsd  %xmm2,%xmm1
    48cc:	80 cc 04             	or     $0x4,%ah
    48cf:	66 89 84 24 dc 00 00 	mov    %ax,0xdc(%rsp)
    48d6:	00 
    48d7:	0f b7 84 24 de 00 00 	movzwl 0xde(%rsp),%eax
    48de:	00 
    48df:	80 cc 0c             	or     $0xc,%ah
    48e2:	66 89 84 24 da 00 00 	mov    %ax,0xda(%rsp)
    48e9:	00 
    48ea:	0f b7 84 24 de 00 00 	movzwl 0xde(%rsp),%eax
    48f1:	00 
    48f2:	80 e4 f3             	and    $0xf3,%ah
    48f5:	80 cc 08             	or     $0x8,%ah
    48f8:	66 89 84 24 d8 00 00 	mov    %ax,0xd8(%rsp)
    48ff:	00 
    4900:	f2 0f 11 4c 24 38    	movsd  %xmm1,0x38(%rsp)
    4906:	dd 44 24 38          	fldl   0x38(%rsp)
    490a:	d9 c0                	fld    %st(0)
    490c:	db ac 24 30 01 00 00 	fldt   0x130(%rsp)
    4913:	d8 f2                	fdiv   %st(2),%st
    4915:	d9 ac 24 dc 00 00 00 	fldcw  0xdc(%rsp)
    491c:	d9 fc                	frndint
    491e:	d9 ac 24 de 00 00 00 	fldcw  0xde(%rsp)
    4925:	d9 ac 24 da 00 00 00 	fldcw  0xda(%rsp)
    492c:	db 5c 24 38          	fistpl 0x38(%rsp)
    4930:	d9 ac 24 de 00 00 00 	fldcw  0xde(%rsp)
    4937:	db ac 24 60 01 00 00 	fldt   0x160(%rsp)
    493e:	8b 54 24 38          	mov    0x38(%rsp),%edx
    4942:	de f2                	fdivp  %st,%st(2)
    4944:	d9 c9                	fxch   %st(1)
    4946:	d9 ac 24 d8 00 00 00 	fldcw  0xd8(%rsp)
    494d:	d9 fc                	frndint
    494f:	d9 ac 24 de 00 00 00 	fldcw  0xde(%rsp)
    4956:	d9 ac 24 da 00 00 00 	fldcw  0xda(%rsp)
    495d:	db 5c 24 38          	fistpl 0x38(%rsp)
    4961:	d9 ac 24 de 00 00 00 	fldcw  0xde(%rsp)
    4968:	8b 44 24 38          	mov    0x38(%rsp),%eax
    496c:	39 c3                	cmp    %eax,%ebx
    496e:	0f 47 d8             	cmova  %eax,%ebx
    4971:	66 0f 2f f8          	comisd %xmm0,%xmm7
    4975:	76 10                	jbe    4987 <_ZL7torqueldddddddjjPPPedddd+0x687>
    4977:	66 0f 2f 44 24 08    	comisd 0x8(%rsp),%xmm0
    497d:	0f 87 5b 05 00 00    	ja     4ede <_ZL7torqueldddddddjjPPPedddd+0xbde>
    4983:	dd d8                	fstp   %st(0)
    4985:	eb 09                	jmp    4990 <_ZL7torqueldddddddjjPPPedddd+0x690>
    4987:	dd d8                	fstp   %st(0)
    4989:	eb 05                	jmp    4990 <_ZL7torqueldddddddjjPPPedddd+0x690>
    498b:	dd d8                	fstp   %st(0)
    498d:	0f 1f 00             	nopl   (%rax)
    4990:	45 39 e1             	cmp    %r12d,%r9d
    4993:	0f 83 23 fa ff ff    	jae    43bc <_ZL7torqueldddddddjjPPPedddd+0xbc>
    4999:	39 da                	cmp    %ebx,%edx
    499b:	0f 83 1f fa ff ff    	jae    43c0 <_ZL7torqueldddddddjjPPPedddd+0xc0>
    49a1:	41 83 ec 01          	sub    $0x1,%r12d
    49a5:	44 89 c8             	mov    %r9d,%eax
    49a8:	83 eb 01             	sub    $0x1,%ebx
    49ab:	dd 44 24 28          	fldl   0x28(%rsp)
    49af:	45 29 cc             	sub    %r9d,%r12d
    49b2:	4c 8d 6c c5 00       	lea    0x0(%rbp,%rax,8),%r13
    49b7:	29 d3                	sub    %edx,%ebx
    49b9:	4c 01 e0             	add    %r12,%rax
    49bc:	4c 8d 74 c5 08       	lea    0x8(%rbp,%rax,8),%r14
    49c1:	89 d0                	mov    %edx,%eax
    49c3:	48 8d 6c 18 01       	lea    0x1(%rax,%rbx,1),%rbp
    49c8:	4c 8d 24 c5 00 00 00 	lea    0x0(,%rax,8),%r12
    49cf:	00 
    49d0:	48 c1 e5 03          	shl    $0x3,%rbp
    49d4:	0f 1f 40 00          	nopl   0x0(%rax)
    49d8:	4c 89 e3             	mov    %r12,%rbx
    49db:	0f 1f 44 00 00       	nopl   0x0(%rax,%rax,1)
    49e0:	49 8b 45 00          	mov    0x0(%r13),%rax
    49e4:	48 8b 04 18          	mov    (%rax,%rbx,1),%rax
    49e8:	db 28                	fldt   (%rax)
    49ea:	db f1                	fcomi  %st(1),%st
    49ec:	72 42                	jb     4a30 <_ZL7torqueldddddddjjPPPedddd+0x730>
    49ee:	d9 c2                	fld    %st(2)
    49f0:	df f1                	fcomip %st(1),%st
    49f2:	72 44                	jb     4a38 <_ZL7torqueldddddddjjPPPedddd+0x738>
    49f4:	dd 44 24 08          	fldl   0x8(%rsp)
    49f8:	db 68 10             	fldt   0x10(%rax)
    49fb:	db f1                	fcomi  %st(1),%st
    49fd:	dd d9                	fstp   %st(1)
    49ff:	72 3f                	jb     4a40 <_ZL7torqueldddddddjjPPPedddd+0x740>
    4a01:	dd 44 24 18          	fldl   0x18(%rsp)
    4a05:	df f1                	fcomip %st(1),%st
    4a07:	72 47                	jb     4a50 <_ZL7torqueldddddddjjPPPedddd+0x750>
    4a09:	dd 44 24 20          	fldl   0x20(%rsp)
    4a0d:	db 68 20             	fldt   0x20(%rax)
    4a10:	db f1                	fcomi  %st(1),%st
    4a12:	dd d9                	fstp   %st(1)
    4a14:	72 4a                	jb     4a60 <_ZL7torqueldddddddjjPPPedddd+0x760>
    4a16:	dd 44 24 10          	fldl   0x10(%rsp)
    4a1a:	df f1                	fcomip %st(1),%st
    4a1c:	73 75                	jae    4a93 <_ZL7torqueldddddddjjPPPedddd+0x793>
    4a1e:	dd d8                	fstp   %st(0)
    4a20:	dd d8                	fstp   %st(0)
    4a22:	dd d8                	fstp   %st(0)
    4a24:	eb 4a                	jmp    4a70 <_ZL7torqueldddddddjjPPPedddd+0x770>
    4a26:	66 2e 0f 1f 84 00 00 	cs nopw 0x0(%rax,%rax,1)
    4a2d:	00 00 00 
    4a30:	dd d8                	fstp   %st(0)
    4a32:	eb 3c                	jmp    4a70 <_ZL7torqueldddddddjjPPPedddd+0x770>
    4a34:	0f 1f 40 00          	nopl   0x0(%rax)
    4a38:	dd d8                	fstp   %st(0)
    4a3a:	eb 34                	jmp    4a70 <_ZL7torqueldddddddjjPPPedddd+0x770>
    4a3c:	0f 1f 40 00          	nopl   0x0(%rax)
    4a40:	dd d8                	fstp   %st(0)
    4a42:	dd d8                	fstp   %st(0)
    4a44:	eb 2a                	jmp    4a70 <_ZL7torqueldddddddjjPPPedddd+0x770>
    4a46:	66 2e 0f 1f 84 00 00 	cs nopw 0x0(%rax,%rax,1)
    4a4d:	00 00 00 
    4a50:	dd d8                	fstp   %st(0)
    4a52:	dd d8                	fstp   %st(0)
    4a54:	eb 1a                	jmp    4a70 <_ZL7torqueldddddddjjPPPedddd+0x770>
    4a56:	66 2e 0f 1f 84 00 00 	cs nopw 0x0(%rax,%rax,1)
    4a5d:	00 00 00 
    4a60:	dd d8                	fstp   %st(0)
    4a62:	dd d8                	fstp   %st(0)
    4a64:	dd d8                	fstp   %st(0)
    4a66:	66 2e 0f 1f 84 00 00 	cs nopw 0x0(%rax,%rax,1)
    4a6d:	00 00 00 
    4a70:	48 83 c3 08          	add    $0x8,%rbx
    4a74:	48 39 dd             	cmp    %rbx,%rbp
    4a77:	0f 85 63 ff ff ff    	jne    49e0 <_ZL7torqueldddddddjjPPPedddd+0x6e0>
    4a7d:	49 83 c5 08          	add    $0x8,%r13
    4a81:	4d 39 f5             	cmp    %r14,%r13
    4a84:	0f 85 4e ff ff ff    	jne    49d8 <_ZL7torqueldddddddjjPPPedddd+0x6d8>
    4a8a:	dd d8                	fstp   %st(0)
    4a8c:	dd d8                	fstp   %st(0)
    4a8e:	e9 3d f9 ff ff       	jmp    43d0 <_ZL7torqueldddddddjjPPPedddd+0xd0>
    4a93:	d9 cb                	fxch   %st(3)
    4a95:	db bc 24 90 00 00 00 	fstpt  0x90(%rsp)
    4a9c:	d9 cb                	fxch   %st(3)
    4a9e:	f2 0f 10 44 24 30    	movsd  0x30(%rsp),%xmm0
    4aa4:	48 8d bc 24 e0 00 00 	lea    0xe0(%rsp),%rdi
    4aab:	00 
    4aac:	f2 44 0f 11 44 24 78 	movsd  %xmm8,0x78(%rsp)
    4ab3:	dd 9c 24 a0 00 00 00 	fstpl  0xa0(%rsp)
    4aba:	d9 c1                	fld    %st(1)
    4abc:	dc 84 24 d0 01 00 00 	faddl  0x1d0(%rsp)
    4ac3:	dd 5c 24 28          	fstpl  0x28(%rsp)
    4ac7:	f2 0f 10 5c 24 28    	movsd  0x28(%rsp),%xmm3
    4acd:	d9 c2                	fld    %st(2)
    4acf:	dc 84 24 c8 01 00 00 	faddl  0x1c8(%rsp)
    4ad6:	dd 5c 24 28          	fstpl  0x28(%rsp)
    4ada:	f2 0f 10 54 24 28    	movsd  0x28(%rsp),%xmm2
    4ae0:	d9 c0                	fld    %st(0)
    4ae2:	dc 84 24 c0 01 00 00 	faddl  0x1c0(%rsp)
    4ae9:	f2 0f 11 54 24 50    	movsd  %xmm2,0x50(%rsp)
    4aef:	dd 5c 24 28          	fstpl  0x28(%rsp)
    4af3:	d9 c9                	fxch   %st(1)
    4af5:	f2 0f 10 6c 24 28    	movsd  0x28(%rsp),%xmm5
    4afb:	dd 5c 24 28          	fstpl  0x28(%rsp)
    4aff:	d9 c9                	fxch   %st(1)
    4b01:	f2 0f 10 74 24 28    	movsd  0x28(%rsp),%xmm6
    4b07:	dd 5c 24 28          	fstpl  0x28(%rsp)
    4b0b:	f2 0f 10 7c 24 28    	movsd  0x28(%rsp),%xmm7
    4b11:	dd 5c 24 28          	fstpl  0x28(%rsp)
    4b15:	f2 0f 10 4c 24 28    	movsd  0x28(%rsp),%xmm1
    4b1b:	f2 41 0f 5e f0       	divsd  %xmm8,%xmm6
    4b20:	db 68 30             	fldt   0x30(%rax)
    4b23:	f2 0f 11 6c 24 38    	movsd  %xmm5,0x38(%rsp)
    4b29:	66 0f 28 e1          	movapd %xmm1,%xmm4
    4b2d:	66 0f 28 cd          	movapd %xmm5,%xmm1
    4b31:	dd 5c 24 28          	fstpl  0x28(%rsp)
    4b35:	f2 41 0f 5e e0       	divsd  %xmm8,%xmm4
    4b3a:	f2 0f 11 b4 24 88 00 	movsd  %xmm6,0x88(%rsp)
    4b41:	00 00 
    4b43:	f2 41 0f 5e f8       	divsd  %xmm8,%xmm7
    4b48:	f2 0f 11 64 24 60    	movsd  %xmm4,0x60(%rsp)
    4b4e:	f2 0f 10 64 24 28    	movsd  0x28(%rsp),%xmm4
    4b54:	f2 0f 11 5c 24 28    	movsd  %xmm3,0x28(%rsp)
    4b5a:	66 0f 28 f4          	movapd %xmm4,%xmm6
    4b5e:	f2 0f 11 64 24 70    	movsd  %xmm4,0x70(%rsp)
    4b64:	66 0f 14 f6          	unpcklpd %xmm6,%xmm6
    4b68:	0f 29 74 24 40       	movaps %xmm6,0x40(%rsp)
    4b6d:	f2 0f 11 bc 24 80 00 	movsd  %xmm7,0x80(%rsp)
    4b74:	00 00 
    4b76:	e8 85 34 00 00       	call   8000 <_Z6stressdddd>
    4b7b:	f2 0f 10 64 24 60    	movsd  0x60(%rsp),%xmm4
    4b81:	f2 0f 10 bc 24 80 00 	movsd  0x80(%rsp),%xmm7
    4b88:	00 00 
    4b8a:	f2 44 0f 10 8c 24 f0 	movsd  0xf0(%rsp),%xmm9
    4b91:	00 00 00 
    4b94:	f2 0f 10 54 24 50    	movsd  0x50(%rsp),%xmm2
    4b9a:	f2 0f 10 84 24 08 01 	movsd  0x108(%rsp),%xmm0
    4ba1:	00 00 
    4ba3:	dd 84 24 a0 00 00 00 	fldl   0xa0(%rsp)
    4baa:	db ac 24 90 00 00 00 	fldt   0x90(%rsp)
    4bb1:	f2 0f 10 b4 24 88 00 	movsd  0x88(%rsp),%xmm6
    4bb8:	00 00 
    4bba:	f2 0f 59 c7          	mulsd  %xmm7,%xmm0
    4bbe:	f2 0f 10 ac 24 e8 00 	movsd  0xe8(%rsp),%xmm5
    4bc5:	00 00 
    4bc7:	f2 44 0f 59 cc       	mulsd  %xmm4,%xmm9
    4bcc:	f2 44 0f 10 44 24 78 	movsd  0x78(%rsp),%xmm8
    4bd3:	f2 0f 59 ec          	mulsd  %xmm4,%xmm5
    4bd7:	f2 0f 59 a4 24 e0 00 	mulsd  0xe0(%rsp),%xmm4
    4bde:	00 00 
    4be0:	f2 44 0f 58 c8       	addsd  %xmm0,%xmm9
    4be5:	f2 0f 10 84 24 20 01 	movsd  0x120(%rsp),%xmm0
    4bec:	00 00 
    4bee:	f2 0f 59 c6          	mulsd  %xmm6,%xmm0
    4bf2:	66 0f 28 cc          	movapd %xmm4,%xmm1
    4bf6:	66 0f 28 e2          	movapd %xmm2,%xmm4
    4bfa:	f2 44 0f 58 c8       	addsd  %xmm0,%xmm9
    4bff:	f2 0f 10 84 24 00 01 	movsd  0x100(%rsp),%xmm0
    4c06:	00 00 
    4c08:	f2 0f 59 c7          	mulsd  %xmm7,%xmm0
    4c0c:	f2 0f 59 bc 24 f8 00 	mulsd  0xf8(%rsp),%xmm7
    4c13:	00 00 
    4c15:	f2 41 0f 59 d1       	mulsd  %xmm9,%xmm2
    4c1a:	f2 0f 58 e8          	addsd  %xmm0,%xmm5
    4c1e:	f2 0f 10 84 24 18 01 	movsd  0x118(%rsp),%xmm0
    4c25:	00 00 
    4c27:	f2 0f 58 cf          	addsd  %xmm7,%xmm1
    4c2b:	f2 0f 10 7c 24 28    	movsd  0x28(%rsp),%xmm7
    4c31:	f2 0f 59 c6          	mulsd  %xmm6,%xmm0
    4c35:	f2 0f 59 b4 24 10 01 	mulsd  0x110(%rsp),%xmm6
    4c3c:	00 00 
    4c3e:	f2 0f 58 e8          	addsd  %xmm0,%xmm5
    4c42:	f2 0f 58 ce          	addsd  %xmm6,%xmm1
    4c46:	f2 0f 10 74 24 38    	movsd  0x38(%rsp),%xmm6
    4c4c:	66 0f 28 c6          	movapd %xmm6,%xmm0
    4c50:	f2 0f 59 c5          	mulsd  %xmm5,%xmm0
    4c54:	f2 0f 59 e1          	mulsd  %xmm1,%xmm4
    4c58:	f2 0f 59 ef          	mulsd  %xmm7,%xmm5
    4c5c:	f2 41 0f 59 f1       	mulsd  %xmm9,%xmm6
    4c61:	f2 0f 59 f9          	mulsd  %xmm1,%xmm7
    4c65:	f2 0f 5c c4          	subsd  %xmm4,%xmm0
    4c69:	f2 0f 59 44 24 70    	mulsd  0x70(%rsp),%xmm0
    4c6f:	f2 41 0f 58 47 10    	addsd  0x10(%r15),%xmm0
    4c75:	66 0f 28 d8          	movapd %xmm0,%xmm3
    4c79:	66 0f 28 c2          	movapd %xmm2,%xmm0
    4c7d:	66 0f 28 d6          	movapd %xmm6,%xmm2
    4c81:	66 41 0f 10 37       	movupd (%r15),%xmm6
    4c86:	f2 0f 5c c5          	subsd  %xmm5,%xmm0
    4c8a:	f2 0f 5c d7          	subsd  %xmm7,%xmm2
    4c8e:	66 0f 57 15 8a 58 00 	xorpd  0x588a(%rip),%xmm2        # a520 <_IO_stdin_used+0x520>
    4c95:	00 
    4c96:	f2 41 0f 11 5f 10    	movsd  %xmm3,0x10(%r15)
    4c9c:	66 0f 14 c2          	unpcklpd %xmm2,%xmm0
    4ca0:	66 0f 59 44 24 40    	mulpd  0x40(%rsp),%xmm0
    4ca6:	66 0f 58 c6          	addpd  %xmm6,%xmm0
    4caa:	41 0f 11 07          	movups %xmm0,(%r15)
    4cae:	e9 bd fd ff ff       	jmp    4a70 <_ZL7torqueldddddddjjPPPedddd+0x770>
    4cb3:	f2 0f 10 0d 1d 58 00 	movsd  0x581d(%rip),%xmm1        # a4d8 <_IO_stdin_used+0x4d8>
    4cba:	00 
    4cbb:	66 0f 2f 44 24 18    	comisd 0x18(%rsp),%xmm0
    4cc1:	f2 0f 11 4c 24 38    	movsd  %xmm1,0x38(%rsp)
    4cc7:	dd 44 24 38          	fldl   0x38(%rsp)
    4ccb:	db 6c 24 60          	fldt   0x60(%rsp)
    4ccf:	dc 44 24 38          	faddl  0x38(%rsp)
    4cd3:	db bc 24 30 01 00 00 	fstpt  0x130(%rsp)
    4cda:	0f 87 95 0b 00 00    	ja     5875 <_ZL7torqueldddddddjjPPPedddd+0x1575>
    4ce0:	f2 0f 10 7c 24 18    	movsd  0x18(%rsp),%xmm7
    4ce6:	66 0f 2f f8          	comisd %xmm0,%xmm7
    4cea:	0f 86 03 04 00 00    	jbe    50f3 <_ZL7torqueldddddddjjPPPedddd+0xdf3>
    4cf0:	de c2                	faddp  %st,%st(2)
    4cf2:	d9 c9                	fxch   %st(1)
    4cf4:	db bc 24 40 01 00 00 	fstpt  0x140(%rsp)
    4cfb:	dd 54 24 38          	fstl   0x38(%rsp)
    4cff:	f2 0f 10 74 24 38    	movsd  0x38(%rsp),%xmm6
    4d05:	66 0f 2e f0          	ucomisd %xmm0,%xmm6
    4d09:	7a 06                	jp     4d11 <_ZL7torqueldddddddjjPPPedddd+0xa11>
    4d0b:	0f 84 ec f9 ff ff    	je     46fd <_ZL7torqueldddddddjjPPPedddd+0x3fd>
    4d11:	dd 54 24 38          	fstl   0x38(%rsp)
    4d15:	f2 0f 10 44 24 08    	movsd  0x8(%rsp),%xmm0
    4d1b:	f2 0f 5e 44 24 38    	divsd  0x38(%rsp),%xmm0
    4d21:	44 89 4c 24 40       	mov    %r9d,0x40(%rsp)
    4d26:	f2 44 0f 11 44 24 50 	movsd  %xmm8,0x50(%rsp)
    4d2d:	dd 5c 24 70          	fstpl  0x70(%rsp)
    4d31:	e8 da d6 ff ff       	call   2410 <atan@plt>
    4d36:	f2 0f 11 44 24 38    	movsd  %xmm0,0x38(%rsp)
    4d3c:	dd 44 24 38          	fldl   0x38(%rsp)
    4d40:	f2 0f 10 44 24 18    	movsd  0x18(%rsp),%xmm0
    4d46:	dd 54 24 78          	fstl   0x78(%rsp)
    4d4a:	db 7c 24 60          	fstpt  0x60(%rsp)
    4d4e:	dd 44 24 70          	fldl   0x70(%rsp)
    4d52:	dd 5c 24 38          	fstpl  0x38(%rsp)
    4d56:	f2 0f 5e 44 24 38    	divsd  0x38(%rsp),%xmm0
    4d5c:	e8 af d6 ff ff       	call   2410 <atan@plt>
    4d61:	44 8b 4c 24 40       	mov    0x40(%rsp),%r9d
    4d66:	f2 44 0f 10 44 24 50 	movsd  0x50(%rsp),%xmm8
    4d6d:	f2 0f 11 44 24 38    	movsd  %xmm0,0x38(%rsp)
    4d73:	66 0f ef c0          	pxor   %xmm0,%xmm0
    4d77:	66 0f 2f 44 24 08    	comisd 0x8(%rsp),%xmm0
    4d7d:	dd 44 24 38          	fldl   0x38(%rsp)
    4d81:	dd 44 24 70          	fldl   0x70(%rsp)
    4d85:	0f 87 c1 03 00 00    	ja     514c <_ZL7torqueldddddddjjPPPedddd+0xe4c>
    4d8b:	f2 0f 10 7c 24 08    	movsd  0x8(%rsp),%xmm7
    4d91:	dd 54 24 38          	fstl   0x38(%rsp)
    4d95:	66 0f 2f f8          	comisd %xmm0,%xmm7
    4d99:	0f 86 b7 05 00 00    	jbe    5356 <_ZL7torqueldddddddjjPPPedddd+0x1056>
    4d9f:	66 0f 2f 44 24 38    	comisd 0x38(%rsp),%xmm0
    4da5:	0f 87 15 0b 00 00    	ja     58c0 <_ZL7torqueldddddddjjPPPedddd+0x15c0>
    4dab:	dd 44 24 78          	fldl   0x78(%rsp)
    4daf:	66 0f 2f 44 24 18    	comisd 0x18(%rsp),%xmm0
    4db5:	db bc 24 50 01 00 00 	fstpt  0x150(%rsp)
    4dbc:	0f 87 02 0c 00 00    	ja     59c4 <_ZL7torqueldddddddjjPPPedddd+0x16c4>
    4dc2:	f2 0f 10 74 24 18    	movsd  0x18(%rsp),%xmm6
    4dc8:	66 0f 2f f0          	comisd %xmm0,%xmm6
    4dcc:	0f 87 54 f9 ff ff    	ja     4726 <_ZL7torqueldddddddjjPPPedddd+0x426>
    4dd2:	dd d9                	fstp   %st(1)
    4dd4:	dd 54 24 38          	fstl   0x38(%rsp)
    4dd8:	f2 0f 10 7c 24 38    	movsd  0x38(%rsp),%xmm7
    4dde:	66 0f ef c0          	pxor   %xmm0,%xmm0
    4de2:	66 0f 2f f8          	comisd %xmm0,%xmm7
    4de6:	0f 86 06 0d 00 00    	jbe    5af2 <_ZL7torqueldddddddjjPPPedddd+0x17f2>
    4dec:	d9 ee                	fldz
    4dee:	d9 c9                	fxch   %st(1)
    4df0:	e9 31 f9 ff ff       	jmp    4726 <_ZL7torqueldddddddjjPPPedddd+0x426>
    4df5:	66 0f 2f 44 24 08    	comisd 0x8(%rsp),%xmm0
    4dfb:	0f 83 af 04 00 00    	jae    52b0 <_ZL7torqueldddddddjjPPPedddd+0xfb0>
    4e01:	d9 bc 24 de 00 00 00 	fnstcw 0xde(%rsp)
    4e08:	89 d8                	mov    %ebx,%eax
    4e0a:	66 0f ef c9          	pxor   %xmm1,%xmm1
    4e0e:	f2 0f 10 05 da 56 00 	movsd  0x56da(%rip),%xmm0        # a4f0 <_IO_stdin_used+0x4f0>
    4e15:	00 
    4e16:	f2 48 0f 2a c8       	cvtsi2sd %rax,%xmm1
    4e1b:	0f b7 84 24 de 00 00 	movzwl 0xde(%rsp),%eax
    4e22:	00 
    4e23:	80 e4 f3             	and    $0xf3,%ah
    4e26:	f2 0f 5e c1          	divsd  %xmm1,%xmm0
    4e2a:	80 cc 04             	or     $0x4,%ah
    4e2d:	66 89 84 24 dc 00 00 	mov    %ax,0xdc(%rsp)
    4e34:	00 
    4e35:	0f b7 84 24 de 00 00 	movzwl 0xde(%rsp),%eax
    4e3c:	00 
    4e3d:	80 cc 0c             	or     $0xc,%ah
    4e40:	66 89 84 24 da 00 00 	mov    %ax,0xda(%rsp)
    4e47:	00 
    4e48:	0f b7 84 24 de 00 00 	movzwl 0xde(%rsp),%eax
    4e4f:	00 
    4e50:	80 e4 f3             	and    $0xf3,%ah
    4e53:	80 cc 08             	or     $0x8,%ah
    4e56:	66 89 84 24 d8 00 00 	mov    %ax,0xd8(%rsp)
    4e5d:	00 
    4e5e:	f2 0f 11 44 24 38    	movsd  %xmm0,0x38(%rsp)
    4e64:	dd 44 24 38          	fldl   0x38(%rsp)
    4e68:	db ac 24 30 01 00 00 	fldt   0x130(%rsp)
    4e6f:	d8 f1                	fdiv   %st(1),%st
    4e71:	d9 ac 24 dc 00 00 00 	fldcw  0xdc(%rsp)
    4e78:	d9 fc                	frndint
    4e7a:	d9 ac 24 de 00 00 00 	fldcw  0xde(%rsp)
    4e81:	d9 ac 24 da 00 00 00 	fldcw  0xda(%rsp)
    4e88:	db 5c 24 38          	fistpl 0x38(%rsp)
    4e8c:	d9 ac 24 de 00 00 00 	fldcw  0xde(%rsp)
    4e93:	db ac 24 60 01 00 00 	fldt   0x160(%rsp)
    4e9a:	8b 54 24 38          	mov    0x38(%rsp),%edx
    4e9e:	de f1                	fdivp  %st,%st(1)
    4ea0:	d9 ac 24 d8 00 00 00 	fldcw  0xd8(%rsp)
    4ea7:	d9 fc                	frndint
    4ea9:	d9 ac 24 de 00 00 00 	fldcw  0xde(%rsp)
    4eb0:	d9 ac 24 da 00 00 00 	fldcw  0xda(%rsp)
    4eb7:	db 5c 24 38          	fistpl 0x38(%rsp)
    4ebb:	d9 ac 24 de 00 00 00 	fldcw  0xde(%rsp)
    4ec2:	8b 44 24 38          	mov    0x38(%rsp),%eax
    4ec6:	39 c3                	cmp    %eax,%ebx
    4ec8:	0f 47 d8             	cmova  %eax,%ebx
    4ecb:	e9 c0 fa ff ff       	jmp    4990 <_ZL7torqueldddddddjjPPPedddd+0x690>
    4ed0:	0f 85 fc f8 ff ff    	jne    47d2 <_ZL7torqueldddddddjjPPPedddd+0x4d2>
    4ed6:	db 7e 10             	fstpt  0x10(%rsi)
    4ed9:	e9 fa f8 ff ff       	jmp    47d8 <_ZL7torqueldddddddjjPPPedddd+0x4d8>
    4ede:	f2 0f 10 74 24 18    	movsd  0x18(%rsp),%xmm6
    4ee4:	66 0f 2f f0          	comisd %xmm0,%xmm6
    4ee8:	0f 82 9d fa ff ff    	jb     498b <_ZL7torqueldddddddjjPPPedddd+0x68b>
    4eee:	db ac 24 40 01 00 00 	fldt   0x140(%rsp)
    4ef5:	66 0f 2e f0          	ucomisd %xmm0,%xmm6
    4ef9:	7a 07                	jp     4f02 <_ZL7torqueldddddddjjPPPedddd+0xc02>
    4efb:	ba 01 00 00 00       	mov    $0x1,%edx
    4f00:	74 2a                	je     4f2c <_ZL7torqueldddddddjjPPPedddd+0xc2c>
    4f02:	d8 f1                	fdiv   %st(1),%st
    4f04:	d9 ac 24 d8 00 00 00 	fldcw  0xd8(%rsp)
    4f0b:	d9 fc                	frndint
    4f0d:	d9 ac 24 de 00 00 00 	fldcw  0xde(%rsp)
    4f14:	d9 ac 24 da 00 00 00 	fldcw  0xda(%rsp)
    4f1b:	db 5c 24 38          	fistpl 0x38(%rsp)
    4f1f:	d9 ac 24 de 00 00 00 	fldcw  0xde(%rsp)
    4f26:	8b 54 24 38          	mov    0x38(%rsp),%edx
    4f2a:	eb 02                	jmp    4f2e <_ZL7torqueldddddddjjPPPedddd+0xc2e>
    4f2c:	dd d8                	fstp   %st(0)
    4f2e:	db ac 24 50 01 00 00 	fldt   0x150(%rsp)
    4f35:	de f1                	fdivp  %st,%st(1)
    4f37:	d9 ac 24 dc 00 00 00 	fldcw  0xdc(%rsp)
    4f3e:	d9 fc                	frndint
    4f40:	d9 ac 24 de 00 00 00 	fldcw  0xde(%rsp)
    4f47:	d9 ac 24 da 00 00 00 	fldcw  0xda(%rsp)
    4f4e:	db 5c 24 38          	fistpl 0x38(%rsp)
    4f52:	d9 ac 24 de 00 00 00 	fldcw  0xde(%rsp)
    4f59:	44 8b 44 24 38       	mov    0x38(%rsp),%r8d
    4f5e:	45 39 e1             	cmp    %r12d,%r9d
    4f61:	0f 83 5d f4 ff ff    	jae    43c4 <_ZL7torqueldddddddjjPPPedddd+0xc4>
    4f67:	41 8d 44 24 ff       	lea    -0x1(%r12),%eax
    4f6c:	44 89 c9             	mov    %r9d,%ecx
    4f6f:	44 89 c7             	mov    %r8d,%edi
    4f72:	41 89 d4             	mov    %edx,%r12d
    4f75:	44 29 c8             	sub    %r9d,%eax
    4f78:	4c 8d 6c cd 00       	lea    0x0(%rbp,%rcx,8),%r13
    4f7d:	49 c1 e4 03          	shl    $0x3,%r12
    4f81:	48 8d 34 fd 00 00 00 	lea    0x0(,%rdi,8),%rsi
    4f88:	00 
    4f89:	48 01 c8             	add    %rcx,%rax
    4f8c:	48 8d 4c c5 08       	lea    0x8(%rbp,%rax,8),%rcx
    4f91:	41 8d 46 ff          	lea    -0x1(%r14),%eax
    4f95:	44 29 c0             	sub    %r8d,%eax
    4f98:	48 8d 6c 07 01       	lea    0x1(%rdi,%rax,1),%rbp
    4f9d:	48 c1 e5 03          	shl    $0x3,%rbp
    4fa1:	0f 1f 80 00 00 00 00 	nopl   0x0(%rax)
    4fa8:	85 d2                	test   %edx,%edx
    4faa:	0f 84 2b 03 00 00    	je     52db <_ZL7torqueldddddddjjPPPedddd+0xfdb>
    4fb0:	dd 44 24 28          	fldl   0x28(%rsp)
    4fb4:	31 db                	xor    %ebx,%ebx
    4fb6:	66 2e 0f 1f 84 00 00 	cs nopw 0x0(%rax,%rax,1)
    4fbd:	00 00 00 
    4fc0:	49 8b 45 00          	mov    0x0(%r13),%rax
    4fc4:	48 8b 04 18          	mov    (%rax,%rbx,1),%rax
    4fc8:	db 28                	fldt   (%rax)
    4fca:	db f1                	fcomi  %st(1),%st
    4fcc:	72 42                	jb     5010 <_ZL7torqueldddddddjjPPPedddd+0xd10>
    4fce:	d9 c2                	fld    %st(2)
    4fd0:	df f1                	fcomip %st(1),%st
    4fd2:	72 44                	jb     5018 <_ZL7torqueldddddddjjPPPedddd+0xd18>
    4fd4:	dd 44 24 08          	fldl   0x8(%rsp)
    4fd8:	db 68 10             	fldt   0x10(%rax)
    4fdb:	db f1                	fcomi  %st(1),%st
    4fdd:	dd d9                	fstp   %st(1)
    4fdf:	72 3f                	jb     5020 <_ZL7torqueldddddddjjPPPedddd+0xd20>
    4fe1:	dd 44 24 18          	fldl   0x18(%rsp)
    4fe5:	df f1                	fcomip %st(1),%st
    4fe7:	72 3d                	jb     5026 <_ZL7torqueldddddddjjPPPedddd+0xd26>
    4fe9:	dd 44 24 20          	fldl   0x20(%rsp)
    4fed:	db 68 20             	fldt   0x20(%rax)
    4ff0:	db f1                	fcomi  %st(1),%st
    4ff2:	dd d9                	fstp   %st(1)
    4ff4:	72 36                	jb     502c <_ZL7torqueldddddddjjPPPedddd+0xd2c>
    4ff6:	dd 44 24 10          	fldl   0x10(%rsp)
    4ffa:	df f1                	fcomip %st(1),%st
    4ffc:	0f 83 98 03 00 00    	jae    539a <_ZL7torqueldddddddjjPPPedddd+0x109a>
    5002:	dd d8                	fstp   %st(0)
    5004:	dd d8                	fstp   %st(0)
    5006:	dd d8                	fstp   %st(0)
    5008:	eb 2e                	jmp    5038 <_ZL7torqueldddddddjjPPPedddd+0xd38>
    500a:	66 0f 1f 44 00 00    	nopw   0x0(%rax,%rax,1)
    5010:	dd d8                	fstp   %st(0)
    5012:	eb 24                	jmp    5038 <_ZL7torqueldddddddjjPPPedddd+0xd38>
    5014:	0f 1f 40 00          	nopl   0x0(%rax)
    5018:	dd d8                	fstp   %st(0)
    501a:	eb 1c                	jmp    5038 <_ZL7torqueldddddddjjPPPedddd+0xd38>
    501c:	0f 1f 40 00          	nopl   0x0(%rax)
    5020:	dd d8                	fstp   %st(0)
    5022:	dd d8                	fstp   %st(0)
    5024:	eb 12                	jmp    5038 <_ZL7torqueldddddddjjPPPedddd+0xd38>
    5026:	dd d8                	fstp   %st(0)
    5028:	dd d8                	fstp   %st(0)
    502a:	eb 0c                	jmp    5038 <_ZL7torqueldddddddjjPPPedddd+0xd38>
    502c:	dd d8                	fstp   %st(0)
    502e:	dd d8                	fstp   %st(0)
    5030:	dd d8                	fstp   %st(0)
    5032:	66 0f 1f 44 00 00    	nopw   0x0(%rax,%rax,1)
    5038:	48 83 c3 08          	add    $0x8,%rbx
    503c:	49 39 dc             	cmp    %rbx,%r12
    503f:	0f 85 7b ff ff ff    	jne    4fc0 <_ZL7torqueldddddddjjPPPedddd+0xcc0>
    5045:	45 39 f0             	cmp    %r14d,%r8d
    5048:	0f 83 f2 02 00 00    	jae    5340 <_ZL7torqueldddddddjjPPPedddd+0x1040>
    504e:	48 89 f3             	mov    %rsi,%rbx
    5051:	0f 1f 80 00 00 00 00 	nopl   0x0(%rax)
    5058:	49 8b 45 00          	mov    0x0(%r13),%rax
    505c:	48 8b 04 18          	mov    (%rax,%rbx,1),%rax
    5060:	db 28                	fldt   (%rax)
    5062:	db f1                	fcomi  %st(1),%st
    5064:	72 42                	jb     50a8 <_ZL7torqueldddddddjjPPPedddd+0xda8>
    5066:	d9 c2                	fld    %st(2)
    5068:	df f1                	fcomip %st(1),%st
    506a:	72 44                	jb     50b0 <_ZL7torqueldddddddjjPPPedddd+0xdb0>
    506c:	dd 44 24 08          	fldl   0x8(%rsp)
    5070:	db 68 10             	fldt   0x10(%rax)
    5073:	db f1                	fcomi  %st(1),%st
    5075:	dd d9                	fstp   %st(1)
    5077:	72 3f                	jb     50b8 <_ZL7torqueldddddddjjPPPedddd+0xdb8>
    5079:	dd 44 24 18          	fldl   0x18(%rsp)
    507d:	df f1                	fcomip %st(1),%st
    507f:	72 3d                	jb     50be <_ZL7torqueldddddddjjPPPedddd+0xdbe>
    5081:	dd 44 24 20          	fldl   0x20(%rsp)
    5085:	db 68 20             	fldt   0x20(%rax)
    5088:	db f1                	fcomi  %st(1),%st
    508a:	dd d9                	fstp   %st(1)
    508c:	72 36                	jb     50c4 <_ZL7torqueldddddddjjPPPedddd+0xdc4>
    508e:	dd 44 24 10          	fldl   0x10(%rsp)
    5092:	df f1                	fcomip %st(1),%st
    5094:	0f 83 62 05 00 00    	jae    55fc <_ZL7torqueldddddddjjPPPedddd+0x12fc>
    509a:	dd d8                	fstp   %st(0)
    509c:	dd d8                	fstp   %st(0)
    509e:	dd d8                	fstp   %st(0)
    50a0:	eb 2e                	jmp    50d0 <_ZL7torqueldddddddjjPPPedddd+0xdd0>
    50a2:	66 0f 1f 44 00 00    	nopw   0x0(%rax,%rax,1)
    50a8:	dd d8                	fstp   %st(0)
    50aa:	eb 24                	jmp    50d0 <_ZL7torqueldddddddjjPPPedddd+0xdd0>
    50ac:	0f 1f 40 00          	nopl   0x0(%rax)
    50b0:	dd d8                	fstp   %st(0)
    50b2:	eb 1c                	jmp    50d0 <_ZL7torqueldddddddjjPPPedddd+0xdd0>
    50b4:	0f 1f 40 00          	nopl   0x0(%rax)
    50b8:	dd d8                	fstp   %st(0)
    50ba:	dd d8                	fstp   %st(0)
    50bc:	eb 12                	jmp    50d0 <_ZL7torqueldddddddjjPPPedddd+0xdd0>
    50be:	dd d8                	fstp   %st(0)
    50c0:	dd d8                	fstp   %st(0)
    50c2:	eb 0c                	jmp    50d0 <_ZL7torqueldddddddjjPPPedddd+0xdd0>
    50c4:	dd d8                	fstp   %st(0)
    50c6:	dd d8                	fstp   %st(0)
    50c8:	dd d8                	fstp   %st(0)
    50ca:	66 0f 1f 44 00 00    	nopw   0x0(%rax,%rax,1)
    50d0:	48 83 c3 08          	add    $0x8,%rbx
    50d4:	48 39 dd             	cmp    %rbx,%rbp
    50d7:	0f 85 7b ff ff ff    	jne    5058 <_ZL7torqueldddddddjjPPPedddd+0xd58>
    50dd:	dd d8                	fstp   %st(0)
    50df:	49 83 c5 08          	add    $0x8,%r13
    50e3:	4c 39 e9             	cmp    %r13,%rcx
    50e6:	0f 85 bc fe ff ff    	jne    4fa8 <_ZL7torqueldddddddjjPPPedddd+0xca8>
    50ec:	dd d8                	fstp   %st(0)
    50ee:	e9 dd f2 ff ff       	jmp    43d0 <_ZL7torqueldddddddjjPPPedddd+0xd0>
    50f3:	dd d8                	fstp   %st(0)
    50f5:	dd d9                	fstp   %st(1)
    50f7:	f2 0f 11 4c 24 38    	movsd  %xmm1,0x38(%rsp)
    50fd:	dd 44 24 38          	fldl   0x38(%rsp)
    5101:	db bc 24 40 01 00 00 	fstpt  0x140(%rsp)
    5108:	dd 54 24 38          	fstl   0x38(%rsp)
    510c:	f2 0f 10 74 24 38    	movsd  0x38(%rsp),%xmm6
    5112:	66 0f 2e f0          	ucomisd %xmm0,%xmm6
    5116:	0f 8a f5 fb ff ff    	jp     4d11 <_ZL7torqueldddddddjjPPPedddd+0xa11>
    511c:	0f 85 ef fb ff ff    	jne    4d11 <_ZL7torqueldddddddjjPPPedddd+0xa11>
    5122:	dd 05 a8 53 00 00    	fldl   0x53a8(%rip)        # a4d0 <_IO_stdin_used+0x4d0>
    5128:	db bc 24 50 01 00 00 	fstpt  0x150(%rsp)
    512f:	66 0f ef c0          	pxor   %xmm0,%xmm0
    5133:	66 0f 2f 44 24 18    	comisd 0x18(%rsp),%xmm0
    5139:	0f 86 ad fc ff ff    	jbe    4dec <_ZL7torqueldddddddjjPPPedddd+0xaec>
    513f:	dd 05 83 53 00 00    	fldl   0x5383(%rip)        # a4c8 <_IO_stdin_used+0x4c8>
    5145:	d9 c9                	fxch   %st(1)
    5147:	e9 da f5 ff ff       	jmp    4726 <_ZL7torqueldddddddjjPPPedddd+0x426>
    514c:	dd 54 24 38          	fstl   0x38(%rsp)
    5150:	f2 0f 10 74 24 38    	movsd  0x38(%rsp),%xmm6
    5156:	66 0f 2f f0          	comisd %xmm0,%xmm6
    515a:	76 3c                	jbe    5198 <_ZL7torqueldddddddjjPPPedddd+0xe98>
    515c:	f2 0f 10 0d 8c 53 00 	movsd  0x538c(%rip),%xmm1        # a4f0 <_IO_stdin_used+0x4f0>
    5163:	00 
    5164:	db 6c 24 60          	fldt   0x60(%rsp)
    5168:	66 0f 2f 44 24 18    	comisd 0x18(%rsp),%xmm0
    516e:	f2 0f 11 4c 24 38    	movsd  %xmm1,0x38(%rsp)
    5174:	dc 44 24 38          	faddl  0x38(%rsp)
    5178:	db bc 24 50 01 00 00 	fstpt  0x150(%rsp)
    517f:	77 64                	ja     51e5 <_ZL7torqueldddddddjjPPPedddd+0xee5>
    5181:	f2 0f 10 74 24 18    	movsd  0x18(%rsp),%xmm6
    5187:	66 0f 2f f0          	comisd %xmm0,%xmm6
    518b:	0f 87 95 f5 ff ff    	ja     4726 <_ZL7torqueldddddddjjPPPedddd+0x426>
    5191:	dd d9                	fstp   %st(1)
    5193:	e9 54 fc ff ff       	jmp    4dec <_ZL7torqueldddddddjjPPPedddd+0xaec>
    5198:	f2 0f 10 0d 38 53 00 	movsd  0x5338(%rip),%xmm1        # a4d8 <_IO_stdin_used+0x4d8>
    519f:	00 
    51a0:	db 6c 24 60          	fldt   0x60(%rsp)
    51a4:	66 0f 2f 44 24 18    	comisd 0x18(%rsp),%xmm0
    51aa:	f2 0f 11 4c 24 38    	movsd  %xmm1,0x38(%rsp)
    51b0:	dc 44 24 38          	faddl  0x38(%rsp)
    51b4:	db bc 24 50 01 00 00 	fstpt  0x150(%rsp)
    51bb:	77 2c                	ja     51e9 <_ZL7torqueldddddddjjPPPedddd+0xee9>
    51bd:	f2 0f 10 74 24 18    	movsd  0x18(%rsp),%xmm6
    51c3:	66 0f 2f f0          	comisd %xmm0,%xmm6
    51c7:	0f 86 34 07 00 00    	jbe    5901 <_ZL7torqueldddddddjjPPPedddd+0x1601>
    51cd:	66 0f ef c0          	pxor   %xmm0,%xmm0
    51d1:	dd 54 24 38          	fstl   0x38(%rsp)
    51d5:	66 0f 2f 44 24 38    	comisd 0x38(%rsp),%xmm0
    51db:	0f 86 45 f5 ff ff    	jbe    4726 <_ZL7torqueldddddddjjPPPedddd+0x426>
    51e1:	d9 c9                	fxch   %st(1)
    51e3:	eb 16                	jmp    51fb <_ZL7torqueldddddddjjPPPedddd+0xefb>
    51e5:	d9 c9                	fxch   %st(1)
    51e7:	eb 12                	jmp    51fb <_ZL7torqueldddddddjjPPPedddd+0xefb>
    51e9:	d9 c9                	fxch   %st(1)
    51eb:	eb 0e                	jmp    51fb <_ZL7torqueldddddddjjPPPedddd+0xefb>
    51ed:	d9 c9                	fxch   %st(1)
    51ef:	eb 0a                	jmp    51fb <_ZL7torqueldddddddjjPPPedddd+0xefb>
    51f1:	d9 c9                	fxch   %st(1)
    51f3:	eb 06                	jmp    51fb <_ZL7torqueldddddddjjPPPedddd+0xefb>
    51f5:	d9 c9                	fxch   %st(1)
    51f7:	eb 02                	jmp    51fb <_ZL7torqueldddddddjjPPPedddd+0xefb>
    51f9:	d9 c9                	fxch   %st(1)
    51fb:	f2 0f 11 4c 24 38    	movsd  %xmm1,0x38(%rsp)
    5201:	dc 44 24 38          	faddl  0x38(%rsp)
    5205:	d9 c9                	fxch   %st(1)
    5207:	e9 1a f5 ff ff       	jmp    4726 <_ZL7torqueldddddddjjPPPedddd+0x426>
    520c:	66 0f 2f 44 24 18    	comisd 0x18(%rsp),%xmm0
    5212:	0f 86 65 f4 ff ff    	jbe    467d <_ZL7torqueldddddddjjPPPedddd+0x37d>
    5218:	dd 05 aa 52 00 00    	fldl   0x52aa(%rip)        # a4c8 <_IO_stdin_used+0x4c8>
    521e:	e9 a5 f4 ff ff       	jmp    46c8 <_ZL7torqueldddddddjjPPPedddd+0x3c8>
    5223:	f2 0f 10 0d ad 52 00 	movsd  0x52ad(%rip),%xmm1        # a4d8 <_IO_stdin_used+0x4d8>
    522a:	00 
    522b:	db 6c 24 60          	fldt   0x60(%rsp)
    522f:	66 0f 2f 44 24 18    	comisd 0x18(%rsp),%xmm0
    5235:	f2 0f 11 4c 24 38    	movsd  %xmm1,0x38(%rsp)
    523b:	dc 44 24 38          	faddl  0x38(%rsp)
    523f:	db bc 24 30 01 00 00 	fstpt  0x130(%rsp)
    5246:	0f 87 2f 06 00 00    	ja     587b <_ZL7torqueldddddddjjPPPedddd+0x157b>
    524c:	f2 0f 10 7c 24 18    	movsd  0x18(%rsp),%xmm7
    5252:	66 0f 2f f8          	comisd %xmm0,%xmm7
    5256:	0f 86 b1 07 00 00    	jbe    5a0d <_ZL7torqueldddddddjjPPPedddd+0x170d>
    525c:	66 0f ef c0          	pxor   %xmm0,%xmm0
    5260:	66 0f 2f 44 24 28    	comisd 0x28(%rsp),%xmm0
    5266:	0f 86 56 f4 ff ff    	jbe    46c2 <_ZL7torqueldddddddjjPPPedddd+0x3c2>
    526c:	d9 c9                	fxch   %st(1)
    526e:	f2 0f 11 4c 24 38    	movsd  %xmm1,0x38(%rsp)
    5274:	dc 44 24 38          	faddl  0x38(%rsp)
    5278:	db bc 24 40 01 00 00 	fstpt  0x140(%rsp)
    527f:	dd 54 24 38          	fstl   0x38(%rsp)
    5283:	f2 0f 10 7c 24 38    	movsd  0x38(%rsp),%xmm7
    5289:	66 0f 2e f8          	ucomisd %xmm0,%xmm7
    528d:	0f 8a 7e fa ff ff    	jp     4d11 <_ZL7torqueldddddddjjPPPedddd+0xa11>
    5293:	0f 85 78 fa ff ff    	jne    4d11 <_ZL7torqueldddddddjjPPPedddd+0xa11>
    5299:	66 0f ef c0          	pxor   %xmm0,%xmm0
    529d:	66 0f 2f 44 24 08    	comisd 0x8(%rsp),%xmm0
    52a3:	0f 87 0c 06 00 00    	ja     58b5 <_ZL7torqueldddddddjjPPPedddd+0x15b5>
    52a9:	d9 ee                	fldz
    52ab:	e9 53 f4 ff ff       	jmp    4703 <_ZL7torqueldddddddjjPPPedddd+0x403>
    52b0:	dd 54 24 38          	fstl   0x38(%rsp)
    52b4:	f2 0f 10 7c 24 38    	movsd  0x38(%rsp),%xmm7
    52ba:	66 0f 2f f8          	comisd %xmm0,%xmm7
    52be:	0f 82 3d fb ff ff    	jb     4e01 <_ZL7torqueldddddddjjPPPedddd+0xb01>
    52c4:	f2 0f 10 74 24 18    	movsd  0x18(%rsp),%xmm6
    52ca:	31 d2                	xor    %edx,%edx
    52cc:	66 0f 2f f0          	comisd %xmm0,%xmm6
    52d0:	0f 83 ba f6 ff ff    	jae    4990 <_ZL7torqueldddddddjjPPPedddd+0x690>
    52d6:	e9 26 fb ff ff       	jmp    4e01 <_ZL7torqueldddddddjjPPPedddd+0xb01>
    52db:	45 39 f0             	cmp    %r14d,%r8d
    52de:	0f 83 fb fd ff ff    	jae    50df <_ZL7torqueldddddddjjPPPedddd+0xddf>
    52e4:	dd 44 24 28          	fldl   0x28(%rsp)
    52e8:	e9 61 fd ff ff       	jmp    504e <_ZL7torqueldddddddjjPPPedddd+0xd4e>
    52ed:	f2 0f 10 74 24 28    	movsd  0x28(%rsp),%xmm6
    52f3:	66 0f 2f f0          	comisd %xmm0,%xmm6
    52f7:	0f 86 1b 06 00 00    	jbe    5918 <_ZL7torqueldddddddjjPPPedddd+0x1618>
    52fd:	66 0f 2f 44 24 18    	comisd 0x18(%rsp),%xmm0
    5303:	d9 ee                	fldz
    5305:	db bc 24 30 01 00 00 	fstpt  0x130(%rsp)
    530c:	0f 86 53 f5 ff ff    	jbe    4865 <_ZL7torqueldddddddjjPPPedddd+0x565>
    5312:	d9 c9                	fxch   %st(1)
    5314:	dc 05 d6 51 00 00    	faddl  0x51d6(%rip)        # a4f0 <_IO_stdin_used+0x4f0>
    531a:	db bc 24 40 01 00 00 	fstpt  0x140(%rsp)
    5321:	dd 54 24 38          	fstl   0x38(%rsp)
    5325:	f2 0f 10 7c 24 38    	movsd  0x38(%rsp),%xmm7
    532b:	66 0f 2e f8          	ucomisd %xmm0,%xmm7
    532f:	0f 8a dc f9 ff ff    	jp     4d11 <_ZL7torqueldddddddjjPPPedddd+0xa11>
    5335:	0f 84 6e ff ff ff    	je     52a9 <_ZL7torqueldddddddjjPPPedddd+0xfa9>
    533b:	e9 d1 f9 ff ff       	jmp    4d11 <_ZL7torqueldddddddjjPPPedddd+0xa11>
    5340:	49 83 c5 08          	add    $0x8,%r13
    5344:	49 39 cd             	cmp    %rcx,%r13
    5347:	0f 85 67 fc ff ff    	jne    4fb4 <_ZL7torqueldddddddjjPPPedddd+0xcb4>
    534d:	dd d8                	fstp   %st(0)
    534f:	dd d8                	fstp   %st(0)
    5351:	e9 7a f0 ff ff       	jmp    43d0 <_ZL7torqueldddddddjjPPPedddd+0xd0>
    5356:	f2 0f 10 7c 24 38    	movsd  0x38(%rsp),%xmm7
    535c:	66 0f 2f f8          	comisd %xmm0,%xmm7
    5360:	0f 86 32 06 00 00    	jbe    5998 <_ZL7torqueldddddddjjPPPedddd+0x1698>
    5366:	66 0f 2f 44 24 18    	comisd 0x18(%rsp),%xmm0
    536c:	d9 ee                	fldz
    536e:	f2 0f 10 0d 7a 51 00 	movsd  0x517a(%rip),%xmm1        # a4f0 <_IO_stdin_used+0x4f0>
    5375:	00 
    5376:	db bc 24 50 01 00 00 	fstpt  0x150(%rsp)
    537d:	0f 87 6a fe ff ff    	ja     51ed <_ZL7torqueldddddddjjPPPedddd+0xeed>
    5383:	f2 0f 10 7c 24 18    	movsd  0x18(%rsp),%xmm7
    5389:	66 0f 2f f8          	comisd %xmm0,%xmm7
    538d:	0f 87 93 f3 ff ff    	ja     4726 <_ZL7torqueldddddddjjPPPedddd+0x426>
    5393:	dd d9                	fstp   %st(1)
    5395:	e9 52 fa ff ff       	jmp    4dec <_ZL7torqueldddddddjjPPPedddd+0xaec>
    539a:	d9 cb                	fxch   %st(3)
    539c:	db bc 24 c0 00 00 00 	fstpt  0xc0(%rsp)
    53a3:	d9 cb                	fxch   %st(3)
    53a5:	48 8d bc 24 e0 00 00 	lea    0xe0(%rsp),%rdi
    53ac:	00 
    53ad:	48 89 b4 24 b8 00 00 	mov    %rsi,0xb8(%rsp)
    53b4:	00 
    53b5:	dd 9c 24 d0 00 00 00 	fstpl  0xd0(%rsp)
    53bc:	d9 c1                	fld    %st(1)
    53be:	dc 84 24 d0 01 00 00 	faddl  0x1d0(%rsp)
    53c5:	48 89 8c 24 b0 00 00 	mov    %rcx,0xb0(%rsp)
    53cc:	00 
    53cd:	44 89 84 24 ac 00 00 	mov    %r8d,0xac(%rsp)
    53d4:	00 
    53d5:	89 94 24 90 00 00 00 	mov    %edx,0x90(%rsp)
    53dc:	f2 44 0f 11 84 24 80 	movsd  %xmm8,0x80(%rsp)
    53e3:	00 00 00 
    53e6:	dd 5c 24 38          	fstpl  0x38(%rsp)
    53ea:	f2 0f 10 5c 24 38    	movsd  0x38(%rsp),%xmm3
    53f0:	d9 c2                	fld    %st(2)
    53f2:	dc 84 24 c8 01 00 00 	faddl  0x1c8(%rsp)
    53f9:	dd 5c 24 38          	fstpl  0x38(%rsp)
    53fd:	f2 0f 10 54 24 38    	movsd  0x38(%rsp),%xmm2
    5403:	d9 c0                	fld    %st(0)
    5405:	dc 84 24 c0 01 00 00 	faddl  0x1c0(%rsp)
    540c:	f2 0f 11 54 24 60    	movsd  %xmm2,0x60(%rsp)
    5412:	dd 5c 24 38          	fstpl  0x38(%rsp)
    5416:	d9 c9                	fxch   %st(1)
    5418:	f2 0f 10 4c 24 38    	movsd  0x38(%rsp),%xmm1
    541e:	dd 5c 24 38          	fstpl  0x38(%rsp)
    5422:	d9 c9                	fxch   %st(1)
    5424:	f2 0f 10 74 24 38    	movsd  0x38(%rsp),%xmm6
    542a:	dd 5c 24 38          	fstpl  0x38(%rsp)
    542e:	f2 0f 10 6c 24 38    	movsd  0x38(%rsp),%xmm5
    5434:	dd 5c 24 38          	fstpl  0x38(%rsp)
    5438:	f2 0f 10 64 24 38    	movsd  0x38(%rsp),%xmm4
    543e:	f2 41 0f 5e f0       	divsd  %xmm8,%xmm6
    5443:	db 68 30             	fldt   0x30(%rax)
    5446:	dd 5c 24 38          	fstpl  0x38(%rsp)
    544a:	f2 41 0f 5e e0       	divsd  %xmm8,%xmm4
    544f:	f2 0f 11 b4 24 a0 00 	movsd  %xmm6,0xa0(%rsp)
    5456:	00 00 
    5458:	f2 41 0f 5e e8       	divsd  %xmm8,%xmm5
    545d:	f2 0f 11 64 24 78    	movsd  %xmm4,0x78(%rsp)
    5463:	f2 0f 10 64 24 38    	movsd  0x38(%rsp),%xmm4
    5469:	f2 0f 11 5c 24 38    	movsd  %xmm3,0x38(%rsp)
    546f:	66 0f 28 fc          	movapd %xmm4,%xmm7
    5473:	f2 0f 11 64 24 40    	movsd  %xmm4,0x40(%rsp)
    5479:	66 0f 14 ff          	unpcklpd %xmm7,%xmm7
    547d:	0f 29 7c 24 50       	movaps %xmm7,0x50(%rsp)
    5482:	f2 0f 11 ac 24 88 00 	movsd  %xmm5,0x88(%rsp)
    5489:	00 00 
    548b:	f2 0f 11 4c 24 70    	movsd  %xmm1,0x70(%rsp)
    5491:	f2 0f 10 44 24 30    	movsd  0x30(%rsp),%xmm0
    5497:	e8 64 2b 00 00       	call   8000 <_Z6stressdddd>
    549c:	f2 0f 10 64 24 78    	movsd  0x78(%rsp),%xmm4
    54a2:	f2 0f 10 94 24 f0 00 	movsd  0xf0(%rsp),%xmm2
    54a9:	00 00 
    54ab:	f2 0f 10 ac 24 88 00 	movsd  0x88(%rsp),%xmm5
    54b2:	00 00 
    54b4:	dd 84 24 d0 00 00 00 	fldl   0xd0(%rsp)
    54bb:	db ac 24 c0 00 00 00 	fldt   0xc0(%rsp)
    54c2:	f2 0f 10 84 24 08 01 	movsd  0x108(%rsp),%xmm0
    54c9:	00 00 
    54cb:	f2 0f 59 d4          	mulsd  %xmm4,%xmm2
    54cf:	f2 0f 10 b4 24 a0 00 	movsd  0xa0(%rsp),%xmm6
    54d6:	00 00 
    54d8:	f2 0f 59 c5          	mulsd  %xmm5,%xmm0
    54dc:	48 8b b4 24 b8 00 00 	mov    0xb8(%rsp),%rsi
    54e3:	00 
    54e4:	48 8b 8c 24 b0 00 00 	mov    0xb0(%rsp),%rcx
    54eb:	00 
    54ec:	44 8b 84 24 ac 00 00 	mov    0xac(%rsp),%r8d
    54f3:	00 
    54f4:	8b 94 24 90 00 00 00 	mov    0x90(%rsp),%edx
    54fb:	f2 44 0f 10 84 24 80 	movsd  0x80(%rsp),%xmm8
    5502:	00 00 00 
    5505:	66 0f 28 fa          	movapd %xmm2,%xmm7
    5509:	f2 0f 10 94 24 e8 00 	movsd  0xe8(%rsp),%xmm2
    5510:	00 00 
    5512:	f2 0f 58 f8          	addsd  %xmm0,%xmm7
    5516:	f2 0f 10 84 24 20 01 	movsd  0x120(%rsp),%xmm0
    551d:	00 00 
    551f:	f2 0f 59 d4          	mulsd  %xmm4,%xmm2
    5523:	f2 0f 59 c6          	mulsd  %xmm6,%xmm0
    5527:	f2 0f 59 a4 24 e0 00 	mulsd  0xe0(%rsp),%xmm4
    552e:	00 00 
    5530:	66 0f 28 da          	movapd %xmm2,%xmm3
    5534:	f2 0f 10 54 24 60    	movsd  0x60(%rsp),%xmm2
    553a:	f2 0f 58 f8          	addsd  %xmm0,%xmm7
    553e:	f2 0f 10 84 24 00 01 	movsd  0x100(%rsp),%xmm0
    5545:	00 00 
    5547:	66 0f 28 cc          	movapd %xmm4,%xmm1
    554b:	66 0f 28 e2          	movapd %xmm2,%xmm4
    554f:	f2 0f 59 c5          	mulsd  %xmm5,%xmm0
    5553:	f2 0f 59 ac 24 f8 00 	mulsd  0xf8(%rsp),%xmm5
    555a:	00 00 
    555c:	f2 0f 59 d7          	mulsd  %xmm7,%xmm2
    5560:	f2 0f 58 d8          	addsd  %xmm0,%xmm3
    5564:	f2 0f 10 84 24 18 01 	movsd  0x118(%rsp),%xmm0
    556b:	00 00 
    556d:	f2 0f 58 cd          	addsd  %xmm5,%xmm1
    5571:	f2 0f 10 6c 24 38    	movsd  0x38(%rsp),%xmm5
    5577:	f2 0f 59 c6          	mulsd  %xmm6,%xmm0
    557b:	f2 0f 59 b4 24 10 01 	mulsd  0x110(%rsp),%xmm6
    5582:	00 00 
    5584:	f2 0f 58 d8          	addsd  %xmm0,%xmm3
    5588:	f2 0f 58 ce          	addsd  %xmm6,%xmm1
    558c:	f2 0f 10 74 24 70    	movsd  0x70(%rsp),%xmm6
    5592:	f2 0f 59 fe          	mulsd  %xmm6,%xmm7
    5596:	66 0f 28 c6          	movapd %xmm6,%xmm0
    559a:	f2 0f 59 e1          	mulsd  %xmm1,%xmm4
    559e:	f2 0f 59 c3          	mulsd  %xmm3,%xmm0
    55a2:	f2 0f 59 dd          	mulsd  %xmm5,%xmm3
    55a6:	f2 0f 5c c4          	subsd  %xmm4,%xmm0
    55aa:	f2 0f 59 44 24 40    	mulsd  0x40(%rsp),%xmm0
    55b0:	f2 41 0f 10 67 10    	movsd  0x10(%r15),%xmm4
    55b6:	f2 0f 58 e0          	addsd  %xmm0,%xmm4
    55ba:	66 0f 28 c2          	movapd %xmm2,%xmm0
    55be:	f2 0f 5c c3          	subsd  %xmm3,%xmm0
    55c2:	66 0f 28 dd          	movapd %xmm5,%xmm3
    55c6:	f2 0f 59 d9          	mulsd  %xmm1,%xmm3
    55ca:	66 0f 28 cf          	movapd %xmm7,%xmm1
    55ce:	66 41 0f 10 3f       	movupd (%r15),%xmm7
    55d3:	f2 41 0f 11 67 10    	movsd  %xmm4,0x10(%r15)
    55d9:	f2 0f 5c cb          	subsd  %xmm3,%xmm1
    55dd:	66 0f 57 0d 3b 4f 00 	xorpd  0x4f3b(%rip),%xmm1        # a520 <_IO_stdin_used+0x520>
    55e4:	00 
    55e5:	66 0f 14 c1          	unpcklpd %xmm1,%xmm0
    55e9:	66 0f 59 44 24 50    	mulpd  0x50(%rsp),%xmm0
    55ef:	66 0f 58 c7          	addpd  %xmm7,%xmm0
    55f3:	41 0f 11 07          	movups %xmm0,(%r15)
    55f7:	e9 3c fa ff ff       	jmp    5038 <_ZL7torqueldddddddjjPPPedddd+0xd38>
    55fc:	d9 cb                	fxch   %st(3)
    55fe:	db bc 24 c0 00 00 00 	fstpt  0xc0(%rsp)
    5605:	d9 cb                	fxch   %st(3)
    5607:	48 8d bc 24 e0 00 00 	lea    0xe0(%rsp),%rdi
    560e:	00 
    560f:	48 89 b4 24 b8 00 00 	mov    %rsi,0xb8(%rsp)
    5616:	00 
    5617:	dd 9c 24 d0 00 00 00 	fstpl  0xd0(%rsp)
    561e:	d9 c1                	fld    %st(1)
    5620:	dc 84 24 d0 01 00 00 	faddl  0x1d0(%rsp)
    5627:	48 89 8c 24 b0 00 00 	mov    %rcx,0xb0(%rsp)
    562e:	00 
    562f:	44 89 84 24 ac 00 00 	mov    %r8d,0xac(%rsp)
    5636:	00 
    5637:	89 94 24 90 00 00 00 	mov    %edx,0x90(%rsp)
    563e:	f2 44 0f 11 84 24 80 	movsd  %xmm8,0x80(%rsp)
    5645:	00 00 00 
    5648:	dd 5c 24 38          	fstpl  0x38(%rsp)
    564c:	f2 0f 10 5c 24 38    	movsd  0x38(%rsp),%xmm3
    5652:	d9 c2                	fld    %st(2)
    5654:	dc 84 24 c8 01 00 00 	faddl  0x1c8(%rsp)
    565b:	dd 5c 24 38          	fstpl  0x38(%rsp)
    565f:	f2 0f 10 54 24 38    	movsd  0x38(%rsp),%xmm2
    5665:	d9 c0                	fld    %st(0)
    5667:	dc 84 24 c0 01 00 00 	faddl  0x1c0(%rsp)
    566e:	f2 0f 11 54 24 60    	movsd  %xmm2,0x60(%rsp)
    5674:	dd 5c 24 38          	fstpl  0x38(%rsp)
    5678:	d9 c9                	fxch   %st(1)
    567a:	f2 0f 10 4c 24 38    	movsd  0x38(%rsp),%xmm1
    5680:	dd 5c 24 38          	fstpl  0x38(%rsp)
    5684:	d9 c9                	fxch   %st(1)
    5686:	f2 0f 10 6c 24 38    	movsd  0x38(%rsp),%xmm5
    568c:	dd 5c 24 38          	fstpl  0x38(%rsp)
    5690:	f2 0f 10 74 24 38    	movsd  0x38(%rsp),%xmm6
    5696:	dd 5c 24 38          	fstpl  0x38(%rsp)
    569a:	f2 0f 10 64 24 38    	movsd  0x38(%rsp),%xmm4
    56a0:	f2 41 0f 5e e8       	divsd  %xmm8,%xmm5
    56a5:	db 68 30             	fldt   0x30(%rax)
    56a8:	dd 5c 24 38          	fstpl  0x38(%rsp)
    56ac:	f2 41 0f 5e e0       	divsd  %xmm8,%xmm4
    56b1:	f2 0f 11 ac 24 a0 00 	movsd  %xmm5,0xa0(%rsp)
    56b8:	00 00 
    56ba:	f2 41 0f 5e f0       	divsd  %xmm8,%xmm6
    56bf:	f2 0f 11 64 24 78    	movsd  %xmm4,0x78(%rsp)
    56c5:	f2 0f 10 64 24 38    	movsd  0x38(%rsp),%xmm4
    56cb:	f2 0f 11 5c 24 38    	movsd  %xmm3,0x38(%rsp)
    56d1:	66 0f 28 fc          	movapd %xmm4,%xmm7
    56d5:	f2 0f 11 64 24 40    	movsd  %xmm4,0x40(%rsp)
    56db:	66 0f 14 ff          	unpcklpd %xmm7,%xmm7
    56df:	0f 29 7c 24 50       	movaps %xmm7,0x50(%rsp)
    56e4:	f2 0f 11 b4 24 88 00 	movsd  %xmm6,0x88(%rsp)
    56eb:	00 00 
    56ed:	f2 0f 11 4c 24 70    	movsd  %xmm1,0x70(%rsp)
    56f3:	f2 0f 10 44 24 30    	movsd  0x30(%rsp),%xmm0
    56f9:	e8 02 29 00 00       	call   8000 <_Z6stressdddd>
    56fe:	f2 0f 10 64 24 78    	movsd  0x78(%rsp),%xmm4
    5704:	f2 0f 10 94 24 f0 00 	movsd  0xf0(%rsp),%xmm2
    570b:	00 00 
    570d:	f2 0f 10 b4 24 88 00 	movsd  0x88(%rsp),%xmm6
    5714:	00 00 
    5716:	dd 84 24 d0 00 00 00 	fldl   0xd0(%rsp)
    571d:	db ac 24 c0 00 00 00 	fldt   0xc0(%rsp)
    5724:	f2 0f 10 84 24 08 01 	movsd  0x108(%rsp),%xmm0
    572b:	00 00 
    572d:	f2 0f 59 d4          	mulsd  %xmm4,%xmm2
    5731:	f2 0f 10 ac 24 a0 00 	movsd  0xa0(%rsp),%xmm5
    5738:	00 00 
    573a:	f2 0f 59 c6          	mulsd  %xmm6,%xmm0
    573e:	48 8b b4 24 b8 00 00 	mov    0xb8(%rsp),%rsi
    5745:	00 
    5746:	48 8b 8c 24 b0 00 00 	mov    0xb0(%rsp),%rcx
    574d:	00 
    574e:	44 8b 84 24 ac 00 00 	mov    0xac(%rsp),%r8d
    5755:	00 
    5756:	8b 94 24 90 00 00 00 	mov    0x90(%rsp),%edx
    575d:	f2 44 0f 10 84 24 80 	movsd  0x80(%rsp),%xmm8
    5764:	00 00 00 
    5767:	66 0f 28 fa          	movapd %xmm2,%xmm7
    576b:	f2 0f 10 94 24 e8 00 	movsd  0xe8(%rsp),%xmm2
    5772:	00 00 
    5774:	f2 0f 58 f8          	addsd  %xmm0,%xmm7
    5778:	f2 0f 10 84 24 20 01 	movsd  0x120(%rsp),%xmm0
    577f:	00 00 
    5781:	f2 0f 59 d4          	mulsd  %xmm4,%xmm2
    5785:	f2 0f 59 c5          	mulsd  %xmm5,%xmm0
    5789:	f2 0f 59 a4 24 e0 00 	mulsd  0xe0(%rsp),%xmm4
    5790:	00 00 
    5792:	66 0f 28 da          	movapd %xmm2,%xmm3
    5796:	f2 0f 10 54 24 60    	movsd  0x60(%rsp),%xmm2
    579c:	f2 0f 58 f8          	addsd  %xmm0,%xmm7
    57a0:	f2 0f 10 84 24 00 01 	movsd  0x100(%rsp),%xmm0
    57a7:	00 00 
    57a9:	66 0f 28 cc          	movapd %xmm4,%xmm1
    57ad:	66 0f 28 e2          	movapd %xmm2,%xmm4
    57b1:	f2 0f 59 c6          	mulsd  %xmm6,%xmm0
    57b5:	f2 0f 59 b4 24 f8 00 	mulsd  0xf8(%rsp),%xmm6
    57bc:	00 00 
    57be:	f2 0f 59 d7          	mulsd  %xmm7,%xmm2
    57c2:	f2 0f 58 d8          	addsd  %xmm0,%xmm3
    57c6:	f2 0f 10 84 24 18 01 	movsd  0x118(%rsp),%xmm0
    57cd:	00 00 
    57cf:	f2 0f 58 ce          	addsd  %xmm6,%xmm1
    57d3:	f2 0f 10 74 24 70    	movsd  0x70(%rsp),%xmm6
    57d9:	f2 0f 59 c5          	mulsd  %xmm5,%xmm0
    57dd:	f2 0f 59 ac 24 10 01 	mulsd  0x110(%rsp),%xmm5
    57e4:	00 00 
    57e6:	f2 0f 59 fe          	mulsd  %xmm6,%xmm7
    57ea:	f2 0f 58 d8          	addsd  %xmm0,%xmm3
    57ee:	66 0f 28 c6          	movapd %xmm6,%xmm0
    57f2:	66 41 0f 10 37       	movupd (%r15),%xmm6
    57f7:	f2 0f 58 cd          	addsd  %xmm5,%xmm1
    57fb:	f2 0f 10 6c 24 38    	movsd  0x38(%rsp),%xmm5
    5801:	f2 0f 59 c3          	mulsd  %xmm3,%xmm0
    5805:	f2 0f 59 e1          	mulsd  %xmm1,%xmm4
    5809:	f2 0f 59 dd          	mulsd  %xmm5,%xmm3
    580d:	f2 0f 5c c4          	subsd  %xmm4,%xmm0
    5811:	f2 0f 59 44 24 40    	mulsd  0x40(%rsp),%xmm0
    5817:	f2 41 0f 10 67 10    	movsd  0x10(%r15),%xmm4
    581d:	f2 0f 58 e0          	addsd  %xmm0,%xmm4
    5821:	66 0f 28 c2          	movapd %xmm2,%xmm0
    5825:	f2 0f 5c c3          	subsd  %xmm3,%xmm0
    5829:	66 0f 28 dd          	movapd %xmm5,%xmm3
    582d:	f2 0f 59 d9          	mulsd  %xmm1,%xmm3
    5831:	66 0f 28 cf          	movapd %xmm7,%xmm1
    5835:	f2 41 0f 11 67 10    	movsd  %xmm4,0x10(%r15)
    583b:	f2 0f 5c cb          	subsd  %xmm3,%xmm1
    583f:	66 0f 57 0d d9 4c 00 	xorpd  0x4cd9(%rip),%xmm1        # a520 <_IO_stdin_used+0x520>
    5846:	00 
    5847:	66 0f 14 c1          	unpcklpd %xmm1,%xmm0
    584b:	66 0f 59 44 24 50    	mulpd  0x50(%rsp),%xmm0
    5851:	66 0f 58 c6          	addpd  %xmm6,%xmm0
    5855:	41 0f 11 07          	movups %xmm0,(%r15)
    5859:	e9 72 f8 ff ff       	jmp    50d0 <_ZL7torqueldddddddjjPPPedddd+0xdd0>
    585e:	dd 05 64 4c 00 00    	fldl   0x4c64(%rip)        # a4c8 <_IO_stdin_used+0x4c8>
    5864:	e9 2e ee ff ff       	jmp    4697 <_ZL7torqueldddddddjjPPPedddd+0x397>
    5869:	d9 c9                	fxch   %st(1)
    586b:	f2 0f 10 0d 65 4c 00 	movsd  0x4c65(%rip),%xmm1        # a4d8 <_IO_stdin_used+0x4d8>
    5872:	00 
    5873:	eb 0c                	jmp    5881 <_ZL7torqueldddddddjjPPPedddd+0x1581>
    5875:	dd d8                	fstp   %st(0)
    5877:	d9 c9                	fxch   %st(1)
    5879:	eb 06                	jmp    5881 <_ZL7torqueldddddddjjPPPedddd+0x1581>
    587b:	d9 c9                	fxch   %st(1)
    587d:	eb 02                	jmp    5881 <_ZL7torqueldddddddjjPPPedddd+0x1581>
    587f:	d9 c9                	fxch   %st(1)
    5881:	f2 0f 11 4c 24 38    	movsd  %xmm1,0x38(%rsp)
    5887:	dc 44 24 38          	faddl  0x38(%rsp)
    588b:	e9 38 ee ff ff       	jmp    46c8 <_ZL7torqueldddddddjjPPPedddd+0x3c8>
    5890:	de c2                	faddp  %st,%st(2)
    5892:	d9 c9                	fxch   %st(1)
    5894:	db bc 24 40 01 00 00 	fstpt  0x140(%rsp)
    589b:	dd 54 24 38          	fstl   0x38(%rsp)
    589f:	f2 0f 10 7c 24 38    	movsd  0x38(%rsp),%xmm7
    58a5:	66 0f 2e f8          	ucomisd %xmm0,%xmm7
    58a9:	0f 8a 62 f4 ff ff    	jp     4d11 <_ZL7torqueldddddddjjPPPedddd+0xa11>
    58af:	0f 85 5c f4 ff ff    	jne    4d11 <_ZL7torqueldddddddjjPPPedddd+0xa11>
    58b5:	dd 05 0d 4c 00 00    	fldl   0x4c0d(%rip)        # a4c8 <_IO_stdin_used+0x4c8>
    58bb:	e9 43 ee ff ff       	jmp    4703 <_ZL7torqueldddddddjjPPPedddd+0x403>
    58c0:	f2 0f 10 0d 10 4c 00 	movsd  0x4c10(%rip),%xmm1        # a4d8 <_IO_stdin_used+0x4d8>
    58c7:	00 
    58c8:	db 6c 24 60          	fldt   0x60(%rsp)
    58cc:	66 0f 2f 44 24 18    	comisd 0x18(%rsp),%xmm0
    58d2:	f2 0f 11 4c 24 38    	movsd  %xmm1,0x38(%rsp)
    58d8:	dc 44 24 38          	faddl  0x38(%rsp)
    58dc:	db bc 24 50 01 00 00 	fstpt  0x150(%rsp)
    58e3:	0f 87 08 f9 ff ff    	ja     51f1 <_ZL7torqueldddddddjjPPPedddd+0xef1>
    58e9:	f2 0f 10 74 24 18    	movsd  0x18(%rsp),%xmm6
    58ef:	66 0f ef c0          	pxor   %xmm0,%xmm0
    58f3:	66 0f 2f f0          	comisd %xmm0,%xmm6
    58f7:	0f 87 f8 f8 ff ff    	ja     51f5 <_ZL7torqueldddddddjjPPPedddd+0xef5>
    58fd:	dd d9                	fstp   %st(1)
    58ff:	eb 02                	jmp    5903 <_ZL7torqueldddddddjjPPPedddd+0x1603>
    5901:	dd d9                	fstp   %st(1)
    5903:	f2 0f 11 4c 24 38    	movsd  %xmm1,0x38(%rsp)
    5909:	dd 44 24 38          	fldl   0x38(%rsp)
    590d:	d9 c9                	fxch   %st(1)
    590f:	e9 12 ee ff ff       	jmp    4726 <_ZL7torqueldddddddjjPPPedddd+0x426>
    5914:	0f 1f 40 00          	nopl   0x0(%rax)
    5918:	f2 0f 10 0d b8 4b 00 	movsd  0x4bb8(%rip),%xmm1        # a4d8 <_IO_stdin_used+0x4d8>
    591f:	00 
    5920:	66 0f 2f 44 24 18    	comisd 0x18(%rsp),%xmm0
    5926:	f2 0f 11 4c 24 38    	movsd  %xmm1,0x38(%rsp)
    592c:	dd 44 24 38          	fldl   0x38(%rsp)
    5930:	db bc 24 30 01 00 00 	fstpt  0x130(%rsp)
    5937:	0f 87 42 ff ff ff    	ja     587f <_ZL7torqueldddddddjjPPPedddd+0x157f>
    593d:	f2 0f 10 74 24 18    	movsd  0x18(%rsp),%xmm6
    5943:	66 0f 2f f0          	comisd %xmm0,%xmm6
    5947:	0f 87 0f f9 ff ff    	ja     525c <_ZL7torqueldddddddjjPPPedddd+0xf5c>
    594d:	dd d9                	fstp   %st(1)
    594f:	f2 0f 11 4c 24 38    	movsd  %xmm1,0x38(%rsp)
    5955:	dd 44 24 38          	fldl   0x38(%rsp)
    5959:	db bc 24 40 01 00 00 	fstpt  0x140(%rsp)
    5960:	dd 54 24 38          	fstl   0x38(%rsp)
    5964:	f2 0f 10 7c 24 38    	movsd  0x38(%rsp),%xmm7
    596a:	66 0f 2f f8          	comisd %xmm0,%xmm7
    596e:	7a 0c                	jp     597c <_ZL7torqueldddddddjjPPPedddd+0x167c>
    5970:	0f 84 dd 01 00 00    	je     5b53 <_ZL7torqueldddddddjjPPPedddd+0x1853>
    5976:	0f 87 68 01 00 00    	ja     5ae4 <_ZL7torqueldddddddjjPPPedddd+0x17e4>
    597c:	f2 0f 11 4c 24 38    	movsd  %xmm1,0x38(%rsp)
    5982:	dd 44 24 38          	fldl   0x38(%rsp)
    5986:	db bc 24 50 01 00 00 	fstpt  0x150(%rsp)
    598d:	e9 71 ff ff ff       	jmp    5903 <_ZL7torqueldddddddjjPPPedddd+0x1603>
    5992:	66 0f 1f 44 00 00    	nopw   0x0(%rax,%rax,1)
    5998:	f2 0f 10 0d 38 4b 00 	movsd  0x4b38(%rip),%xmm1        # a4d8 <_IO_stdin_used+0x4d8>
    599f:	00 
    59a0:	66 0f 2f 44 24 18    	comisd 0x18(%rsp),%xmm0
    59a6:	f2 0f 11 4c 24 38    	movsd  %xmm1,0x38(%rsp)
    59ac:	dd 44 24 38          	fldl   0x38(%rsp)
    59b0:	db bc 24 50 01 00 00 	fstpt  0x150(%rsp)
    59b7:	0f 86 00 f8 ff ff    	jbe    51bd <_ZL7torqueldddddddjjPPPedddd+0xebd>
    59bd:	d9 c9                	fxch   %st(1)
    59bf:	e9 37 f8 ff ff       	jmp    51fb <_ZL7torqueldddddddjjPPPedddd+0xefb>
    59c4:	dd 54 24 38          	fstl   0x38(%rsp)
    59c8:	f2 0f 10 74 24 38    	movsd  0x38(%rsp),%xmm6
    59ce:	f2 0f 10 0d 1a 4b 00 	movsd  0x4b1a(%rip),%xmm1        # a4f0 <_IO_stdin_used+0x4f0>
    59d5:	00 
    59d6:	66 0f 2f f0          	comisd %xmm0,%xmm6
    59da:	0f 87 19 f8 ff ff    	ja     51f9 <_ZL7torqueldddddddjjPPPedddd+0xef9>
    59e0:	d9 c9                	fxch   %st(1)
    59e2:	f2 0f 10 0d ee 4a 00 	movsd  0x4aee(%rip),%xmm1        # a4d8 <_IO_stdin_used+0x4d8>
    59e9:	00 
    59ea:	e9 0c f8 ff ff       	jmp    51fb <_ZL7torqueldddddddjjPPPedddd+0xefb>
    59ef:	90                   	nop
    59f0:	f2 0f 10 7c 24 28    	movsd  0x28(%rsp),%xmm7
    59f6:	66 0f 2f f8          	comisd %xmm0,%xmm7
    59fa:	0f 86 69 fe ff ff    	jbe    5869 <_ZL7torqueldddddddjjPPPedddd+0x1569>
    5a00:	d9 c9                	fxch   %st(1)
    5a02:	dc 05 e8 4a 00 00    	faddl  0x4ae8(%rip)        # a4f0 <_IO_stdin_used+0x4f0>
    5a08:	e9 e7 f2 ff ff       	jmp    4cf4 <_ZL7torqueldddddddjjPPPedddd+0x9f4>
    5a0d:	dd d9                	fstp   %st(1)
    5a0f:	f2 0f 11 4c 24 38    	movsd  %xmm1,0x38(%rsp)
    5a15:	dd 44 24 38          	fldl   0x38(%rsp)
    5a19:	db bc 24 40 01 00 00 	fstpt  0x140(%rsp)
    5a20:	dd 54 24 38          	fstl   0x38(%rsp)
    5a24:	f2 0f 10 74 24 38    	movsd  0x38(%rsp),%xmm6
    5a2a:	66 0f 2e f0          	ucomisd %xmm0,%xmm6
    5a2e:	0f 8a dd f2 ff ff    	jp     4d11 <_ZL7torqueldddddddjjPPPedddd+0xa11>
    5a34:	0f 85 d7 f2 ff ff    	jne    4d11 <_ZL7torqueldddddddjjPPPedddd+0xa11>
    5a3a:	dd 05 88 4a 00 00    	fldl   0x4a88(%rip)        # a4c8 <_IO_stdin_used+0x4c8>
    5a40:	db bc 24 50 01 00 00 	fstpt  0x150(%rsp)
    5a47:	e9 e3 f6 ff ff       	jmp    512f <_ZL7torqueldddddddjjPPPedddd+0xe2f>
    5a4c:	f2 0f 10 0d 84 4a 00 	movsd  0x4a84(%rip),%xmm1        # a4d8 <_IO_stdin_used+0x4d8>
    5a53:	00 
    5a54:	f2 0f 11 4c 24 38    	movsd  %xmm1,0x38(%rsp)
    5a5a:	dd 44 24 38          	fldl   0x38(%rsp)
    5a5e:	db bc 24 40 01 00 00 	fstpt  0x140(%rsp)
    5a65:	dd 54 24 38          	fstl   0x38(%rsp)
    5a69:	f2 0f 10 7c 24 38    	movsd  0x38(%rsp),%xmm7
    5a6f:	66 0f 2e f8          	ucomisd %xmm0,%xmm7
    5a73:	7a 06                	jp     5a7b <_ZL7torqueldddddddjjPPPedddd+0x177b>
    5a75:	0f 84 a7 f6 ff ff    	je     5122 <_ZL7torqueldddddddjjPPPedddd+0xe22>
    5a7b:	dd 54 24 38          	fstl   0x38(%rsp)
    5a7f:	f2 0f 10 44 24 08    	movsd  0x8(%rsp),%xmm0
    5a85:	f2 0f 5e 44 24 38    	divsd  0x38(%rsp),%xmm0
    5a8b:	dd 5c 24 70          	fstpl  0x70(%rsp)
    5a8f:	44 89 4c 24 40       	mov    %r9d,0x40(%rsp)
    5a94:	f2 44 0f 11 44 24 50 	movsd  %xmm8,0x50(%rsp)
    5a9b:	f2 0f 11 4c 24 78    	movsd  %xmm1,0x78(%rsp)
    5aa1:	e8 6a c9 ff ff       	call   2410 <atan@plt>
    5aa6:	44 8b 4c 24 40       	mov    0x40(%rsp),%r9d
    5aab:	f2 44 0f 10 44 24 50 	movsd  0x50(%rsp),%xmm8
    5ab2:	f2 0f 11 44 24 38    	movsd  %xmm0,0x38(%rsp)
    5ab8:	dd 44 24 38          	fldl   0x38(%rsp)
    5abc:	66 0f ef c0          	pxor   %xmm0,%xmm0
    5ac0:	d9 c0                	fld    %st(0)
    5ac2:	db 7c 24 60          	fstpt  0x60(%rsp)
    5ac6:	dd 44 24 70          	fldl   0x70(%rsp)
    5aca:	dd 54 24 38          	fstl   0x38(%rsp)
    5ace:	66 0f 2f 44 24 38    	comisd 0x38(%rsp),%xmm0
    5ad4:	77 2e                	ja     5b04 <_ZL7torqueldddddddjjPPPedddd+0x1804>
    5ad6:	d9 c9                	fxch   %st(1)
    5ad8:	db bc 24 50 01 00 00 	fstpt  0x150(%rsp)
    5adf:	e9 f0 f2 ff ff       	jmp    4dd4 <_ZL7torqueldddddddjjPPPedddd+0xad4>
    5ae4:	d9 ee                	fldz
    5ae6:	db bc 24 50 01 00 00 	fstpt  0x150(%rsp)
    5aed:	e9 fa f2 ff ff       	jmp    4dec <_ZL7torqueldddddddjjPPPedddd+0xaec>
    5af2:	f2 0f 10 0d de 49 00 	movsd  0x49de(%rip),%xmm1        # a4d8 <_IO_stdin_used+0x4d8>
    5af9:	00 
    5afa:	e9 04 fe ff ff       	jmp    5903 <_ZL7torqueldddddddjjPPPedddd+0x1603>
    5aff:	e8 6c c9 ff ff       	call   2470 <__stack_chk_fail@plt>
    5b04:	dd d8                	fstp   %st(0)
    5b06:	dd d8                	fstp   %st(0)
    5b08:	f2 0f 10 44 24 18    	movsd  0x18(%rsp),%xmm0
    5b0e:	f2 0f 5e 44 24 38    	divsd  0x38(%rsp),%xmm0
    5b14:	e8 f7 c8 ff ff       	call   2410 <atan@plt>
    5b19:	f2 0f 10 4c 24 78    	movsd  0x78(%rsp),%xmm1
    5b1f:	44 8b 4c 24 40       	mov    0x40(%rsp),%r9d
    5b24:	f2 0f 11 44 24 38    	movsd  %xmm0,0x38(%rsp)
    5b2a:	dd 44 24 38          	fldl   0x38(%rsp)
    5b2e:	db 6c 24 60          	fldt   0x60(%rsp)
    5b32:	f2 0f 11 4c 24 38    	movsd  %xmm1,0x38(%rsp)
    5b38:	dc 44 24 38          	faddl  0x38(%rsp)
    5b3c:	f2 44 0f 10 44 24 50 	movsd  0x50(%rsp),%xmm8
    5b43:	db bc 24 50 01 00 00 	fstpt  0x150(%rsp)
    5b4a:	dd 44 24 70          	fldl   0x70(%rsp)
    5b4e:	e9 96 fd ff ff       	jmp    58e9 <_ZL7torqueldddddddjjPPPedddd+0x15e9>
    5b53:	d9 ee                	fldz
    5b55:	db bc 24 50 01 00 00 	fstpt  0x150(%rsp)
    5b5c:	e9 ce f5 ff ff       	jmp    512f <_ZL7torqueldddddddjjPPPedddd+0xe2f>
    5b61:	66 66 2e 0f 1f 84 00 	data16 cs nopw 0x0(%rax,%rax,1)
    5b68:	00 00 00 00 
    5b6c:	0f 1f 40 00          	nopl   0x0(%rax)

0000000000005b70 <_Z7angleofdd>:
    5b70:	f3 0f 1e fa          	endbr64
    5b74:	66 0f 28 d0          	movapd %xmm0,%xmm2
    5b78:	66 0f ef c0          	pxor   %xmm0,%xmm0
    5b7c:	66 0f 2e d0          	ucomisd %xmm0,%xmm2
    5b80:	7a 26                	jp     5ba8 <_Z7angleofdd+0x38>
    5b82:	75 24                	jne    5ba8 <_Z7angleofdd+0x38>
    5b84:	66 0f 2f c8          	comisd %xmm0,%xmm1
    5b88:	76 0e                	jbe    5b98 <_Z7angleofdd+0x28>
    5b8a:	dd 05 40 49 00 00    	fldl   0x4940(%rip)        # a4d0 <_IO_stdin_used+0x4d0>
    5b90:	c3                   	ret
    5b91:	0f 1f 80 00 00 00 00 	nopl   0x0(%rax)
    5b98:	66 0f 2f c1          	comisd %xmm1,%xmm0
    5b9c:	0f 87 96 00 00 00    	ja     5c38 <_Z7angleofdd+0xc8>
    5ba2:	d9 ee                	fldz
    5ba4:	c3                   	ret
    5ba5:	0f 1f 00             	nopl   (%rax)
    5ba8:	66 0f 28 c1          	movapd %xmm1,%xmm0
    5bac:	48 83 ec 28          	sub    $0x28,%rsp
    5bb0:	f2 0f 5e c2          	divsd  %xmm2,%xmm0
    5bb4:	f2 0f 11 4c 24 18    	movsd  %xmm1,0x18(%rsp)
    5bba:	f2 0f 11 54 24 10    	movsd  %xmm2,0x10(%rsp)
    5bc0:	e8 4b c8 ff ff       	call   2410 <atan@plt>
    5bc5:	f2 0f 10 4c 24 18    	movsd  0x18(%rsp),%xmm1
    5bcb:	f2 0f 10 54 24 10    	movsd  0x10(%rsp),%xmm2
    5bd1:	f2 0f 11 44 24 08    	movsd  %xmm0,0x8(%rsp)
    5bd7:	66 0f ef c0          	pxor   %xmm0,%xmm0
    5bdb:	dd 44 24 08          	fldl   0x8(%rsp)
    5bdf:	66 0f 2f c1          	comisd %xmm1,%xmm0
    5be3:	77 1b                	ja     5c00 <_Z7angleofdd+0x90>
    5be5:	66 0f 2f c8          	comisd %xmm0,%xmm1
    5be9:	76 2d                	jbe    5c18 <_Z7angleofdd+0xa8>
    5beb:	66 0f 2f c2          	comisd %xmm2,%xmm0
    5bef:	77 37                	ja     5c28 <_Z7angleofdd+0xb8>
    5bf1:	48 83 c4 28          	add    $0x28,%rsp
    5bf5:	c3                   	ret
    5bf6:	66 2e 0f 1f 84 00 00 	cs nopw 0x0(%rax,%rax,1)
    5bfd:	00 00 00 
    5c00:	66 0f 2f d0          	comisd %xmm0,%xmm2
    5c04:	76 22                	jbe    5c28 <_Z7angleofdd+0xb8>
    5c06:	dc 05 e4 48 00 00    	faddl  0x48e4(%rip)        # a4f0 <_IO_stdin_used+0x4f0>
    5c0c:	48 83 c4 28          	add    $0x28,%rsp
    5c10:	c3                   	ret
    5c11:	0f 1f 80 00 00 00 00 	nopl   0x0(%rax)
    5c18:	dd d8                	fstp   %st(0)
    5c1a:	66 0f 2f d0          	comisd %xmm0,%xmm2
    5c1e:	76 20                	jbe    5c40 <_Z7angleofdd+0xd0>
    5c20:	d9 ee                	fldz
    5c22:	eb cd                	jmp    5bf1 <_Z7angleofdd+0x81>
    5c24:	0f 1f 40 00          	nopl   0x0(%rax)
    5c28:	dc 05 aa 48 00 00    	faddl  0x48aa(%rip)        # a4d8 <_IO_stdin_used+0x4d8>
    5c2e:	48 83 c4 28          	add    $0x28,%rsp
    5c32:	c3                   	ret
    5c33:	0f 1f 44 00 00       	nopl   0x0(%rax,%rax,1)
    5c38:	dd 05 8a 48 00 00    	fldl   0x488a(%rip)        # a4c8 <_IO_stdin_used+0x4c8>
    5c3e:	c3                   	ret
    5c3f:	90                   	nop
    5c40:	dd 05 92 48 00 00    	fldl   0x4892(%rip)        # a4d8 <_IO_stdin_used+0x4d8>
    5c46:	eb a9                	jmp    5bf1 <_Z7angleofdd+0x81>
    5c48:	0f 1f 84 00 00 00 00 	nopl   0x0(%rax,%rax,1)
    5c4f:	00 

0000000000005c50 <_Z18compute_spheremeshdjj>:
    5c50:	f3 0f 1e fa          	endbr64
    5c54:	41 57                	push   %r15
    5c56:	ba 04 00 00 00       	mov    $0x4,%edx
    5c5b:	41 89 f7             	mov    %esi,%r15d
    5c5e:	41 56                	push   %r14
    5c60:	41 55                	push   %r13
    5c62:	41 54                	push   %r12
    5c64:	55                   	push   %rbp
    5c65:	53                   	push   %rbx
    5c66:	89 fb                	mov    %edi,%ebx
    5c68:	89 df                	mov    %ebx,%edi
    5c6a:	48 81 ec 08 01 00 00 	sub    $0x108,%rsp
    5c71:	f2 0f 11 04 24       	movsd  %xmm0,(%rsp)
    5c76:	e8 f5 1c 00 00       	call   7970 <_Z10allocate3djjj>
    5c7b:	66 0f ef c9          	pxor   %xmm1,%xmm1
    5c7f:	f2 0f 10 05 51 48 00 	movsd  0x4851(%rip),%xmm0        # a4d8 <_IO_stdin_used+0x4d8>
    5c86:	00 
    5c87:	48 89 c5             	mov    %rax,%rbp
    5c8a:	8d 04 1b             	lea    (%rbx,%rbx,1),%eax
    5c8d:	f2 48 0f 2a c8       	cvtsi2sd %rax,%xmm1
    5c92:	66 0f 28 d8          	movapd %xmm0,%xmm3
    5c96:	f2 0f 5e d9          	divsd  %xmm1,%xmm3
    5c9a:	f2 0f 11 5c 24 10    	movsd  %xmm3,0x10(%rsp)
    5ca0:	dd 44 24 10          	fldl   0x10(%rsp)
    5ca4:	85 db                	test   %ebx,%ebx
    5ca6:	0f 84 69 02 00 00    	je     5f15 <_Z18compute_spheremeshdjj+0x2c5>
    5cac:	66 0f ef c9          	pxor   %xmm1,%xmm1
    5cb0:	f2 0f 10 15 18 48 00 	movsd  0x4818(%rip),%xmm2        # a4d0 <_IO_stdin_used+0x4d0>
    5cb7:	00 
    5cb8:	f2 0f 10 3c 24       	movsd  (%rsp),%xmm7
    5cbd:	44 89 f8             	mov    %r15d,%eax
    5cc0:	f2 48 0f 2a cb       	cvtsi2sd %rbx,%xmm1
    5cc5:	f2 0f 10 1d 23 48 00 	movsd  0x4823(%rip),%xmm3        # a4f0 <_IO_stdin_used+0x4f0>
    5ccc:	00 
    5ccd:	66 0f 28 f7          	movapd %xmm7,%xmm6
    5cd1:	f2 0f 59 f7          	mulsd  %xmm7,%xmm6
    5cd5:	f2 0f 5e d1          	divsd  %xmm1,%xmm2
    5cd9:	f2 0f 11 74 24 10    	movsd  %xmm6,0x10(%rsp)
    5cdf:	dd 44 24 10          	fldl   0x10(%rsp)
    5ce3:	db 7c 24 70          	fstpt  0x70(%rsp)
    5ce7:	f2 0f 5e c1          	divsd  %xmm1,%xmm0
    5ceb:	f2 0f 11 54 24 10    	movsd  %xmm2,0x10(%rsp)
    5cf1:	66 0f ef d2          	pxor   %xmm2,%xmm2
    5cf5:	dd 44 24 10          	fldl   0x10(%rsp)
    5cf9:	f2 48 0f 2a d0       	cvtsi2sd %rax,%xmm2
    5cfe:	f2 0f 5e da          	divsd  %xmm2,%xmm3
    5d02:	f2 0f 11 44 24 10    	movsd  %xmm0,0x10(%rsp)
    5d08:	f2 0f 11 9c 24 80 00 	movsd  %xmm3,0x80(%rsp)
    5d0f:	00 00 
    5d11:	dd 84 24 80 00 00 00 	fldl   0x80(%rsp)
    5d18:	dd 44 24 10          	fldl   0x10(%rsp)
    5d1c:	dd 04 24             	fldl   (%rsp)
    5d1f:	45 85 ff             	test   %r15d,%r15d
    5d22:	0f 84 f1 01 00 00    	je     5f19 <_Z18compute_spheremeshdjj+0x2c9>
    5d28:	d9 cb                	fxch   %st(3)
    5d2a:	db 7c 24 50          	fstpt  0x50(%rsp)
    5d2e:	d9 c9                	fxch   %st(1)
    5d30:	48 8d 44 dd 00       	lea    0x0(%rbp,%rbx,8),%rax
    5d35:	45 8d 77 fe          	lea    -0x2(%r15),%r14d
    5d39:	49 89 ed             	mov    %rbp,%r13
    5d3c:	48 89 84 24 88 00 00 	mov    %rax,0x88(%rsp)
    5d43:	00 
    5d44:	4a 8d 04 f5 00 00 00 	lea    0x0(,%r14,8),%rax
    5d4b:	00 
    5d4c:	db bc 24 a0 00 00 00 	fstpt  0xa0(%rsp)
    5d53:	48 89 84 24 c0 00 00 	mov    %rax,0xc0(%rsp)
    5d5a:	00 
    5d5b:	48 8d 84 24 f0 00 00 	lea    0xf0(%rsp),%rax
    5d62:	00 
    5d63:	db bc 24 b0 00 00 00 	fstpt  0xb0(%rsp)
    5d6a:	d9 c9                	fxch   %st(1)
    5d6c:	48 89 84 24 98 00 00 	mov    %rax,0x98(%rsp)
    5d73:	00 
    5d74:	48 8d 84 24 e0 00 00 	lea    0xe0(%rsp),%rax
    5d7b:	00 
    5d7c:	db 7c 24 40          	fstpt  0x40(%rsp)
    5d80:	48 89 84 24 90 00 00 	mov    %rax,0x90(%rsp)
    5d87:	00 
    5d88:	db 7c 24 60          	fstpt  0x60(%rsp)
    5d8c:	48 89 ac 24 c8 00 00 	mov    %rbp,0xc8(%rsp)
    5d93:	00 
    5d94:	0f 1f 40 00          	nopl   0x0(%rax)
    5d98:	ff 74 24 48          	push   0x48(%rsp)
    5d9c:	ff 74 24 48          	push   0x48(%rsp)
    5da0:	48 8b b4 24 a0 00 00 	mov    0xa0(%rsp),%rsi
    5da7:	00 
    5da8:	48 8b bc 24 a8 00 00 	mov    0xa8(%rsp),%rdi
    5daf:	00 
    5db0:	e8 cb c6 ff ff       	call   2480 <sincosl@plt>
    5db5:	db ac 24 f0 00 00 00 	fldt   0xf0(%rsp)
    5dbc:	48 83 ec 10          	sub    $0x10,%rsp
    5dc0:	db ac 24 80 00 00 00 	fldt   0x80(%rsp)
    5dc7:	de c9                	fmulp  %st,%st(1)
    5dc9:	db 7c 24 40          	fstpt  0x40(%rsp)
    5dcd:	db 6c 24 60          	fldt   0x60(%rsp)
    5dd1:	db 6c 24 70          	fldt   0x70(%rsp)
    5dd5:	de e9                	fsubrp %st,%st(1)
    5dd7:	db 3c 24             	fstpt  (%rsp)
    5dda:	e8 e1 c6 ff ff       	call   24c0 <cosl@plt>
    5ddf:	db 7c 24 20          	fstpt  0x20(%rsp)
    5de3:	db 6c 24 60          	fldt   0x60(%rsp)
    5de7:	db 6c 24 70          	fldt   0x70(%rsp)
    5deb:	de c1                	faddp  %st,%st(1)
    5ded:	db 3c 24             	fstpt  (%rsp)
    5df0:	e8 cb c6 ff ff       	call   24c0 <cosl@plt>
    5df5:	db 6c 24 20          	fldt   0x20(%rsp)
    5df9:	49 8b 75 00          	mov    0x0(%r13),%rsi
    5dfd:	66 0f ef c0          	pxor   %xmm0,%xmm0
    5e01:	f2 0f 58 84 24 a0 00 	addsd  0xa0(%rsp),%xmm0
    5e08:	00 00 
    5e0a:	48 8b 06             	mov    (%rsi),%rax
    5e0d:	de e1                	fsubp  %st,%st(1)
    5e0f:	db ac 24 90 00 00 00 	fldt   0x90(%rsp)
    5e16:	de c9                	fmulp  %st,%st(1)
    5e18:	db ac 24 c0 00 00 00 	fldt   0xc0(%rsp)
    5e1f:	de c9                	fmulp  %st,%st(1)
    5e21:	db ac 24 10 01 00 00 	fldt   0x110(%rsp)
    5e28:	db ac 24 80 00 00 00 	fldt   0x80(%rsp)
    5e2f:	de c9                	fmulp  %st,%st(1)
    5e31:	d9 c0                	fld    %st(0)
    5e33:	db 38                	fstpt  (%rax)
    5e35:	d9 ee                	fldz
    5e37:	d8 c9                	fmul   %st(1),%st
    5e39:	db 78 10             	fstpt  0x10(%rax)
    5e3c:	db 6c 24 40          	fldt   0x40(%rsp)
    5e40:	48 83 c4 20          	add    $0x20,%rsp
    5e44:	db 78 20             	fstpt  0x20(%rax)
    5e47:	d9 c9                	fxch   %st(1)
    5e49:	d9 c0                	fld    %st(0)
    5e4b:	db 78 30             	fstpt  0x30(%rax)
    5e4e:	41 83 ff 01          	cmp    $0x1,%r15d
    5e52:	0f 84 88 00 00 00    	je     5ee0 <_Z18compute_spheremeshdjj+0x290>
    5e58:	48 8b 84 24 c0 00 00 	mov    0xc0(%rsp),%rax
    5e5f:	00 
    5e60:	4c 8d 76 08          	lea    0x8(%rsi),%r14
    5e64:	48 8d ac 24 d8 00 00 	lea    0xd8(%rsp),%rbp
    5e6b:	00 
    5e6c:	db 7c 24 30          	fstpt  0x30(%rsp)
    5e70:	48 8d 9c 24 d0 00 00 	lea    0xd0(%rsp),%rbx
    5e77:	00 
    5e78:	4c 8d 64 06 10       	lea    0x10(%rsi,%rax,1),%r12
    5e7d:	0f 1f 00             	nopl   (%rax)
    5e80:	48 89 de             	mov    %rbx,%rsi
    5e83:	48 89 ef             	mov    %rbp,%rdi
    5e86:	db 7c 24 10          	fstpt  0x10(%rsp)
    5e8a:	49 83 c6 08          	add    $0x8,%r14
    5e8e:	f2 0f 11 04 24       	movsd  %xmm0,(%rsp)
    5e93:	e8 08 c5 ff ff       	call   23a0 <sincos@plt>
    5e98:	dd 84 24 d8 00 00 00 	fldl   0xd8(%rsp)
    5e9f:	db 6c 24 10          	fldt   0x10(%rsp)
    5ea3:	49 8b 46 f8          	mov    -0x8(%r14),%rax
    5ea7:	f2 0f 10 04 24       	movsd  (%rsp),%xmm0
    5eac:	f2 0f 58 84 24 80 00 	addsd  0x80(%rsp),%xmm0
    5eb3:	00 00 
    5eb5:	d9 c0                	fld    %st(0)
    5eb7:	dc 8c 24 d0 00 00 00 	fmull  0xd0(%rsp)
    5ebe:	db 38                	fstpt  (%rax)
    5ec0:	dc c9                	fmul   %st,%st(1)
    5ec2:	d9 c9                	fxch   %st(1)
    5ec4:	db 78 10             	fstpt  0x10(%rax)
    5ec7:	db 6c 24 20          	fldt   0x20(%rsp)
    5ecb:	db 78 20             	fstpt  0x20(%rax)
    5ece:	db 6c 24 30          	fldt   0x30(%rsp)
    5ed2:	db 78 30             	fstpt  0x30(%rax)
    5ed5:	4d 39 e6             	cmp    %r12,%r14
    5ed8:	75 a6                	jne    5e80 <_Z18compute_spheremeshdjj+0x230>
    5eda:	dd d8                	fstp   %st(0)
    5edc:	eb 0a                	jmp    5ee8 <_Z18compute_spheremeshdjj+0x298>
    5ede:	66 90                	xchg   %ax,%ax
    5ee0:	dd d8                	fstp   %st(0)
    5ee2:	dd d8                	fstp   %st(0)
    5ee4:	0f 1f 40 00          	nopl   0x0(%rax)
    5ee8:	db 6c 24 40          	fldt   0x40(%rsp)
    5eec:	49 83 c5 08          	add    $0x8,%r13
    5ef0:	db ac 24 b0 00 00 00 	fldt   0xb0(%rsp)
    5ef7:	de c1                	faddp  %st,%st(1)
    5ef9:	db 7c 24 40          	fstpt  0x40(%rsp)
    5efd:	4c 39 ac 24 88 00 00 	cmp    %r13,0x88(%rsp)
    5f04:	00 
    5f05:	0f 85 8d fe ff ff    	jne    5d98 <_Z18compute_spheremeshdjj+0x148>
    5f0b:	48 8b ac 24 c8 00 00 	mov    0xc8(%rsp),%rbp
    5f12:	00 
    5f13:	eb 0e                	jmp    5f23 <_Z18compute_spheremeshdjj+0x2d3>
    5f15:	dd d8                	fstp   %st(0)
    5f17:	eb 0a                	jmp    5f23 <_Z18compute_spheremeshdjj+0x2d3>
    5f19:	dd d8                	fstp   %st(0)
    5f1b:	dd d8                	fstp   %st(0)
    5f1d:	dd d8                	fstp   %st(0)
    5f1f:	dd d8                	fstp   %st(0)
    5f21:	dd d8                	fstp   %st(0)
    5f23:	48 81 c4 08 01 00 00 	add    $0x108,%rsp
    5f2a:	48 89 e8             	mov    %rbp,%rax
    5f2d:	5b                   	pop    %rbx
    5f2e:	5d                   	pop    %rbp
    5f2f:	41 5c                	pop    %r12
    5f31:	41 5d                	pop    %r13
    5f33:	41 5e                	pop    %r14
    5f35:	41 5f                	pop    %r15
    5f37:	c3                   	ret
    5f38:	0f 1f 84 00 00 00 00 	nopl   0x0(%rax,%rax,1)
    5f3f:	00 

0000000000005f40 <_Z13compute_cubesdjPPe>:
    5f40:	f3 0f 1e fa          	endbr64
    5f44:	53                   	push   %rbx
    5f45:	89 fb                	mov    %edi,%ebx
    5f47:	0f af ff             	imul   %edi,%edi
    5f4a:	48 89 f2             	mov    %rsi,%rdx
    5f4d:	be 03 00 00 00       	mov    $0x3,%esi
    5f52:	0f af fb             	imul   %ebx,%edi
    5f55:	48 83 ec 20          	sub    $0x20,%rsp
    5f59:	f2 0f 11 04 24       	movsd  %xmm0,(%rsp)
    5f5e:	c1 e7 03             	shl    $0x3,%edi
    5f61:	e8 aa 19 00 00       	call   7910 <_Z10allocate2djjPPe>
    5f66:	66 0f ef c0          	pxor   %xmm0,%xmm0
    5f6a:	f2 0f 10 0c 24       	movsd  (%rsp),%xmm1
    5f6f:	44 8d 04 1b          	lea    (%rbx,%rbx,1),%r8d
    5f73:	49 89 c1             	mov    %rax,%r9
    5f76:	89 d8                	mov    %ebx,%eax
    5f78:	f2 48 0f 2a c0       	cvtsi2sd %rax,%xmm0
    5f7d:	f2 0f 5e c8          	divsd  %xmm0,%xmm1
    5f81:	f2 0f 11 4c 24 18    	movsd  %xmm1,0x18(%rsp)
    5f87:	dd 44 24 18          	fldl   0x18(%rsp)
    5f8b:	d9 c0                	fld    %st(0)
    5f8d:	d9 05 71 40 00 00    	flds   0x4071(%rip)        # a004 <_IO_stdin_used+0x4>
    5f93:	de ca                	fmulp  %st,%st(2)
    5f95:	45 85 c0             	test   %r8d,%r8d
    5f98:	0f 8e 9a 00 00 00    	jle    6038 <_Z13compute_cubesdjPPe+0xf8>
    5f9e:	dd 04 24             	fldl   (%rsp)
    5fa1:	45 8d 58 ff          	lea    -0x1(%r8),%r11d
    5fa5:	31 c0                	xor    %eax,%eax
    5fa7:	31 f6                	xor    %esi,%esi
    5fa9:	4d 8d 51 08          	lea    0x8(%r9),%r10
    5fad:	d9 c2                	fld    %st(2)
    5faf:	90                   	nop
    5fb0:	d9 c0                	fld    %st(0)
    5fb2:	31 ff                	xor    %edi,%edi
    5fb4:	d8 e2                	fsub   %st(2),%st
    5fb6:	d9 c4                	fld    %st(4)
    5fb8:	d9 ca                	fxch   %st(2)
    5fba:	db 3c 24             	fstpt  (%rsp)
    5fbd:	eb 03                	jmp    5fc2 <_Z13compute_cubesdjPPe+0x82>
    5fbf:	90                   	nop
    5fc0:	d9 c9                	fxch   %st(1)
    5fc2:	d9 c1                	fld    %st(1)
    5fc4:	48 63 d6             	movslq %esi,%rdx
    5fc7:	d8 e3                	fsub   %st(3),%st
    5fc9:	49 8d 1c d1          	lea    (%r9,%rdx,8),%rbx
    5fcd:	4c 01 da             	add    %r11,%rdx
    5fd0:	49 8d 0c d2          	lea    (%r10,%rdx,8),%rcx
    5fd4:	d9 c5                	fld    %st(5)
    5fd6:	eb 0e                	jmp    5fe6 <_Z13compute_cubesdjPPe+0xa6>
    5fd8:	0f 1f 84 00 00 00 00 	nopl   0x0(%rax,%rax,1)
    5fdf:	00 
    5fe0:	d9 c9                	fxch   %st(1)
    5fe2:	d9 ca                	fxch   %st(2)
    5fe4:	d9 c9                	fxch   %st(1)
    5fe6:	d9 c0                	fld    %st(0)
    5fe8:	48 8b 13             	mov    (%rbx),%rdx
    5feb:	48 83 c3 08          	add    $0x8,%rbx
    5fef:	d8 e5                	fsub   %st(5),%st
    5ff1:	db 3a                	fstpt  (%rdx)
    5ff3:	d9 c9                	fxch   %st(1)
    5ff5:	d9 c0                	fld    %st(0)
    5ff7:	db 7a 10             	fstpt  0x10(%rdx)
    5ffa:	d9 ca                	fxch   %st(2)
    5ffc:	d9 c0                	fld    %st(0)
    5ffe:	db 7a 20             	fstpt  0x20(%rdx)
    6001:	d9 c9                	fxch   %st(1)
    6003:	d8 c5                	fadd   %st(5),%st
    6005:	48 39 cb             	cmp    %rcx,%rbx
    6008:	75 d6                	jne    5fe0 <_Z13compute_cubesdjPPe+0xa0>
    600a:	dd d8                	fstp   %st(0)
    600c:	dd d9                	fstp   %st(1)
    600e:	d9 c9                	fxch   %st(1)
    6010:	83 c7 01             	add    $0x1,%edi
    6013:	d8 c3                	fadd   %st(3),%st
    6015:	44 01 c6             	add    %r8d,%esi
    6018:	44 39 c7             	cmp    %r8d,%edi
    601b:	75 a3                	jne    5fc0 <_Z13compute_cubesdjPPe+0x80>
    601d:	dd d8                	fstp   %st(0)
    601f:	dd d8                	fstp   %st(0)
    6021:	db 2c 24             	fldt   (%rsp)
    6024:	83 c0 01             	add    $0x1,%eax
    6027:	d8 c2                	fadd   %st(2),%st
    6029:	44 39 c0             	cmp    %r8d,%eax
    602c:	75 82                	jne    5fb0 <_Z13compute_cubesdjPPe+0x70>
    602e:	dd d8                	fstp   %st(0)
    6030:	dd d8                	fstp   %st(0)
    6032:	dd d8                	fstp   %st(0)
    6034:	dd d8                	fstp   %st(0)
    6036:	eb 04                	jmp    603c <_Z13compute_cubesdjPPe+0xfc>
    6038:	dd d8                	fstp   %st(0)
    603a:	dd d8                	fstp   %st(0)
    603c:	48 83 c4 20          	add    $0x20,%rsp
    6040:	4c 89 c8             	mov    %r9,%rax
    6043:	5b                   	pop    %rbx
    6044:	c3                   	ret
    6045:	66 66 2e 0f 1f 84 00 	data16 cs nopw 0x0(%rax,%rax,1)
    604c:	00 00 00 00 

0000000000006050 <_Z8pressureddd>:
    6050:	f3 0f 1e fa          	endbr64
    6054:	f2 0f 58 c1          	addsd  %xmm1,%xmm0
    6058:	f2 0f 58 c2          	addsd  %xmm2,%xmm0
    605c:	c3                   	ret
    605d:	0f 1f 00             	nopl   (%rax)

0000000000006060 <_Z5pgradddd>:
    6060:	f3 0f 1e fa          	endbr64
    6064:	66 0f 28 d8          	movapd %xmm0,%xmm3
    6068:	66 0f 28 e8          	movapd %xmm0,%xmm5
    606c:	66 0f 14 c1          	unpcklpd %xmm1,%xmm0
    6070:	48 89 f8             	mov    %rdi,%rax
    6073:	f2 0f 10 35 85 44 00 	movsd  0x4485(%rip),%xmm6        # a500 <_IO_stdin_used+0x500>
    607a:	00 
    607b:	f2 0f 58 e9          	addsd  %xmm1,%xmm5
    607f:	66 0f 14 cb          	unpcklpd %xmm3,%xmm1
    6083:	66 0f 28 e2          	movapd %xmm2,%xmm4
    6087:	66 0f 14 f6          	unpcklpd %xmm6,%xmm6
    608b:	66 0f 58 c6          	addpd  %xmm6,%xmm0
    608f:	f2 0f 58 e5          	addsd  %xmm5,%xmm4
    6093:	66 0f 58 c1          	addpd  %xmm1,%xmm0
    6097:	66 0f 28 ca          	movapd %xmm2,%xmm1
    609b:	66 0f 14 c9          	unpcklpd %xmm1,%xmm1
    609f:	66 0f 58 c1          	addpd  %xmm1,%xmm0
    60a3:	66 0f 28 cc          	movapd %xmm4,%xmm1
    60a7:	66 0f 14 c9          	unpcklpd %xmm1,%xmm1
    60ab:	66 0f 5c c1          	subpd  %xmm1,%xmm0
    60af:	66 0f 5e c6          	divpd  %xmm6,%xmm0
    60b3:	0f 11 07             	movups %xmm0,(%rdi)
    60b6:	f2 0f 10 05 42 44 00 	movsd  0x4442(%rip),%xmm0        # a500 <_IO_stdin_used+0x500>
    60bd:	00 
    60be:	f2 0f 58 d0          	addsd  %xmm0,%xmm2
    60c2:	f2 0f 58 d5          	addsd  %xmm5,%xmm2
    60c6:	f2 0f 5c d4          	subsd  %xmm4,%xmm2
    60ca:	f2 0f 5e d0          	divsd  %xmm0,%xmm2
    60ce:	f2 0f 11 57 10       	movsd  %xmm2,0x10(%rdi)
    60d3:	c3                   	ret
    60d4:	66 66 2e 0f 1f 84 00 	data16 cs nopw 0x0(%rax,%rax,1)
    60db:	00 00 00 00 
    60df:	90                   	nop

00000000000060e0 <_Z8plaplacedddd>:
    60e0:	f3 0f 1e fa          	endbr64
    60e4:	66 0f 28 f0          	movapd %xmm0,%xmm6
    60e8:	66 0f 28 e8          	movapd %xmm0,%xmm5
    60ec:	f2 0f 5c c3          	subsd  %xmm3,%xmm0
    60f0:	66 0f 28 fe          	movapd %xmm6,%xmm7
    60f4:	f2 0f 58 e9          	addsd  %xmm1,%xmm5
    60f8:	66 0f 28 e2          	movapd %xmm2,%xmm4
    60fc:	f2 0f 58 fb          	addsd  %xmm3,%xmm7
    6100:	f2 0f 58 c1          	addsd  %xmm1,%xmm0
    6104:	f2 0f 58 e5          	addsd  %xmm5,%xmm4
    6108:	f2 0f 58 f9          	addsd  %xmm1,%xmm7
    610c:	f2 0f 58 c2          	addsd  %xmm2,%xmm0
    6110:	f2 0f 58 e4          	addsd  %xmm4,%xmm4
    6114:	f2 0f 58 fa          	addsd  %xmm2,%xmm7
    6118:	f2 0f 58 c7          	addsd  %xmm7,%xmm0
    611c:	66 0f 28 fb          	movapd %xmm3,%xmm7
    6120:	f2 0f 58 f9          	addsd  %xmm1,%xmm7
    6124:	f2 0f 5c cb          	subsd  %xmm3,%xmm1
    6128:	f2 0f 5c c4          	subsd  %xmm4,%xmm0
    612c:	f2 0f 58 fe          	addsd  %xmm6,%xmm7
    6130:	f2 0f 58 ce          	addsd  %xmm6,%xmm1
    6134:	f2 0f 58 fa          	addsd  %xmm2,%xmm7
    6138:	f2 0f 58 ca          	addsd  %xmm2,%xmm1
    613c:	f2 0f 58 c7          	addsd  %xmm7,%xmm0
    6140:	f2 0f 58 c1          	addsd  %xmm1,%xmm0
    6144:	66 0f 28 cb          	movapd %xmm3,%xmm1
    6148:	f2 0f 58 ca          	addsd  %xmm2,%xmm1
    614c:	f2 0f 5c d3          	subsd  %xmm3,%xmm2
    6150:	f2 0f 5c c4          	subsd  %xmm4,%xmm0
    6154:	f2 0f 58 cd          	addsd  %xmm5,%xmm1
    6158:	f2 0f 58 d5          	addsd  %xmm5,%xmm2
    615c:	f2 0f 58 c1          	addsd  %xmm1,%xmm0
    6160:	f2 0f 58 c2          	addsd  %xmm2,%xmm0
    6164:	f2 0f 5c c4          	subsd  %xmm4,%xmm0
    6168:	f2 0f 5e c3          	divsd  %xmm3,%xmm0
    616c:	f2 0f 5e c3          	divsd  %xmm3,%xmm0
    6170:	c3                   	ret
    6171:	66 66 2e 0f 1f 84 00 	data16 cs nopw 0x0(%rax,%rax,1)
    6178:	00 00 00 00 
    617c:	0f 1f 40 00          	nopl   0x0(%rax)

0000000000006180 <_Z9checkcubeddddd>:
    6180:	f3 0f 1e fa          	endbr64
    6184:	f2 0f 59 db          	mulsd  %xmm3,%xmm3
    6188:	f2 0f 59 d2          	mulsd  %xmm2,%xmm2
    618c:	f2 0f 59 e4          	mulsd  %xmm4,%xmm4
    6190:	f2 0f 58 d3          	addsd  %xmm3,%xmm2
    6194:	66 0f 28 d9          	movapd %xmm1,%xmm3
    6198:	f2 0f 58 d4          	addsd  %xmm4,%xmm2
    619c:	f2 0f 51 d2          	sqrtsd %xmm2,%xmm2
    61a0:	f2 0f 58 da          	addsd  %xmm2,%xmm3
    61a4:	66 0f 2f c3          	comisd %xmm3,%xmm0
    61a8:	77 16                	ja     61c0 <_Z9checkcubeddddd+0x40>
    61aa:	f2 0f 5c d1          	subsd  %xmm1,%xmm2
    61ae:	31 c0                	xor    %eax,%eax
    61b0:	66 0f 2f d0          	comisd %xmm0,%xmm2
    61b4:	0f 97 c0             	seta   %al
    61b7:	f7 d8                	neg    %eax
    61b9:	c3                   	ret
    61ba:	66 0f 1f 44 00 00    	nopw   0x0(%rax,%rax,1)
    61c0:	b8 ff ff ff ff       	mov    $0xffffffff,%eax
    61c5:	c3                   	ret
    61c6:	66 2e 0f 1f 84 00 00 	cs nopw 0x0(%rax,%rax,1)
    61cd:	00 00 00 

00000000000061d0 <_Z5gradvdddidPPPPe>:
    61d0:	f3 0f 1e fa          	endbr64
    61d4:	41 57                	push   %r15
    61d6:	41 89 f0             	mov    %esi,%r8d
    61d9:	49 89 ff             	mov    %rdi,%r15
    61dc:	41 b9 03 00 00 00    	mov    $0x3,%r9d
    61e2:	41 56                	push   %r14
    61e4:	f2 44 0f 2c f2       	cvttsd2si %xmm2,%r14d
    61e9:	41 55                	push   %r13
    61eb:	f2 44 0f 2c e9       	cvttsd2si %xmm1,%r13d
    61f0:	41 54                	push   %r12
    61f2:	f2 44 0f 2c e0       	cvttsd2si %xmm0,%r12d
    61f7:	55                   	push   %rbp
    61f8:	89 f5                	mov    %esi,%ebp
    61fa:	53                   	push   %rbx
    61fb:	48 89 d3             	mov    %rdx,%rbx
    61fe:	44 89 f1             	mov    %r14d,%ecx
    6201:	44 89 ea             	mov    %r13d,%edx
    6204:	48 89 df             	mov    %rbx,%rdi
    6207:	44 89 e6             	mov    %r12d,%esi
    620a:	48 83 ec 60          	sub    $0x60,%rsp
    620e:	f2 0f 11 5c 24 10    	movsd  %xmm3,0x10(%rsp)
    6214:	6a 01                	push   $0x1
    6216:	f2 0f 10 44 24 18    	movsd  0x18(%rsp),%xmm0
    621c:	e8 af 1f 00 00       	call   81d0 <_Z7partdifPPPPeiiiidii>
    6221:	41 89 e8             	mov    %ebp,%r8d
    6224:	44 89 f1             	mov    %r14d,%ecx
    6227:	44 89 ea             	mov    %r13d,%edx
    622a:	f2 0f 11 44 24 28    	movsd  %xmm0,0x28(%rsp)
    6230:	f2 0f 10 44 24 18    	movsd  0x18(%rsp),%xmm0
    6236:	44 89 e6             	mov    %r12d,%esi
    6239:	48 89 df             	mov    %rbx,%rdi
    623c:	41 b9 02 00 00 00    	mov    $0x2,%r9d
    6242:	c7 04 24 01 00 00 00 	movl   $0x1,(%rsp)
    6249:	e8 82 1f 00 00       	call   81d0 <_Z7partdifPPPPeiiiidii>
    624e:	41 89 e8             	mov    %ebp,%r8d
    6251:	44 89 f1             	mov    %r14d,%ecx
    6254:	44 89 ea             	mov    %r13d,%edx
    6257:	f2 0f 11 44 24 20    	movsd  %xmm0,0x20(%rsp)
    625d:	f2 0f 10 44 24 18    	movsd  0x18(%rsp),%xmm0
    6263:	44 89 e6             	mov    %r12d,%esi
    6266:	48 89 df             	mov    %rbx,%rdi
    6269:	41 b9 01 00 00 00    	mov    $0x1,%r9d
    626f:	c7 04 24 01 00 00 00 	movl   $0x1,(%rsp)
    6276:	e8 55 1f 00 00       	call   81d0 <_Z7partdifPPPPeiiiidii>
    627b:	41 89 e8             	mov    %ebp,%r8d
    627e:	44 89 f1             	mov    %r14d,%ecx
    6281:	44 89 ea             	mov    %r13d,%edx
    6284:	f2 0f 10 54 24 20    	movsd  0x20(%rsp),%xmm2
    628a:	66 0f 28 e8          	movapd %xmm0,%xmm5
    628e:	44 89 e6             	mov    %r12d,%esi
    6291:	48 89 df             	mov    %rbx,%rdi
    6294:	f2 0f 10 44 24 18    	movsd  0x18(%rsp),%xmm0
    629a:	41 b9 03 00 00 00    	mov    $0x3,%r9d
    62a0:	c7 04 24 02 00 00 00 	movl   $0x2,(%rsp)
    62a7:	66 0f 14 ea          	unpcklpd %xmm2,%xmm5
    62ab:	0f 29 6c 24 50       	movaps %xmm5,0x50(%rsp)
    62b0:	e8 1b 1f 00 00       	call   81d0 <_Z7partdifPPPPeiiiidii>
    62b5:	41 89 e8             	mov    %ebp,%r8d
    62b8:	44 89 f1             	mov    %r14d,%ecx
    62bb:	44 89 ea             	mov    %r13d,%edx
    62be:	f2 0f 11 44 24 20    	movsd  %xmm0,0x20(%rsp)
    62c4:	f2 0f 10 44 24 18    	movsd  0x18(%rsp),%xmm0
    62ca:	44 89 e6             	mov    %r12d,%esi
    62cd:	48 89 df             	mov    %rbx,%rdi
    62d0:	41 b9 02 00 00 00    	mov    $0x2,%r9d
    62d6:	c7 04 24 02 00 00 00 	movl   $0x2,(%rsp)
    62dd:	e8 ee 1e 00 00       	call   81d0 <_Z7partdifPPPPeiiiidii>
    62e2:	41 89 e8             	mov    %ebp,%r8d
    62e5:	44 89 f1             	mov    %r14d,%ecx
    62e8:	44 89 ea             	mov    %r13d,%edx
    62eb:	f2 0f 10 54 24 20    	movsd  0x20(%rsp),%xmm2
    62f1:	66 0f 28 e0          	movapd %xmm0,%xmm4
    62f5:	44 89 e6             	mov    %r12d,%esi
    62f8:	48 89 df             	mov    %rbx,%rdi
    62fb:	f2 0f 10 44 24 18    	movsd  0x18(%rsp),%xmm0
    6301:	41 b9 01 00 00 00    	mov    $0x1,%r9d
    6307:	c7 04 24 02 00 00 00 	movl   $0x2,(%rsp)
    630e:	66 0f 14 e2          	unpcklpd %xmm2,%xmm4
    6312:	0f 29 64 24 40       	movaps %xmm4,0x40(%rsp)
    6317:	e8 b4 1e 00 00       	call   81d0 <_Z7partdifPPPPeiiiidii>
    631c:	41 89 e8             	mov    %ebp,%r8d
    631f:	44 89 f1             	mov    %r14d,%ecx
    6322:	44 89 ea             	mov    %r13d,%edx
    6325:	f2 0f 10 4c 24 28    	movsd  0x28(%rsp),%xmm1
    632b:	44 89 e6             	mov    %r12d,%esi
    632e:	48 89 df             	mov    %rbx,%rdi
    6331:	41 b9 03 00 00 00    	mov    $0x3,%r9d
    6337:	c7 04 24 03 00 00 00 	movl   $0x3,(%rsp)
    633e:	66 0f 14 c8          	unpcklpd %xmm0,%xmm1
    6342:	f2 0f 10 44 24 18    	movsd  0x18(%rsp),%xmm0
    6348:	0f 29 4c 24 30       	movaps %xmm1,0x30(%rsp)
    634d:	e8 7e 1e 00 00       	call   81d0 <_Z7partdifPPPPeiiiidii>
    6352:	41 89 e8             	mov    %ebp,%r8d
    6355:	44 89 f1             	mov    %r14d,%ecx
    6358:	44 89 ea             	mov    %r13d,%edx
    635b:	f2 0f 11 44 24 28    	movsd  %xmm0,0x28(%rsp)
    6361:	f2 0f 10 44 24 18    	movsd  0x18(%rsp),%xmm0
    6367:	44 89 e6             	mov    %r12d,%esi
    636a:	48 89 df             	mov    %rbx,%rdi
    636d:	41 b9 02 00 00 00    	mov    $0x2,%r9d
    6373:	c7 04 24 03 00 00 00 	movl   $0x3,(%rsp)
    637a:	e8 51 1e 00 00       	call   81d0 <_Z7partdifPPPPeiiiidii>
    637f:	41 89 e8             	mov    %ebp,%r8d
    6382:	44 89 f1             	mov    %r14d,%ecx
    6385:	44 89 ea             	mov    %r13d,%edx
    6388:	f2 0f 11 44 24 20    	movsd  %xmm0,0x20(%rsp)
    638e:	f2 0f 10 44 24 18    	movsd  0x18(%rsp),%xmm0
    6394:	44 89 e6             	mov    %r12d,%esi
    6397:	48 89 df             	mov    %rbx,%rdi
    639a:	41 b9 01 00 00 00    	mov    $0x1,%r9d
    63a0:	c7 04 24 03 00 00 00 	movl   $0x3,(%rsp)
    63a7:	e8 24 1e 00 00       	call   81d0 <_Z7partdifPPPPeiiiidii>
    63ac:	f2 0f 10 5c 24 20    	movsd  0x20(%rsp),%xmm3
    63b2:	4c 89 f8             	mov    %r15,%rax
    63b5:	66 0f 28 6c 24 50    	movapd 0x50(%rsp),%xmm5
    63bb:	66 0f 28 4c 24 30    	movapd 0x30(%rsp),%xmm1
    63c1:	66 0f 28 64 24 40    	movapd 0x40(%rsp),%xmm4
    63c7:	f2 0f 10 54 24 28    	movsd  0x28(%rsp),%xmm2
    63cd:	66 0f 14 c3          	unpcklpd %xmm3,%xmm0
    63d1:	41 0f 11 2f          	movups %xmm5,(%r15)
    63d5:	41 0f 11 4f 10       	movups %xmm1,0x10(%r15)
    63da:	41 0f 11 67 20       	movups %xmm4,0x20(%r15)
    63df:	41 0f 11 47 30       	movups %xmm0,0x30(%r15)
    63e4:	f2 41 0f 11 57 40    	movsd  %xmm2,0x40(%r15)
    63ea:	48 83 c4 68          	add    $0x68,%rsp
    63ee:	5b                   	pop    %rbx
    63ef:	5d                   	pop    %rbp
    63f0:	41 5c                	pop    %r12
    63f2:	41 5d                	pop    %r13
    63f4:	41 5e                	pop    %r14
    63f6:	41 5f                	pop    %r15
    63f8:	c3                   	ret
    63f9:	0f 1f 80 00 00 00 00 	nopl   0x0(%rax)

0000000000006400 <_Z5forcedddjjeeidPPeRKSt6vectorIiSaIiEEPS0_>:
    6400:	f3 0f 1e fa          	endbr64
    6404:	41 57                	push   %r15
    6406:	66 0f ef e4          	pxor   %xmm4,%xmm4
    640a:	41 56                	push   %r14
    640c:	41 55                	push   %r13
    640e:	41 54                	push   %r12
    6410:	55                   	push   %rbp
    6411:	53                   	push   %rbx
    6412:	48 81 ec b8 00 00 00 	sub    $0xb8,%rsp
    6419:	64 48 8b 04 25 28 00 	mov    %fs:0x28,%rax
    6420:	00 00 
    6422:	48 89 84 24 a8 00 00 	mov    %rax,0xa8(%rsp)
    6429:	00 
    642a:	31 c0                	xor    %eax,%eax
    642c:	89 0c 24             	mov    %ecx,(%rsp)
    642f:	db 04 24             	fildl  (%rsp)
    6432:	4c 8b a4 24 10 01 00 	mov    0x110(%rsp),%r12
    6439:	00 
    643a:	48 c7 47 10 00 00 00 	movq   $0x0,0x10(%rdi)
    6441:	00 
    6442:	db ac 24 00 01 00 00 	fldt   0x100(%rsp)
    6449:	0f 11 27             	movups %xmm4,(%rdi)
    644c:	de f1                	fdivp  %st,%st(1)
    644e:	d8 0d b0 3b 00 00    	fmuls  0x3bb0(%rip)        # a004 <_IO_stdin_used+0x4>
    6454:	4d 85 e4             	test   %r12,%r12
    6457:	0f 84 a3 01 00 00    	je     6600 <_Z5forcedddjjeeidPPeRKSt6vectorIiSaIiEEPS0_+0x200>
    645d:	49 8b 19             	mov    (%r9),%rbx
    6460:	49 8b 49 08          	mov    0x8(%r9),%rcx
    6464:	48 89 fd             	mov    %rdi,%rbp
    6467:	48 39 d9             	cmp    %rbx,%rcx
    646a:	0f 84 60 01 00 00    	je     65d0 <_Z5forcedddjjeeidPPeRKSt6vectorIiSaIiEEPS0_+0x1d0>
    6470:	89 94 24 8c 00 00 00 	mov    %edx,0x8c(%rsp)
    6477:	4d 89 c7             	mov    %r8,%r15
    647a:	41 89 f6             	mov    %esi,%r14d
    647d:	49 89 cd             	mov    %rcx,%r13
    6480:	db ac 24 f0 00 00 00 	fldt   0xf0(%rsp)
    6487:	66 45 0f ef c9       	pxor   %xmm9,%xmm9
    648c:	66 45 0f ef c0       	pxor   %xmm8,%xmm8
    6491:	f2 0f 11 44 24 70    	movsd  %xmm0,0x70(%rsp)
    6497:	48 8d 84 24 90 00 00 	lea    0x90(%rsp),%rax
    649e:	00 
    649f:	f2 0f 11 4c 24 78    	movsd  %xmm1,0x78(%rsp)
    64a5:	66 0f 28 fb          	movapd %xmm3,%xmm7
    64a9:	48 89 44 24 68       	mov    %rax,0x68(%rsp)
    64ae:	4c 89 e0             	mov    %r12,%rax
    64b1:	49 89 fc             	mov    %rdi,%r12
    64b4:	dd 5c 24 60          	fstpl  0x60(%rsp)
    64b8:	48 89 c5             	mov    %rax,%rbp
    64bb:	f2 0f 11 94 24 80 00 	movsd  %xmm2,0x80(%rsp)
    64c2:	00 00 
    64c4:	0f 1f 40 00          	nopl   0x0(%rax)
    64c8:	48 63 13             	movslq (%rbx),%rdx
    64cb:	44 0f 29 4c 24 40    	movaps %xmm9,0x40(%rsp)
    64d1:	48 83 ec 08          	sub    $0x8,%rsp
    64d5:	48 89 e9             	mov    %rbp,%rcx
    64d8:	f2 44 0f 11 44 24 60 	movsd  %xmm8,0x60(%rsp)
    64df:	48 83 c3 04          	add    $0x4,%rbx
    64e3:	49 8b 14 d7          	mov    (%r15,%rdx,8),%rdx
    64e7:	db 2a                	fldt   (%rdx)
    64e9:	db 6a 10             	fldt   0x10(%rdx)
    64ec:	db 6a 20             	fldt   0x20(%rdx)
    64ef:	44 89 f2             	mov    %r14d,%edx
    64f2:	d9 c0                	fld    %st(0)
    64f4:	d8 c4                	fadd   %st(4),%st
    64f6:	dd 5c 24 08          	fstpl  0x8(%rsp)
    64fa:	d8 e3                	fsub   %st(3),%st
    64fc:	dd 5c 24 10          	fstpl  0x10(%rsp)
    6500:	d9 c0                	fld    %st(0)
    6502:	d8 c3                	fadd   %st(3),%st
    6504:	dd 5c 24 18          	fstpl  0x18(%rsp)
    6508:	d8 e2                	fsub   %st(2),%st
    650a:	dd 5c 24 20          	fstpl  0x20(%rsp)
    650e:	d9 c0                	fld    %st(0)
    6510:	d8 c2                	fadd   %st(2),%st
    6512:	dd 5c 24 28          	fstpl  0x28(%rsp)
    6516:	d8 e1                	fsub   %st(1),%st
    6518:	d9 c9                	fxch   %st(1)
    651a:	db 7c 24 38          	fstpt  0x38(%rsp)
    651e:	dd 5c 24 30          	fstpl  0x30(%rsp)
    6522:	ff b4 24 88 00 00 00 	push   0x88(%rsp)
    6529:	ff b4 24 88 00 00 00 	push   0x88(%rsp)
    6530:	ff b4 24 88 00 00 00 	push   0x88(%rsp)
    6537:	8b b4 24 ac 00 00 00 	mov    0xac(%rsp),%esi
    653e:	f2 0f 10 74 24 20    	movsd  0x20(%rsp),%xmm6
    6544:	f2 0f 10 6c 24 28    	movsd  0x28(%rsp),%xmm5
    654a:	f2 0f 10 64 24 30    	movsd  0x30(%rsp),%xmm4
    6550:	f2 0f 10 5c 24 38    	movsd  0x38(%rsp),%xmm3
    6556:	f2 0f 11 7c 24 70    	movsd  %xmm7,0x70(%rsp)
    655c:	f2 0f 10 54 24 40    	movsd  0x40(%rsp),%xmm2
    6562:	f2 0f 10 4c 24 48    	movsd  0x48(%rsp),%xmm1
    6568:	f2 0f 10 84 24 80 00 	movsd  0x80(%rsp),%xmm0
    656f:	00 00 
    6571:	48 8b bc 24 88 00 00 	mov    0x88(%rsp),%rdi
    6578:	00 
    6579:	e8 b2 c5 ff ff       	call   2b30 <_ZL6forceldddddddjjPPPedddd>
    657e:	f2 44 0f 10 44 24 78 	movsd  0x78(%rsp),%xmm8
    6585:	66 44 0f 28 4c 24 60 	movapd 0x60(%rsp),%xmm9
    658c:	f2 44 0f 58 84 24 c0 	addsd  0xc0(%rsp),%xmm8
    6593:	00 00 00 
    6596:	66 44 0f 58 8c 24 b0 	addpd  0xb0(%rsp),%xmm9
    659d:	00 00 00 
    65a0:	48 83 c4 20          	add    $0x20,%rsp
    65a4:	49 39 dd             	cmp    %rbx,%r13
    65a7:	f2 0f 10 7c 24 50    	movsd  0x50(%rsp),%xmm7
    65ad:	db 6c 24 30          	fldt   0x30(%rsp)
    65b1:	45 0f 11 0c 24       	movups %xmm9,(%r12)
    65b6:	f2 45 0f 11 44 24 10 	movsd  %xmm8,0x10(%r12)
    65bd:	0f 85 05 ff ff ff    	jne    64c8 <_Z5forcedddjjeeidPPeRKSt6vectorIiSaIiEEPS0_+0xc8>
    65c3:	dd d8                	fstp   %st(0)
    65c5:	4c 89 e5             	mov    %r12,%rbp
    65c8:	eb 0e                	jmp    65d8 <_Z5forcedddjjeeidPPeRKSt6vectorIiSaIiEEPS0_+0x1d8>
    65ca:	66 0f 1f 44 00 00    	nopw   0x0(%rax,%rax,1)
    65d0:	dd d8                	fstp   %st(0)
    65d2:	66 0f 1f 44 00 00    	nopw   0x0(%rax,%rax,1)
    65d8:	48 8b 84 24 a8 00 00 	mov    0xa8(%rsp),%rax
    65df:	00 
    65e0:	64 48 2b 04 25 28 00 	sub    %fs:0x28,%rax
    65e7:	00 00 
    65e9:	75 36                	jne    6621 <_Z5forcedddjjeeidPPeRKSt6vectorIiSaIiEEPS0_+0x221>
    65eb:	48 81 c4 b8 00 00 00 	add    $0xb8,%rsp
    65f2:	48 89 e8             	mov    %rbp,%rax
    65f5:	5b                   	pop    %rbx
    65f6:	5d                   	pop    %rbp
    65f7:	41 5c                	pop    %r12
    65f9:	41 5d                	pop    %r13
    65fb:	41 5e                	pop    %r14
    65fd:	41 5f                	pop    %r15
    65ff:	c3                   	ret
    6600:	dd d8                	fstp   %st(0)
    6602:	48 8d 0d 0f 3a 00 00 	lea    0x3a0f(%rip),%rcx        # a018 <_IO_stdin_used+0x18>
    6609:	ba 6a 01 00 00       	mov    $0x16a,%edx
    660e:	48 8d 35 0b 3d 00 00 	lea    0x3d0b(%rip),%rsi        # a320 <_IO_stdin_used+0x320>
    6615:	48 8d 3d 11 3d 00 00 	lea    0x3d11(%rip),%rdi        # a32d <_IO_stdin_used+0x32d>
    661c:	e8 9f bd ff ff       	call   23c0 <__assert_fail@plt>
    6621:	e8 4a be ff ff       	call   2470 <__stack_chk_fail@plt>
    6626:	66 2e 0f 1f 84 00 00 	cs nopw 0x0(%rax,%rax,1)
    662d:	00 00 00 

0000000000006630 <_Z6torquedddjjeeidPPeRKSt6vectorIiSaIiEEPS0_>:
    6630:	f3 0f 1e fa          	endbr64
    6634:	41 57                	push   %r15
    6636:	66 0f ef e4          	pxor   %xmm4,%xmm4
    663a:	41 56                	push   %r14
    663c:	41 55                	push   %r13
    663e:	41 54                	push   %r12
    6640:	55                   	push   %rbp
    6641:	53                   	push   %rbx
    6642:	48 81 ec b8 00 00 00 	sub    $0xb8,%rsp
    6649:	64 48 8b 04 25 28 00 	mov    %fs:0x28,%rax
    6650:	00 00 
    6652:	48 89 84 24 a8 00 00 	mov    %rax,0xa8(%rsp)
    6659:	00 
    665a:	31 c0                	xor    %eax,%eax
    665c:	89 0c 24             	mov    %ecx,(%rsp)
    665f:	db 04 24             	fildl  (%rsp)
    6662:	4c 8b a4 24 10 01 00 	mov    0x110(%rsp),%r12
    6669:	00 
    666a:	48 c7 47 10 00 00 00 	movq   $0x0,0x10(%rdi)
    6671:	00 
    6672:	db ac 24 00 01 00 00 	fldt   0x100(%rsp)
    6679:	0f 11 27             	movups %xmm4,(%rdi)
    667c:	de f1                	fdivp  %st,%st(1)
    667e:	d8 0d 80 39 00 00    	fmuls  0x3980(%rip)        # a004 <_IO_stdin_used+0x4>
    6684:	4d 85 e4             	test   %r12,%r12
    6687:	0f 84 a3 01 00 00    	je     6830 <_Z6torquedddjjeeidPPeRKSt6vectorIiSaIiEEPS0_+0x200>
    668d:	49 8b 19             	mov    (%r9),%rbx
    6690:	49 8b 49 08          	mov    0x8(%r9),%rcx
    6694:	48 89 fd             	mov    %rdi,%rbp
    6697:	48 39 d9             	cmp    %rbx,%rcx
    669a:	0f 84 60 01 00 00    	je     6800 <_Z6torquedddjjeeidPPeRKSt6vectorIiSaIiEEPS0_+0x1d0>
    66a0:	89 94 24 8c 00 00 00 	mov    %edx,0x8c(%rsp)
    66a7:	4d 89 c7             	mov    %r8,%r15
    66aa:	41 89 f6             	mov    %esi,%r14d
    66ad:	49 89 cd             	mov    %rcx,%r13
    66b0:	db ac 24 f0 00 00 00 	fldt   0xf0(%rsp)
    66b7:	66 45 0f ef c9       	pxor   %xmm9,%xmm9
    66bc:	66 45 0f ef c0       	pxor   %xmm8,%xmm8
    66c1:	f2 0f 11 44 24 70    	movsd  %xmm0,0x70(%rsp)
    66c7:	48 8d 84 24 90 00 00 	lea    0x90(%rsp),%rax
    66ce:	00 
    66cf:	f2 0f 11 4c 24 78    	movsd  %xmm1,0x78(%rsp)
    66d5:	66 0f 28 fb          	movapd %xmm3,%xmm7
    66d9:	48 89 44 24 68       	mov    %rax,0x68(%rsp)
    66de:	4c 89 e0             	mov    %r12,%rax
    66e1:	49 89 fc             	mov    %rdi,%r12
    66e4:	dd 5c 24 60          	fstpl  0x60(%rsp)
    66e8:	48 89 c5             	mov    %rax,%rbp
    66eb:	f2 0f 11 94 24 80 00 	movsd  %xmm2,0x80(%rsp)
    66f2:	00 00 
    66f4:	0f 1f 40 00          	nopl   0x0(%rax)
    66f8:	48 63 13             	movslq (%rbx),%rdx
    66fb:	44 0f 29 4c 24 40    	movaps %xmm9,0x40(%rsp)
    6701:	48 83 ec 08          	sub    $0x8,%rsp
    6705:	48 89 e9             	mov    %rbp,%rcx
    6708:	f2 44 0f 11 44 24 60 	movsd  %xmm8,0x60(%rsp)
    670f:	48 83 c3 04          	add    $0x4,%rbx
    6713:	49 8b 14 d7          	mov    (%r15,%rdx,8),%rdx
    6717:	db 2a                	fldt   (%rdx)
    6719:	db 6a 10             	fldt   0x10(%rdx)
    671c:	db 6a 20             	fldt   0x20(%rdx)
    671f:	44 89 f2             	mov    %r14d,%edx
    6722:	d9 c0                	fld    %st(0)
    6724:	d8 c4                	fadd   %st(4),%st
    6726:	dd 5c 24 08          	fstpl  0x8(%rsp)
    672a:	d8 e3                	fsub   %st(3),%st
    672c:	dd 5c 24 10          	fstpl  0x10(%rsp)
    6730:	d9 c0                	fld    %st(0)
    6732:	d8 c3                	fadd   %st(3),%st
    6734:	dd 5c 24 18          	fstpl  0x18(%rsp)
    6738:	d8 e2                	fsub   %st(2),%st
    673a:	dd 5c 24 20          	fstpl  0x20(%rsp)
    673e:	d9 c0                	fld    %st(0)
    6740:	d8 c2                	fadd   %st(2),%st
    6742:	dd 5c 24 28          	fstpl  0x28(%rsp)
    6746:	d8 e1                	fsub   %st(1),%st
    6748:	d9 c9                	fxch   %st(1)
    674a:	db 7c 24 38          	fstpt  0x38(%rsp)
    674e:	dd 5c 24 30          	fstpl  0x30(%rsp)
    6752:	ff b4 24 88 00 00 00 	push   0x88(%rsp)
    6759:	ff b4 24 88 00 00 00 	push   0x88(%rsp)
    6760:	ff b4 24 88 00 00 00 	push   0x88(%rsp)
    6767:	8b b4 24 ac 00 00 00 	mov    0xac(%rsp),%esi
    676e:	f2 0f 10 74 24 20    	movsd  0x20(%rsp),%xmm6
    6774:	f2 0f 10 6c 24 28    	movsd  0x28(%rsp),%xmm5
    677a:	f2 0f 10 64 24 30    	movsd  0x30(%rsp),%xmm4
    6780:	f2 0f 10 5c 24 38    	movsd  0x38(%rsp),%xmm3
    6786:	f2 0f 11 7c 24 70    	movsd  %xmm7,0x70(%rsp)
    678c:	f2 0f 10 54 24 40    	movsd  0x40(%rsp),%xmm2
    6792:	f2 0f 10 4c 24 48    	movsd  0x48(%rsp),%xmm1
    6798:	f2 0f 10 84 24 80 00 	movsd  0x80(%rsp),%xmm0
    679f:	00 00 
    67a1:	48 8b bc 24 88 00 00 	mov    0x88(%rsp),%rdi
    67a8:	00 
    67a9:	e8 52 db ff ff       	call   4300 <_ZL7torqueldddddddjjPPPedddd>
    67ae:	f2 44 0f 10 44 24 78 	movsd  0x78(%rsp),%xmm8
    67b5:	66 44 0f 28 4c 24 60 	movapd 0x60(%rsp),%xmm9
    67bc:	f2 44 0f 58 84 24 c0 	addsd  0xc0(%rsp),%xmm8
    67c3:	00 00 00 
    67c6:	66 44 0f 58 8c 24 b0 	addpd  0xb0(%rsp),%xmm9
    67cd:	00 00 00 
    67d0:	48 83 c4 20          	add    $0x20,%rsp
    67d4:	49 39 dd             	cmp    %rbx,%r13
    67d7:	f2 0f 10 7c 24 50    	movsd  0x50(%rsp),%xmm7
    67dd:	db 6c 24 30          	fldt   0x30(%rsp)
    67e1:	45 0f 11 0c 24       	movups %xmm9,(%r12)
    67e6:	f2 45 0f 11 44 24 10 	movsd  %xmm8,0x10(%r12)
    67ed:	0f 85 05 ff ff ff    	jne    66f8 <_Z6torquedddjjeeidPPeRKSt6vectorIiSaIiEEPS0_+0xc8>
    67f3:	dd d8                	fstp   %st(0)
    67f5:	4c 89 e5             	mov    %r12,%rbp
    67f8:	eb 0e                	jmp    6808 <_Z6torquedddjjeeidPPeRKSt6vectorIiSaIiEEPS0_+0x1d8>
    67fa:	66 0f 1f 44 00 00    	nopw   0x0(%rax,%rax,1)
    6800:	dd d8                	fstp   %st(0)
    6802:	66 0f 1f 44 00 00    	nopw   0x0(%rax,%rax,1)
    6808:	48 8b 84 24 a8 00 00 	mov    0xa8(%rsp),%rax
    680f:	00 
    6810:	64 48 2b 04 25 28 00 	sub    %fs:0x28,%rax
    6817:	00 00 
    6819:	75 36                	jne    6851 <_Z6torquedddjjeeidPPeRKSt6vectorIiSaIiEEPS0_+0x221>
    681b:	48 81 c4 b8 00 00 00 	add    $0xb8,%rsp
    6822:	48 89 e8             	mov    %rbp,%rax
    6825:	5b                   	pop    %rbx
    6826:	5d                   	pop    %rbp
    6827:	41 5c                	pop    %r12
    6829:	41 5d                	pop    %r13
    682b:	41 5e                	pop    %r14
    682d:	41 5f                	pop    %r15
    682f:	c3                   	ret
    6830:	dd d8                	fstp   %st(0)
    6832:	48 8d 0d 7f 38 00 00 	lea    0x387f(%rip),%rcx        # a0b8 <_IO_stdin_used+0xb8>
    6839:	ba 82 01 00 00       	mov    $0x182,%edx
    683e:	48 8d 35 db 3a 00 00 	lea    0x3adb(%rip),%rsi        # a320 <_IO_stdin_used+0x320>
    6845:	48 8d 3d e1 3a 00 00 	lea    0x3ae1(%rip),%rdi        # a32d <_IO_stdin_used+0x32d>
    684c:	e8 6f bb ff ff       	call   23c0 <__assert_fail@plt>
    6851:	e8 1a bc ff ff       	call   2470 <__stack_chk_fail@plt>
    6856:	66 2e 0f 1f 84 00 00 	cs nopw 0x0(%rax,%rax,1)
    685d:	00 00 00 

0000000000006860 <_Z7blearghv>:
    6860:	f3 0f 1e fa          	endbr64
    6864:	55                   	push   %rbp
    6865:	ba 5a 00 00 00       	mov    $0x5a,%edx
    686a:	48 8d 35 ef 38 00 00 	lea    0x38ef(%rip),%rsi        # a160 <_IO_stdin_used+0x160>
    6871:	48 8d 3d c8 57 00 00 	lea    0x57c8(%rip),%rdi        # c040 <_ZSt4cout@GLIBCXX_3.4>
    6878:	48 89 e5             	mov    %rsp,%rbp
    687b:	41 57                	push   %r15
    687d:	41 56                	push   %r14
    687f:	41 55                	push   %r13
    6881:	41 54                	push   %r12
    6883:	53                   	push   %rbx
    6884:	48 8d 1d d5 58 00 00 	lea    0x58d5(%rip),%rbx        # c160 <_ZSt3cin@GLIBCXX_3.4>
    688b:	48 81 ec d8 01 00 00 	sub    $0x1d8,%rsp
    6892:	64 48 8b 04 25 28 00 	mov    %fs:0x28,%rax
    6899:	00 00 
    689b:	48 89 45 c8          	mov    %rax,-0x38(%rbp)
    689f:	31 c0                	xor    %eax,%eax
    68a1:	e8 ea bb ff ff       	call   2490 <_ZSt16__ostream_insertIcSt11char_traitsIcEERSt13basic_ostreamIT_T0_ES6_PKS3_l@plt>
    68a6:	48 89 df             	mov    %rbx,%rdi
    68a9:	48 8d b5 00 ff ff ff 	lea    -0x100(%rbp),%rsi
    68b0:	e8 1b bb ff ff       	call   23d0 <_ZNSi10_M_extractIdEERSiRT_@plt>
    68b5:	48 8d b5 08 ff ff ff 	lea    -0xf8(%rbp),%rsi
    68bc:	48 89 c7             	mov    %rax,%rdi
    68bf:	e8 0c bb ff ff       	call   23d0 <_ZNSi10_M_extractIdEERSiRT_@plt>
    68c4:	48 8d b5 10 ff ff ff 	lea    -0xf0(%rbp),%rsi
    68cb:	48 89 c7             	mov    %rax,%rdi
    68ce:	e8 fd ba ff ff       	call   23d0 <_ZNSi10_M_extractIdEERSiRT_@plt>
    68d3:	ba 41 00 00 00       	mov    $0x41,%edx
    68d8:	48 8d 35 e1 38 00 00 	lea    0x38e1(%rip),%rsi        # a1c0 <_IO_stdin_used+0x1c0>
    68df:	48 8d 3d 5a 57 00 00 	lea    0x575a(%rip),%rdi        # c040 <_ZSt4cout@GLIBCXX_3.4>
    68e6:	e8 a5 bb ff ff       	call   2490 <_ZSt16__ostream_insertIcSt11char_traitsIcEERSt13basic_ostreamIT_T0_ES6_PKS3_l@plt>
    68eb:	48 89 df             	mov    %rbx,%rdi
    68ee:	48 8d b5 f4 fe ff ff 	lea    -0x10c(%rbp),%rsi
    68f5:	e8 b6 ba ff ff       	call   23b0 <_ZNSirsERi@plt>
    68fa:	ba 40 00 00 00       	mov    $0x40,%edx
    68ff:	48 8d 35 02 39 00 00 	lea    0x3902(%rip),%rsi        # a208 <_IO_stdin_used+0x208>
    6906:	48 8d 3d 33 57 00 00 	lea    0x5733(%rip),%rdi        # c040 <_ZSt4cout@GLIBCXX_3.4>
    690d:	e8 7e bb ff ff       	call   2490 <_ZSt16__ostream_insertIcSt11char_traitsIcEERSt13basic_ostreamIT_T0_ES6_PKS3_l@plt>
    6912:	48 89 df             	mov    %rbx,%rdi
    6915:	48 8d b5 f8 fe ff ff 	lea    -0x108(%rbp),%rsi
    691c:	e8 8f ba ff ff       	call   23b0 <_ZNSirsERi@plt>
    6921:	ba 21 00 00 00       	mov    $0x21,%edx
    6926:	48 8d 35 23 39 00 00 	lea    0x3923(%rip),%rsi        # a250 <_IO_stdin_used+0x250>
    692d:	48 8d 3d 0c 57 00 00 	lea    0x570c(%rip),%rdi        # c040 <_ZSt4cout@GLIBCXX_3.4>
    6934:	e8 57 bb ff ff       	call   2490 <_ZSt16__ostream_insertIcSt11char_traitsIcEERSt13basic_ostreamIT_T0_ES6_PKS3_l@plt>
    6939:	48 89 df             	mov    %rbx,%rdi
    693c:	48 8d b5 30 ff ff ff 	lea    -0xd0(%rbp),%rsi
    6943:	e8 98 bb ff ff       	call   24e0 <_ZNSi10_M_extractIeEERSiRT_@plt>
    6948:	ba a7 00 00 00       	mov    $0xa7,%edx
    694d:	48 8d 35 24 39 00 00 	lea    0x3924(%rip),%rsi        # a278 <_IO_stdin_used+0x278>
    6954:	48 8d 3d e5 56 00 00 	lea    0x56e5(%rip),%rdi        # c040 <_ZSt4cout@GLIBCXX_3.4>
    695b:	e8 30 bb ff ff       	call   2490 <_ZSt16__ostream_insertIcSt11char_traitsIcEERSt13basic_ostreamIT_T0_ES6_PKS3_l@plt>
    6960:	48 89 df             	mov    %rbx,%rdi
    6963:	48 8d b5 fc fe ff ff 	lea    -0x104(%rbp),%rsi
    696a:	e8 41 ba ff ff       	call   23b0 <_ZNSirsERi@plt>
    696f:	ba 15 00 00 00       	mov    $0x15,%edx
    6974:	48 8d 35 c8 39 00 00 	lea    0x39c8(%rip),%rsi        # a343 <_IO_stdin_used+0x343>
    697b:	48 8d 3d be 56 00 00 	lea    0x56be(%rip),%rdi        # c040 <_ZSt4cout@GLIBCXX_3.4>
    6982:	e8 09 bb ff ff       	call   2490 <_ZSt16__ostream_insertIcSt11char_traitsIcEERSt13basic_ostreamIT_T0_ES6_PKS3_l@plt>
    6987:	48 89 df             	mov    %rbx,%rdi
    698a:	48 8d b5 18 ff ff ff 	lea    -0xe8(%rbp),%rsi
    6991:	e8 3a ba ff ff       	call   23d0 <_ZNSi10_M_extractIdEERSiRT_@plt>
    6996:	ba 11 00 00 00       	mov    $0x11,%edx
    699b:	48 8d 35 b7 39 00 00 	lea    0x39b7(%rip),%rsi        # a359 <_IO_stdin_used+0x359>
    69a2:	48 8d 3d 97 56 00 00 	lea    0x5697(%rip),%rdi        # c040 <_ZSt4cout@GLIBCXX_3.4>
    69a9:	e8 e2 ba ff ff       	call   2490 <_ZSt16__ostream_insertIcSt11char_traitsIcEERSt13basic_ostreamIT_T0_ES6_PKS3_l@plt>
    69ae:	48 89 df             	mov    %rbx,%rdi
    69b1:	48 8d b5 20 ff ff ff 	lea    -0xe0(%rbp),%rsi
    69b8:	e8 13 ba ff ff       	call   23d0 <_ZNSi10_M_extractIdEERSiRT_@plt>
    69bd:	ba 18 00 00 00       	mov    $0x18,%edx
    69c2:	48 8d 35 a2 39 00 00 	lea    0x39a2(%rip),%rsi        # a36b <_IO_stdin_used+0x36b>
    69c9:	48 8d 3d 70 56 00 00 	lea    0x5670(%rip),%rdi        # c040 <_ZSt4cout@GLIBCXX_3.4>
    69d0:	e8 bb ba ff ff       	call   2490 <_ZSt16__ostream_insertIcSt11char_traitsIcEERSt13basic_ostreamIT_T0_ES6_PKS3_l@plt>
    69d5:	48 89 df             	mov    %rbx,%rdi
    69d8:	48 8d b5 28 ff ff ff 	lea    -0xd8(%rbp),%rsi
    69df:	e8 ec b9 ff ff       	call   23d0 <_ZNSi10_M_extractIdEERSiRT_@plt>
    69e4:	8b 9d fc fe ff ff    	mov    -0x104(%rbp),%ebx
    69ea:	db ad 30 ff ff ff    	fldt   -0xd0(%rbp)
    69f0:	31 d2                	xor    %edx,%edx
    69f2:	be 03 00 00 00       	mov    $0x3,%esi
    69f7:	f2 0f 10 85 28 ff ff 	movsd  -0xd8(%rbp),%xmm0
    69fe:	ff 
    69ff:	f2 0f 5e 05 01 3b 00 	divsd  0x3b01(%rip),%xmm0        # a508 <_IO_stdin_used+0x508>
    6a06:	00 
    6a07:	f2 0f 11 85 80 fe ff 	movsd  %xmm0,-0x180(%rbp)
    6a0e:	ff 
    6a0f:	89 df                	mov    %ebx,%edi
    6a11:	0f af fb             	imul   %ebx,%edi
    6a14:	dd 9d c0 fe ff ff    	fstpl  -0x140(%rbp)
    6a1a:	0f af fb             	imul   %ebx,%edi
    6a1d:	c1 e7 03             	shl    $0x3,%edi
    6a20:	e8 eb 0e 00 00       	call   7910 <_Z10allocate2djjPPe>
    6a25:	66 0f ef c0          	pxor   %xmm0,%xmm0
    6a29:	f2 0f 10 a5 c0 fe ff 	movsd  -0x140(%rbp),%xmm4
    6a30:	ff 
    6a31:	48 89 85 60 fe ff ff 	mov    %rax,-0x1a0(%rbp)
    6a38:	48 89 c7             	mov    %rax,%rdi
    6a3b:	89 d8                	mov    %ebx,%eax
    6a3d:	01 db                	add    %ebx,%ebx
    6a3f:	f2 48 0f 2a c0       	cvtsi2sd %rax,%xmm0
    6a44:	f2 0f 5e e0          	divsd  %xmm0,%xmm4
    6a48:	f2 0f 11 a5 b8 fe ff 	movsd  %xmm4,-0x148(%rbp)
    6a4f:	ff 
    6a50:	dd 85 b8 fe ff ff    	fldl   -0x148(%rbp)
    6a56:	d9 05 a8 35 00 00    	flds   0x35a8(%rip)        # a004 <_IO_stdin_used+0x4>
    6a5c:	d8 c9                	fmul   %st(1),%st
    6a5e:	85 db                	test   %ebx,%ebx
    6a60:	0f 8e b0 00 00 00    	jle    6b16 <_Z7blearghv+0x2b6>
    6a66:	dd 85 c0 fe ff ff    	fldl   -0x140(%rbp)
    6a6c:	44 8d 4b ff          	lea    -0x1(%rbx),%r9d
    6a70:	31 f6                	xor    %esi,%esi
    6a72:	31 c0                	xor    %eax,%eax
    6a74:	4c 8d 47 08          	lea    0x8(%rdi),%r8
    6a78:	d9 c1                	fld    %st(1)
    6a7a:	eb 06                	jmp    6a82 <_Z7blearghv+0x222>
    6a7c:	d9 c9                	fxch   %st(1)
    6a7e:	d9 ca                	fxch   %st(2)
    6a80:	d9 c9                	fxch   %st(1)
    6a82:	d9 c0                	fld    %st(0)
    6a84:	45 31 d2             	xor    %r10d,%r10d
    6a87:	d8 e2                	fsub   %st(2),%st
    6a89:	d9 c3                	fld    %st(3)
    6a8b:	eb 06                	jmp    6a93 <_Z7blearghv+0x233>
    6a8d:	d9 c9                	fxch   %st(1)
    6a8f:	d9 cc                	fxch   %st(4)
    6a91:	d9 c9                	fxch   %st(1)
    6a93:	d9 c0                	fld    %st(0)
    6a95:	48 8b bd 60 fe ff ff 	mov    -0x1a0(%rbp),%rdi
    6a9c:	48 63 ce             	movslq %esi,%rcx
    6a9f:	d8 e4                	fsub   %st(4),%st
    6aa1:	48 8d 14 cf          	lea    (%rdi,%rcx,8),%rdx
    6aa5:	4c 01 c9             	add    %r9,%rcx
    6aa8:	49 8d 3c c8          	lea    (%r8,%rcx,8),%rdi
    6aac:	d9 c5                	fld    %st(5)
    6aae:	db bd c0 fe ff ff    	fstpt  -0x140(%rbp)
    6ab4:	eb 04                	jmp    6aba <_Z7blearghv+0x25a>
    6ab6:	d9 cd                	fxch   %st(5)
    6ab8:	d9 ca                	fxch   %st(2)
    6aba:	d9 c5                	fld    %st(5)
    6abc:	48 8b 0a             	mov    (%rdx),%rcx
    6abf:	48 83 c2 08          	add    $0x8,%rdx
    6ac3:	d8 e5                	fsub   %st(5),%st
    6ac5:	db 39                	fstpt  (%rcx)
    6ac7:	d9 c0                	fld    %st(0)
    6ac9:	db 79 10             	fstpt  0x10(%rcx)
    6acc:	d9 ca                	fxch   %st(2)
    6ace:	d9 c0                	fld    %st(0)
    6ad0:	db 79 20             	fstpt  0x20(%rcx)
    6ad3:	d9 cd                	fxch   %st(5)
    6ad5:	d8 c6                	fadd   %st(6),%st
    6ad7:	48 39 d7             	cmp    %rdx,%rdi
    6ada:	75 da                	jne    6ab6 <_Z7blearghv+0x256>
    6adc:	dd d8                	fstp   %st(0)
    6ade:	dd d9                	fstp   %st(1)
    6ae0:	db ad c0 fe ff ff    	fldt   -0x140(%rbp)
    6ae6:	d9 c9                	fxch   %st(1)
    6ae8:	41 83 c2 01          	add    $0x1,%r10d
    6aec:	01 de                	add    %ebx,%esi
    6aee:	d8 c5                	fadd   %st(5),%st
    6af0:	41 39 da             	cmp    %ebx,%r10d
    6af3:	75 98                	jne    6a8d <_Z7blearghv+0x22d>
    6af5:	dd d8                	fstp   %st(0)
    6af7:	dd db                	fstp   %st(3)
    6af9:	d9 c9                	fxch   %st(1)
    6afb:	d9 ca                	fxch   %st(2)
    6afd:	d9 c9                	fxch   %st(1)
    6aff:	83 c0 01             	add    $0x1,%eax
    6b02:	d8 c3                	fadd   %st(3),%st
    6b04:	39 d8                	cmp    %ebx,%eax
    6b06:	0f 85 70 ff ff ff    	jne    6a7c <_Z7blearghv+0x21c>
    6b0c:	dd d8                	fstp   %st(0)
    6b0e:	dd d8                	fstp   %st(0)
    6b10:	dd d8                	fstp   %st(0)
    6b12:	dd d8                	fstp   %st(0)
    6b14:	eb 04                	jmp    6b1a <_Z7blearghv+0x2ba>
    6b16:	dd d8                	fstp   %st(0)
    6b18:	dd d8                	fstp   %st(0)
    6b1a:	db ad 30 ff ff ff    	fldt   -0xd0(%rbp)
    6b20:	8b b5 f4 fe ff ff    	mov    -0x10c(%rbp),%esi
    6b26:	8b bd f8 fe ff ff    	mov    -0x108(%rbp),%edi
    6b2c:	dd 9d c0 fe ff ff    	fstpl  -0x140(%rbp)
    6b32:	f2 0f 10 85 c0 fe ff 	movsd  -0x140(%rbp),%xmm0
    6b39:	ff 
    6b3a:	e8 11 f1 ff ff       	call   5c50 <_Z18compute_spheremeshdjj>
    6b3f:	bf 04 00 00 00       	mov    $0x4,%edi
    6b44:	48 89 85 20 fe ff ff 	mov    %rax,-0x1e0(%rbp)
    6b4b:	8b 85 fc fe ff ff    	mov    -0x104(%rbp),%eax
    6b51:	8d 34 00             	lea    (%rax,%rax,1),%esi
    6b54:	89 f2                	mov    %esi,%edx
    6b56:	89 f1                	mov    %esi,%ecx
    6b58:	e8 c3 11 00 00       	call   7d20 <_Z10allocate4djjjj>
    6b5d:	31 f6                	xor    %esi,%esi
    6b5f:	48 89 85 c0 fe ff ff 	mov    %rax,-0x140(%rbp)
    6b66:	8b 85 fc fe ff ff    	mov    -0x104(%rbp),%eax
    6b6c:	49 89 f4             	mov    %rsi,%r12
    6b6f:	8d 14 00             	lea    (%rax,%rax,1),%edx
    6b72:	85 d2                	test   %edx,%edx
    6b74:	0f 8e fc 01 00 00    	jle    6d76 <_Z7blearghv+0x516>
    6b7a:	44 89 a5 90 fe ff ff 	mov    %r12d,-0x170(%rbp)
    6b81:	85 c0                	test   %eax,%eax
    6b83:	0f 8e 76 0b 00 00    	jle    76ff <_Z7blearghv+0xe9f>
    6b89:	48 8d 75 80          	lea    -0x80(%rbp),%rsi
    6b8d:	4a 8d 1c e5 00 00 00 	lea    0x0(,%r12,8),%rbx
    6b94:	00 
    6b95:	31 c9                	xor    %ecx,%ecx
    6b97:	31 ff                	xor    %edi,%edi
    6b99:	48 89 b5 b8 fe ff ff 	mov    %rsi,-0x148(%rbp)
    6ba0:	45 31 c0             	xor    %r8d,%r8d
    6ba3:	4c 89 a5 78 fe ff ff 	mov    %r12,-0x188(%rbp)
    6baa:	49 89 dc             	mov    %rbx,%r12
    6bad:	48 8b 9d c0 fe ff ff 	mov    -0x140(%rbp),%rbx
    6bb4:	48 89 bd 70 fe ff ff 	mov    %rdi,-0x190(%rbp)
    6bbb:	4c 8d 2c fd 00 00 00 	lea    0x0(,%rdi,8),%r13
    6bc2:	00 
    6bc3:	45 31 ff             	xor    %r15d,%r15d
    6bc6:	44 89 85 6c fe ff ff 	mov    %r8d,-0x194(%rbp)
    6bcd:	89 8d 88 fe ff ff    	mov    %ecx,-0x178(%rbp)
    6bd3:	8b 95 88 fe ff ff    	mov    -0x178(%rbp),%edx
    6bd9:	8b bd 90 fe ff ff    	mov    -0x170(%rbp),%edi
    6bdf:	0f af d0             	imul   %eax,%edx
    6be2:	8d 3c 57             	lea    (%rdi,%rdx,2),%edi
    6be5:	89 c2                	mov    %eax,%edx
    6be7:	41 0f af d7          	imul   %r15d,%edx
    6beb:	0f af c2             	imul   %edx,%eax
    6bee:	8d 04 87             	lea    (%rdi,%rax,4),%eax
    6bf1:	48 8b bd 60 fe ff ff 	mov    -0x1a0(%rbp),%rdi
    6bf8:	48 98                	cltq
    6bfa:	4c 8d 34 c7          	lea    (%rdi,%rax,8),%r14
    6bfe:	48 8b bd b8 fe ff ff 	mov    -0x148(%rbp),%rdi
    6c05:	49 8b 06             	mov    (%r14),%rax
    6c08:	db 68 20             	fldt   0x20(%rax)
    6c0b:	dd 9d b0 fe ff ff    	fstpl  -0x150(%rbp)
    6c11:	db 68 10             	fldt   0x10(%rax)
    6c14:	f2 0f 10 95 b0 fe ff 	movsd  -0x150(%rbp),%xmm2
    6c1b:	ff 
    6c1c:	dd 9d a8 fe ff ff    	fstpl  -0x158(%rbp)
    6c22:	db 28                	fldt   (%rax)
    6c24:	f2 0f 10 8d a8 fe ff 	movsd  -0x158(%rbp),%xmm1
    6c2b:	ff 
    6c2c:	dd 9d a0 fe ff ff    	fstpl  -0x160(%rbp)
    6c32:	f2 0f 10 85 a0 fe ff 	movsd  -0x160(%rbp),%xmm0
    6c39:	ff 
    6c3a:	e8 11 1f 00 00       	call   8b50 <_Z8velocityddd>
    6c3f:	48 8b 3b             	mov    (%rbx),%rdi
    6c42:	dd 45 80             	fldl   -0x80(%rbp)
    6c45:	4c 89 f8             	mov    %r15,%rax
    6c48:	48 c1 e0 04          	shl    $0x4,%rax
    6c4c:	49 83 c7 01          	add    $0x1,%r15
    6c50:	4a 8b 3c 27          	mov    (%rdi,%r12,1),%rdi
    6c54:	48 89 85 b0 fe ff ff 	mov    %rax,-0x150(%rbp)
    6c5b:	4a 8b 3c 2f          	mov    (%rdi,%r13,1),%rdi
    6c5f:	db 3c 07             	fstpt  (%rdi,%rax,1)
    6c62:	49 8b 3e             	mov    (%r14),%rdi
    6c65:	db 6f 20             	fldt   0x20(%rdi)
    6c68:	dd 9d a8 fe ff ff    	fstpl  -0x158(%rbp)
    6c6e:	db 6f 10             	fldt   0x10(%rdi)
    6c71:	f2 0f 10 95 a8 fe ff 	movsd  -0x158(%rbp),%xmm2
    6c78:	ff 
    6c79:	dd 9d a0 fe ff ff    	fstpl  -0x160(%rbp)
    6c7f:	db 2f                	fldt   (%rdi)
    6c81:	f2 0f 10 8d a0 fe ff 	movsd  -0x160(%rbp),%xmm1
    6c88:	ff 
    6c89:	48 8b bd b8 fe ff ff 	mov    -0x148(%rbp),%rdi
    6c90:	dd 9d 98 fe ff ff    	fstpl  -0x168(%rbp)
    6c96:	f2 0f 10 85 98 fe ff 	movsd  -0x168(%rbp),%xmm0
    6c9d:	ff 
    6c9e:	e8 ad 1e 00 00       	call   8b50 <_Z8velocityddd>
    6ca3:	48 8b 7b 08          	mov    0x8(%rbx),%rdi
    6ca7:	dd 45 88             	fldl   -0x78(%rbp)
    6caa:	49 8b 16             	mov    (%r14),%rdx
    6cad:	48 8b 85 b0 fe ff ff 	mov    -0x150(%rbp),%rax
    6cb4:	4a 8b 3c 27          	mov    (%rdi,%r12,1),%rdi
    6cb8:	4a 8b 3c 2f          	mov    (%rdi,%r13,1),%rdi
    6cbc:	db 3c 07             	fstpt  (%rdi,%rax,1)
    6cbf:	db 6a 20             	fldt   0x20(%rdx)
    6cc2:	48 8b bd b8 fe ff ff 	mov    -0x148(%rbp),%rdi
    6cc9:	dd 9d a8 fe ff ff    	fstpl  -0x158(%rbp)
    6ccf:	db 6a 10             	fldt   0x10(%rdx)
    6cd2:	f2 0f 10 95 a8 fe ff 	movsd  -0x158(%rbp),%xmm2
    6cd9:	ff 
    6cda:	dd 9d a0 fe ff ff    	fstpl  -0x160(%rbp)
    6ce0:	db 2a                	fldt   (%rdx)
    6ce2:	f2 0f 10 8d a0 fe ff 	movsd  -0x160(%rbp),%xmm1
    6ce9:	ff 
    6cea:	dd 9d 98 fe ff ff    	fstpl  -0x168(%rbp)
    6cf0:	f2 0f 10 85 98 fe ff 	movsd  -0x168(%rbp),%xmm0
    6cf7:	ff 
    6cf8:	e8 53 1e 00 00       	call   8b50 <_Z8velocityddd>
    6cfd:	48 8b 53 10          	mov    0x10(%rbx),%rdx
    6d01:	dd 45 90             	fldl   -0x70(%rbp)
    6d04:	48 8b 85 b0 fe ff ff 	mov    -0x150(%rbp),%rax
    6d0b:	4a 8b 14 22          	mov    (%rdx,%r12,1),%rdx
    6d0f:	4a 8b 14 2a          	mov    (%rdx,%r13,1),%rdx
    6d13:	db 3c 02             	fstpt  (%rdx,%rax,1)
    6d16:	48 8b 53 18          	mov    0x18(%rbx),%rdx
    6d1a:	dd 85 18 ff ff ff    	fldl   -0xe8(%rbp)
    6d20:	4a 8b 14 22          	mov    (%rdx,%r12,1),%rdx
    6d24:	4a 8b 14 2a          	mov    (%rdx,%r13,1),%rdx
    6d28:	db 3c 02             	fstpt  (%rdx,%rax,1)
    6d2b:	8b 85 fc fe ff ff    	mov    -0x104(%rbp),%eax
    6d31:	8d 14 00             	lea    (%rax,%rax,1),%edx
    6d34:	44 39 fa             	cmp    %r15d,%edx
    6d37:	0f 8f 96 fe ff ff    	jg     6bd3 <_Z7blearghv+0x373>
    6d3d:	44 8b 85 6c fe ff ff 	mov    -0x194(%rbp),%r8d
    6d44:	48 8b bd 70 fe ff ff 	mov    -0x190(%rbp),%rdi
    6d4b:	41 83 c0 01          	add    $0x1,%r8d
    6d4f:	44 39 c2             	cmp    %r8d,%edx
    6d52:	7e 0e                	jle    6d62 <_Z7blearghv+0x502>
    6d54:	48 83 c7 01          	add    $0x1,%rdi
    6d58:	41 89 f8             	mov    %edi,%r8d
    6d5b:	89 f9                	mov    %edi,%ecx
    6d5d:	e9 52 fe ff ff       	jmp    6bb4 <_Z7blearghv+0x354>
    6d62:	4c 8b a5 78 fe ff ff 	mov    -0x188(%rbp),%r12
    6d69:	49 83 c4 01          	add    $0x1,%r12
    6d6d:	44 39 e2             	cmp    %r12d,%edx
    6d70:	0f 8f 04 fe ff ff    	jg     6b7a <_Z7blearghv+0x31a>
    6d76:	89 85 b8 fe ff ff    	mov    %eax,-0x148(%rbp)
    6d7c:	db 85 b8 fe ff ff    	fildl  -0x148(%rbp)
    6d82:	89 d1                	mov    %edx,%ecx
    6d84:	31 ff                	xor    %edi,%edi
    6d86:	48 83 ec 30          	sub    $0x30,%rsp
    6d8a:	48 8b b5 c0 fe ff ff 	mov    -0x140(%rbp),%rsi
    6d91:	41 89 d0             	mov    %edx,%r8d
    6d94:	db ad 30 ff ff ff    	fldt   -0xd0(%rbp)
    6d9a:	de f1                	fdivp  %st,%st(1)
    6d9c:	d9 c0                	fld    %st(0)
    6d9e:	db 7c 24 20          	fstpt  0x20(%rsp)
    6da2:	d9 c0                	fld    %st(0)
    6da4:	db 7c 24 10          	fstpt  0x10(%rsp)
    6da8:	db 3c 24             	fstpt  (%rsp)
    6dab:	e8 50 1e 00 00       	call   8c00 <_Z12writeVTKFileiPPPPeiiieee>
    6db0:	8b 85 fc fe ff ff    	mov    -0x104(%rbp),%eax
    6db6:	48 83 c4 30          	add    $0x30,%rsp
    6dba:	8d 3c 00             	lea    (%rax,%rax,1),%edi
    6dbd:	89 fa                	mov    %edi,%edx
    6dbf:	89 fe                	mov    %edi,%esi
    6dc1:	e8 ba 0c 00 00       	call   7a80 <_Z11allocate3dtjjj>
    6dc6:	8b 8d fc fe ff ff    	mov    -0x104(%rbp),%ecx
    6dcc:	48 89 85 18 fe ff ff 	mov    %rax,-0x1e8(%rbp)
    6dd3:	85 c9                	test   %ecx,%ecx
    6dd5:	0f 8e 42 01 00 00    	jle    6f1d <_Z7blearghv+0x6bd>
    6ddb:	4c 8d 75 80          	lea    -0x80(%rbp),%r14
    6ddf:	31 db                	xor    %ebx,%ebx
    6de1:	49 89 c7             	mov    %rax,%r15
    6de4:	45 31 e4             	xor    %r12d,%r12d
    6de7:	4c 89 f0             	mov    %r14,%rax
    6dea:	45 31 c0             	xor    %r8d,%r8d
    6ded:	41 89 de             	mov    %ebx,%r14d
    6df0:	31 ff                	xor    %edi,%edi
    6df2:	48 89 c3             	mov    %rax,%rbx
    6df5:	48 89 d8             	mov    %rbx,%rax
    6df8:	48 89 bd 98 fe ff ff 	mov    %rdi,-0x168(%rbp)
    6dff:	31 f6                	xor    %esi,%esi
    6e01:	4c 89 fb             	mov    %r15,%rbx
    6e04:	44 89 85 90 fe ff ff 	mov    %r8d,-0x170(%rbp)
    6e0b:	4c 8d 2c fd 00 00 00 	lea    0x0(,%rdi,8),%r13
    6e12:	00 
    6e13:	49 89 f7             	mov    %rsi,%r15
    6e16:	48 89 85 a0 fe ff ff 	mov    %rax,-0x160(%rbp)
    6e1d:	89 c8                	mov    %ecx,%eax
    6e1f:	f2 0f 10 85 18 ff ff 	movsd  -0xe8(%rbp),%xmm0
    6e26:	ff 
    6e27:	41 0f af c6          	imul   %r14d,%eax
    6e2b:	41 8d 3c 44          	lea    (%r12,%rax,2),%edi
    6e2f:	89 c8                	mov    %ecx,%eax
    6e31:	41 0f af c7          	imul   %r15d,%eax
    6e35:	0f af c1             	imul   %ecx,%eax
    6e38:	8d 04 87             	lea    (%rdi,%rax,4),%eax
    6e3b:	48 8b bd 60 fe ff ff 	mov    -0x1a0(%rbp),%rdi
    6e42:	48 98                	cltq
    6e44:	48 8b 04 c7          	mov    (%rdi,%rax,8),%rax
    6e48:	48 8b bd a0 fe ff ff 	mov    -0x160(%rbp),%rdi
    6e4f:	db 68 20             	fldt   0x20(%rax)
    6e52:	dd 9d b8 fe ff ff    	fstpl  -0x148(%rbp)
    6e58:	db 68 10             	fldt   0x10(%rax)
    6e5b:	f2 0f 10 9d b8 fe ff 	movsd  -0x148(%rbp),%xmm3
    6e62:	ff 
    6e63:	dd 9d b0 fe ff ff    	fstpl  -0x150(%rbp)
    6e69:	db 28                	fldt   (%rax)
    6e6b:	f2 0f 10 95 b0 fe ff 	movsd  -0x150(%rbp),%xmm2
    6e72:	ff 
    6e73:	dd 9d a8 fe ff ff    	fstpl  -0x158(%rbp)
    6e79:	f2 0f 10 8d a8 fe ff 	movsd  -0x158(%rbp),%xmm1
    6e80:	ff 
    6e81:	e8 7a 11 00 00       	call   8000 <_Z6stressdddd>
    6e86:	48 8b 03             	mov    (%rbx),%rax
    6e89:	4b 8d 0c ff          	lea    (%r15,%r15,8),%rcx
    6e8d:	66 0f 28 65 80       	movapd -0x80(%rbp),%xmm4
    6e92:	f2 0f 10 45 c0       	movsd  -0x40(%rbp),%xmm0
    6e97:	49 83 c7 01          	add    $0x1,%r15
    6e9b:	4a 8b 04 28          	mov    (%rax,%r13,1),%rax
    6e9f:	48 8d 04 c8          	lea    (%rax,%rcx,8),%rax
    6ea3:	8b 8d fc fe ff ff    	mov    -0x104(%rbp),%ecx
    6ea9:	0f 11 20             	movups %xmm4,(%rax)
    6eac:	66 0f 28 65 90       	movapd -0x70(%rbp),%xmm4
    6eb1:	f2 0f 11 40 40       	movsd  %xmm0,0x40(%rax)
    6eb6:	0f 11 60 10          	movups %xmm4,0x10(%rax)
    6eba:	66 0f 28 65 a0       	movapd -0x60(%rbp),%xmm4
    6ebf:	0f 11 60 20          	movups %xmm4,0x20(%rax)
    6ec3:	66 0f 28 65 b0       	movapd -0x50(%rbp),%xmm4
    6ec8:	0f 11 60 30          	movups %xmm4,0x30(%rax)
    6ecc:	8d 04 09             	lea    (%rcx,%rcx,1),%eax
    6ecf:	44 39 f8             	cmp    %r15d,%eax
    6ed2:	0f 8f 45 ff ff ff    	jg     6e1d <_Z7blearghv+0x5bd>
    6ed8:	44 8b 85 90 fe ff ff 	mov    -0x170(%rbp),%r8d
    6edf:	49 89 df             	mov    %rbx,%r15
    6ee2:	48 8b bd 98 fe ff ff 	mov    -0x168(%rbp),%rdi
    6ee9:	48 8b 9d a0 fe ff ff 	mov    -0x160(%rbp),%rbx
    6ef0:	41 83 c0 01          	add    $0x1,%r8d
    6ef4:	44 39 c0             	cmp    %r8d,%eax
    6ef7:	7e 0f                	jle    6f08 <_Z7blearghv+0x6a8>
    6ef9:	48 83 c7 01          	add    $0x1,%rdi
    6efd:	41 89 f8             	mov    %edi,%r8d
    6f00:	41 89 fe             	mov    %edi,%r14d
    6f03:	e9 ed fe ff ff       	jmp    6df5 <_Z7blearghv+0x595>
    6f08:	41 83 c4 01          	add    $0x1,%r12d
    6f0c:	49 83 c7 08          	add    $0x8,%r15
    6f10:	44 39 e0             	cmp    %r12d,%eax
    6f13:	7e 08                	jle    6f1d <_Z7blearghv+0x6bd>
    6f15:	85 c9                	test   %ecx,%ecx
    6f17:	7e 04                	jle    6f1d <_Z7blearghv+0x6bd>
    6f19:	31 ff                	xor    %edi,%edi
    6f1b:	eb e0                	jmp    6efd <_Z7blearghv+0x69d>
    6f1d:	48 83 bd 60 fe ff ff 	cmpq   $0x0,-0x1a0(%rbp)
    6f24:	00 
    6f25:	0f 84 1d 08 00 00    	je     7748 <_Z7blearghv+0xee8>
    6f2b:	89 c8                	mov    %ecx,%eax
    6f2d:	66 0f ef c0          	pxor   %xmm0,%xmm0
    6f31:	f2 0f 10 a5 10 ff ff 	movsd  -0xf0(%rbp),%xmm4
    6f38:	ff 
    6f39:	48 c7 85 50 ff ff ff 	movq   $0x0,-0xb0(%rbp)
    6f40:	00 00 00 00 
    6f44:	0f af c1             	imul   %ecx,%eax
    6f47:	db ad 30 ff ff ff    	fldt   -0xd0(%rbp)
    6f4d:	0f 29 85 40 ff ff ff 	movaps %xmm0,-0xc0(%rbp)
    6f54:	f2 0f 11 a5 50 fe ff 	movsd  %xmm4,-0x1b0(%rbp)
    6f5b:	ff 
    6f5c:	f2 0f 10 a5 08 ff ff 	movsd  -0xf8(%rbp),%xmm4
    6f63:	ff 
    6f64:	0f af c1             	imul   %ecx,%eax
    6f67:	f2 0f 11 a5 48 fe ff 	movsd  %xmm4,-0x1b8(%rbp)
    6f6e:	ff 
    6f6f:	f2 0f 10 a5 00 ff ff 	movsd  -0x100(%rbp),%xmm4
    6f76:	ff 
    6f77:	f2 0f 11 a5 40 fe ff 	movsd  %xmm4,-0x1c0(%rbp)
    6f7e:	ff 
    6f7f:	85 c0                	test   %eax,%eax
    6f81:	0f 84 4f 07 00 00    	je     76d6 <_Z7blearghv+0xe76>
    6f87:	48 8d 85 40 ff ff ff 	lea    -0xc0(%rbp),%rax
    6f8e:	31 f6                	xor    %esi,%esi
    6f90:	31 db                	xor    %ebx,%ebx
    6f92:	48 89 85 38 fe ff ff 	mov    %rax,-0x1c8(%rbp)
    6f99:	eb 2d                	jmp    6fc8 <_Z7blearghv+0x768>
    6f9b:	89 18                	mov    %ebx,(%rax)
    6f9d:	48 83 c0 04          	add    $0x4,%rax
    6fa1:	48 89 85 48 ff ff ff 	mov    %rax,-0xb8(%rbp)
    6fa8:	8b 8d fc fe ff ff    	mov    -0x104(%rbp),%ecx
    6fae:	89 c8                	mov    %ecx,%eax
    6fb0:	48 83 c3 01          	add    $0x1,%rbx
    6fb4:	0f af c1             	imul   %ecx,%eax
    6fb7:	0f af c1             	imul   %ecx,%eax
    6fba:	c1 e0 03             	shl    $0x3,%eax
    6fbd:	48 98                	cltq
    6fbf:	48 39 c3             	cmp    %rax,%rbx
    6fc2:	0f 83 d9 00 00 00    	jae    70a1 <_Z7blearghv+0x841>
    6fc8:	48 8b 85 60 fe ff ff 	mov    -0x1a0(%rbp),%rax
    6fcf:	48 8b 04 d8          	mov    (%rax,%rbx,8),%rax
    6fd3:	db 68 20             	fldt   0x20(%rax)
    6fd6:	dd 9d b8 fe ff ff    	fstpl  -0x148(%rbp)
    6fdc:	db 68 10             	fldt   0x10(%rax)
    6fdf:	f2 0f 10 8d b8 fe ff 	movsd  -0x148(%rbp),%xmm1
    6fe6:	ff 
    6fe7:	f2 0f 59 c9          	mulsd  %xmm1,%xmm1
    6feb:	dd 9d b8 fe ff ff    	fstpl  -0x148(%rbp)
    6ff1:	db 28                	fldt   (%rax)
    6ff3:	f2 0f 10 95 b8 fe ff 	movsd  -0x148(%rbp),%xmm2
    6ffa:	ff 
    6ffb:	f2 0f 59 d2          	mulsd  %xmm2,%xmm2
    6fff:	dd 9d b8 fe ff ff    	fstpl  -0x148(%rbp)
    7005:	f2 0f 10 85 b8 fe ff 	movsd  -0x148(%rbp),%xmm0
    700c:	ff 
    700d:	89 8d b8 fe ff ff    	mov    %ecx,-0x148(%rbp)
    7013:	db 85 b8 fe ff ff    	fildl  -0x148(%rbp)
    7019:	f2 0f 59 c0          	mulsd  %xmm0,%xmm0
    701d:	d8 f9                	fdivr  %st(1),%st
    701f:	f2 0f 58 c2          	addsd  %xmm2,%xmm0
    7023:	f2 0f 58 c1          	addsd  %xmm1,%xmm0
    7027:	f2 0f 51 c0          	sqrtsd %xmm0,%xmm0
    702b:	dd 9d b8 fe ff ff    	fstpl  -0x148(%rbp)
    7031:	f2 0f 10 a5 b8 fe ff 	movsd  -0x148(%rbp),%xmm4
    7038:	ff 
    7039:	dd 95 b8 fe ff ff    	fstl   -0x148(%rbp)
    703f:	f2 0f 10 9d b8 fe ff 	movsd  -0x148(%rbp),%xmm3
    7046:	ff 
    7047:	66 0f 28 cc          	movapd %xmm4,%xmm1
    704b:	f2 0f 58 c8          	addsd  %xmm0,%xmm1
    704f:	66 0f 2f d9          	comisd %xmm1,%xmm3
    7053:	0f 87 55 ff ff ff    	ja     6fae <_Z7blearghv+0x74e>
    7059:	f2 0f 5c c4          	subsd  %xmm4,%xmm0
    705d:	66 0f 2f c3          	comisd %xmm3,%xmm0
    7061:	0f 87 47 ff ff ff    	ja     6fae <_Z7blearghv+0x74e>
    7067:	48 8b 85 48 ff ff ff 	mov    -0xb8(%rbp),%rax
    706e:	89 5d 80             	mov    %ebx,-0x80(%rbp)
    7071:	48 39 f0             	cmp    %rsi,%rax
    7074:	0f 85 21 ff ff ff    	jne    6f9b <_Z7blearghv+0x73b>
    707a:	dd d8                	fstp   %st(0)
    707c:	4c 8d 75 80          	lea    -0x80(%rbp),%r14
    7080:	48 8b bd 38 fe ff ff 	mov    -0x1c8(%rbp),%rdi
    7087:	4c 89 f2             	mov    %r14,%rdx
    708a:	e8 f1 06 00 00       	call   7780 <_ZNSt6vectorIiSaIiEE17_M_realloc_insertIJiEEEvN9__gnu_cxx17__normal_iteratorIPiS1_EEDpOT_>
    708f:	db ad 30 ff ff ff    	fldt   -0xd0(%rbp)
    7095:	48 8b b5 50 ff ff ff 	mov    -0xb0(%rbp),%rsi
    709c:	e9 07 ff ff ff       	jmp    6fa8 <_Z7blearghv+0x748>
    70a1:	48 8b 85 40 ff ff ff 	mov    -0xc0(%rbp),%rax
    70a8:	48 29 c6             	sub    %rax,%rsi
    70ab:	48 89 85 30 fe ff ff 	mov    %rax,-0x1d0(%rbp)
    70b2:	48 89 b5 28 fe ff ff 	mov    %rsi,-0x1d8(%rbp)
    70b9:	48 8d 85 60 ff ff ff 	lea    -0xa0(%rbp),%rax
    70c0:	c7 85 68 fe ff ff 64 	movl   $0x64,-0x198(%rbp)
    70c7:	00 00 00 
    70ca:	48 89 85 10 fe ff ff 	mov    %rax,-0x1f0(%rbp)
    70d1:	48 8d 85 d0 fe ff ff 	lea    -0x130(%rbp),%rax
    70d8:	48 89 85 08 fe ff ff 	mov    %rax,-0x1f8(%rbp)
    70df:	48 8d 45 80          	lea    -0x80(%rbp),%rax
    70e3:	48 89 85 78 fe ff ff 	mov    %rax,-0x188(%rbp)
    70ea:	4c 8b b5 20 fe ff ff 	mov    -0x1e0(%rbp),%r14
    70f1:	48 83 ec 08          	sub    $0x8,%rsp
    70f5:	4c 8b bd 38 fe ff ff 	mov    -0x1c8(%rbp),%r15
    70fc:	48 8b 9d 60 fe ff ff 	mov    -0x1a0(%rbp),%rbx
    7103:	f2 0f 10 9d 18 ff ff 	movsd  -0xe8(%rbp),%xmm3
    710a:	ff 
    710b:	41 56                	push   %r14
    710d:	8b 95 f8 fe ff ff    	mov    -0x108(%rbp),%edx
    7113:	4d 89 f9             	mov    %r15,%r9
    7116:	8b b5 f4 fe ff ff    	mov    -0x10c(%rbp),%esi
    711c:	f2 0f 10 95 50 fe ff 	movsd  -0x1b0(%rbp),%xmm2
    7123:	ff 
    7124:	49 89 d8             	mov    %rbx,%r8
    7127:	f2 0f 10 8d 48 fe ff 	movsd  -0x1b8(%rbp),%xmm1
    712e:	ff 
    712f:	f2 0f 10 85 40 fe ff 	movsd  -0x1c0(%rbp),%xmm0
    7136:	ff 
    7137:	48 83 ec 20          	sub    $0x20,%rsp
    713b:	48 8b bd 10 fe ff ff 	mov    -0x1f0(%rbp),%rdi
    7142:	d9 c0                	fld    %st(0)
    7144:	db 7c 24 10          	fstpt  0x10(%rsp)
    7148:	db 3c 24             	fstpt  (%rsp)
    714b:	e8 b0 f2 ff ff       	call   6400 <_Z5forcedddjjeeidPPeRKSt6vectorIiSaIiEEPS0_>
    7150:	48 83 c4 28          	add    $0x28,%rsp
    7154:	8b 8d fc fe ff ff    	mov    -0x104(%rbp),%ecx
    715a:	4d 89 f9             	mov    %r15,%r9
    715d:	49 89 d8             	mov    %rbx,%r8
    7160:	f2 0f 10 9d 18 ff ff 	movsd  -0xe8(%rbp),%xmm3
    7167:	ff 
    7168:	8b 95 f8 fe ff ff    	mov    -0x108(%rbp),%edx
    716e:	41 56                	push   %r14
    7170:	ff b5 38 ff ff ff    	push   -0xc8(%rbp)
    7176:	8b b5 f4 fe ff ff    	mov    -0x10c(%rbp),%esi
    717c:	f2 0f 10 95 50 fe ff 	movsd  -0x1b0(%rbp),%xmm2
    7183:	ff 
    7184:	ff b5 30 ff ff ff    	push   -0xd0(%rbp)
    718a:	f2 0f 10 8d 48 fe ff 	movsd  -0x1b8(%rbp),%xmm1
    7191:	ff 
    7192:	ff b5 38 ff ff ff    	push   -0xc8(%rbp)
    7198:	f2 0f 10 85 40 fe ff 	movsd  -0x1c0(%rbp),%xmm0
    719f:	ff 
    71a0:	ff b5 30 ff ff ff    	push   -0xd0(%rbp)
    71a6:	48 8b bd 08 fe ff ff 	mov    -0x1f8(%rbp),%rdi
    71ad:	e8 7e f4 ff ff       	call   6630 <_Z6torquedddjjeeidPPeRKSt6vectorIiSaIiEEPS0_>
    71b2:	f2 0f 10 a5 80 fe ff 	movsd  -0x180(%rbp),%xmm4
    71b9:	ff 
    71ba:	f2 0f 10 95 70 ff ff 	movsd  -0x90(%rbp),%xmm2
    71c1:	ff 
    71c2:	66 0f ef ed          	pxor   %xmm5,%xmm5
    71c6:	48 83 c4 30          	add    $0x30,%rsp
    71ca:	f2 0f 10 8d 20 ff ff 	movsd  -0xe0(%rbp),%xmm1
    71d1:	ff 
    71d2:	f2 0f 10 9d 50 fe ff 	movsd  -0x1b0(%rbp),%xmm3
    71d9:	ff 
    71da:	f2 0f 59 d4          	mulsd  %xmm4,%xmm2
    71de:	8b 85 fc fe ff ff    	mov    -0x104(%rbp),%eax
    71e4:	48 8b 9d 18 fe ff ff 	mov    -0x1e8(%rbp),%rbx
    71eb:	f2 0f 58 c9          	addsd  %xmm1,%xmm1
    71ef:	f2 0f 59 ec          	mulsd  %xmm4,%xmm5
    71f3:	db 85 fc fe ff ff    	fildl  -0x104(%rbp)
    71f9:	8d 34 00             	lea    (%rax,%rax,1),%esi
    71fc:	48 89 df             	mov    %rbx,%rdi
    71ff:	db ad 30 ff ff ff    	fldt   -0xd0(%rbp)
    7205:	f2 0f 59 d4          	mulsd  %xmm4,%xmm2
    7209:	f2 0f 58 dd          	addsd  %xmm5,%xmm3
    720d:	66 0f 28 c5          	movapd %xmm5,%xmm0
    7211:	de f1                	fdivp  %st,%st(1)
    7213:	f2 0f 58 85 40 fe ff 	addsd  -0x1c0(%rbp),%xmm0
    721a:	ff 
    721b:	f2 0f 5e d1          	divsd  %xmm1,%xmm2
    721f:	f2 0f 58 d3          	addsd  %xmm3,%xmm2
    7223:	f2 0f 10 9d 48 fe ff 	movsd  -0x1b8(%rbp),%xmm3
    722a:	ff 
    722b:	f2 0f 58 dd          	addsd  %xmm5,%xmm3
    722f:	f2 0f 11 95 50 fe ff 	movsd  %xmm2,-0x1b0(%rbp)
    7236:	ff 
    7237:	f2 0f 10 95 68 ff ff 	movsd  -0x98(%rbp),%xmm2
    723e:	ff 
    723f:	f2 0f 59 d4          	mulsd  %xmm4,%xmm2
    7243:	dd 9d b8 fe ff ff    	fstpl  -0x148(%rbp)
    7249:	f2 0f 59 d4          	mulsd  %xmm4,%xmm2
    724d:	f2 0f 5e d1          	divsd  %xmm1,%xmm2
    7251:	f2 0f 58 d3          	addsd  %xmm3,%xmm2
    7255:	f2 0f 11 95 48 fe ff 	movsd  %xmm2,-0x1b8(%rbp)
    725c:	ff 
    725d:	f2 0f 10 95 60 ff ff 	movsd  -0xa0(%rbp),%xmm2
    7264:	ff 
    7265:	f2 0f 59 d4          	mulsd  %xmm4,%xmm2
    7269:	f2 0f 59 d4          	mulsd  %xmm4,%xmm2
    726d:	f2 0f 5e d1          	divsd  %xmm1,%xmm2
    7271:	f2 0f 58 d0          	addsd  %xmm0,%xmm2
    7275:	f2 0f 10 85 b8 fe ff 	movsd  -0x148(%rbp),%xmm0
    727c:	ff 
    727d:	f2 0f 11 95 40 fe ff 	movsd  %xmm2,-0x1c0(%rbp)
    7284:	ff 
    7285:	e8 06 10 00 00       	call   8290 <_Z9divtenallPPP6tensorid>
    728a:	8b 8d fc fe ff ff    	mov    -0x104(%rbp),%ecx
    7290:	48 89 9d 88 fe ff ff 	mov    %rbx,-0x178(%rbp)
    7297:	49 89 c7             	mov    %rax,%r15
    729a:	48 c7 85 58 fe ff ff 	movq   $0x0,-0x1a8(%rbp)
    72a1:	00 00 00 00 
    72a5:	85 c9                	test   %ecx,%ecx
    72a7:	0f 8e 3b 03 00 00    	jle    75e8 <_Z7blearghv+0xd88>
    72ad:	48 8b 85 58 fe ff ff 	mov    -0x1a8(%rbp),%rax
    72b4:	89 85 6c fe ff ff    	mov    %eax,-0x194(%rbp)
    72ba:	85 c9                	test   %ecx,%ecx
    72bc:	0f 8e 26 03 00 00    	jle    75e8 <_Z7blearghv+0xd88>
    72c2:	48 c7 85 70 fe ff ff 	movq   $0x0,-0x190(%rbp)
    72c9:	00 00 00 00 
    72cd:	4c 8d 34 c5 00 00 00 	lea    0x0(,%rax,8),%r14
    72d4:	00 
    72d5:	8d 04 09             	lea    (%rcx,%rcx,1),%eax
    72d8:	0f 1f 84 00 00 00 00 	nopl   0x0(%rax,%rax,1)
    72df:	00 
    72e0:	85 c0                	test   %eax,%eax
    72e2:	0f 8e 00 03 00 00    	jle    75e8 <_Z7blearghv+0xd88>
    72e8:	48 8b 9d 70 fe ff ff 	mov    -0x190(%rbp),%rbx
    72ef:	66 0f ef e4          	pxor   %xmm4,%xmm4
    72f3:	48 8b bd c0 fe ff ff 	mov    -0x140(%rbp),%rdi
    72fa:	45 31 db             	xor    %r11d,%r11d
    72fd:	f2 0f 2a e3          	cvtsi2sd %ebx,%xmm4
    7301:	48 8b 57 10          	mov    0x10(%rdi),%rdx
    7305:	48 8b 77 08          	mov    0x8(%rdi),%rsi
    7309:	4c 8d 24 dd 00 00 00 	lea    0x0(,%rbx,8),%r12
    7310:	00 
    7311:	48 8b 3f             	mov    (%rdi),%rdi
    7314:	4a 8b 14 32          	mov    (%rdx,%r14,1),%rdx
    7318:	4a 8b 34 36          	mov    (%rsi,%r14,1),%rsi
    731c:	4a 8b 3c 37          	mov    (%rdi,%r14,1),%rdi
    7320:	f2 0f 11 a5 98 fe ff 	movsd  %xmm4,-0x168(%rbp)
    7327:	ff 
    7328:	66 0f ef e4          	pxor   %xmm4,%xmm4
    732c:	48 8b 14 da          	mov    (%rdx,%rbx,8),%rdx
    7330:	48 8b 34 de          	mov    (%rsi,%rbx,8),%rsi
    7334:	f2 0f 2a a5 6c fe ff 	cvtsi2sdl -0x194(%rbp),%xmm4
    733b:	ff 
    733c:	48 8b 3c df          	mov    (%rdi,%rbx,8),%rdi
    7340:	f2 0f 11 a5 90 fe ff 	movsd  %xmm4,-0x170(%rbp)
    7347:	ff 
    7348:	0f 1f 84 00 00 00 00 	nopl   0x0(%rax,%rax,1)
    734f:	00 
    7350:	4c 89 db             	mov    %r11,%rbx
    7353:	89 8d a0 fe ff ff    	mov    %ecx,-0x160(%rbp)
    7359:	66 0f ef d2          	pxor   %xmm2,%xmm2
    735d:	4d 89 dd             	mov    %r11,%r13
    7360:	48 c1 e3 04          	shl    $0x4,%rbx
    7364:	f2 41 0f 2a d3       	cvtsi2sd %r11d,%xmm2
    7369:	f2 0f 10 8d 98 fe ff 	movsd  -0x168(%rbp),%xmm1
    7370:	ff 
    7371:	f2 0f 10 85 90 fe ff 	movsd  -0x170(%rbp),%xmm0
    7378:	ff 
    7379:	db 2c 1a             	fldt   (%rdx,%rbx,1)
    737c:	48 8b 95 c0 fe ff ff 	mov    -0x140(%rbp),%rdx
    7383:	dd 9d b8 fe ff ff    	fstpl  -0x148(%rbp)
    7389:	db 2c 1e             	fldt   (%rsi,%rbx,1)
    738c:	89 c6                	mov    %eax,%esi
    738e:	dd 9d b0 fe ff ff    	fstpl  -0x150(%rbp)
    7394:	db 2c 1f             	fldt   (%rdi,%rbx,1)
    7397:	48 8b bd 78 fe ff ff 	mov    -0x188(%rbp),%rdi
    739e:	dd 9d a8 fe ff ff    	fstpl  -0x158(%rbp)
    73a4:	db 85 a0 fe ff ff    	fildl  -0x160(%rbp)
    73aa:	db ad 30 ff ff ff    	fldt   -0xd0(%rbp)
    73b0:	de f1                	fdivp  %st,%st(1)
    73b2:	dd 9d a0 fe ff ff    	fstpl  -0x160(%rbp)
    73b8:	f2 0f 10 9d a0 fe ff 	movsd  -0x160(%rbp),%xmm3
    73bf:	ff 
    73c0:	e8 0b ee ff ff       	call   61d0 <_Z5gradvdddidPPPPe>
    73c5:	f2 44 0f 10 4d b0    	movsd  -0x50(%rbp),%xmm9
    73cb:	f2 0f 10 6d b8       	movsd  -0x48(%rbp),%xmm5
    73d0:	4b 8d 54 6d 00       	lea    0x0(%r13,%r13,2),%rdx
    73d5:	4b 8d 4c ed 00       	lea    0x0(%r13,%r13,8),%rcx
    73da:	f2 44 0f 10 ad a8 fe 	movsd  -0x158(%rbp),%xmm13
    73e1:	ff ff 
    73e3:	f2 0f 10 65 c0       	movsd  -0x40(%rbp),%xmm4
    73e8:	f2 44 0f 10 b5 b0 fe 	movsd  -0x150(%rbp),%xmm14
    73ef:	ff ff 
    73f1:	49 8b 07             	mov    (%r15),%rax
    73f4:	66 41 0f 28 c5       	movapd %xmm13,%xmm0
    73f9:	f2 44 0f 10 45 98    	movsd  -0x68(%rbp),%xmm8
    73ff:	f2 0f 10 55 a0       	movsd  -0x60(%rbp),%xmm2
    7404:	66 41 0f 28 fe       	movapd %xmm14,%xmm7
    7409:	4a 8b 04 20          	mov    (%rax,%r12,1),%rax
    740d:	f2 44 0f 10 55 a8    	movsd  -0x58(%rbp),%xmm10
    7413:	f2 0f 59 fd          	mulsd  %xmm5,%xmm7
    7417:	f2 0f 10 5d 80       	movsd  -0x80(%rbp),%xmm3
    741c:	f2 44 0f 10 bd b8 fe 	movsd  -0x148(%rbp),%xmm15
    7423:	ff ff 
    7425:	f2 41 0f 59 c1       	mulsd  %xmm9,%xmm0
    742a:	48 8d 04 d0          	lea    (%rax,%rdx,8),%rax
    742e:	f2 0f 10 75 88       	movsd  -0x78(%rbp),%xmm6
    7433:	f2 0f 10 4d 90       	movsd  -0x70(%rbp),%xmm1
    7438:	f2 44 0f 10 58 10    	movsd  0x10(%rax),%xmm11
    743e:	f2 44 0f 10 60 08    	movsd  0x8(%rax),%xmm12
    7444:	f2 41 0f 58 ea       	addsd  %xmm10,%xmm5
    7449:	48 8b b5 c0 fe ff ff 	mov    -0x140(%rbp),%rsi
    7450:	48 8b 16             	mov    (%rsi),%rdx
    7453:	f2 0f 58 c7          	addsd  %xmm7,%xmm0
    7457:	66 41 0f 28 ff       	movapd %xmm15,%xmm7
    745c:	f2 0f 59 fc          	mulsd  %xmm4,%xmm7
    7460:	4a 8b 14 32          	mov    (%rdx,%r14,1),%rdx
    7464:	f2 0f 58 e4          	addsd  %xmm4,%xmm4
    7468:	4a 8b 3c 22          	mov    (%rdx,%r12,1),%rdi
    746c:	48 8d 14 1f          	lea    (%rdi,%rbx,1),%rdx
    7470:	f2 0f 58 c7          	addsd  %xmm7,%xmm0
    7474:	db 2a                	fldt   (%rdx)
    7476:	66 41 0f 28 fe       	movapd %xmm14,%xmm7
    747b:	f2 0f 59 fa          	mulsd  %xmm2,%xmm7
    747f:	f2 0f 58 d2          	addsd  %xmm2,%xmm2
    7483:	f2 44 0f 5c d8       	subsd  %xmm0,%xmm11
    7488:	66 41 0f 28 c5       	movapd %xmm13,%xmm0
    748d:	f2 41 0f 59 c0       	mulsd  %xmm8,%xmm0
    7492:	66 0f 14 d5          	unpcklpd %xmm5,%xmm2
    7496:	f2 0f 58 c7          	addsd  %xmm7,%xmm0
    749a:	66 41 0f 28 ff       	movapd %xmm15,%xmm7
    749f:	f2 41 0f 59 fa       	mulsd  %xmm10,%xmm7
    74a4:	f2 0f 58 c7          	addsd  %xmm7,%xmm0
    74a8:	66 41 0f 28 fe       	movapd %xmm14,%xmm7
    74ad:	f2 0f 59 fe          	mulsd  %xmm6,%xmm7
    74b1:	f2 41 0f 58 f0       	addsd  %xmm8,%xmm6
    74b6:	f2 44 0f 5c e0       	subsd  %xmm0,%xmm12
    74bb:	66 41 0f 28 c5       	movapd %xmm13,%xmm0
    74c0:	f2 0f 59 c3          	mulsd  %xmm3,%xmm0
    74c4:	f2 0f 58 db          	addsd  %xmm3,%xmm3
    74c8:	66 0f 14 de          	unpcklpd %xmm6,%xmm3
    74cc:	f2 0f 58 c7          	addsd  %xmm7,%xmm0
    74d0:	66 41 0f 28 ff       	movapd %xmm15,%xmm7
    74d5:	f2 0f 59 f9          	mulsd  %xmm1,%xmm7
    74d9:	f2 41 0f 58 c9       	addsd  %xmm9,%xmm1
    74de:	f2 0f 58 c7          	addsd  %xmm7,%xmm0
    74e2:	f2 0f 10 38          	movsd  (%rax),%xmm7
    74e6:	48 8b 46 08          	mov    0x8(%rsi),%rax
    74ea:	4a 8b 04 30          	mov    (%rax,%r14,1),%rax
    74ee:	f2 0f 5c f8          	subsd  %xmm0,%xmm7
    74f2:	f2 0f 10 85 80 fe ff 	movsd  -0x180(%rbp),%xmm0
    74f9:	ff 
    74fa:	f2 44 0f 59 e0       	mulsd  %xmm0,%xmm12
    74ff:	f2 0f 59 f8          	mulsd  %xmm0,%xmm7
    7503:	f2 44 0f 59 d8       	mulsd  %xmm0,%xmm11
    7508:	66 0f 28 c1          	movapd %xmm1,%xmm0
    750c:	66 0f 14 cd          	unpcklpd %xmm5,%xmm1
    7510:	66 0f 14 c6          	unpcklpd %xmm6,%xmm0
    7514:	f2 0f 11 bd b8 fe ff 	movsd  %xmm7,-0x148(%rbp)
    751b:	ff 
    751c:	dc 85 b8 fe ff ff    	faddl  -0x148(%rbp)
    7522:	f2 44 0f 11 a5 b8 fe 	movsd  %xmm12,-0x148(%rbp)
    7529:	ff ff 
    752b:	db 3a                	fstpt  (%rdx)
    752d:	48 89 f2             	mov    %rsi,%rdx
    7530:	4a 8b 34 20          	mov    (%rax,%r12,1),%rsi
    7534:	48 8d 04 1e          	lea    (%rsi,%rbx,1),%rax
    7538:	db 28                	fldt   (%rax)
    753a:	dc 85 b8 fe ff ff    	faddl  -0x148(%rbp)
    7540:	db 38                	fstpt  (%rax)
    7542:	48 8b 42 10          	mov    0x10(%rdx),%rax
    7546:	f2 44 0f 11 9d b8 fe 	movsd  %xmm11,-0x148(%rbp)
    754d:	ff ff 
    754f:	4a 8b 04 30          	mov    (%rax,%r14,1),%rax
    7553:	4a 8b 14 20          	mov    (%rax,%r12,1),%rdx
    7557:	48 8b 85 88 fe ff ff 	mov    -0x178(%rbp),%rax
    755e:	48 01 d3             	add    %rdx,%rbx
    7561:	48 8b 00             	mov    (%rax),%rax
    7564:	db 2b                	fldt   (%rbx)
    7566:	dc 85 b8 fe ff ff    	faddl  -0x148(%rbp)
    756c:	4a 8b 04 20          	mov    (%rax,%r12,1),%rax
    7570:	48 8d 04 c8          	lea    (%rax,%rcx,8),%rax
    7574:	8b 8d fc fe ff ff    	mov    -0x104(%rbp),%ecx
    757a:	db 3b                	fstpt  (%rbx)
    757c:	4c 89 eb             	mov    %r13,%rbx
    757f:	48 83 c3 01          	add    $0x1,%rbx
    7583:	0f 11 18             	movups %xmm3,(%rax)
    7586:	49 89 db             	mov    %rbx,%r11
    7589:	0f 11 40 10          	movups %xmm0,0x10(%rax)
    758d:	0f 11 50 20          	movups %xmm2,0x20(%rax)
    7591:	0f 11 48 30          	movups %xmm1,0x30(%rax)
    7595:	f2 0f 11 60 40       	movsd  %xmm4,0x40(%rax)
    759a:	8d 04 09             	lea    (%rcx,%rcx,1),%eax
    759d:	39 d8                	cmp    %ebx,%eax
    759f:	0f 8f ab fd ff ff    	jg     7350 <_Z7blearghv+0xaf0>
    75a5:	48 83 85 70 fe ff ff 	addq   $0x1,-0x190(%rbp)
    75ac:	01 
    75ad:	48 8b bd 70 fe ff ff 	mov    -0x190(%rbp),%rdi
    75b4:	39 f8                	cmp    %edi,%eax
    75b6:	0f 8f 24 fd ff ff    	jg     72e0 <_Z7blearghv+0xa80>
    75bc:	8b bd 58 fe ff ff    	mov    -0x1a8(%rbp),%edi
    75c2:	8d 57 01             	lea    0x1(%rdi),%edx
    75c5:	39 d0                	cmp    %edx,%eax
    75c7:	7e 1f                	jle    75e8 <_Z7blearghv+0xd88>
    75c9:	48 83 85 58 fe ff ff 	addq   $0x1,-0x1a8(%rbp)
    75d0:	01 
    75d1:	49 83 c7 08          	add    $0x8,%r15
    75d5:	48 83 85 88 fe ff ff 	addq   $0x8,-0x178(%rbp)
    75dc:	08 
    75dd:	e9 cb fc ff ff       	jmp    72ad <_Z7blearghv+0xa4d>
    75e2:	66 0f 1f 44 00 00    	nopw   0x0(%rax,%rax,1)
    75e8:	db ad 30 ff ff ff    	fldt   -0xd0(%rbp)
    75ee:	83 ad 68 fe ff ff 01 	subl   $0x1,-0x198(%rbp)
    75f5:	0f 85 ef fa ff ff    	jne    70ea <_Z7blearghv+0x88a>
    75fb:	89 8d b8 fe ff ff    	mov    %ecx,-0x148(%rbp)
    7601:	db 85 b8 fe ff ff    	fildl  -0x148(%rbp)
    7607:	48 83 ec 30          	sub    $0x30,%rsp
    760b:	8d 14 09             	lea    (%rcx,%rcx,1),%edx
    760e:	48 8b b5 c0 fe ff ff 	mov    -0x140(%rbp),%rsi
    7615:	41 89 d0             	mov    %edx,%r8d
    7618:	89 d1                	mov    %edx,%ecx
    761a:	bf 01 00 00 00       	mov    $0x1,%edi
    761f:	de f9                	fdivrp %st,%st(1)
    7621:	d9 c0                	fld    %st(0)
    7623:	db 7c 24 20          	fstpt  0x20(%rsp)
    7627:	d9 c0                	fld    %st(0)
    7629:	db 7c 24 10          	fstpt  0x10(%rsp)
    762d:	db 3c 24             	fstpt  (%rsp)
    7630:	e8 cb 15 00 00       	call   8c00 <_Z12writeVTKFileiPPPPeiiieee>
    7635:	f2 0f 10 85 40 fe ff 	movsd  -0x1c0(%rbp),%xmm0
    763c:	ff 
    763d:	48 83 c4 30          	add    $0x30,%rsp
    7641:	48 8d 3d f8 49 00 00 	lea    0x49f8(%rip),%rdi        # c040 <_ZSt4cout@GLIBCXX_3.4>
    7648:	e8 23 af ff ff       	call   2570 <_ZNSo9_M_insertIdEERSoT_@plt>
    764d:	ba 01 00 00 00       	mov    $0x1,%edx
    7652:	48 8d 35 ff 2d 00 00 	lea    0x2dff(%rip),%rsi        # a458 <_IO_stdin_used+0x458>
    7659:	48 89 c7             	mov    %rax,%rdi
    765c:	48 89 c3             	mov    %rax,%rbx
    765f:	e8 2c ae ff ff       	call   2490 <_ZSt16__ostream_insertIcSt11char_traitsIcEERSt13basic_ostreamIT_T0_ES6_PKS3_l@plt>
    7664:	f2 0f 10 85 48 fe ff 	movsd  -0x1b8(%rbp),%xmm0
    766b:	ff 
    766c:	48 89 df             	mov    %rbx,%rdi
    766f:	e8 fc ae ff ff       	call   2570 <_ZNSo9_M_insertIdEERSoT_@plt>
    7674:	ba 01 00 00 00       	mov    $0x1,%edx
    7679:	48 8d 35 d8 2d 00 00 	lea    0x2dd8(%rip),%rsi        # a458 <_IO_stdin_used+0x458>
    7680:	48 89 c7             	mov    %rax,%rdi
    7683:	48 89 c3             	mov    %rax,%rbx
    7686:	e8 05 ae ff ff       	call   2490 <_ZSt16__ostream_insertIcSt11char_traitsIcEERSt13basic_ostreamIT_T0_ES6_PKS3_l@plt>
    768b:	f2 0f 10 85 50 fe ff 	movsd  -0x1b0(%rbp),%xmm0
    7692:	ff 
    7693:	48 89 df             	mov    %rbx,%rdi
    7696:	e8 d5 ae ff ff       	call   2570 <_ZNSo9_M_insertIdEERSoT_@plt>
    769b:	48 8b 85 30 fe ff ff 	mov    -0x1d0(%rbp),%rax
    76a2:	48 85 c0             	test   %rax,%rax
    76a5:	74 0f                	je     76b6 <_Z7blearghv+0xe56>
    76a7:	48 8b b5 28 fe ff ff 	mov    -0x1d8(%rbp),%rsi
    76ae:	48 89 c7             	mov    %rax,%rdi
    76b1:	e8 9a ad ff ff       	call   2450 <_ZdlPvm@plt>
    76b6:	48 8b 45 c8          	mov    -0x38(%rbp),%rax
    76ba:	64 48 2b 04 25 28 00 	sub    %fs:0x28,%rax
    76c1:	00 00 
    76c3:	75 7e                	jne    7743 <_Z7blearghv+0xee3>
    76c5:	48 8d 65 d8          	lea    -0x28(%rbp),%rsp
    76c9:	31 c0                	xor    %eax,%eax
    76cb:	5b                   	pop    %rbx
    76cc:	41 5c                	pop    %r12
    76ce:	41 5d                	pop    %r13
    76d0:	41 5e                	pop    %r14
    76d2:	41 5f                	pop    %r15
    76d4:	5d                   	pop    %rbp
    76d5:	c3                   	ret
    76d6:	48 8d 85 40 ff ff ff 	lea    -0xc0(%rbp),%rax
    76dd:	48 c7 85 28 fe ff ff 	movq   $0x0,-0x1d8(%rbp)
    76e4:	00 00 00 00 
    76e8:	48 c7 85 30 fe ff ff 	movq   $0x0,-0x1d0(%rbp)
    76ef:	00 00 00 00 
    76f3:	48 89 85 38 fe ff ff 	mov    %rax,-0x1c8(%rbp)
    76fa:	e9 ba f9 ff ff       	jmp    70b9 <_Z7blearghv+0x859>
    76ff:	4c 89 e7             	mov    %r12,%rdi
    7702:	4c 89 e1             	mov    %r12,%rcx
    7705:	48 f7 d1             	not    %rcx
    7708:	48 83 c7 01          	add    $0x1,%rdi
    770c:	83 e1 01             	and    $0x1,%ecx
    770f:	48 89 fe             	mov    %rdi,%rsi
    7712:	39 fa                	cmp    %edi,%edx
    7714:	0f 8e 5c f6 ff ff    	jle    6d76 <_Z7blearghv+0x516>
    771a:	85 c9                	test   %ecx,%ecx
    771c:	74 0f                	je     772d <_Z7blearghv+0xecd>
    771e:	48 83 c7 01          	add    $0x1,%rdi
    7722:	48 89 fe             	mov    %rdi,%rsi
    7725:	39 fa                	cmp    %edi,%edx
    7727:	0f 8e 49 f6 ff ff    	jle    6d76 <_Z7blearghv+0x516>
    772d:	48 89 f1             	mov    %rsi,%rcx
    7730:	48 89 cf             	mov    %rcx,%rdi
    7733:	48 83 c7 02          	add    $0x2,%rdi
    7737:	48 89 f9             	mov    %rdi,%rcx
    773a:	39 fa                	cmp    %edi,%edx
    773c:	7f f2                	jg     7730 <_Z7blearghv+0xed0>
    773e:	e9 33 f6 ff ff       	jmp    6d76 <_Z7blearghv+0x516>
    7743:	e8 28 ad ff ff       	call   2470 <__stack_chk_fail@plt>
    7748:	48 8d 0d 35 2c 00 00 	lea    0x2c35(%rip),%rcx        # a384 <_IO_stdin_used+0x384>
    774f:	ba c4 01 00 00       	mov    $0x1c4,%edx
    7754:	48 8d 35 c5 2b 00 00 	lea    0x2bc5(%rip),%rsi        # a320 <_IO_stdin_used+0x320>
    775b:	48 8d 3d 30 2c 00 00 	lea    0x2c30(%rip),%rdi        # a392 <_IO_stdin_used+0x392>
    7762:	e8 59 ac ff ff       	call   23c0 <__assert_fail@plt>
    7767:	f3 0f 1e fa          	endbr64
    776b:	48 89 c3             	mov    %rax,%rbx
    776e:	e9 6d ae ff ff       	jmp    25e0 <_Z7blearghv.cold>
    7773:	66 2e 0f 1f 84 00 00 	cs nopw 0x0(%rax,%rax,1)
    777a:	00 00 00 
    777d:	0f 1f 00             	nopl   (%rax)

0000000000007780 <_ZNSt6vectorIiSaIiEE17_M_realloc_insertIJiEEEvN9__gnu_cxx17__normal_iteratorIPiS1_EEDpOT_>:
    7780:	f3 0f 1e fa          	endbr64
    7784:	41 57                	push   %r15
    7786:	49 89 d7             	mov    %rdx,%r15
    7789:	48 ba ff ff ff ff ff 	movabs $0x1fffffffffffffff,%rdx
    7790:	ff ff 1f 
    7793:	41 56                	push   %r14
    7795:	41 55                	push   %r13
    7797:	41 54                	push   %r12
    7799:	55                   	push   %rbp
    779a:	53                   	push   %rbx
    779b:	48 83 ec 18          	sub    $0x18,%rsp
    779f:	4c 8b 67 08          	mov    0x8(%rdi),%r12
    77a3:	4c 8b 2f             	mov    (%rdi),%r13
    77a6:	4c 89 e0             	mov    %r12,%rax
    77a9:	4c 29 e8             	sub    %r13,%rax
    77ac:	48 c1 f8 02          	sar    $0x2,%rax
    77b0:	48 39 d0             	cmp    %rdx,%rax
    77b3:	0f 84 40 01 00 00    	je     78f9 <_ZNSt6vectorIiSaIiEE17_M_realloc_insertIJiEEEvN9__gnu_cxx17__normal_iteratorIPiS1_EEDpOT_+0x179>
    77b9:	48 89 f2             	mov    %rsi,%rdx
    77bc:	48 89 fd             	mov    %rdi,%rbp
    77bf:	49 89 f6             	mov    %rsi,%r14
    77c2:	4c 29 ea             	sub    %r13,%rdx
    77c5:	4d 39 e5             	cmp    %r12,%r13
    77c8:	0f 84 d2 00 00 00    	je     78a0 <_ZNSt6vectorIiSaIiEE17_M_realloc_insertIJiEEEvN9__gnu_cxx17__normal_iteratorIPiS1_EEDpOT_+0x120>
    77ce:	48 8d 0c 00          	lea    (%rax,%rax,1),%rcx
    77d2:	48 39 c1             	cmp    %rax,%rcx
    77d5:	72 69                	jb     7840 <_ZNSt6vectorIiSaIiEE17_M_realloc_insertIJiEEEvN9__gnu_cxx17__normal_iteratorIPiS1_EEDpOT_+0xc0>
    77d7:	48 85 c9             	test   %rcx,%rcx
    77da:	0f 85 fb 00 00 00    	jne    78db <_ZNSt6vectorIiSaIiEE17_M_realloc_insertIJiEEEvN9__gnu_cxx17__normal_iteratorIPiS1_EEDpOT_+0x15b>
    77e0:	31 db                	xor    %ebx,%ebx
    77e2:	31 c9                	xor    %ecx,%ecx
    77e4:	41 8b 07             	mov    (%r15),%eax
    77e7:	4c 8d 44 11 04       	lea    0x4(%rcx,%rdx,1),%r8
    77ec:	4d 29 f4             	sub    %r14,%r12
    77ef:	4f 8d 3c 20          	lea    (%r8,%r12,1),%r15
    77f3:	89 04 11             	mov    %eax,(%rcx,%rdx,1)
    77f6:	48 85 d2             	test   %rdx,%rdx
    77f9:	7f 6d                	jg     7868 <_ZNSt6vectorIiSaIiEE17_M_realloc_insertIJiEEEvN9__gnu_cxx17__normal_iteratorIPiS1_EEDpOT_+0xe8>
    77fb:	4d 85 e4             	test   %r12,%r12
    77fe:	7e 16                	jle    7816 <_ZNSt6vectorIiSaIiEE17_M_realloc_insertIJiEEEvN9__gnu_cxx17__normal_iteratorIPiS1_EEDpOT_+0x96>
    7800:	4c 89 e2             	mov    %r12,%rdx
    7803:	4c 89 f6             	mov    %r14,%rsi
    7806:	4c 89 c7             	mov    %r8,%rdi
    7809:	48 89 0c 24          	mov    %rcx,(%rsp)
    780d:	e8 ee ab ff ff       	call   2400 <memcpy@plt>
    7812:	48 8b 0c 24          	mov    (%rsp),%rcx
    7816:	4d 85 ed             	test   %r13,%r13
    7819:	75 64                	jne    787f <_ZNSt6vectorIiSaIiEE17_M_realloc_insertIJiEEEvN9__gnu_cxx17__normal_iteratorIPiS1_EEDpOT_+0xff>
    781b:	48 89 4d 00          	mov    %rcx,0x0(%rbp)
    781f:	4c 89 7d 08          	mov    %r15,0x8(%rbp)
    7823:	48 89 5d 10          	mov    %rbx,0x10(%rbp)
    7827:	48 83 c4 18          	add    $0x18,%rsp
    782b:	5b                   	pop    %rbx
    782c:	5d                   	pop    %rbp
    782d:	41 5c                	pop    %r12
    782f:	41 5d                	pop    %r13
    7831:	41 5e                	pop    %r14
    7833:	41 5f                	pop    %r15
    7835:	c3                   	ret
    7836:	66 2e 0f 1f 84 00 00 	cs nopw 0x0(%rax,%rax,1)
    783d:	00 00 00 
    7840:	48 bb fc ff ff ff ff 	movabs $0x7ffffffffffffffc,%rbx
    7847:	ff ff 7f 
    784a:	48 89 df             	mov    %rbx,%rdi
    784d:	48 89 14 24          	mov    %rdx,(%rsp)
    7851:	e8 ea ab ff ff       	call   2440 <_Znwm@plt>
    7856:	48 8b 14 24          	mov    (%rsp),%rdx
    785a:	48 89 c1             	mov    %rax,%rcx
    785d:	48 01 c3             	add    %rax,%rbx
    7860:	eb 82                	jmp    77e4 <_ZNSt6vectorIiSaIiEE17_M_realloc_insertIJiEEEvN9__gnu_cxx17__normal_iteratorIPiS1_EEDpOT_+0x64>
    7862:	66 0f 1f 44 00 00    	nopw   0x0(%rax,%rax,1)
    7868:	48 89 cf             	mov    %rcx,%rdi
    786b:	4c 89 ee             	mov    %r13,%rsi
    786e:	4c 89 04 24          	mov    %r8,(%rsp)
    7872:	e8 09 ad ff ff       	call   2580 <memmove@plt>
    7877:	48 89 c1             	mov    %rax,%rcx
    787a:	4d 85 e4             	test   %r12,%r12
    787d:	7f 41                	jg     78c0 <_ZNSt6vectorIiSaIiEE17_M_realloc_insertIJiEEEvN9__gnu_cxx17__normal_iteratorIPiS1_EEDpOT_+0x140>
    787f:	48 8b 75 10          	mov    0x10(%rbp),%rsi
    7883:	4c 89 ef             	mov    %r13,%rdi
    7886:	48 89 0c 24          	mov    %rcx,(%rsp)
    788a:	4c 29 ee             	sub    %r13,%rsi
    788d:	e8 be ab ff ff       	call   2450 <_ZdlPvm@plt>
    7892:	48 8b 0c 24          	mov    (%rsp),%rcx
    7896:	eb 83                	jmp    781b <_ZNSt6vectorIiSaIiEE17_M_realloc_insertIJiEEEvN9__gnu_cxx17__normal_iteratorIPiS1_EEDpOT_+0x9b>
    7898:	0f 1f 84 00 00 00 00 	nopl   0x0(%rax,%rax,1)
    789f:	00 
    78a0:	48 83 c0 01          	add    $0x1,%rax
    78a4:	72 9a                	jb     7840 <_ZNSt6vectorIiSaIiEE17_M_realloc_insertIJiEEEvN9__gnu_cxx17__normal_iteratorIPiS1_EEDpOT_+0xc0>
    78a6:	48 b9 ff ff ff ff ff 	movabs $0x1fffffffffffffff,%rcx
    78ad:	ff ff 1f 
    78b0:	48 39 c8             	cmp    %rcx,%rax
    78b3:	48 89 cb             	mov    %rcx,%rbx
    78b6:	48 0f 46 d8          	cmovbe %rax,%rbx
    78ba:	48 c1 e3 02          	shl    $0x2,%rbx
    78be:	eb 8a                	jmp    784a <_ZNSt6vectorIiSaIiEE17_M_realloc_insertIJiEEEvN9__gnu_cxx17__normal_iteratorIPiS1_EEDpOT_+0xca>
    78c0:	48 8b 3c 24          	mov    (%rsp),%rdi
    78c4:	4c 89 e2             	mov    %r12,%rdx
    78c7:	4c 89 f6             	mov    %r14,%rsi
    78ca:	48 89 44 24 08       	mov    %rax,0x8(%rsp)
    78cf:	e8 2c ab ff ff       	call   2400 <memcpy@plt>
    78d4:	48 8b 4c 24 08       	mov    0x8(%rsp),%rcx
    78d9:	eb a4                	jmp    787f <_ZNSt6vectorIiSaIiEE17_M_realloc_insertIJiEEEvN9__gnu_cxx17__normal_iteratorIPiS1_EEDpOT_+0xff>
    78db:	48 b8 ff ff ff ff ff 	movabs $0x1fffffffffffffff,%rax
    78e2:	ff ff 1f 
    78e5:	48 39 c1             	cmp    %rax,%rcx
    78e8:	48 0f 47 c8          	cmova  %rax,%rcx
    78ec:	48 8d 1c 8d 00 00 00 	lea    0x0(,%rcx,4),%rbx
    78f3:	00 
    78f4:	e9 51 ff ff ff       	jmp    784a <_ZNSt6vectorIiSaIiEE17_M_realloc_insertIJiEEEvN9__gnu_cxx17__normal_iteratorIPiS1_EEDpOT_+0xca>
    78f9:	48 8d 3d a3 2a 00 00 	lea    0x2aa3(%rip),%rdi        # a3a3 <_IO_stdin_used+0x3a3>
    7900:	e8 8b aa ff ff       	call   2390 <_ZSt20__throw_length_errorPKc@plt>
    7905:	66 2e 0f 1f 84 00 00 	cs nopw 0x0(%rax,%rax,1)
    790c:	00 00 00 
    790f:	90                   	nop

0000000000007910 <_Z10allocate2djjPPe>:
    7910:	f3 0f 1e fa          	endbr64
    7914:	41 55                	push   %r13
    7916:	41 89 fd             	mov    %edi,%r13d
    7919:	41 54                	push   %r12
    791b:	55                   	push   %rbp
    791c:	89 f5                	mov    %esi,%ebp
    791e:	53                   	push   %rbx
    791f:	4c 89 eb             	mov    %r13,%rbx
    7922:	49 c1 e5 03          	shl    $0x3,%r13
    7926:	4c 89 ef             	mov    %r13,%rdi
    7929:	48 83 ec 08          	sub    $0x8,%rsp
    792d:	e8 de a9 ff ff       	call   2310 <_Znam@plt>
    7932:	49 89 c4             	mov    %rax,%r12
    7935:	85 db                	test   %ebx,%ebx
    7937:	74 24                	je     795d <_Z10allocate2djjPPe+0x4d>
    7939:	48 c1 e5 04          	shl    $0x4,%rbp
    793d:	48 89 c3             	mov    %rax,%rbx
    7940:	49 01 c5             	add    %rax,%r13
    7943:	0f 1f 44 00 00       	nopl   0x0(%rax,%rax,1)
    7948:	48 89 ef             	mov    %rbp,%rdi
    794b:	48 83 c3 08          	add    $0x8,%rbx
    794f:	e8 bc a9 ff ff       	call   2310 <_Znam@plt>
    7954:	48 89 43 f8          	mov    %rax,-0x8(%rbx)
    7958:	4c 39 eb             	cmp    %r13,%rbx
    795b:	75 eb                	jne    7948 <_Z10allocate2djjPPe+0x38>
    795d:	48 83 c4 08          	add    $0x8,%rsp
    7961:	4c 89 e0             	mov    %r12,%rax
    7964:	5b                   	pop    %rbx
    7965:	5d                   	pop    %rbp
    7966:	41 5c                	pop    %r12
    7968:	41 5d                	pop    %r13
    796a:	c3                   	ret
    796b:	0f 1f 44 00 00       	nopl   0x0(%rax,%rax,1)

0000000000007970 <_Z10allocate3djjj>:
    7970:	f3 0f 1e fa          	endbr64
    7974:	41 57                	push   %r15
    7976:	48 63 c7             	movslq %edi,%rax
    7979:	41 56                	push   %r14
    797b:	41 55                	push   %r13
    797d:	41 54                	push   %r12
    797f:	49 bc ff ff ff ff ff 	movabs $0xfffffffffffffff,%r12
    7986:	ff ff 0f 
    7989:	55                   	push   %rbp
    798a:	53                   	push   %rbx
    798b:	48 83 ec 28          	sub    $0x28,%rsp
    798f:	49 39 c4             	cmp    %rax,%r12
    7992:	0f 82 7f ac ff ff    	jb     2617 <_Z10allocate3djjj.cold>
    7998:	48 8d 3c c5 00 00 00 	lea    0x0(,%rax,8),%rdi
    799f:	00 
    79a0:	48 89 c3             	mov    %rax,%rbx
    79a3:	41 89 f6             	mov    %esi,%r14d
    79a6:	89 d5                	mov    %edx,%ebp
    79a8:	e8 63 a9 ff ff       	call   2310 <_Znam@plt>
    79ad:	48 89 44 24 18       	mov    %rax,0x18(%rsp)
    79b2:	85 db                	test   %ebx,%ebx
    79b4:	0f 84 9f 00 00 00    	je     7a59 <_Z10allocate3djjj+0xe9>
    79ba:	49 63 c6             	movslq %r14d,%rax
    79bd:	49 39 c4             	cmp    %rax,%r12
    79c0:	0f 82 51 ac ff ff    	jb     2617 <_Z10allocate3djjj.cold>
    79c6:	48 c1 e0 03          	shl    $0x3,%rax
    79ca:	89 db                	mov    %ebx,%ebx
    79cc:	45 8d 66 ff          	lea    -0x1(%r14),%r12d
    79d0:	48 89 04 24          	mov    %rax,(%rsp)
    79d4:	48 63 c5             	movslq %ebp,%rax
    79d7:	49 c1 e4 03          	shl    $0x3,%r12
    79db:	49 89 c5             	mov    %rax,%r13
    79de:	48 89 44 24 10       	mov    %rax,0x10(%rsp)
    79e3:	48 8b 44 24 18       	mov    0x18(%rsp),%rax
    79e8:	49 c1 e5 04          	shl    $0x4,%r13
    79ec:	48 89 c5             	mov    %rax,%rbp
    79ef:	48 8d 04 d8          	lea    (%rax,%rbx,8),%rax
    79f3:	48 89 44 24 08       	mov    %rax,0x8(%rsp)
    79f8:	0f 1f 84 00 00 00 00 	nopl   0x0(%rax,%rax,1)
    79ff:	00 
    7a00:	48 8b 3c 24          	mov    (%rsp),%rdi
    7a04:	e8 07 a9 ff ff       	call   2310 <_Znam@plt>
    7a09:	48 89 45 00          	mov    %rax,0x0(%rbp)
    7a0d:	48 89 c3             	mov    %rax,%rbx
    7a10:	45 85 f6             	test   %r14d,%r14d
    7a13:	74 36                	je     7a4b <_Z10allocate3djjj+0xdb>
    7a15:	48 b8 ff ff ff ff ff 	movabs $0x7ffffffffffffff,%rax
    7a1c:	ff ff 07 
    7a1f:	48 8b 4c 24 10       	mov    0x10(%rsp),%rcx
    7a24:	48 39 c8             	cmp    %rcx,%rax
    7a27:	72 44                	jb     7a6d <_Z10allocate3djjj+0xfd>
    7a29:	45 31 ff             	xor    %r15d,%r15d
    7a2c:	eb 0a                	jmp    7a38 <_Z10allocate3djjj+0xc8>
    7a2e:	66 90                	xchg   %ax,%ax
    7a30:	48 8b 5d 00          	mov    0x0(%rbp),%rbx
    7a34:	49 83 c7 08          	add    $0x8,%r15
    7a38:	4c 89 ef             	mov    %r13,%rdi
    7a3b:	4c 01 fb             	add    %r15,%rbx
    7a3e:	e8 cd a8 ff ff       	call   2310 <_Znam@plt>
    7a43:	48 89 03             	mov    %rax,(%rbx)
    7a46:	4d 39 fc             	cmp    %r15,%r12
    7a49:	75 e5                	jne    7a30 <_Z10allocate3djjj+0xc0>
    7a4b:	48 8b 44 24 08       	mov    0x8(%rsp),%rax
    7a50:	48 83 c5 08          	add    $0x8,%rbp
    7a54:	48 39 c5             	cmp    %rax,%rbp
    7a57:	75 a7                	jne    7a00 <_Z10allocate3djjj+0x90>
    7a59:	48 8b 44 24 18       	mov    0x18(%rsp),%rax
    7a5e:	48 83 c4 28          	add    $0x28,%rsp
    7a62:	5b                   	pop    %rbx
    7a63:	5d                   	pop    %rbp
    7a64:	41 5c                	pop    %r12
    7a66:	41 5d                	pop    %r13
    7a68:	41 5e                	pop    %r14
    7a6a:	41 5f                	pop    %r15
    7a6c:	c3                   	ret
    7a6d:	e9 a5 ab ff ff       	jmp    2617 <_Z10allocate3djjj.cold>
    7a72:	66 66 2e 0f 1f 84 00 	data16 cs nopw 0x0(%rax,%rax,1)
    7a79:	00 00 00 00 
    7a7d:	0f 1f 00             	nopl   (%rax)

0000000000007a80 <_Z11allocate3dtjjj>:
    7a80:	f3 0f 1e fa          	endbr64
    7a84:	41 57                	push   %r15
    7a86:	48 63 c7             	movslq %edi,%rax
    7a89:	41 56                	push   %r14
    7a8b:	41 55                	push   %r13
    7a8d:	41 54                	push   %r12
    7a8f:	55                   	push   %rbp
    7a90:	48 bd ff ff ff ff ff 	movabs $0xfffffffffffffff,%rbp
    7a97:	ff ff 0f 
    7a9a:	53                   	push   %rbx
    7a9b:	48 83 ec 48          	sub    $0x48,%rsp
    7a9f:	89 74 24 1c          	mov    %esi,0x1c(%rsp)
    7aa3:	48 39 c5             	cmp    %rax,%rbp
    7aa6:	0f 82 70 ab ff ff    	jb     261c <_Z11allocate3dtjjj.cold>
    7aac:	48 8d 3c c5 00 00 00 	lea    0x0(,%rax,8),%rdi
    7ab3:	00 
    7ab4:	49 89 c5             	mov    %rax,%r13
    7ab7:	89 d3                	mov    %edx,%ebx
    7ab9:	e8 52 a8 ff ff       	call   2310 <_Znam@plt>
    7abe:	48 89 44 24 30       	mov    %rax,0x30(%rsp)
    7ac3:	45 85 ed             	test   %r13d,%r13d
    7ac6:	0f 84 3c 02 00 00    	je     7d08 <_Z11allocate3dtjjj+0x288>
    7acc:	48 63 44 24 1c       	movslq 0x1c(%rsp),%rax
    7ad1:	48 39 c5             	cmp    %rax,%rbp
    7ad4:	0f 82 42 ab ff ff    	jb     261c <_Z11allocate3dtjjj.cold>
    7ada:	48 8b 74 24 30       	mov    0x30(%rsp),%rsi
    7adf:	48 c1 e0 03          	shl    $0x3,%rax
    7ae3:	48 63 eb             	movslq %ebx,%rbp
    7ae6:	48 89 44 24 20       	mov    %rax,0x20(%rsp)
    7aeb:	44 89 e8             	mov    %r13d,%eax
    7aee:	4c 8d 64 ed 00       	lea    0x0(%rbp,%rbp,8),%r12
    7af3:	49 89 f7             	mov    %rsi,%r15
    7af6:	48 8d 34 c6          	lea    (%rsi,%rax,8),%rsi
    7afa:	48 89 44 24 38       	mov    %rax,0x38(%rsp)
    7aff:	49 c1 e4 03          	shl    $0x3,%r12
    7b03:	48 89 74 24 28       	mov    %rsi,0x28(%rsp)
    7b08:	8b 74 24 1c          	mov    0x1c(%rsp),%esi
    7b0c:	8d 56 ff             	lea    -0x1(%rsi),%edx
    7b0f:	4c 8d 2c d5 08 00 00 	lea    0x8(,%rdx,8),%r13
    7b16:	00 
    7b17:	48 89 ea             	mov    %rbp,%rdx
    7b1a:	48 d1 ea             	shr    $1,%rdx
    7b1d:	4c 8d 34 d2          	lea    (%rdx,%rdx,8),%r14
    7b21:	48 89 ea             	mov    %rbp,%rdx
    7b24:	48 83 e2 fe          	and    $0xfffffffffffffffe,%rdx
    7b28:	49 c1 e6 04          	shl    $0x4,%r14
    7b2c:	48 8d 14 d2          	lea    (%rdx,%rdx,8),%rdx
    7b30:	4c 89 74 24 08       	mov    %r14,0x8(%rsp)
    7b35:	48 8d 34 d5 00 00 00 	lea    0x0(,%rdx,8),%rsi
    7b3c:	00 
    7b3d:	48 89 74 24 10       	mov    %rsi,0x10(%rsp)
    7b42:	66 0f 1f 44 00 00    	nopw   0x0(%rax,%rax,1)
    7b48:	48 8b 7c 24 20       	mov    0x20(%rsp),%rdi
    7b4d:	e8 be a7 ff ff       	call   2310 <_Znam@plt>
    7b52:	49 89 07             	mov    %rax,(%r15)
    7b55:	8b 44 24 1c          	mov    0x1c(%rsp),%eax
    7b59:	85 c0                	test   %eax,%eax
    7b5b:	0f 84 bf 00 00 00    	je     7c20 <_Z11allocate3dtjjj+0x1a0>
    7b61:	48 b8 c7 71 1c c7 71 	movabs $0x1c71c71c71c71c7,%rax
    7b68:	1c c7 01 
    7b6b:	48 39 e8             	cmp    %rbp,%rax
    7b6e:	0f 82 a8 aa ff ff    	jb     261c <_Z11allocate3dtjjj.cold>
    7b74:	45 31 f6             	xor    %r14d,%r14d
    7b77:	4c 89 f8             	mov    %r15,%rax
    7b7a:	4d 89 f7             	mov    %r14,%r15
    7b7d:	49 89 c6             	mov    %rax,%r14
    7b80:	4c 89 e7             	mov    %r12,%rdi
    7b83:	e8 88 a7 ff ff       	call   2310 <_Znam@plt>
    7b88:	48 85 ed             	test   %rbp,%rbp
    7b8b:	f2 0f 10 0d 9d 29 00 	movsd  0x299d(%rip),%xmm1        # a530 <_IO_stdin_used+0x530>
    7b92:	00 
    7b93:	74 74                	je     7c09 <_Z11allocate3dtjjj+0x189>
    7b95:	83 fb 01             	cmp    $0x1,%ebx
    7b98:	0f 84 30 01 00 00    	je     7cce <_Z11allocate3dtjjj+0x24e>
    7b9e:	48 8b 74 24 08       	mov    0x8(%rsp),%rsi
    7ba3:	66 0f 28 c1          	movapd %xmm1,%xmm0
    7ba7:	48 89 c2             	mov    %rax,%rdx
    7baa:	66 0f 14 c0          	unpcklpd %xmm0,%xmm0
    7bae:	48 8d 0c 30          	lea    (%rax,%rsi,1),%rcx
    7bb2:	66 0f 1f 44 00 00    	nopw   0x0(%rax,%rax,1)
    7bb8:	0f 11 02             	movups %xmm0,(%rdx)
    7bbb:	48 81 c2 90 00 00 00 	add    $0x90,%rdx
    7bc2:	0f 11 42 80          	movups %xmm0,-0x80(%rdx)
    7bc6:	0f 11 42 90          	movups %xmm0,-0x70(%rdx)
    7bca:	0f 11 42 a0          	movups %xmm0,-0x60(%rdx)
    7bce:	0f 11 42 b0          	movups %xmm0,-0x50(%rdx)
    7bd2:	0f 11 42 c0          	movups %xmm0,-0x40(%rdx)
    7bd6:	0f 11 42 d0          	movups %xmm0,-0x30(%rdx)
    7bda:	0f 11 42 e0          	movups %xmm0,-0x20(%rdx)
    7bde:	0f 11 42 f0          	movups %xmm0,-0x10(%rdx)
    7be2:	48 39 ca             	cmp    %rcx,%rdx
    7be5:	75 d1                	jne    7bb8 <_Z11allocate3dtjjj+0x138>
    7be7:	f6 c3 01             	test   $0x1,%bl
    7bea:	74 1d                	je     7c09 <_Z11allocate3dtjjj+0x189>
    7bec:	48 8b 7c 24 10       	mov    0x10(%rsp),%rdi
    7bf1:	48 8d 14 38          	lea    (%rax,%rdi,1),%rdx
    7bf5:	0f 11 02             	movups %xmm0,(%rdx)
    7bf8:	0f 11 42 10          	movups %xmm0,0x10(%rdx)
    7bfc:	0f 11 42 20          	movups %xmm0,0x20(%rdx)
    7c00:	0f 11 42 30          	movups %xmm0,0x30(%rdx)
    7c04:	f2 0f 11 4a 40       	movsd  %xmm1,0x40(%rdx)
    7c09:	49 8b 16             	mov    (%r14),%rdx
    7c0c:	4a 89 04 3a          	mov    %rax,(%rdx,%r15,1)
    7c10:	49 83 c7 08          	add    $0x8,%r15
    7c14:	4d 39 ef             	cmp    %r13,%r15
    7c17:	0f 85 63 ff ff ff    	jne    7b80 <_Z11allocate3dtjjj+0x100>
    7c1d:	4d 89 f7             	mov    %r14,%r15
    7c20:	48 8b 44 24 28       	mov    0x28(%rsp),%rax
    7c25:	49 83 c7 08          	add    $0x8,%r15
    7c29:	49 39 c7             	cmp    %rax,%r15
    7c2c:	0f 85 16 ff ff ff    	jne    7b48 <_Z11allocate3dtjjj+0xc8>
    7c32:	48 8b 44 24 38       	mov    0x38(%rsp),%rax
    7c37:	48 89 c6             	mov    %rax,%rsi
    7c3a:	48 8d 3d ff 43 00 00 	lea    0x43ff(%rip),%rdi        # c040 <_ZSt4cout@GLIBCXX_3.4>
    7c41:	4c 8d 25 10 28 00 00 	lea    0x2810(%rip),%r12        # a458 <_IO_stdin_used+0x458>
    7c48:	e8 93 a7 ff ff       	call   23e0 <_ZNSo9_M_insertImEERSoT_@plt>
    7c4d:	ba 01 00 00 00       	mov    $0x1,%edx
    7c52:	4c 89 e6             	mov    %r12,%rsi
    7c55:	48 89 c7             	mov    %rax,%rdi
    7c58:	48 89 c5             	mov    %rax,%rbp
    7c5b:	e8 30 a8 ff ff       	call   2490 <_ZSt16__ostream_insertIcSt11char_traitsIcEERSt13basic_ostreamIT_T0_ES6_PKS3_l@plt>
    7c60:	8b 74 24 1c          	mov    0x1c(%rsp),%esi
    7c64:	48 89 ef             	mov    %rbp,%rdi
    7c67:	e8 74 a7 ff ff       	call   23e0 <_ZNSo9_M_insertImEERSoT_@plt>
    7c6c:	ba 01 00 00 00       	mov    $0x1,%edx
    7c71:	4c 89 e6             	mov    %r12,%rsi
    7c74:	48 89 c5             	mov    %rax,%rbp
    7c77:	48 89 c7             	mov    %rax,%rdi
    7c7a:	e8 11 a8 ff ff       	call   2490 <_ZSt16__ostream_insertIcSt11char_traitsIcEERSt13basic_ostreamIT_T0_ES6_PKS3_l@plt>
    7c7f:	89 de                	mov    %ebx,%esi
    7c81:	48 89 ef             	mov    %rbp,%rdi
    7c84:	e8 57 a7 ff ff       	call   23e0 <_ZNSo9_M_insertImEERSoT_@plt>
    7c89:	48 89 c5             	mov    %rax,%rbp
    7c8c:	48 8b 00             	mov    (%rax),%rax
    7c8f:	48 8b 40 e8          	mov    -0x18(%rax),%rax
    7c93:	48 8b 9c 05 f0 00 00 	mov    0xf0(%rbp,%rax,1),%rbx
    7c9a:	00 
    7c9b:	48 85 db             	test   %rbx,%rbx
    7c9e:	74 6f                	je     7d0f <_Z11allocate3dtjjj+0x28f>
    7ca0:	80 7b 38 00          	cmpb   $0x0,0x38(%rbx)
    7ca4:	74 38                	je     7cde <_Z11allocate3dtjjj+0x25e>
    7ca6:	0f be 73 43          	movsbl 0x43(%rbx),%esi
    7caa:	48 89 ef             	mov    %rbp,%rdi
    7cad:	e8 6e a6 ff ff       	call   2320 <_ZNSo3putEc@plt>
    7cb2:	48 89 c7             	mov    %rax,%rdi
    7cb5:	e8 36 a7 ff ff       	call   23f0 <_ZNSo5flushEv@plt>
    7cba:	48 8b 44 24 30       	mov    0x30(%rsp),%rax
    7cbf:	48 83 c4 48          	add    $0x48,%rsp
    7cc3:	5b                   	pop    %rbx
    7cc4:	5d                   	pop    %rbp
    7cc5:	41 5c                	pop    %r12
    7cc7:	41 5d                	pop    %r13
    7cc9:	41 5e                	pop    %r14
    7ccb:	41 5f                	pop    %r15
    7ccd:	c3                   	ret
    7cce:	66 0f 28 05 5a 28 00 	movapd 0x285a(%rip),%xmm0        # a530 <_IO_stdin_used+0x530>
    7cd5:	00 
    7cd6:	48 89 c2             	mov    %rax,%rdx
    7cd9:	e9 17 ff ff ff       	jmp    7bf5 <_Z11allocate3dtjjj+0x175>
    7cde:	48 89 df             	mov    %rbx,%rdi
    7ce1:	e8 ba a7 ff ff       	call   24a0 <_ZNKSt5ctypeIcE13_M_widen_initEv@plt>
    7ce6:	48 8b 03             	mov    (%rbx),%rax
    7ce9:	be 0a 00 00 00       	mov    $0xa,%esi
    7cee:	48 8d 15 6b 02 00 00 	lea    0x26b(%rip),%rdx        # 7f60 <_ZNKSt5ctypeIcE8do_widenEc>
    7cf5:	48 8b 40 30          	mov    0x30(%rax),%rax
    7cf9:	48 39 d0             	cmp    %rdx,%rax
    7cfc:	74 ac                	je     7caa <_Z11allocate3dtjjj+0x22a>
    7cfe:	48 89 df             	mov    %rbx,%rdi
    7d01:	ff d0                	call   *%rax
    7d03:	0f be f0             	movsbl %al,%esi
    7d06:	eb a2                	jmp    7caa <_Z11allocate3dtjjj+0x22a>
    7d08:	31 c0                	xor    %eax,%eax
    7d0a:	e9 28 ff ff ff       	jmp    7c37 <_Z11allocate3dtjjj+0x1b7>
    7d0f:	e8 ec a7 ff ff       	call   2500 <_ZSt16__throw_bad_castv@plt>
    7d14:	66 66 2e 0f 1f 84 00 	data16 cs nopw 0x0(%rax,%rax,1)
    7d1b:	00 00 00 00 
    7d1f:	90                   	nop

0000000000007d20 <_Z10allocate4djjjj>:
    7d20:	f3 0f 1e fa          	endbr64
    7d24:	41 57                	push   %r15
    7d26:	41 89 f7             	mov    %esi,%r15d
    7d29:	41 56                	push   %r14
    7d2b:	41 89 fe             	mov    %edi,%r14d
    7d2e:	41 55                	push   %r13
    7d30:	41 89 cd             	mov    %ecx,%r13d
    7d33:	41 54                	push   %r12
    7d35:	55                   	push   %rbp
    7d36:	4c 89 f5             	mov    %r14,%rbp
    7d39:	49 c1 e6 03          	shl    $0x3,%r14
    7d3d:	53                   	push   %rbx
    7d3e:	4c 89 f7             	mov    %r14,%rdi
    7d41:	89 d3                	mov    %edx,%ebx
    7d43:	48 83 ec 38          	sub    $0x38,%rsp
    7d47:	89 74 24 24          	mov    %esi,0x24(%rsp)
    7d4b:	89 4c 24 20          	mov    %ecx,0x20(%rsp)
    7d4f:	e8 bc a5 ff ff       	call   2310 <_Znam@plt>
    7d54:	48 89 44 24 28       	mov    %rax,0x28(%rsp)
    7d59:	85 ed                	test   %ebp,%ebp
    7d5b:	0f 84 ba 00 00 00    	je     7e1b <_Z10allocate4djjjj+0xfb>
    7d61:	48 89 c2             	mov    %rax,%rdx
    7d64:	44 89 f8             	mov    %r15d,%eax
    7d67:	45 89 ec             	mov    %r13d,%r12d
    7d6a:	48 c1 e0 03          	shl    $0x3,%rax
    7d6e:	4d 89 e5             	mov    %r12,%r13
    7d71:	48 89 d5             	mov    %rdx,%rbp
    7d74:	49 c1 e4 03          	shl    $0x3,%r12
    7d78:	48 89 44 24 08       	mov    %rax,0x8(%rsp)
    7d7d:	48 8d 04 dd 00 00 00 	lea    0x0(,%rbx,8),%rax
    7d84:	00 
    7d85:	49 c1 e5 04          	shl    $0x4,%r13
    7d89:	48 89 44 24 10       	mov    %rax,0x10(%rsp)
    7d8e:	49 8d 04 16          	lea    (%r14,%rdx,1),%rax
    7d92:	48 89 44 24 18       	mov    %rax,0x18(%rsp)
    7d97:	66 0f 1f 84 00 00 00 	nopw   0x0(%rax,%rax,1)
    7d9e:	00 00 
    7da0:	48 8b 7c 24 08       	mov    0x8(%rsp),%rdi
    7da5:	e8 66 a5 ff ff       	call   2310 <_Znam@plt>
    7daa:	8b 54 24 24          	mov    0x24(%rsp),%edx
    7dae:	48 89 45 00          	mov    %rax,0x0(%rbp)
    7db2:	49 89 c6             	mov    %rax,%r14
    7db5:	85 d2                	test   %edx,%edx
    7db7:	74 57                	je     7e10 <_Z10allocate4djjjj+0xf0>
    7db9:	31 db                	xor    %ebx,%ebx
    7dbb:	0f 1f 44 00 00       	nopl   0x0(%rax,%rax,1)
    7dc0:	48 8b 7c 24 10       	mov    0x10(%rsp),%rdi
    7dc5:	49 01 de             	add    %rbx,%r14
    7dc8:	e8 43 a5 ff ff       	call   2310 <_Znam@plt>
    7dcd:	49 89 06             	mov    %rax,(%r14)
    7dd0:	8b 44 24 20          	mov    0x20(%rsp),%eax
    7dd4:	45 31 f6             	xor    %r14d,%r14d
    7dd7:	85 c0                	test   %eax,%eax
    7dd9:	74 24                	je     7dff <_Z10allocate4djjjj+0xdf>
    7ddb:	0f 1f 44 00 00       	nopl   0x0(%rax,%rax,1)
    7de0:	48 8b 45 00          	mov    0x0(%rbp),%rax
    7de4:	4c 89 ef             	mov    %r13,%rdi
    7de7:	4c 8b 3c 18          	mov    (%rax,%rbx,1),%r15
    7deb:	e8 20 a5 ff ff       	call   2310 <_Znam@plt>
    7df0:	4d 01 f7             	add    %r14,%r15
    7df3:	49 83 c6 08          	add    $0x8,%r14
    7df7:	49 89 07             	mov    %rax,(%r15)
    7dfa:	4d 39 f4             	cmp    %r14,%r12
    7dfd:	75 e1                	jne    7de0 <_Z10allocate4djjjj+0xc0>
    7dff:	48 83 c3 08          	add    $0x8,%rbx
    7e03:	48 39 5c 24 08       	cmp    %rbx,0x8(%rsp)
    7e08:	74 06                	je     7e10 <_Z10allocate4djjjj+0xf0>
    7e0a:	4c 8b 75 00          	mov    0x0(%rbp),%r14
    7e0e:	eb b0                	jmp    7dc0 <_Z10allocate4djjjj+0xa0>
    7e10:	48 83 c5 08          	add    $0x8,%rbp
    7e14:	48 39 6c 24 18       	cmp    %rbp,0x18(%rsp)
    7e19:	75 85                	jne    7da0 <_Z10allocate4djjjj+0x80>
    7e1b:	48 8b 44 24 28       	mov    0x28(%rsp),%rax
    7e20:	48 83 c4 38          	add    $0x38,%rsp
    7e24:	5b                   	pop    %rbx
    7e25:	5d                   	pop    %rbp
    7e26:	41 5c                	pop    %r12
    7e28:	41 5d                	pop    %r13
    7e2a:	41 5e                	pop    %r14
    7e2c:	41 5f                	pop    %r15
    7e2e:	c3                   	ret
    7e2f:	90                   	nop

0000000000007e30 <_Z11allocate3dvjjj>:
    7e30:	f3 0f 1e fa          	endbr64
    7e34:	41 57                	push   %r15
    7e36:	41 89 f7             	mov    %esi,%r15d
    7e39:	41 56                	push   %r14
    7e3b:	41 89 fe             	mov    %edi,%r14d
    7e3e:	41 55                	push   %r13
    7e40:	41 54                	push   %r12
    7e42:	55                   	push   %rbp
    7e43:	4c 89 f5             	mov    %r14,%rbp
    7e46:	49 c1 e6 03          	shl    $0x3,%r14
    7e4a:	53                   	push   %rbx
    7e4b:	4c 89 f7             	mov    %r14,%rdi
    7e4e:	89 d3                	mov    %edx,%ebx
    7e50:	48 83 ec 38          	sub    $0x38,%rsp
    7e54:	89 74 24 24          	mov    %esi,0x24(%rsp)
    7e58:	e8 b3 a4 ff ff       	call   2310 <_Znam@plt>
    7e5d:	48 89 44 24 28       	mov    %rax,0x28(%rsp)
    7e62:	85 ed                	test   %ebp,%ebp
    7e64:	0f 84 d5 00 00 00    	je     7f3f <_Z11allocate3dvjjj+0x10f>
    7e6a:	41 89 dc             	mov    %ebx,%r12d
    7e6d:	44 89 fd             	mov    %r15d,%ebp
    7e70:	49 89 c7             	mov    %rax,%r15
    7e73:	4c 01 f0             	add    %r14,%rax
    7e76:	48 89 44 24 18       	mov    %rax,0x18(%rsp)
    7e7b:	4c 89 e0             	mov    %r12,%rax
    7e7e:	4f 8d 2c 64          	lea    (%r12,%r12,2),%r13
    7e82:	48 c1 e5 03          	shl    $0x3,%rbp
    7e86:	48 d1 e8             	shr    $1,%rax
    7e89:	4a 8d 34 ed 00 00 00 	lea    0x0(,%r13,8),%rsi
    7e90:	00 
    7e91:	4c 8d 34 40          	lea    (%rax,%rax,2),%r14
    7e95:	4c 89 e0             	mov    %r12,%rax
    7e98:	48 89 74 24 08       	mov    %rsi,0x8(%rsp)
    7e9d:	48 83 e0 fe          	and    $0xfffffffffffffffe,%rax
    7ea1:	49 c1 e6 04          	shl    $0x4,%r14
    7ea5:	48 8d 04 40          	lea    (%rax,%rax,2),%rax
    7ea9:	48 c1 e0 03          	shl    $0x3,%rax
    7ead:	48 89 44 24 10       	mov    %rax,0x10(%rsp)
    7eb2:	66 0f 1f 44 00 00    	nopw   0x0(%rax,%rax,1)
    7eb8:	48 89 ef             	mov    %rbp,%rdi
    7ebb:	e8 50 a4 ff ff       	call   2310 <_Znam@plt>
    7ec0:	49 89 07             	mov    %rax,(%r15)
    7ec3:	8b 44 24 24          	mov    0x24(%rsp),%eax
    7ec7:	85 c0                	test   %eax,%eax
    7ec9:	74 62                	je     7f2d <_Z11allocate3dvjjj+0xfd>
    7ecb:	45 31 ed             	xor    %r13d,%r13d
    7ece:	66 90                	xchg   %ax,%ax
    7ed0:	48 8b 7c 24 08       	mov    0x8(%rsp),%rdi
    7ed5:	e8 36 a4 ff ff       	call   2310 <_Znam@plt>
    7eda:	4d 85 e4             	test   %r12,%r12
    7edd:	66 0f ef c0          	pxor   %xmm0,%xmm0
    7ee1:	74 3a                	je     7f1d <_Z11allocate3dvjjj+0xed>
    7ee3:	48 89 c2             	mov    %rax,%rdx
    7ee6:	83 fb 01             	cmp    $0x1,%ebx
    7ee9:	74 27                	je     7f12 <_Z11allocate3dvjjj+0xe2>
    7eeb:	4a 8d 0c 30          	lea    (%rax,%r14,1),%rcx
    7eef:	90                   	nop
    7ef0:	0f 11 02             	movups %xmm0,(%rdx)
    7ef3:	48 83 c2 30          	add    $0x30,%rdx
    7ef7:	0f 11 42 e0          	movups %xmm0,-0x20(%rdx)
    7efb:	0f 11 42 f0          	movups %xmm0,-0x10(%rdx)
    7eff:	48 39 d1             	cmp    %rdx,%rcx
    7f02:	75 ec                	jne    7ef0 <_Z11allocate3dvjjj+0xc0>
    7f04:	f6 c3 01             	test   $0x1,%bl
    7f07:	74 14                	je     7f1d <_Z11allocate3dvjjj+0xed>
    7f09:	48 8b 74 24 10       	mov    0x10(%rsp),%rsi
    7f0e:	48 8d 14 30          	lea    (%rax,%rsi,1),%rdx
    7f12:	48 c7 42 10 00 00 00 	movq   $0x0,0x10(%rdx)
    7f19:	00 
    7f1a:	0f 11 02             	movups %xmm0,(%rdx)
    7f1d:	49 8b 17             	mov    (%r15),%rdx
    7f20:	4a 89 04 2a          	mov    %rax,(%rdx,%r13,1)
    7f24:	49 83 c5 08          	add    $0x8,%r13
    7f28:	4c 39 ed             	cmp    %r13,%rbp
    7f2b:	75 a3                	jne    7ed0 <_Z11allocate3dvjjj+0xa0>
    7f2d:	48 8b 44 24 18       	mov    0x18(%rsp),%rax
    7f32:	49 83 c7 08          	add    $0x8,%r15
    7f36:	49 39 c7             	cmp    %rax,%r15
    7f39:	0f 85 79 ff ff ff    	jne    7eb8 <_Z11allocate3dvjjj+0x88>
    7f3f:	48 8b 44 24 28       	mov    0x28(%rsp),%rax
    7f44:	48 83 c4 38          	add    $0x38,%rsp
    7f48:	5b                   	pop    %rbx
    7f49:	5d                   	pop    %rbp
    7f4a:	41 5c                	pop    %r12
    7f4c:	41 5d                	pop    %r13
    7f4e:	41 5e                	pop    %r14
    7f50:	41 5f                	pop    %r15
    7f52:	c3                   	ret
    7f53:	66 2e 0f 1f 84 00 00 	cs nopw 0x0(%rax,%rax,1)
    7f5a:	00 00 00 
    7f5d:	0f 1f 00             	nopl   (%rax)

0000000000007f60 <_ZNKSt5ctypeIcE8do_widenEc>:
    7f60:	f3 0f 1e fa          	endbr64
    7f64:	89 f0                	mov    %esi,%eax
    7f66:	c3                   	ret
    7f67:	66 0f 1f 84 00 00 00 	nopw   0x0(%rax,%rax,1)
    7f6e:	00 00 

0000000000007f70 <_Z5shearddd>:
    7f70:	f3 0f 1e fa          	endbr64
    7f74:	f2 0f 10 05 94 25 00 	movsd  0x2594(%rip),%xmm0        # a510 <_IO_stdin_used+0x510>
    7f7b:	00 
    7f7c:	66 0f 28 d9          	movapd %xmm1,%xmm3
    7f80:	66 0f ef f6          	pxor   %xmm6,%xmm6
    7f84:	48 89 f8             	mov    %rdi,%rax
    7f87:	f2 0f 10 25 71 25 00 	movsd  0x2571(%rip),%xmm4        # a500 <_IO_stdin_used+0x500>
    7f8e:	00 
    7f8f:	f2 0f 11 77 38       	movsd  %xmm6,0x38(%rdi)
    7f94:	f2 0f 59 d8          	mulsd  %xmm0,%xmm3
    7f98:	f2 0f 11 77 40       	movsd  %xmm6,0x40(%rdi)
    7f9d:	f2 0f 59 d9          	mulsd  %xmm1,%xmm3
    7fa1:	f2 0f 58 cc          	addsd  %xmm4,%xmm1
    7fa5:	f2 0f 59 c1          	mulsd  %xmm1,%xmm0
    7fa9:	66 0f 28 d3          	movapd %xmm3,%xmm2
    7fad:	f2 0f 5c d3          	subsd  %xmm3,%xmm2
    7fb1:	f2 0f 59 c1          	mulsd  %xmm1,%xmm0
    7fb5:	f2 0f 5e d4          	divsd  %xmm4,%xmm2
    7fb9:	f2 0f 5c c3          	subsd  %xmm3,%xmm0
    7fbd:	f2 0f 5e c4          	divsd  %xmm4,%xmm0
    7fc1:	66 0f 28 ea          	movapd %xmm2,%xmm5
    7fc5:	f2 0f 58 d2          	addsd  %xmm2,%xmm2
    7fc9:	f2 0f 58 ee          	addsd  %xmm6,%xmm5
    7fcd:	66 0f 28 cd          	movapd %xmm5,%xmm1
    7fd1:	f2 0f 11 6f 30       	movsd  %xmm5,0x30(%rdi)
    7fd6:	f2 0f 58 c6          	addsd  %xmm6,%xmm0
    7fda:	66 0f 14 d0          	unpcklpd %xmm0,%xmm2
    7fde:	66 0f 14 c8          	unpcklpd %xmm0,%xmm1
    7fe2:	66 0f ef c0          	pxor   %xmm0,%xmm0
    7fe6:	0f 11 17             	movups %xmm2,(%rdi)
    7fe9:	0f 11 4f 10          	movups %xmm1,0x10(%rdi)
    7fed:	0f 11 47 20          	movups %xmm0,0x20(%rdi)
    7ff1:	c3                   	ret
    7ff2:	66 66 2e 0f 1f 84 00 	data16 cs nopw 0x0(%rax,%rax,1)
    7ff9:	00 00 00 00 
    7ffd:	0f 1f 00             	nopl   (%rax)

0000000000008000 <_Z6stressdddd>:
    8000:	f3 0f 1e fa          	endbr64
    8004:	66 0f 28 e0          	movapd %xmm0,%xmm4
    8008:	66 0f 28 ea          	movapd %xmm2,%xmm5
    800c:	66 0f ef db          	pxor   %xmm3,%xmm3
    8010:	48 89 f8             	mov    %rdi,%rax
    8013:	f2 0f 10 05 f5 24 00 	movsd  0x24f5(%rip),%xmm0        # a510 <_IO_stdin_used+0x510>
    801a:	00 
    801b:	f2 0f 10 35 dd 24 00 	movsd  0x24dd(%rip),%xmm6        # a500 <_IO_stdin_used+0x500>
    8022:	00 
    8023:	48 c7 47 28 00 00 00 	movq   $0x0,0x28(%rdi)
    802a:	00 
    802b:	48 c7 47 38 00 00 00 	movq   $0x0,0x38(%rdi)
    8032:	00 
    8033:	f2 0f 59 e8          	mulsd  %xmm0,%xmm5
    8037:	f2 0f 59 ea          	mulsd  %xmm2,%xmm5
    803b:	f2 0f 58 d6          	addsd  %xmm6,%xmm2
    803f:	f2 0f 59 c2          	mulsd  %xmm2,%xmm0
    8043:	66 0f 28 cd          	movapd %xmm5,%xmm1
    8047:	f2 0f 5c cd          	subsd  %xmm5,%xmm1
    804b:	f2 0f 59 c2          	mulsd  %xmm2,%xmm0
    804f:	f2 0f 5e ce          	divsd  %xmm6,%xmm1
    8053:	f2 0f 5c c5          	subsd  %xmm5,%xmm0
    8057:	f2 0f 5e c6          	divsd  %xmm6,%xmm0
    805b:	66 0f 28 f9          	movapd %xmm1,%xmm7
    805f:	f2 0f 58 c9          	addsd  %xmm1,%xmm1
    8063:	f2 0f 58 fb          	addsd  %xmm3,%xmm7
    8067:	f2 0f 58 cc          	addsd  %xmm4,%xmm1
    806b:	f2 0f 11 7f 30       	movsd  %xmm7,0x30(%rdi)
    8070:	f2 0f 58 c3          	addsd  %xmm3,%xmm0
    8074:	f2 0f 58 dc          	addsd  %xmm4,%xmm3
    8078:	66 0f 14 c8          	unpcklpd %xmm0,%xmm1
    807c:	f2 0f 11 5f 20       	movsd  %xmm3,0x20(%rdi)
    8081:	0f 11 0f             	movups %xmm1,(%rdi)
    8084:	66 0f 28 cf          	movapd %xmm7,%xmm1
    8088:	66 0f 14 c8          	unpcklpd %xmm0,%xmm1
    808c:	f2 0f 11 5f 40       	movsd  %xmm3,0x40(%rdi)
    8091:	0f 11 4f 10          	movups %xmm1,0x10(%rdi)
    8095:	c3                   	ret
    8096:	66 2e 0f 1f 84 00 00 	cs nopw 0x0(%rax,%rax,1)
    809d:	00 00 00 

00000000000080a0 <_Z4diffdddi>:
    80a0:	f3 0f 1e fa          	endbr64
    80a4:	48 89 f8             	mov    %rdi,%rax
    80a7:	83 fe 02             	cmp    $0x2,%esi
    80aa:	74 44                	je     80f0 <_Z4diffdddi+0x50>
    80ac:	f2 0f 10 05 5c 24 00 	movsd  0x245c(%rip),%xmm0        # a510 <_IO_stdin_used+0x510>
    80b3:	00 
    80b4:	48 c7 47 08 00 00 00 	movq   $0x0,0x8(%rdi)
    80bb:	00 
    80bc:	48 c7 47 10 00 00 00 	movq   $0x0,0x10(%rdi)
    80c3:	00 
    80c4:	f2 0f 59 c1          	mulsd  %xmm1,%xmm0
    80c8:	f2 0f 59 c1          	mulsd  %xmm1,%xmm0
    80cc:	f2 0f 5c c0          	subsd  %xmm0,%xmm0
    80d0:	f2 0f 5e 05 28 24 00 	divsd  0x2428(%rip),%xmm0        # a500 <_IO_stdin_used+0x500>
    80d7:	00 
    80d8:	f2 0f 11 07          	movsd  %xmm0,(%rdi)
    80dc:	83 fe 03             	cmp    $0x3,%esi
    80df:	75 07                	jne    80e8 <_Z4diffdddi+0x48>
    80e1:	c3                   	ret
    80e2:	66 0f 1f 44 00 00    	nopw   0x0(%rax,%rax,1)
    80e8:	c3                   	ret
    80e9:	0f 1f 80 00 00 00 00 	nopl   0x0(%rax)
    80f0:	f2 0f 10 1d 08 24 00 	movsd  0x2408(%rip),%xmm3        # a500 <_IO_stdin_used+0x500>
    80f7:	00 
    80f8:	66 0f 28 e1          	movapd %xmm1,%xmm4
    80fc:	f2 0f 10 15 0c 24 00 	movsd  0x240c(%rip),%xmm2        # a510 <_IO_stdin_used+0x510>
    8103:	00 
    8104:	48 c7 47 08 00 00 00 	movq   $0x0,0x8(%rdi)
    810b:	00 
    810c:	48 c7 47 10 00 00 00 	movq   $0x0,0x10(%rdi)
    8113:	00 
    8114:	f2 0f 58 e3          	addsd  %xmm3,%xmm4
    8118:	66 0f 28 c4          	movapd %xmm4,%xmm0
    811c:	f2 0f 59 c2          	mulsd  %xmm2,%xmm0
    8120:	f2 0f 59 d1          	mulsd  %xmm1,%xmm2
    8124:	f2 0f 59 c4          	mulsd  %xmm4,%xmm0
    8128:	f2 0f 59 d1          	mulsd  %xmm1,%xmm2
    812c:	f2 0f 5c c2          	subsd  %xmm2,%xmm0
    8130:	f2 0f 5e c3          	divsd  %xmm3,%xmm0
    8134:	f2 0f 11 07          	movsd  %xmm0,(%rdi)
    8138:	c3                   	ret
    8139:	0f 1f 80 00 00 00 00 	nopl   0x0(%rax)

0000000000008140 <_Z6shearaPPPPdiii>:
    8140:	f3 0f 1e fa          	endbr64
    8144:	66 0f ef d2          	pxor   %xmm2,%xmm2
    8148:	f2 0f 10 05 c0 23 00 	movsd  0x23c0(%rip),%xmm0        # a510 <_IO_stdin_used+0x510>
    814f:	00 
    8150:	66 0f ef f6          	pxor   %xmm6,%xmm6
    8154:	48 89 f8             	mov    %rdi,%rax
    8157:	f2 0f 2a d1          	cvtsi2sd %ecx,%xmm2
    815b:	f2 0f 10 25 9d 23 00 	movsd  0x239d(%rip),%xmm4        # a500 <_IO_stdin_used+0x500>
    8162:	00 
    8163:	f2 0f 11 77 38       	movsd  %xmm6,0x38(%rdi)
    8168:	f2 0f 11 77 40       	movsd  %xmm6,0x40(%rdi)
    816d:	66 0f 28 da          	movapd %xmm2,%xmm3
    8171:	f2 0f 59 d8          	mulsd  %xmm0,%xmm3
    8175:	f2 0f 59 da          	mulsd  %xmm2,%xmm3
    8179:	f2 0f 58 d4          	addsd  %xmm4,%xmm2
    817d:	f2 0f 59 c2          	mulsd  %xmm2,%xmm0
    8181:	66 0f 28 cb          	movapd %xmm3,%xmm1
    8185:	f2 0f 5c cb          	subsd  %xmm3,%xmm1
    8189:	f2 0f 59 c2          	mulsd  %xmm2,%xmm0
    818d:	f2 0f 5e cc          	divsd  %xmm4,%xmm1
    8191:	f2 0f 5c c3          	subsd  %xmm3,%xmm0
    8195:	f2 0f 5e c4          	divsd  %xmm4,%xmm0
    8199:	66 0f 28 e9          	movapd %xmm1,%xmm5
    819d:	f2 0f 58 c9          	addsd  %xmm1,%xmm1
    81a1:	f2 0f 58 ee          	addsd  %xmm6,%xmm5
    81a5:	f2 0f 11 6f 30       	movsd  %xmm5,0x30(%rdi)
    81aa:	f2 0f 58 c6          	addsd  %xmm6,%xmm0
    81ae:	66 0f 14 c8          	unpcklpd %xmm0,%xmm1
    81b2:	0f 11 0f             	movups %xmm1,(%rdi)
    81b5:	66 0f 28 cd          	movapd %xmm5,%xmm1
    81b9:	66 0f 14 c8          	unpcklpd %xmm0,%xmm1
    81bd:	66 0f ef c0          	pxor   %xmm0,%xmm0
    81c1:	0f 11 4f 10          	movups %xmm1,0x10(%rdi)
    81c5:	0f 11 47 20          	movups %xmm0,0x20(%rdi)
    81c9:	c3                   	ret
    81ca:	66 0f 1f 44 00 00    	nopw   0x0(%rax,%rax,1)

00000000000081d0 <_Z7partdifPPPPeiiiidii>:
    81d0:	f3 0f 1e fa          	endbr64
    81d4:	83 7c 24 08 02       	cmpl   $0x2,0x8(%rsp)
    81d9:	48 63 c2             	movslq %edx,%rax
    81dc:	f2 0f 11 44 24 f0    	movsd  %xmm0,-0x10(%rsp)
    81e2:	77 5c                	ja     8240 <_Z7partdifPPPPeiiiidii+0x70>
    81e4:	4d 63 c9             	movslq %r9d,%r9
    81e7:	48 63 d6             	movslq %esi,%rdx
    81ea:	dd 44 24 f0          	fldl   -0x10(%rsp)
    81ee:	4a 8b 34 cf          	mov    (%rdi,%r9,8),%rsi
    81f2:	48 8b 14 d6          	mov    (%rsi,%rdx,8),%rdx
    81f6:	48 8b 14 c2          	mov    (%rdx,%rax,8),%rdx
    81fa:	48 63 c1             	movslq %ecx,%rax
    81fd:	48 c1 e0 04          	shl    $0x4,%rax
    8201:	85 c9                	test   %ecx,%ecx
    8203:	7e 43                	jle    8248 <_Z7partdifPPPPeiiiidii+0x78>
    8205:	db 6c 02 10          	fldt   0x10(%rdx,%rax,1)
    8209:	41 83 e8 01          	sub    $0x1,%r8d
    820d:	44 39 c1             	cmp    %r8d,%ecx
    8210:	7c 6e                	jl     8280 <_Z7partdifPPPPeiiiidii+0xb0>
    8212:	db 2c 02             	fldt   (%rdx,%rax,1)
    8215:	d8 0d ed 1d 00 00    	fmuls  0x1ded(%rip)        # a008 <_IO_stdin_used+0x8>
    821b:	d9 c9                	fxch   %st(1)
    821d:	d8 0d e9 1d 00 00    	fmuls  0x1de9(%rip)        # a00c <_IO_stdin_used+0xc>
    8223:	de c1                	faddp  %st,%st(1)
    8225:	db 6c 02 20          	fldt   0x20(%rdx,%rax,1)
    8229:	de e9                	fsubrp %st,%st(1)
    822b:	d8 0d d3 1d 00 00    	fmuls  0x1dd3(%rip)        # a004 <_IO_stdin_used+0x4>
    8231:	de f1                	fdivp  %st,%st(1)
    8233:	dd 5c 24 f0          	fstpl  -0x10(%rsp)
    8237:	f2 0f 10 44 24 f0    	movsd  -0x10(%rsp),%xmm0
    823d:	c3                   	ret
    823e:	66 90                	xchg   %ax,%ax
    8240:	66 0f ef c0          	pxor   %xmm0,%xmm0
    8244:	c3                   	ret
    8245:	0f 1f 00             	nopl   (%rax)
    8248:	db 2c 02             	fldt   (%rdx,%rax,1)
    824b:	d8 0d bf 1d 00 00    	fmuls  0x1dbf(%rip)        # a010 <_IO_stdin_used+0x10>
    8251:	db 6c 02 f0          	fldt   -0x10(%rdx,%rax,1)
    8255:	d8 0d b1 1d 00 00    	fmuls  0x1db1(%rip)        # a00c <_IO_stdin_used+0xc>
    825b:	de e9                	fsubrp %st,%st(1)
    825d:	db 6c 02 e0          	fldt   -0x20(%rdx,%rax,1)
    8261:	de c1                	faddp  %st,%st(1)
    8263:	d8 0d 9b 1d 00 00    	fmuls  0x1d9b(%rip)        # a004 <_IO_stdin_used+0x4>
    8269:	de f1                	fdivp  %st,%st(1)
    826b:	dd 5c 24 f0          	fstpl  -0x10(%rsp)
    826f:	f2 0f 10 44 24 f0    	movsd  -0x10(%rsp),%xmm0
    8275:	c3                   	ret
    8276:	66 2e 0f 1f 84 00 00 	cs nopw 0x0(%rax,%rax,1)
    827d:	00 00 00 
    8280:	db 6c 02 f0          	fldt   -0x10(%rdx,%rax,1)
    8284:	eb a3                	jmp    8229 <_Z7partdifPPPPeiiiidii+0x59>
    8286:	66 2e 0f 1f 84 00 00 	cs nopw 0x0(%rax,%rax,1)
    828d:	00 00 00 

0000000000008290 <_Z9divtenallPPP6tensorid>:
    8290:	f3 0f 1e fa          	endbr64
    8294:	41 57                	push   %r15
    8296:	89 f1                	mov    %esi,%ecx
    8298:	89 f2                	mov    %esi,%edx
    829a:	41 56                	push   %r14
    829c:	41 89 f6             	mov    %esi,%r14d
    829f:	41 55                	push   %r13
    82a1:	41 54                	push   %r12
    82a3:	55                   	push   %rbp
    82a4:	48 89 fd             	mov    %rdi,%rbp
    82a7:	bf 09 00 00 00       	mov    $0x9,%edi
    82ac:	53                   	push   %rbx
    82ad:	48 81 ec 08 01 00 00 	sub    $0x108,%rsp
    82b4:	89 74 24 14          	mov    %esi,0x14(%rsp)
    82b8:	f2 0f 11 44 24 60    	movsd  %xmm0,0x60(%rsp)
    82be:	64 48 8b 04 25 28 00 	mov    %fs:0x28,%rax
    82c5:	00 00 
    82c7:	48 89 84 24 f8 00 00 	mov    %rax,0xf8(%rsp)
    82ce:	00 
    82cf:	31 c0                	xor    %eax,%eax
    82d1:	e8 4a fa ff ff       	call   7d20 <_Z10allocate4djjjj>
    82d6:	48 89 c3             	mov    %rax,%rbx
    82d9:	49 63 c6             	movslq %r14d,%rax
    82dc:	85 c0                	test   %eax,%eax
    82de:	0f 8e 29 08 00 00    	jle    8b0d <_Z9divtenallPPP6tensorid+0x87d>
    82e4:	48 8b 4b 40          	mov    0x40(%rbx),%rcx
    82e8:	48 8b 33             	mov    (%rbx),%rsi
    82eb:	48 89 5c 24 68       	mov    %rbx,0x68(%rsp)
    82f0:	31 d2                	xor    %edx,%edx
    82f2:	48 8d 3c c5 00 00 00 	lea    0x0(,%rax,8),%rdi
    82f9:	00 
    82fa:	48 c1 e0 04          	shl    $0x4,%rax
    82fe:	4c 8b 43 10          	mov    0x10(%rbx),%r8
    8302:	4c 8b 4b 18          	mov    0x18(%rbx),%r9
    8306:	49 89 c5             	mov    %rax,%r13
    8309:	48 8b 43 38          	mov    0x38(%rbx),%rax
    830d:	4c 8b 53 20          	mov    0x20(%rbx),%r10
    8311:	48 89 7c 24 30       	mov    %rdi,0x30(%rsp)
    8316:	4c 8b 5b 28          	mov    0x28(%rbx),%r11
    831a:	48 8b 7b 08          	mov    0x8(%rbx),%rdi
    831e:	48 89 4c 24 58       	mov    %rcx,0x58(%rsp)
    8323:	48 89 f1             	mov    %rsi,%rcx
    8326:	4c 8b 63 30          	mov    0x30(%rbx),%r12
    832a:	48 89 c3             	mov    %rax,%rbx
    832d:	48 8b 04 11          	mov    (%rcx,%rdx,1),%rax
    8331:	4c 89 64 24 70       	mov    %r12,0x70(%rsp)
    8336:	31 f6                	xor    %esi,%esi
    8338:	48 89 5c 24 78       	mov    %rbx,0x78(%rsp)
    833d:	4c 8b 7c 15 00       	mov    0x0(%rbp,%rdx,1),%r15
    8342:	48 89 44 24 28       	mov    %rax,0x28(%rsp)
    8347:	48 8b 04 17          	mov    (%rdi,%rdx,1),%rax
    834b:	48 89 8c 24 80 00 00 	mov    %rcx,0x80(%rsp)
    8352:	00 
    8353:	4d 8b 34 13          	mov    (%r11,%rdx,1),%r14
    8357:	48 89 44 24 38       	mov    %rax,0x38(%rsp)
    835c:	49 8b 04 10          	mov    (%r8,%rdx,1),%rax
    8360:	48 89 bc 24 88 00 00 	mov    %rdi,0x88(%rsp)
    8367:	00 
    8368:	48 89 44 24 40       	mov    %rax,0x40(%rsp)
    836d:	49 8b 04 11          	mov    (%r9,%rdx,1),%rax
    8371:	4c 89 84 24 90 00 00 	mov    %r8,0x90(%rsp)
    8378:	00 
    8379:	48 89 44 24 48       	mov    %rax,0x48(%rsp)
    837e:	49 8b 04 12          	mov    (%r10,%rdx,1),%rax
    8382:	48 89 94 24 98 00 00 	mov    %rdx,0x98(%rsp)
    8389:	00 
    838a:	48 89 44 24 50       	mov    %rax,0x50(%rsp)
    838f:	49 8b 04 14          	mov    (%r12,%rdx,1),%rax
    8393:	4c 89 8c 24 a0 00 00 	mov    %r9,0xa0(%rsp)
    839a:	00 
    839b:	48 89 44 24 18       	mov    %rax,0x18(%rsp)
    83a0:	48 8b 04 13          	mov    (%rbx,%rdx,1),%rax
    83a4:	4c 89 94 24 a8 00 00 	mov    %r10,0xa8(%rsp)
    83ab:	00 
    83ac:	48 89 44 24 20       	mov    %rax,0x20(%rsp)
    83b1:	48 8b 44 24 58       	mov    0x58(%rsp),%rax
    83b6:	4c 89 9c 24 b0 00 00 	mov    %r11,0xb0(%rsp)
    83bd:	00 
    83be:	48 8b 04 10          	mov    (%rax,%rdx,1),%rax
    83c2:	48 89 ac 24 b8 00 00 	mov    %rbp,0xb8(%rsp)
    83c9:	00 
    83ca:	48 89 44 24 08       	mov    %rax,0x8(%rsp)
    83cf:	90                   	nop
    83d0:	48 8b 44 24 28       	mov    0x28(%rsp),%rax
    83d5:	49 8b 14 37          	mov    (%r15,%rsi,1),%rdx
    83d9:	4d 8b 0c 36          	mov    (%r14,%rsi,1),%r9
    83dd:	4c 8b 24 30          	mov    (%rax,%rsi,1),%r12
    83e1:	48 8b 44 24 38       	mov    0x38(%rsp),%rax
    83e6:	48 8b 2c 30          	mov    (%rax,%rsi,1),%rbp
    83ea:	48 8b 44 24 40       	mov    0x40(%rsp),%rax
    83ef:	48 8b 1c 30          	mov    (%rax,%rsi,1),%rbx
    83f3:	48 8b 44 24 48       	mov    0x48(%rsp),%rax
    83f8:	4c 8b 1c 30          	mov    (%rax,%rsi,1),%r11
    83fc:	48 8b 44 24 50       	mov    0x50(%rsp),%rax
    8401:	4c 8b 14 30          	mov    (%rax,%rsi,1),%r10
    8405:	48 8b 44 24 18       	mov    0x18(%rsp),%rax
    840a:	4c 8b 04 30          	mov    (%rax,%rsi,1),%r8
    840e:	48 8b 44 24 20       	mov    0x20(%rsp),%rax
    8413:	48 8b 3c 30          	mov    (%rax,%rsi,1),%rdi
    8417:	48 8b 44 24 08       	mov    0x8(%rsp),%rax
    841c:	48 8b 0c 30          	mov    (%rax,%rsi,1),%rcx
    8420:	31 c0                	xor    %eax,%eax
    8422:	66 0f 1f 44 00 00    	nopw   0x0(%rax,%rax,1)
    8428:	dd 42 08             	fldl   0x8(%rdx)
    842b:	dd 42 10             	fldl   0x10(%rdx)
    842e:	48 83 c2 48          	add    $0x48,%rdx
    8432:	dd 42 b8             	fldl   -0x48(%rdx)
    8435:	41 db 3c 04          	fstpt  (%r12,%rax,1)
    8439:	d9 c9                	fxch   %st(1)
    843b:	db 7c 05 00          	fstpt  0x0(%rbp,%rax,1)
    843f:	db 3c 03             	fstpt  (%rbx,%rax,1)
    8442:	dd 42 d8             	fldl   -0x28(%rdx)
    8445:	dd 42 e0             	fldl   -0x20(%rdx)
    8448:	dd 42 d0             	fldl   -0x30(%rdx)
    844b:	41 db 3c 03          	fstpt  (%r11,%rax,1)
    844f:	d9 c9                	fxch   %st(1)
    8451:	41 db 3c 02          	fstpt  (%r10,%rax,1)
    8455:	41 db 3c 01          	fstpt  (%r9,%rax,1)
    8459:	dd 42 f0             	fldl   -0x10(%rdx)
    845c:	dd 42 f8             	fldl   -0x8(%rdx)
    845f:	dd 42 e8             	fldl   -0x18(%rdx)
    8462:	41 db 3c 00          	fstpt  (%r8,%rax,1)
    8466:	d9 c9                	fxch   %st(1)
    8468:	db 3c 07             	fstpt  (%rdi,%rax,1)
    846b:	db 3c 01             	fstpt  (%rcx,%rax,1)
    846e:	48 83 c0 10          	add    $0x10,%rax
    8472:	4c 39 e8             	cmp    %r13,%rax
    8475:	75 b1                	jne    8428 <_Z9divtenallPPP6tensorid+0x198>
    8477:	48 8b 44 24 30       	mov    0x30(%rsp),%rax
    847c:	48 83 c6 08          	add    $0x8,%rsi
    8480:	48 39 c6             	cmp    %rax,%rsi
    8483:	0f 85 47 ff ff ff    	jne    83d0 <_Z9divtenallPPP6tensorid+0x140>
    8489:	48 8b 94 24 98 00 00 	mov    0x98(%rsp),%rdx
    8490:	00 
    8491:	4c 8b 64 24 70       	mov    0x70(%rsp),%r12
    8496:	48 8b 5c 24 78       	mov    0x78(%rsp),%rbx
    849b:	48 8b 8c 24 80 00 00 	mov    0x80(%rsp),%rcx
    84a2:	00 
    84a3:	48 83 c2 08          	add    $0x8,%rdx
    84a7:	48 8b bc 24 88 00 00 	mov    0x88(%rsp),%rdi
    84ae:	00 
    84af:	4c 8b 84 24 90 00 00 	mov    0x90(%rsp),%r8
    84b6:	00 
    84b7:	4c 8b 8c 24 a0 00 00 	mov    0xa0(%rsp),%r9
    84be:	00 
    84bf:	4c 8b 94 24 a8 00 00 	mov    0xa8(%rsp),%r10
    84c6:	00 
    84c7:	4c 8b 9c 24 b0 00 00 	mov    0xb0(%rsp),%r11
    84ce:	00 
    84cf:	48 8b ac 24 b8 00 00 	mov    0xb8(%rsp),%rbp
    84d6:	00 
    84d7:	48 39 c2             	cmp    %rax,%rdx
    84da:	0f 85 4d fe ff ff    	jne    832d <_Z9divtenallPPP6tensorid+0x9d>
    84e0:	44 8b 7c 24 14       	mov    0x14(%rsp),%r15d
    84e5:	48 8b 5c 24 68       	mov    0x68(%rsp),%rbx
    84ea:	44 89 ff             	mov    %r15d,%edi
    84ed:	44 89 fa             	mov    %r15d,%edx
    84f0:	44 89 fe             	mov    %r15d,%esi
    84f3:	e8 38 f9 ff ff       	call   7e30 <_Z11allocate3dvjjj>
    84f8:	41 8d 7f ff          	lea    -0x1(%r15),%edi
    84fc:	dd 44 24 60          	fldl   0x60(%rsp)
    8500:	4c 8b 33             	mov    (%rbx),%r14
    8503:	d9 05 03 1b 00 00    	flds   0x1b03(%rip)        # a00c <_IO_stdin_used+0xc>
    8509:	4c 8b 6b 08          	mov    0x8(%rbx),%r13
    850d:	89 7c 24 38          	mov    %edi,0x38(%rsp)
    8511:	31 c9                	xor    %ecx,%ecx
    8513:	48 8b 7b 18          	mov    0x18(%rbx),%rdi
    8517:	d9 05 e7 1a 00 00    	flds   0x1ae7(%rip)        # a004 <_IO_stdin_used+0x4>
    851d:	d9 05 e5 1a 00 00    	flds   0x1ae5(%rip)        # a008 <_IO_stdin_used+0x8>
    8523:	4c 8b 7b 38          	mov    0x38(%rbx),%r15
    8527:	48 89 7c 24 18       	mov    %rdi,0x18(%rsp)
    852c:	48 8b 7b 20          	mov    0x20(%rbx),%rdi
    8530:	48 89 7c 24 20       	mov    %rdi,0x20(%rsp)
    8535:	48 8b 7b 30          	mov    0x30(%rbx),%rdi
    8539:	48 89 7c 24 50       	mov    %rdi,0x50(%rsp)
    853e:	48 8b 1c 08          	mov    (%rax,%rcx,1),%rbx
    8542:	4c 8b 64 24 50       	mov    0x50(%rsp),%r12
    8547:	48 89 44 24 58       	mov    %rax,0x58(%rsp)
    854c:	31 d2                	xor    %edx,%edx
    854e:	48 89 5c 24 40       	mov    %rbx,0x40(%rsp)
    8553:	48 8b 44 24 40       	mov    0x40(%rsp),%rax
    8558:	8b 74 24 38          	mov    0x38(%rsp),%esi
    855c:	48 8b 04 10          	mov    (%rax,%rdx,1),%rax
    8560:	48 89 44 24 28       	mov    %rax,0x28(%rsp)
    8565:	85 f6                	test   %esi,%esi
    8567:	0f 8f fe 02 00 00    	jg     886b <_Z9divtenallPPP6tensorid+0x5db>
    856d:	48 89 c7             	mov    %rax,%rdi
    8570:	49 8b 04 0e          	mov    (%r14,%rcx,1),%rax
    8574:	41 ba 20 00 00 00    	mov    $0x20,%r10d
    857a:	48 8b 34 10          	mov    (%rax,%rdx,1),%rsi
    857e:	49 8b 44 0d 00       	mov    0x0(%r13,%rcx,1),%rax
    8583:	db 2e                	fldt   (%rsi)
    8585:	d8 0d 85 1a 00 00    	fmuls  0x1a85(%rip)        # a010 <_IO_stdin_used+0x10>
    858b:	48 8b 04 10          	mov    (%rax,%rdx,1),%rax
    858f:	db 6e f0             	fldt   -0x10(%rsi)
    8592:	d8 cc                	fmul   %st(4),%st
    8594:	de e9                	fsubrp %st,%st(1)
    8596:	db 6e e0             	fldt   -0x20(%rsi)
    8599:	de c1                	faddp  %st,%st(1)
    859b:	d8 ca                	fmul   %st(2),%st
    859d:	d8 f4                	fdiv   %st(4),%st
    859f:	dd 5c 24 08          	fstpl  0x8(%rsp)
    85a3:	dd 44 24 08          	fldl   0x8(%rsp)
    85a7:	d9 ee                	fldz
    85a9:	dc c1                	fadd   %st,%st(1)
    85ab:	db 28                	fldt   (%rax)
    85ad:	d8 0d 5d 1a 00 00    	fmuls  0x1a5d(%rip)        # a010 <_IO_stdin_used+0x10>
    85b3:	db 68 f0             	fldt   -0x10(%rax)
    85b6:	d8 ce                	fmul   %st(6),%st
    85b8:	de e9                	fsubrp %st,%st(1)
    85ba:	db 68 e0             	fldt   -0x20(%rax)
    85bd:	48 8b 44 24 18       	mov    0x18(%rsp),%rax
    85c2:	48 8b 04 08          	mov    (%rax,%rcx,1),%rax
    85c6:	de c1                	faddp  %st,%st(1)
    85c8:	48 8b 34 10          	mov    (%rax,%rdx,1),%rsi
    85cc:	48 8b 44 24 20       	mov    0x20(%rsp),%rax
    85d1:	d8 cc                	fmul   %st(4),%st
    85d3:	48 8b 04 08          	mov    (%rax,%rcx,1),%rax
    85d7:	48 8b 04 10          	mov    (%rax,%rdx,1),%rax
    85db:	d8 f6                	fdiv   %st(6),%st
    85dd:	dd 5c 24 08          	fstpl  0x8(%rsp)
    85e1:	dd 44 24 08          	fldl   0x8(%rsp)
    85e5:	de c2                	faddp  %st,%st(2)
    85e7:	dc c1                	fadd   %st,%st(1)
    85e9:	d9 c9                	fxch   %st(1)
    85eb:	db bc 24 c0 00 00 00 	fstpt  0xc0(%rsp)
    85f2:	db 2e                	fldt   (%rsi)
    85f4:	d8 0d 16 1a 00 00    	fmuls  0x1a16(%rip)        # a010 <_IO_stdin_used+0x10>
    85fa:	db 6e f0             	fldt   -0x10(%rsi)
    85fd:	d8 cd                	fmul   %st(5),%st
    85ff:	de e9                	fsubrp %st,%st(1)
    8601:	db 6e e0             	fldt   -0x20(%rsi)
    8604:	de c1                	faddp  %st,%st(1)
    8606:	d8 cb                	fmul   %st(3),%st
    8608:	d8 f5                	fdiv   %st(5),%st
    860a:	dd 5c 24 08          	fstpl  0x8(%rsp)
    860e:	dd 44 24 08          	fldl   0x8(%rsp)
    8612:	d8 c1                	fadd   %st(1),%st
    8614:	db 28                	fldt   (%rax)
    8616:	d8 0d f4 19 00 00    	fmuls  0x19f4(%rip)        # a010 <_IO_stdin_used+0x10>
    861c:	db 68 f0             	fldt   -0x10(%rax)
    861f:	d8 ce                	fmul   %st(6),%st
    8621:	de e9                	fsubrp %st,%st(1)
    8623:	db 68 e0             	fldt   -0x20(%rax)
    8626:	49 8b 04 0c          	mov    (%r12,%rcx,1),%rax
    862a:	48 8b 34 10          	mov    (%rax,%rdx,1),%rsi
    862e:	49 8b 04 0f          	mov    (%r15,%rcx,1),%rax
    8632:	de c1                	faddp  %st,%st(1)
    8634:	48 8b 04 10          	mov    (%rax,%rdx,1),%rax
    8638:	d8 cc                	fmul   %st(4),%st
    863a:	d8 f6                	fdiv   %st(6),%st
    863c:	dd 5c 24 08          	fstpl  0x8(%rsp)
    8640:	dd 44 24 08          	fldl   0x8(%rsp)
    8644:	de c1                	faddp  %st,%st(1)
    8646:	d8 c1                	fadd   %st(1),%st
    8648:	db bc 24 d0 00 00 00 	fstpt  0xd0(%rsp)
    864f:	db 2e                	fldt   (%rsi)
    8651:	d8 0d b9 19 00 00    	fmuls  0x19b9(%rip)        # a010 <_IO_stdin_used+0x10>
    8657:	db 6e f0             	fldt   -0x10(%rsi)
    865a:	d8 cd                	fmul   %st(5),%st
    865c:	de e9                	fsubrp %st,%st(1)
    865e:	db 6e e0             	fldt   -0x20(%rsi)
    8661:	31 f6                	xor    %esi,%esi
    8663:	de c1                	faddp  %st,%st(1)
    8665:	d8 cb                	fmul   %st(3),%st
    8667:	d8 f5                	fdiv   %st(5),%st
    8669:	dd 5c 24 08          	fstpl  0x8(%rsp)
    866d:	dd 44 24 08          	fldl   0x8(%rsp)
    8671:	d8 c1                	fadd   %st(1),%st
    8673:	db 28                	fldt   (%rax)
    8675:	d8 0d 95 19 00 00    	fmuls  0x1995(%rip)        # a010 <_IO_stdin_used+0x10>
    867b:	db 68 f0             	fldt   -0x10(%rax)
    867e:	d8 ce                	fmul   %st(6),%st
    8680:	de e9                	fsubrp %st,%st(1)
    8682:	db 68 e0             	fldt   -0x20(%rax)
    8685:	de c1                	faddp  %st,%st(1)
    8687:	d8 cc                	fmul   %st(4),%st
    8689:	d8 f6                	fdiv   %st(6),%st
    868b:	dd 5c 24 08          	fstpl  0x8(%rsp)
    868f:	dd 44 24 08          	fldl   0x8(%rsp)
    8693:	de c1                	faddp  %st,%st(1)
    8695:	de c1                	faddp  %st,%st(1)
    8697:	d9 c0                	fld    %st(0)
    8699:	db bc 24 e0 00 00 00 	fstpt  0xe0(%rsp)
    86a0:	db ac 24 c0 00 00 00 	fldt   0xc0(%rsp)
    86a7:	83 c6 01             	add    $0x1,%esi
    86aa:	4c 89 d0             	mov    %r10,%rax
    86ad:	48 83 c7 18          	add    $0x18,%rdi
    86b1:	dd 5c 24 08          	fstpl  0x8(%rsp)
    86b5:	db ac 24 d0 00 00 00 	fldt   0xd0(%rsp)
    86bc:	f2 0f 10 44 24 08    	movsd  0x8(%rsp),%xmm0
    86c2:	dd 5c 24 08          	fstpl  0x8(%rsp)
    86c6:	66 0f 16 44 24 08    	movhpd 0x8(%rsp),%xmm0
    86cc:	dd 5f f8             	fstpl  -0x8(%rdi)
    86cf:	0f 11 47 e8          	movups %xmm0,-0x18(%rdi)
    86d3:	39 74 24 14          	cmp    %esi,0x14(%rsp)
    86d7:	0f 8e 34 01 00 00    	jle    8811 <_Z9divtenallPPP6tensorid+0x581>
    86dd:	4d 8b 04 0e          	mov    (%r14,%rcx,1),%r8
    86e1:	48 8b 5c 24 18       	mov    0x18(%rsp),%rbx
    86e6:	4c 8d 50 10          	lea    0x10(%rax),%r10
    86ea:	4d 8b 0c 10          	mov    (%r8,%rdx,1),%r9
    86ee:	4d 8b 44 0d 00       	mov    0x0(%r13,%rcx,1),%r8
    86f3:	41 db 6c 01 f0       	fldt   -0x10(%r9,%rax,1)
    86f8:	4d 8b 04 10          	mov    (%r8,%rdx,1),%r8
    86fc:	d8 c9                	fmul   %st(1),%st
    86fe:	41 db 2c 01          	fldt   (%r9,%rax,1)
    8702:	d8 cc                	fmul   %st(4),%st
    8704:	de c1                	faddp  %st,%st(1)
    8706:	41 db 6c 01 10       	fldt   0x10(%r9,%rax,1)
    870b:	de e9                	fsubrp %st,%st(1)
    870d:	d8 ca                	fmul   %st(2),%st
    870f:	d8 f4                	fdiv   %st(4),%st
    8711:	dd 5c 24 08          	fstpl  0x8(%rsp)
    8715:	dd 44 24 08          	fldl   0x8(%rsp)
    8719:	d9 ee                	fldz
    871b:	dc c1                	fadd   %st,%st(1)
    871d:	41 db 6c 00 f0       	fldt   -0x10(%r8,%rax,1)
    8722:	d8 cb                	fmul   %st(3),%st
    8724:	41 db 2c 00          	fldt   (%r8,%rax,1)
    8728:	d8 ce                	fmul   %st(6),%st
    872a:	de c1                	faddp  %st,%st(1)
    872c:	41 db 6c 00 10       	fldt   0x10(%r8,%rax,1)
    8731:	4c 8b 04 0b          	mov    (%rbx,%rcx,1),%r8
    8735:	48 8b 5c 24 20       	mov    0x20(%rsp),%rbx
    873a:	4d 8b 0c 10          	mov    (%r8,%rdx,1),%r9
    873e:	de e9                	fsubrp %st,%st(1)
    8740:	4c 8b 04 0b          	mov    (%rbx,%rcx,1),%r8
    8744:	4d 8b 04 10          	mov    (%r8,%rdx,1),%r8
    8748:	d8 cc                	fmul   %st(4),%st
    874a:	d8 f6                	fdiv   %st(6),%st
    874c:	dd 5c 24 08          	fstpl  0x8(%rsp)
    8750:	dd 44 24 08          	fldl   0x8(%rsp)
    8754:	de c2                	faddp  %st,%st(2)
    8756:	dc c1                	fadd   %st,%st(1)
    8758:	d9 c9                	fxch   %st(1)
    875a:	db bc 24 c0 00 00 00 	fstpt  0xc0(%rsp)
    8761:	41 db 6c 01 f0       	fldt   -0x10(%r9,%rax,1)
    8766:	d8 ca                	fmul   %st(2),%st
    8768:	41 db 2c 01          	fldt   (%r9,%rax,1)
    876c:	d8 cd                	fmul   %st(5),%st
    876e:	de c1                	faddp  %st,%st(1)
    8770:	41 db 6c 01 10       	fldt   0x10(%r9,%rax,1)
    8775:	de e9                	fsubrp %st,%st(1)
    8777:	d8 cb                	fmul   %st(3),%st
    8779:	d8 f5                	fdiv   %st(5),%st
    877b:	dd 5c 24 08          	fstpl  0x8(%rsp)
    877f:	dd 44 24 08          	fldl   0x8(%rsp)
    8783:	d8 c1                	fadd   %st(1),%st
    8785:	41 db 6c 00 f0       	fldt   -0x10(%r8,%rax,1)
    878a:	d8 cb                	fmul   %st(3),%st
    878c:	41 db 2c 00          	fldt   (%r8,%rax,1)
    8790:	d8 ce                	fmul   %st(6),%st
    8792:	de c1                	faddp  %st,%st(1)
    8794:	41 db 6c 00 10       	fldt   0x10(%r8,%rax,1)
    8799:	de e9                	fsubrp %st,%st(1)
    879b:	d8 cc                	fmul   %st(4),%st
    879d:	d8 f6                	fdiv   %st(6),%st
    879f:	dd 5c 24 08          	fstpl  0x8(%rsp)
    87a3:	dd 44 24 08          	fldl   0x8(%rsp)
    87a7:	de c1                	faddp  %st,%st(1)
    87a9:	d8 c1                	fadd   %st(1),%st
    87ab:	db bc 24 d0 00 00 00 	fstpt  0xd0(%rsp)
    87b2:	4d 8b 04 0c          	mov    (%r12,%rcx,1),%r8
    87b6:	4d 8b 0c 10          	mov    (%r8,%rdx,1),%r9
    87ba:	4d 8b 04 0f          	mov    (%r15,%rcx,1),%r8
    87be:	41 db 2c 01          	fldt   (%r9,%rax,1)
    87c2:	4d 8b 04 10          	mov    (%r8,%rdx,1),%r8
    87c6:	d8 cc                	fmul   %st(4),%st
    87c8:	41 db 6c 01 f0       	fldt   -0x10(%r9,%rax,1)
    87cd:	d8 cb                	fmul   %st(3),%st
    87cf:	de c1                	faddp  %st,%st(1)
    87d1:	41 db 6c 01 10       	fldt   0x10(%r9,%rax,1)
    87d6:	de e9                	fsubrp %st,%st(1)
    87d8:	d8 cb                	fmul   %st(3),%st
    87da:	d8 f5                	fdiv   %st(5),%st
    87dc:	dd 5c 24 08          	fstpl  0x8(%rsp)
    87e0:	dd 44 24 08          	fldl   0x8(%rsp)
    87e4:	d8 c1                	fadd   %st(1),%st
    87e6:	41 db 2c 00          	fldt   (%r8,%rax,1)
    87ea:	d8 cd                	fmul   %st(5),%st
    87ec:	41 db 6c 00 f0       	fldt   -0x10(%r8,%rax,1)
    87f1:	d8 cc                	fmul   %st(4),%st
    87f3:	de c1                	faddp  %st,%st(1)
    87f5:	41 db 6c 00 10       	fldt   0x10(%r8,%rax,1)
    87fa:	de e9                	fsubrp %st,%st(1)
    87fc:	d8 cc                	fmul   %st(4),%st
    87fe:	d8 f6                	fdiv   %st(6),%st
    8800:	dd 5c 24 08          	fstpl  0x8(%rsp)
    8804:	dd 44 24 08          	fldl   0x8(%rsp)
    8808:	de c1                	faddp  %st,%st(1)
    880a:	de c1                	faddp  %st,%st(1)
    880c:	e9 86 fe ff ff       	jmp    8697 <_Z9divtenallPPP6tensorid+0x407>
    8811:	48 8b 44 24 30       	mov    0x30(%rsp),%rax
    8816:	48 83 c2 08          	add    $0x8,%rdx
    881a:	48 39 c2             	cmp    %rax,%rdx
    881d:	0f 85 30 fd ff ff    	jne    8553 <_Z9divtenallPPP6tensorid+0x2c3>
    8823:	48 8b 44 24 58       	mov    0x58(%rsp),%rax
    8828:	48 8b 5c 24 30       	mov    0x30(%rsp),%rbx
    882d:	48 83 c1 08          	add    $0x8,%rcx
    8831:	48 39 d9             	cmp    %rbx,%rcx
    8834:	0f 85 04 fd ff ff    	jne    853e <_Z9divtenallPPP6tensorid+0x2ae>
    883a:	dd d8                	fstp   %st(0)
    883c:	dd d8                	fstp   %st(0)
    883e:	dd d8                	fstp   %st(0)
    8840:	dd d8                	fstp   %st(0)
    8842:	48 8b 94 24 f8 00 00 	mov    0xf8(%rsp),%rdx
    8849:	00 
    884a:	64 48 2b 14 25 28 00 	sub    %fs:0x28,%rdx
    8851:	00 00 
    8853:	0f 85 e5 02 00 00    	jne    8b3e <_Z9divtenallPPP6tensorid+0x8ae>
    8859:	48 81 c4 08 01 00 00 	add    $0x108,%rsp
    8860:	5b                   	pop    %rbx
    8861:	5d                   	pop    %rbp
    8862:	41 5c                	pop    %r12
    8864:	41 5d                	pop    %r13
    8866:	41 5e                	pop    %r14
    8868:	41 5f                	pop    %r15
    886a:	c3                   	ret
    886b:	4c 89 64 24 48       	mov    %r12,0x48(%rsp)
    8870:	44 8b 64 24 38       	mov    0x38(%rsp),%r12d
    8875:	48 89 c7             	mov    %rax,%rdi
    8878:	49 8b 04 0e          	mov    (%r14,%rcx,1),%rax
    887c:	31 f6                	xor    %esi,%esi
    887e:	48 8b 2c 10          	mov    (%rax,%rdx,1),%rbp
    8882:	49 8b 44 0d 00       	mov    0x0(%r13,%rcx,1),%rax
    8887:	db 6d 00             	fldt   0x0(%rbp)
    888a:	d8 0d 80 17 00 00    	fmuls  0x1780(%rip)        # a010 <_IO_stdin_used+0x10>
    8890:	48 8b 1c 10          	mov    (%rax,%rdx,1),%rbx
    8894:	db 6d f0             	fldt   -0x10(%rbp)
    8897:	48 8b 44 24 18       	mov    0x18(%rsp),%rax
    889c:	48 8b 04 08          	mov    (%rax,%rcx,1),%rax
    88a0:	d8 cc                	fmul   %st(4),%st
    88a2:	4c 8b 1c 10          	mov    (%rax,%rdx,1),%r11
    88a6:	48 8b 44 24 20       	mov    0x20(%rsp),%rax
    88ab:	48 8b 04 08          	mov    (%rax,%rcx,1),%rax
    88af:	de e9                	fsubrp %st,%st(1)
    88b1:	db 6d e0             	fldt   -0x20(%rbp)
    88b4:	4c 8b 14 10          	mov    (%rax,%rdx,1),%r10
    88b8:	de c1                	faddp  %st,%st(1)
    88ba:	d8 ca                	fmul   %st(2),%st
    88bc:	d8 f4                	fdiv   %st(4),%st
    88be:	dd 5c 24 08          	fstpl  0x8(%rsp)
    88c2:	dd 44 24 08          	fldl   0x8(%rsp)
    88c6:	d9 ee                	fldz
    88c8:	dc c1                	fadd   %st,%st(1)
    88ca:	db 2b                	fldt   (%rbx)
    88cc:	d8 0d 3e 17 00 00    	fmuls  0x173e(%rip)        # a010 <_IO_stdin_used+0x10>
    88d2:	db 6b f0             	fldt   -0x10(%rbx)
    88d5:	d8 ce                	fmul   %st(6),%st
    88d7:	de e9                	fsubrp %st,%st(1)
    88d9:	db 6b e0             	fldt   -0x20(%rbx)
    88dc:	de c1                	faddp  %st,%st(1)
    88de:	d8 cc                	fmul   %st(4),%st
    88e0:	d8 f6                	fdiv   %st(6),%st
    88e2:	dd 5c 24 08          	fstpl  0x8(%rsp)
    88e6:	dd 44 24 08          	fldl   0x8(%rsp)
    88ea:	de c2                	faddp  %st,%st(2)
    88ec:	dc c1                	fadd   %st,%st(1)
    88ee:	d9 c9                	fxch   %st(1)
    88f0:	db bc 24 c0 00 00 00 	fstpt  0xc0(%rsp)
    88f7:	41 db 2b             	fldt   (%r11)
    88fa:	d8 0d 10 17 00 00    	fmuls  0x1710(%rip)        # a010 <_IO_stdin_used+0x10>
    8900:	41 db 6b f0          	fldt   -0x10(%r11)
    8904:	d8 cd                	fmul   %st(5),%st
    8906:	de e9                	fsubrp %st,%st(1)
    8908:	41 db 6b e0          	fldt   -0x20(%r11)
    890c:	de c1                	faddp  %st,%st(1)
    890e:	d8 cb                	fmul   %st(3),%st
    8910:	d8 f5                	fdiv   %st(5),%st
    8912:	dd 5c 24 08          	fstpl  0x8(%rsp)
    8916:	dd 44 24 08          	fldl   0x8(%rsp)
    891a:	d8 c1                	fadd   %st(1),%st
    891c:	41 db 2a             	fldt   (%r10)
    891f:	d8 0d eb 16 00 00    	fmuls  0x16eb(%rip)        # a010 <_IO_stdin_used+0x10>
    8925:	41 db 6a f0          	fldt   -0x10(%r10)
    8929:	d8 ce                	fmul   %st(6),%st
    892b:	de e9                	fsubrp %st,%st(1)
    892d:	41 db 6a e0          	fldt   -0x20(%r10)
    8931:	48 8b 44 24 48       	mov    0x48(%rsp),%rax
    8936:	48 8b 04 08          	mov    (%rax,%rcx,1),%rax
    893a:	de c1                	faddp  %st,%st(1)
    893c:	4c 8b 0c 10          	mov    (%rax,%rdx,1),%r9
    8940:	49 8b 04 0f          	mov    (%r15,%rcx,1),%rax
    8944:	d8 cc                	fmul   %st(4),%st
    8946:	4c 8b 04 10          	mov    (%rax,%rdx,1),%r8
    894a:	b8 10 00 00 00       	mov    $0x10,%eax
    894f:	d8 f6                	fdiv   %st(6),%st
    8951:	dd 5c 24 08          	fstpl  0x8(%rsp)
    8955:	dd 44 24 08          	fldl   0x8(%rsp)
    8959:	de c1                	faddp  %st,%st(1)
    895b:	d8 c1                	fadd   %st(1),%st
    895d:	db bc 24 d0 00 00 00 	fstpt  0xd0(%rsp)
    8964:	41 db 29             	fldt   (%r9)
    8967:	d8 0d a3 16 00 00    	fmuls  0x16a3(%rip)        # a010 <_IO_stdin_used+0x10>
    896d:	41 db 69 f0          	fldt   -0x10(%r9)
    8971:	d8 cd                	fmul   %st(5),%st
    8973:	de e9                	fsubrp %st,%st(1)
    8975:	41 db 69 e0          	fldt   -0x20(%r9)
    8979:	de c1                	faddp  %st,%st(1)
    897b:	d8 cb                	fmul   %st(3),%st
    897d:	d8 f5                	fdiv   %st(5),%st
    897f:	dd 5c 24 08          	fstpl  0x8(%rsp)
    8983:	dd 44 24 08          	fldl   0x8(%rsp)
    8987:	d8 c1                	fadd   %st(1),%st
    8989:	41 db 28             	fldt   (%r8)
    898c:	d8 0d 7e 16 00 00    	fmuls  0x167e(%rip)        # a010 <_IO_stdin_used+0x10>
    8992:	41 db 68 f0          	fldt   -0x10(%r8)
    8996:	d8 ce                	fmul   %st(6),%st
    8998:	de e9                	fsubrp %st,%st(1)
    899a:	41 db 68 e0          	fldt   -0x20(%r8)
    899e:	de c1                	faddp  %st,%st(1)
    89a0:	d8 cc                	fmul   %st(4),%st
    89a2:	d8 f6                	fdiv   %st(6),%st
    89a4:	dd 5c 24 08          	fstpl  0x8(%rsp)
    89a8:	dd 44 24 08          	fldl   0x8(%rsp)
    89ac:	de c1                	faddp  %st,%st(1)
    89ae:	de c1                	faddp  %st,%st(1)
    89b0:	d9 c0                	fld    %st(0)
    89b2:	db bc 24 e0 00 00 00 	fstpt  0xe0(%rsp)
    89b9:	db ac 24 c0 00 00 00 	fldt   0xc0(%rsp)
    89c0:	83 c6 01             	add    $0x1,%esi
    89c3:	dd 5c 24 08          	fstpl  0x8(%rsp)
    89c7:	db ac 24 d0 00 00 00 	fldt   0xd0(%rsp)
    89ce:	f2 0f 10 44 24 08    	movsd  0x8(%rsp),%xmm0
    89d4:	dd 5c 24 08          	fstpl  0x8(%rsp)
    89d8:	66 0f 16 44 24 08    	movhpd 0x8(%rsp),%xmm0
    89de:	dd 5f 10             	fstpl  0x10(%rdi)
    89e1:	0f 11 07             	movups %xmm0,(%rdi)
    89e4:	44 39 e6             	cmp    %r12d,%esi
    89e7:	7c 2f                	jl     8a18 <_Z9divtenallPPP6tensorid+0x788>
    89e9:	39 74 24 14          	cmp    %esi,0x14(%rsp)
    89ed:	0f 8e e2 00 00 00    	jle    8ad5 <_Z9divtenallPPP6tensorid+0x845>
    89f3:	48 63 c6             	movslq %esi,%rax
    89f6:	48 8b 5c 24 28       	mov    0x28(%rsp),%rbx
    89fb:	4c 8b 64 24 48       	mov    0x48(%rsp),%r12
    8a00:	48 8d 3c 40          	lea    (%rax,%rax,2),%rdi
    8a04:	48 83 c0 01          	add    $0x1,%rax
    8a08:	48 8d 3c fb          	lea    (%rbx,%rdi,8),%rdi
    8a0c:	48 c1 e0 04          	shl    $0x4,%rax
    8a10:	e9 c8 fc ff ff       	jmp    86dd <_Z9divtenallPPP6tensorid+0x44d>
    8a15:	0f 1f 00             	nopl   (%rax)
    8a18:	db 6c 05 10          	fldt   0x10(%rbp,%rax,1)
    8a1c:	48 83 c7 18          	add    $0x18,%rdi
    8a20:	db 6c 05 f0          	fldt   -0x10(%rbp,%rax,1)
    8a24:	de e9                	fsubrp %st,%st(1)
    8a26:	d8 ca                	fmul   %st(2),%st
    8a28:	d8 f4                	fdiv   %st(4),%st
    8a2a:	dd 5c 24 08          	fstpl  0x8(%rsp)
    8a2e:	dd 44 24 08          	fldl   0x8(%rsp)
    8a32:	d9 ee                	fldz
    8a34:	dc c1                	fadd   %st,%st(1)
    8a36:	db 6c 03 10          	fldt   0x10(%rbx,%rax,1)
    8a3a:	db 6c 03 f0          	fldt   -0x10(%rbx,%rax,1)
    8a3e:	de e9                	fsubrp %st,%st(1)
    8a40:	d8 cc                	fmul   %st(4),%st
    8a42:	d8 f6                	fdiv   %st(6),%st
    8a44:	dd 5c 24 08          	fstpl  0x8(%rsp)
    8a48:	dd 44 24 08          	fldl   0x8(%rsp)
    8a4c:	de c2                	faddp  %st,%st(2)
    8a4e:	dc c1                	fadd   %st,%st(1)
    8a50:	d9 c9                	fxch   %st(1)
    8a52:	db bc 24 c0 00 00 00 	fstpt  0xc0(%rsp)
    8a59:	41 db 6c 03 10       	fldt   0x10(%r11,%rax,1)
    8a5e:	41 db 6c 03 f0       	fldt   -0x10(%r11,%rax,1)
    8a63:	de e9                	fsubrp %st,%st(1)
    8a65:	d8 cb                	fmul   %st(3),%st
    8a67:	d8 f5                	fdiv   %st(5),%st
    8a69:	dd 5c 24 08          	fstpl  0x8(%rsp)
    8a6d:	dd 44 24 08          	fldl   0x8(%rsp)
    8a71:	d8 c1                	fadd   %st(1),%st
    8a73:	41 db 6c 02 10       	fldt   0x10(%r10,%rax,1)
    8a78:	41 db 6c 02 f0       	fldt   -0x10(%r10,%rax,1)
    8a7d:	de e9                	fsubrp %st,%st(1)
    8a7f:	d8 cc                	fmul   %st(4),%st
    8a81:	d8 f6                	fdiv   %st(6),%st
    8a83:	dd 5c 24 08          	fstpl  0x8(%rsp)
    8a87:	dd 44 24 08          	fldl   0x8(%rsp)
    8a8b:	de c1                	faddp  %st,%st(1)
    8a8d:	d8 c1                	fadd   %st(1),%st
    8a8f:	db bc 24 d0 00 00 00 	fstpt  0xd0(%rsp)
    8a96:	41 db 6c 01 10       	fldt   0x10(%r9,%rax,1)
    8a9b:	41 db 6c 01 f0       	fldt   -0x10(%r9,%rax,1)
    8aa0:	de e9                	fsubrp %st,%st(1)
    8aa2:	d8 cb                	fmul   %st(3),%st
    8aa4:	d8 f5                	fdiv   %st(5),%st
    8aa6:	dd 5c 24 08          	fstpl  0x8(%rsp)
    8aaa:	dd 44 24 08          	fldl   0x8(%rsp)
    8aae:	d8 c1                	fadd   %st(1),%st
    8ab0:	41 db 6c 00 10       	fldt   0x10(%r8,%rax,1)
    8ab5:	41 db 6c 00 f0       	fldt   -0x10(%r8,%rax,1)
    8aba:	48 83 c0 10          	add    $0x10,%rax
    8abe:	de e9                	fsubrp %st,%st(1)
    8ac0:	d8 cc                	fmul   %st(4),%st
    8ac2:	d8 f6                	fdiv   %st(6),%st
    8ac4:	dd 5c 24 08          	fstpl  0x8(%rsp)
    8ac8:	dd 44 24 08          	fldl   0x8(%rsp)
    8acc:	de c1                	faddp  %st,%st(1)
    8ace:	de c1                	faddp  %st,%st(1)
    8ad0:	e9 db fe ff ff       	jmp    89b0 <_Z9divtenallPPP6tensorid+0x720>
    8ad5:	48 8b 44 24 30       	mov    0x30(%rsp),%rax
    8ada:	48 83 c2 08          	add    $0x8,%rdx
    8ade:	48 39 c2             	cmp    %rax,%rdx
    8ae1:	74 16                	je     8af9 <_Z9divtenallPPP6tensorid+0x869>
    8ae3:	48 8b 44 24 40       	mov    0x40(%rsp),%rax
    8ae8:	48 8b 04 10          	mov    (%rax,%rdx,1),%rax
    8aec:	48 89 44 24 28       	mov    %rax,0x28(%rsp)
    8af1:	48 89 c7             	mov    %rax,%rdi
    8af4:	e9 7f fd ff ff       	jmp    8878 <_Z9divtenallPPP6tensorid+0x5e8>
    8af9:	48 8b 5c 24 48       	mov    0x48(%rsp),%rbx
    8afe:	48 8b 44 24 58       	mov    0x58(%rsp),%rax
    8b03:	48 89 5c 24 50       	mov    %rbx,0x50(%rsp)
    8b08:	e9 1b fd ff ff       	jmp    8828 <_Z9divtenallPPP6tensorid+0x598>
    8b0d:	48 8b 84 24 f8 00 00 	mov    0xf8(%rsp),%rax
    8b14:	00 
    8b15:	64 48 2b 04 25 28 00 	sub    %fs:0x28,%rax
    8b1c:	00 00 
    8b1e:	75 1e                	jne    8b3e <_Z9divtenallPPP6tensorid+0x8ae>
    8b20:	8b 7c 24 14          	mov    0x14(%rsp),%edi
    8b24:	48 81 c4 08 01 00 00 	add    $0x108,%rsp
    8b2b:	5b                   	pop    %rbx
    8b2c:	5d                   	pop    %rbp
    8b2d:	89 fa                	mov    %edi,%edx
    8b2f:	41 5c                	pop    %r12
    8b31:	89 fe                	mov    %edi,%esi
    8b33:	41 5d                	pop    %r13
    8b35:	41 5e                	pop    %r14
    8b37:	41 5f                	pop    %r15
    8b39:	e9 f2 f2 ff ff       	jmp    7e30 <_Z11allocate3dvjjj>
    8b3e:	e8 2d 99 ff ff       	call   2470 <__stack_chk_fail@plt>
    8b43:	66 66 2e 0f 1f 84 00 	data16 cs nopw 0x0(%rax,%rax,1)
    8b4a:	00 00 00 00 
    8b4e:	66 90                	xchg   %ax,%ax

0000000000008b50 <_Z8velocityddd>:
    8b50:	f3 0f 1e fa          	endbr64
    8b54:	f2 0f 10 05 b4 19 00 	movsd  0x19b4(%rip),%xmm0        # a510 <_IO_stdin_used+0x510>
    8b5b:	00 
    8b5c:	48 c7 47 08 00 00 00 	movq   $0x0,0x8(%rdi)
    8b63:	00 
    8b64:	48 89 f8             	mov    %rdi,%rax
    8b67:	48 c7 47 10 00 00 00 	movq   $0x0,0x10(%rdi)
    8b6e:	00 
    8b6f:	f2 0f 59 c1          	mulsd  %xmm1,%xmm0
    8b73:	f2 0f 59 c1          	mulsd  %xmm1,%xmm0
    8b77:	f2 0f 11 07          	movsd  %xmm0,(%rdi)
    8b7b:	c3                   	ret
    8b7c:	0f 1f 40 00          	nopl   0x0(%rax)

0000000000008b80 <_Z10divvadvecvddd>:
    8b80:	f3 0f 1e fa          	endbr64
    8b84:	f2 0f 10 05 84 19 00 	movsd  0x1984(%rip),%xmm0        # a510 <_IO_stdin_used+0x510>
    8b8b:	00 
    8b8c:	66 0f 28 d1          	movapd %xmm1,%xmm2
    8b90:	66 0f ef ed          	pxor   %xmm5,%xmm5
    8b94:	48 89 f8             	mov    %rdi,%rax
    8b97:	f2 0f 10 35 61 19 00 	movsd  0x1961(%rip),%xmm6        # a500 <_IO_stdin_used+0x500>
    8b9e:	00 
    8b9f:	f2 0f 59 d0          	mulsd  %xmm0,%xmm2
    8ba3:	f2 0f 59 d1          	mulsd  %xmm1,%xmm2
    8ba7:	f2 0f 58 ce          	addsd  %xmm6,%xmm1
    8bab:	f2 0f 59 c1          	mulsd  %xmm1,%xmm0
    8baf:	66 0f 28 da          	movapd %xmm2,%xmm3
    8bb3:	66 0f 28 e2          	movapd %xmm2,%xmm4
    8bb7:	f2 0f 5c da          	subsd  %xmm2,%xmm3
    8bbb:	f2 0f 59 e5          	mulsd  %xmm5,%xmm4
    8bbf:	f2 0f 59 c1          	mulsd  %xmm1,%xmm0
    8bc3:	f2 0f 5e de          	divsd  %xmm6,%xmm3
    8bc7:	f2 0f 58 e5          	addsd  %xmm5,%xmm4
    8bcb:	f2 0f 5c c2          	subsd  %xmm2,%xmm0
    8bcf:	f2 0f 11 67 10       	movsd  %xmm4,0x10(%rdi)
    8bd4:	f2 0f 5e c6          	divsd  %xmm6,%xmm0
    8bd8:	f2 0f 59 d3          	mulsd  %xmm3,%xmm2
    8bdc:	f2 0f 59 dd          	mulsd  %xmm5,%xmm3
    8be0:	f2 0f 59 c5          	mulsd  %xmm5,%xmm0
    8be4:	f2 0f 58 c2          	addsd  %xmm2,%xmm0
    8be8:	f2 0f 58 c3          	addsd  %xmm3,%xmm0
    8bec:	66 0f 14 c4          	unpcklpd %xmm4,%xmm0
    8bf0:	0f 11 07             	movups %xmm0,(%rdi)
    8bf3:	c3                   	ret
    8bf4:	66 2e 0f 1f 84 00 00 	cs nopw 0x0(%rax,%rax,1)
    8bfb:	00 00 00 
    8bfe:	66 90                	xchg   %ax,%ax

0000000000008c00 <_Z12writeVTKFileiPPPPeiiieee>:
    8c00:	f3 0f 1e fa          	endbr64
    8c04:	55                   	push   %rbp
    8c05:	48 89 e5             	mov    %rsp,%rbp
    8c08:	41 57                	push   %r15
    8c0a:	41 56                	push   %r14
    8c0c:	4c 8d bd e8 fd ff ff 	lea    -0x218(%rbp),%r15
    8c13:	41 55                	push   %r13
    8c15:	41 54                	push   %r12
    8c17:	49 89 f4             	mov    %rsi,%r12
    8c1a:	53                   	push   %rbx
    8c1b:	48 8d 9d f0 fc ff ff 	lea    -0x310(%rbp),%rbx
    8c22:	48 81 ec 98 03 00 00 	sub    $0x398,%rsp
    8c29:	89 bd 60 fc ff ff    	mov    %edi,-0x3a0(%rbp)
    8c2f:	4c 89 ff             	mov    %r15,%rdi
    8c32:	89 95 64 fc ff ff    	mov    %edx,-0x39c(%rbp)
    8c38:	89 8d 80 fc ff ff    	mov    %ecx,-0x380(%rbp)
    8c3e:	44 89 85 68 fc ff ff 	mov    %r8d,-0x398(%rbp)
    8c45:	64 48 8b 04 25 28 00 	mov    %fs:0x28,%rax
    8c4c:	00 00 
    8c4e:	48 89 45 c8          	mov    %rax,-0x38(%rbp)
    8c52:	31 c0                	xor    %eax,%eax
    8c54:	48 89 9d 88 fc ff ff 	mov    %rbx,-0x378(%rbp)
    8c5b:	4c 89 bd 48 fc ff ff 	mov    %r15,-0x3b8(%rbp)
    8c62:	e8 d9 96 ff ff       	call   2340 <_ZNSt8ios_baseC2Ev@plt>
    8c67:	66 0f ef c0          	pxor   %xmm0,%xmm0
    8c6b:	45 31 db             	xor    %r11d,%r11d
    8c6e:	31 f6                	xor    %esi,%esi
    8c70:	48 8d 05 39 2e 00 00 	lea    0x2e39(%rip),%rax        # bab0 <_ZTVSt9basic_iosIcSt11char_traitsIcEE@GLIBCXX_3.4+0x10>
    8c77:	66 44 89 9d c8 fe ff 	mov    %r11w,-0x138(%rbp)
    8c7e:	ff 
    8c7f:	48 89 85 e8 fd ff ff 	mov    %rax,-0x218(%rbp)
    8c86:	48 8b 05 bb 2e 00 00 	mov    0x2ebb(%rip),%rax        # bb48 <_ZTTSt14basic_ofstreamIcSt11char_traitsIcEE@GLIBCXX_3.4+0x8>
    8c8d:	0f 29 85 d0 fe ff ff 	movaps %xmm0,-0x130(%rbp)
    8c94:	48 89 85 f0 fc ff ff 	mov    %rax,-0x310(%rbp)
    8c9b:	0f 29 85 e0 fe ff ff 	movaps %xmm0,-0x120(%rbp)
    8ca2:	48 03 58 e8          	add    -0x18(%rax),%rbx
    8ca6:	48 8b 05 a3 2e 00 00 	mov    0x2ea3(%rip),%rax        # bb50 <_ZTTSt14basic_ofstreamIcSt11char_traitsIcEE@GLIBCXX_3.4+0x10>
    8cad:	48 c7 85 c0 fe ff ff 	movq   $0x0,-0x140(%rbp)
    8cb4:	00 00 00 00 
    8cb8:	48 89 df             	mov    %rbx,%rdi
    8cbb:	48 89 03             	mov    %rax,(%rbx)
    8cbe:	e8 4d 98 ff ff       	call   2510 <_ZNSt9basic_iosIcSt11char_traitsIcEE4initEPSt15basic_streambufIcS1_E@plt>
    8cc3:	48 8d 05 2e 2f 00 00 	lea    0x2f2e(%rip),%rax        # bbf8 <_ZTVSt14basic_ofstreamIcSt11char_traitsIcEE@GLIBCXX_3.4+0x18>
    8cca:	48 89 85 f0 fc ff ff 	mov    %rax,-0x310(%rbp)
    8cd1:	48 83 c0 28          	add    $0x28,%rax
    8cd5:	48 89 85 e8 fd ff ff 	mov    %rax,-0x218(%rbp)
    8cdc:	48 8d 85 f8 fc ff ff 	lea    -0x308(%rbp),%rax
    8ce3:	48 89 c7             	mov    %rax,%rdi
    8ce6:	48 89 85 50 fc ff ff 	mov    %rax,-0x3b0(%rbp)
    8ced:	48 89 c3             	mov    %rax,%rbx
    8cf0:	e8 6b 97 ff ff       	call   2460 <_ZNSt13basic_filebufIcSt11char_traitsIcEEC1Ev@plt>
    8cf5:	48 89 de             	mov    %rbx,%rsi
    8cf8:	4c 89 ff             	mov    %r15,%rdi
    8cfb:	e8 10 98 ff ff       	call   2510 <_ZNSt9basic_iosIcSt11char_traitsIcEE4initEPSt15basic_streambufIcS1_E@plt>
    8d00:	8b 85 60 fc ff ff    	mov    -0x3a0(%rbp),%eax
    8d06:	89 c2                	mov    %eax,%edx
    8d08:	89 c1                	mov    %eax,%ecx
    8d0a:	c1 ea 1f             	shr    $0x1f,%edx
    8d0d:	f7 d9                	neg    %ecx
    8d0f:	0f 48 c8             	cmovs  %eax,%ecx
    8d12:	44 0f b6 ea          	movzbl %dl,%r13d
    8d16:	89 d0                	mov    %edx,%eax
    8d18:	41 89 cf             	mov    %ecx,%r15d
    8d1b:	83 f9 09             	cmp    $0x9,%ecx
    8d1e:	0f 86 a2 0b 00 00    	jbe    98c6 <_Z12writeVTKFileiPPPPeiiieee+0xcc6>
    8d24:	83 f9 63             	cmp    $0x63,%ecx
    8d27:	0f 86 e9 08 00 00    	jbe    9616 <_Z12writeVTKFileiPPPPeiiieee+0xa16>
    8d2d:	81 f9 e7 03 00 00    	cmp    $0x3e7,%ecx
    8d33:	0f 86 c8 0b 00 00    	jbe    9901 <_Z12writeVTKFileiPPPPeiiieee+0xd01>
    8d39:	81 f9 0f 27 00 00    	cmp    $0x270f,%ecx
    8d3f:	0f 86 cf 0b 00 00    	jbe    9914 <_Z12writeVTKFileiPPPPeiiieee+0xd14>
    8d45:	41 89 ce             	mov    %ecx,%r14d
    8d48:	ba 05 00 00 00       	mov    $0x5,%edx
    8d4d:	81 f9 9f 86 01 00    	cmp    $0x1869f,%ecx
    8d53:	0f 86 61 08 00 00    	jbe    95ba <_Z12writeVTKFileiPPPPeiiieee+0x9ba>
    8d59:	41 81 ff 3f 42 0f 00 	cmp    $0xf423f,%r15d
    8d60:	0f 86 55 0b 00 00    	jbe    98bb <_Z12writeVTKFileiPPPPeiiieee+0xcbb>
    8d66:	41 b8 06 00 00 00    	mov    $0x6,%r8d
    8d6c:	ba 07 00 00 00       	mov    $0x7,%edx
    8d71:	41 81 ff 7f 96 98 00 	cmp    $0x98967f,%r15d
    8d78:	0f 86 40 08 00 00    	jbe    95be <_Z12writeVTKFileiPPPPeiiieee+0x9be>
    8d7e:	41 81 ff ff e0 f5 05 	cmp    $0x5f5e0ff,%r15d
    8d85:	0f 86 df 09 00 00    	jbe    976a <_Z12writeVTKFileiPPPPeiiieee+0xb6a>
    8d8b:	49 81 fe ff c9 9a 3b 	cmp    $0x3b9ac9ff,%r14
    8d92:	0f 86 1d 08 00 00    	jbe    95b5 <_Z12writeVTKFileiPPPPeiiieee+0x9b5>
    8d98:	41 b8 09 00 00 00    	mov    $0x9,%r8d
    8d9e:	48 8d 8d a0 fc ff ff 	lea    -0x360(%rbp),%rcx
    8da5:	44 89 85 58 fc ff ff 	mov    %r8d,-0x3a8(%rbp)
    8dac:	42 8d 74 00 01       	lea    0x1(%rax,%r8,1),%esi
    8db1:	48 89 8d 70 fc ff ff 	mov    %rcx,-0x390(%rbp)
    8db8:	48 8d 9d 90 fc ff ff 	lea    -0x370(%rbp),%rbx
    8dbf:	48 89 8d 90 fc ff ff 	mov    %rcx,-0x370(%rbp)
    8dc6:	ba 2d 00 00 00       	mov    $0x2d,%edx
    8dcb:	48 89 df             	mov    %rbx,%rdi
    8dce:	e8 dd 96 ff ff       	call   24b0 <_ZNSt7__cxx1112basic_stringIcSt11char_traitsIcESaIcEE12_M_constructEmc@plt>
    8dd3:	66 0f 6f 05 65 17 00 	movdqa 0x1765(%rip),%xmm0        # a540 <_IO_stdin_used+0x540>
    8dda:	00 
    8ddb:	4c 89 f1             	mov    %r14,%rcx
    8dde:	48 8b 95 90 fc ff ff 	mov    -0x370(%rbp),%rdx
    8de5:	44 8b 85 58 fc ff ff 	mov    -0x3a8(%rbp),%r8d
    8dec:	4c 8b 95 70 fc ff ff 	mov    -0x390(%rbp),%r10
    8df3:	0f 29 85 f0 fe ff ff 	movaps %xmm0,-0x110(%rbp)
    8dfa:	66 0f 6f 05 4e 17 00 	movdqa 0x174e(%rip),%xmm0        # a550 <_IO_stdin_used+0x550>
    8e01:	00 
    8e02:	4c 01 ea             	add    %r13,%rdx
    8e05:	0f 29 85 00 ff ff ff 	movaps %xmm0,-0x100(%rbp)
    8e0c:	66 0f 6f 05 4c 17 00 	movdqa 0x174c(%rip),%xmm0        # a560 <_IO_stdin_used+0x560>
    8e13:	00 
    8e14:	0f 29 85 10 ff ff ff 	movaps %xmm0,-0xf0(%rbp)
    8e1b:	66 0f 6f 05 4d 17 00 	movdqa 0x174d(%rip),%xmm0        # a570 <_IO_stdin_used+0x570>
    8e22:	00 
    8e23:	0f 29 85 20 ff ff ff 	movaps %xmm0,-0xe0(%rbp)
    8e2a:	66 0f 6f 05 4e 17 00 	movdqa 0x174e(%rip),%xmm0        # a580 <_IO_stdin_used+0x580>
    8e31:	00 
    8e32:	0f 29 85 30 ff ff ff 	movaps %xmm0,-0xd0(%rbp)
    8e39:	66 0f 6f 05 4f 17 00 	movdqa 0x174f(%rip),%xmm0        # a590 <_IO_stdin_used+0x590>
    8e40:	00 
    8e41:	0f 29 85 40 ff ff ff 	movaps %xmm0,-0xc0(%rbp)
    8e48:	66 0f 6f 05 50 17 00 	movdqa 0x1750(%rip),%xmm0        # a5a0 <_IO_stdin_used+0x5a0>
    8e4f:	00 
    8e50:	0f 29 85 50 ff ff ff 	movaps %xmm0,-0xb0(%rbp)
    8e57:	66 0f 6f 05 51 17 00 	movdqa 0x1751(%rip),%xmm0        # a5b0 <_IO_stdin_used+0x5b0>
    8e5e:	00 
    8e5f:	0f 29 85 60 ff ff ff 	movaps %xmm0,-0xa0(%rbp)
    8e66:	66 0f 6f 05 52 17 00 	movdqa 0x1752(%rip),%xmm0        # a5c0 <_IO_stdin_used+0x5c0>
    8e6d:	00 
    8e6e:	0f 29 85 70 ff ff ff 	movaps %xmm0,-0x90(%rbp)
    8e75:	66 0f 6f 05 53 17 00 	movdqa 0x1753(%rip),%xmm0        # a5d0 <_IO_stdin_used+0x5d0>
    8e7c:	00 
    8e7d:	0f 29 45 80          	movaps %xmm0,-0x80(%rbp)
    8e81:	66 0f 6f 05 57 17 00 	movdqa 0x1757(%rip),%xmm0        # a5e0 <_IO_stdin_used+0x5e0>
    8e88:	00 
    8e89:	0f 29 45 90          	movaps %xmm0,-0x70(%rbp)
    8e8d:	66 0f 6f 05 5b 17 00 	movdqa 0x175b(%rip),%xmm0        # a5f0 <_IO_stdin_used+0x5f0>
    8e94:	00 
    8e95:	0f 29 45 a0          	movaps %xmm0,-0x60(%rbp)
    8e99:	66 0f 6f 05 5f 17 00 	movdqa 0x175f(%rip),%xmm0        # a600 <_IO_stdin_used+0x600>
    8ea0:	00 
    8ea1:	0f 11 45 a9          	movups %xmm0,-0x57(%rbp)
    8ea5:	eb 0c                	jmp    8eb3 <_Z12writeVTKFileiPPPPeiiieee+0x2b3>
    8ea7:	66 0f 1f 84 00 00 00 	nopw   0x0(%rax,%rax,1)
    8eae:	00 00 
    8eb0:	44 89 f9             	mov    %r15d,%ecx
    8eb3:	48 69 c9 1f 85 eb 51 	imul   $0x51eb851f,%rcx,%rcx
    8eba:	44 89 f8             	mov    %r15d,%eax
    8ebd:	48 c1 e9 25          	shr    $0x25,%rcx
    8ec1:	6b f1 64             	imul   $0x64,%ecx,%esi
    8ec4:	29 f0                	sub    %esi,%eax
    8ec6:	44 89 fe             	mov    %r15d,%esi
    8ec9:	41 89 cf             	mov    %ecx,%r15d
    8ecc:	44 89 c1             	mov    %r8d,%ecx
    8ecf:	01 c0                	add    %eax,%eax
    8ed1:	8d 78 01             	lea    0x1(%rax),%edi
    8ed4:	0f b6 84 05 f0 fe ff 	movzbl -0x110(%rbp,%rax,1),%eax
    8edb:	ff 
    8edc:	0f b6 bc 3d f0 fe ff 	movzbl -0x110(%rbp,%rdi,1),%edi
    8ee3:	ff 
    8ee4:	40 88 3c 0a          	mov    %dil,(%rdx,%rcx,1)
    8ee8:	41 8d 48 ff          	lea    -0x1(%r8),%ecx
    8eec:	41 83 e8 02          	sub    $0x2,%r8d
    8ef0:	88 04 0a             	mov    %al,(%rdx,%rcx,1)
    8ef3:	81 fe 0f 27 00 00    	cmp    $0x270f,%esi
    8ef9:	77 b5                	ja     8eb0 <_Z12writeVTKFileiPPPPeiiieee+0x2b0>
    8efb:	4c 89 95 70 fc ff ff 	mov    %r10,-0x390(%rbp)
    8f02:	81 fe e7 03 00 00    	cmp    $0x3e7,%esi
    8f08:	0f 87 f5 07 00 00    	ja     9703 <_Z12writeVTKFileiPPPPeiiieee+0xb03>
    8f0e:	41 8d 4f 30          	lea    0x30(%r15),%ecx
    8f12:	88 0a                	mov    %cl,(%rdx)
    8f14:	41 b8 07 00 00 00    	mov    $0x7,%r8d
    8f1a:	31 d2                	xor    %edx,%edx
    8f1c:	31 f6                	xor    %esi,%esi
    8f1e:	48 8d 0d 86 15 00 00 	lea    0x1586(%rip),%rcx        # a4ab <_IO_stdin_used+0x4ab>
    8f25:	48 89 df             	mov    %rbx,%rdi
    8f28:	e8 23 96 ff ff       	call   2550 <_ZNSt7__cxx1112basic_stringIcSt11char_traitsIcESaIcEE10_M_replaceEmmPKcm@plt>
    8f2d:	4c 8d b5 c0 fc ff ff 	lea    -0x340(%rbp),%r14
    8f34:	48 8d 78 10          	lea    0x10(%rax),%rdi
    8f38:	48 89 c1             	mov    %rax,%rcx
    8f3b:	4c 89 b5 b0 fc ff ff 	mov    %r14,-0x350(%rbp)
    8f42:	48 8b 10             	mov    (%rax),%rdx
    8f45:	48 8b 40 08          	mov    0x8(%rax),%rax
    8f49:	48 39 fa             	cmp    %rdi,%rdx
    8f4c:	0f 84 28 08 00 00    	je     977a <_Z12writeVTKFileiPPPPeiiieee+0xb7a>
    8f52:	48 89 95 b0 fc ff ff 	mov    %rdx,-0x350(%rbp)
    8f59:	48 8b 51 10          	mov    0x10(%rcx),%rdx
    8f5d:	48 89 95 c0 fc ff ff 	mov    %rdx,-0x340(%rbp)
    8f64:	48 ba ff ff ff ff ff 	movabs $0x3fffffffffffffff,%rdx
    8f6b:	ff ff 3f 
    8f6e:	48 89 85 b8 fc ff ff 	mov    %rax,-0x348(%rbp)
    8f75:	48 29 c2             	sub    %rax,%rdx
    8f78:	48 89 39             	mov    %rdi,(%rcx)
    8f7b:	48 c7 41 08 00 00 00 	movq   $0x0,0x8(%rcx)
    8f82:	00 
    8f83:	c6 41 10 00          	movb   $0x0,0x10(%rcx)
    8f87:	48 83 fa 03          	cmp    $0x3,%rdx
    8f8b:	0f 86 9b 09 00 00    	jbe    992c <_Z12writeVTKFileiPPPPeiiieee+0xd2c>
    8f91:	4c 8d bd b0 fc ff ff 	lea    -0x350(%rbp),%r15
    8f98:	ba 04 00 00 00       	mov    $0x4,%edx
    8f9d:	48 8d 35 2e 14 00 00 	lea    0x142e(%rip),%rsi        # a3d2 <_IO_stdin_used+0x3d2>
    8fa4:	4c 89 ff             	mov    %r15,%rdi
    8fa7:	e8 a4 93 ff ff       	call   2350 <_ZNSt7__cxx1112basic_stringIcSt11char_traitsIcESaIcEE9_M_appendEPKcm@plt>
    8fac:	4c 8d ad e0 fc ff ff 	lea    -0x320(%rbp),%r13
    8fb3:	48 89 c2             	mov    %rax,%rdx
    8fb6:	4c 89 ad d0 fc ff ff 	mov    %r13,-0x330(%rbp)
    8fbd:	48 8b 00             	mov    (%rax),%rax
    8fc0:	48 8d 7a 10          	lea    0x10(%rdx),%rdi
    8fc4:	48 8b 4a 08          	mov    0x8(%rdx),%rcx
    8fc8:	48 39 f8             	cmp    %rdi,%rax
    8fcb:	0f 84 18 08 00 00    	je     97e9 <_Z12writeVTKFileiPPPPeiiieee+0xbe9>
    8fd1:	48 89 85 d0 fc ff ff 	mov    %rax,-0x330(%rbp)
    8fd8:	48 8b 42 10          	mov    0x10(%rdx),%rax
    8fdc:	48 89 85 e0 fc ff ff 	mov    %rax,-0x320(%rbp)
    8fe3:	48 89 3a             	mov    %rdi,(%rdx)
    8fe6:	48 8b bd 50 fc ff ff 	mov    -0x3b0(%rbp),%rdi
    8fed:	48 c7 42 08 00 00 00 	movq   $0x0,0x8(%rdx)
    8ff4:	00 
    8ff5:	48 8b b5 d0 fc ff ff 	mov    -0x330(%rbp),%rsi
    8ffc:	c6 42 10 00          	movb   $0x0,0x10(%rdx)
    9000:	ba 10 00 00 00       	mov    $0x10,%edx
    9005:	48 89 8d d8 fc ff ff 	mov    %rcx,-0x328(%rbp)
    900c:	e8 0f 94 ff ff       	call   2420 <_ZNSt13basic_filebufIcSt11char_traitsIcEE4openEPKcSt13_Ios_Openmode@plt>
    9011:	48 8b 95 f0 fc ff ff 	mov    -0x310(%rbp),%rdx
    9018:	48 8b bd 88 fc ff ff 	mov    -0x378(%rbp),%rdi
    901f:	48 03 7a e8          	add    -0x18(%rdx),%rdi
    9023:	48 85 c0             	test   %rax,%rax
    9026:	0f 84 2e 07 00 00    	je     975a <_Z12writeVTKFileiPPPPeiiieee+0xb5a>
    902c:	31 f6                	xor    %esi,%esi
    902e:	e8 6d 95 ff ff       	call   25a0 <_ZNSt9basic_iosIcSt11char_traitsIcEE5clearESt12_Ios_Iostate@plt>
    9033:	48 8b bd d0 fc ff ff 	mov    -0x330(%rbp),%rdi
    903a:	4c 39 ef             	cmp    %r13,%rdi
    903d:	74 10                	je     904f <_Z12writeVTKFileiPPPPeiiieee+0x44f>
    903f:	48 8b 85 e0 fc ff ff 	mov    -0x320(%rbp),%rax
    9046:	48 8d 70 01          	lea    0x1(%rax),%rsi
    904a:	e8 01 94 ff ff       	call   2450 <_ZdlPvm@plt>
    904f:	48 8b bd b0 fc ff ff 	mov    -0x350(%rbp),%rdi
    9056:	4c 39 f7             	cmp    %r14,%rdi
    9059:	74 10                	je     906b <_Z12writeVTKFileiPPPPeiiieee+0x46b>
    905b:	48 8b 85 c0 fc ff ff 	mov    -0x340(%rbp),%rax
    9062:	48 8d 70 01          	lea    0x1(%rax),%rsi
    9066:	e8 e5 93 ff ff       	call   2450 <_ZdlPvm@plt>
    906b:	48 8b bd 90 fc ff ff 	mov    -0x370(%rbp),%rdi
    9072:	48 8b 85 70 fc ff ff 	mov    -0x390(%rbp),%rax
    9079:	48 39 c7             	cmp    %rax,%rdi
    907c:	74 10                	je     908e <_Z12writeVTKFileiPPPPeiiieee+0x48e>
    907e:	48 8b 85 a0 fc ff ff 	mov    -0x360(%rbp),%rax
    9085:	48 8d 70 01          	lea    0x1(%rax),%rsi
    9089:	e8 c2 93 ff ff       	call   2450 <_ZdlPvm@plt>
    908e:	4c 8b b5 88 fc ff ff 	mov    -0x378(%rbp),%r14
    9095:	ba 1b 00 00 00       	mov    $0x1b,%edx
    909a:	48 8d 35 36 13 00 00 	lea    0x1336(%rip),%rsi        # a3d7 <_IO_stdin_used+0x3d7>
    90a1:	4c 89 f7             	mov    %r14,%rdi
    90a4:	e8 e7 93 ff ff       	call   2490 <_ZSt16__ostream_insertIcSt11char_traitsIcEERSt13basic_ostreamIT_T0_ES6_PKS3_l@plt>
    90a9:	ba 15 00 00 00       	mov    $0x15,%edx
    90ae:	48 8d 35 3e 13 00 00 	lea    0x133e(%rip),%rsi        # a3f3 <_IO_stdin_used+0x3f3>
    90b5:	4c 89 f7             	mov    %r14,%rdi
    90b8:	e8 d3 93 ff ff       	call   2490 <_ZSt16__ostream_insertIcSt11char_traitsIcEERSt13basic_ostreamIT_T0_ES6_PKS3_l@plt>
    90bd:	ba 06 00 00 00       	mov    $0x6,%edx
    90c2:	48 8d 35 40 13 00 00 	lea    0x1340(%rip),%rsi        # a409 <_IO_stdin_used+0x409>
    90c9:	4c 89 f7             	mov    %r14,%rdi
    90cc:	e8 bf 93 ff ff       	call   2490 <_ZSt16__ostream_insertIcSt11char_traitsIcEERSt13basic_ostreamIT_T0_ES6_PKS3_l@plt>
    90d1:	ba 1a 00 00 00       	mov    $0x1a,%edx
    90d6:	48 8d 35 33 13 00 00 	lea    0x1333(%rip),%rsi        # a410 <_IO_stdin_used+0x410>
    90dd:	4c 89 f7             	mov    %r14,%rdi
    90e0:	e8 ab 93 ff ff       	call   2490 <_ZSt16__ostream_insertIcSt11char_traitsIcEERSt13basic_ostreamIT_T0_ES6_PKS3_l@plt>
    90e5:	ba 0b 00 00 00       	mov    $0xb,%edx
    90ea:	48 8d 35 3a 13 00 00 	lea    0x133a(%rip),%rsi        # a42b <_IO_stdin_used+0x42b>
    90f1:	4c 89 f7             	mov    %r14,%rdi
    90f4:	e8 97 93 ff ff       	call   2490 <_ZSt16__ostream_insertIcSt11char_traitsIcEERSt13basic_ostreamIT_T0_ES6_PKS3_l@plt>
    90f9:	44 8b ad 64 fc ff ff 	mov    -0x39c(%rbp),%r13d
    9100:	4c 89 f7             	mov    %r14,%rdi
    9103:	44 89 ee             	mov    %r13d,%esi
    9106:	e8 a5 94 ff ff       	call   25b0 <_ZNSolsEi@plt>
    910b:	4c 8d 3d 46 13 00 00 	lea    0x1346(%rip),%r15        # a458 <_IO_stdin_used+0x458>
    9112:	ba 01 00 00 00       	mov    $0x1,%edx
    9117:	48 89 c7             	mov    %rax,%rdi
    911a:	48 89 c3             	mov    %rax,%rbx
    911d:	4c 89 fe             	mov    %r15,%rsi
    9120:	e8 6b 93 ff ff       	call   2490 <_ZSt16__ostream_insertIcSt11char_traitsIcEERSt13basic_ostreamIT_T0_ES6_PKS3_l@plt>
    9125:	8b b5 80 fc ff ff    	mov    -0x380(%rbp),%esi
    912b:	48 89 df             	mov    %rbx,%rdi
    912e:	e8 7d 94 ff ff       	call   25b0 <_ZNSolsEi@plt>
    9133:	ba 01 00 00 00       	mov    $0x1,%edx
    9138:	4c 89 fe             	mov    %r15,%rsi
    913b:	48 89 c7             	mov    %rax,%rdi
    913e:	48 89 c3             	mov    %rax,%rbx
    9141:	e8 4a 93 ff ff       	call   2490 <_ZSt16__ostream_insertIcSt11char_traitsIcEERSt13basic_ostreamIT_T0_ES6_PKS3_l@plt>
    9146:	8b b5 68 fc ff ff    	mov    -0x398(%rbp),%esi
    914c:	48 89 df             	mov    %rbx,%rdi
    914f:	e8 5c 94 ff ff       	call   25b0 <_ZNSolsEi@plt>
    9154:	48 89 c7             	mov    %rax,%rdi
    9157:	ba 01 00 00 00       	mov    $0x1,%edx
    915c:	48 8d 35 5d 13 00 00 	lea    0x135d(%rip),%rsi        # a4c0 <_IO_stdin_used+0x4c0>
    9163:	e8 28 93 ff ff       	call   2490 <_ZSt16__ostream_insertIcSt11char_traitsIcEERSt13basic_ostreamIT_T0_ES6_PKS3_l@plt>
    9168:	ba 0d 00 00 00       	mov    $0xd,%edx
    916d:	48 8d 35 c3 12 00 00 	lea    0x12c3(%rip),%rsi        # a437 <_IO_stdin_used+0x437>
    9174:	4c 89 f7             	mov    %r14,%rdi
    9177:	e8 14 93 ff ff       	call   2490 <_ZSt16__ostream_insertIcSt11char_traitsIcEERSt13basic_ostreamIT_T0_ES6_PKS3_l@plt>
    917c:	ba 08 00 00 00       	mov    $0x8,%edx
    9181:	48 8d 35 bd 12 00 00 	lea    0x12bd(%rip),%rsi        # a445 <_IO_stdin_used+0x445>
    9188:	4c 89 f7             	mov    %r14,%rdi
    918b:	e8 00 93 ff ff       	call   2490 <_ZSt16__ostream_insertIcSt11char_traitsIcEERSt13basic_ostreamIT_T0_ES6_PKS3_l@plt>
    9190:	ff 75 18             	push   0x18(%rbp)
    9193:	4c 89 f7             	mov    %r14,%rdi
    9196:	ff 75 10             	push   0x10(%rbp)
    9199:	e8 e2 91 ff ff       	call   2380 <_ZNSo9_M_insertIeEERSoT_@plt>
    919e:	41 59                	pop    %r9
    91a0:	ba 01 00 00 00       	mov    $0x1,%edx
    91a5:	41 5a                	pop    %r10
    91a7:	4c 89 fe             	mov    %r15,%rsi
    91aa:	48 89 c7             	mov    %rax,%rdi
    91ad:	48 89 c3             	mov    %rax,%rbx
    91b0:	e8 db 92 ff ff       	call   2490 <_ZSt16__ostream_insertIcSt11char_traitsIcEERSt13basic_ostreamIT_T0_ES6_PKS3_l@plt>
    91b5:	ff 75 28             	push   0x28(%rbp)
    91b8:	48 89 df             	mov    %rbx,%rdi
    91bb:	ff 75 20             	push   0x20(%rbp)
    91be:	e8 bd 91 ff ff       	call   2380 <_ZNSo9_M_insertIeEERSoT_@plt>
    91c3:	5f                   	pop    %rdi
    91c4:	ba 01 00 00 00       	mov    $0x1,%edx
    91c9:	41 58                	pop    %r8
    91cb:	4c 89 fe             	mov    %r15,%rsi
    91ce:	48 89 c7             	mov    %rax,%rdi
    91d1:	48 89 c3             	mov    %rax,%rbx
    91d4:	e8 b7 92 ff ff       	call   2490 <_ZSt16__ostream_insertIcSt11char_traitsIcEERSt13basic_ostreamIT_T0_ES6_PKS3_l@plt>
    91d9:	ff 75 38             	push   0x38(%rbp)
    91dc:	48 89 df             	mov    %rbx,%rdi
    91df:	ff 75 30             	push   0x30(%rbp)
    91e2:	e8 99 91 ff ff       	call   2380 <_ZNSo9_M_insertIeEERSoT_@plt>
    91e7:	59                   	pop    %rcx
    91e8:	48 89 c7             	mov    %rax,%rdi
    91eb:	5e                   	pop    %rsi
    91ec:	ba 01 00 00 00       	mov    $0x1,%edx
    91f1:	48 8d 35 c8 12 00 00 	lea    0x12c8(%rip),%rsi        # a4c0 <_IO_stdin_used+0x4c0>
    91f8:	e8 93 92 ff ff       	call   2490 <_ZSt16__ostream_insertIcSt11char_traitsIcEERSt13basic_ostreamIT_T0_ES6_PKS3_l@plt>
    91fd:	ba 0b 00 00 00       	mov    $0xb,%edx
    9202:	48 8d 35 45 12 00 00 	lea    0x1245(%rip),%rsi        # a44e <_IO_stdin_used+0x44e>
    9209:	4c 89 f7             	mov    %r14,%rdi
    920c:	e8 7f 92 ff ff       	call   2490 <_ZSt16__ostream_insertIcSt11char_traitsIcEERSt13basic_ostreamIT_T0_ES6_PKS3_l@plt>
    9211:	8b 8d 80 fc ff ff    	mov    -0x380(%rbp),%ecx
    9217:	44 89 e8             	mov    %r13d,%eax
    921a:	44 89 eb             	mov    %r13d,%ebx
    921d:	4c 89 f7             	mov    %r14,%rdi
    9220:	44 8b ad 68 fc ff ff 	mov    -0x398(%rbp),%r13d
    9227:	0f af c1             	imul   %ecx,%eax
    922a:	89 c6                	mov    %eax,%esi
    922c:	41 0f af f5          	imul   %r13d,%esi
    9230:	e8 7b 93 ff ff       	call   25b0 <_ZNSolsEi@plt>
    9235:	48 89 c7             	mov    %rax,%rdi
    9238:	ba 01 00 00 00       	mov    $0x1,%edx
    923d:	48 8d 35 7c 12 00 00 	lea    0x127c(%rip),%rsi        # a4c0 <_IO_stdin_used+0x4c0>
    9244:	e8 47 92 ff ff       	call   2490 <_ZSt16__ostream_insertIcSt11char_traitsIcEERSt13basic_ostreamIT_T0_ES6_PKS3_l@plt>
    9249:	ba 18 00 00 00       	mov    $0x18,%edx
    924e:	48 8d 35 05 12 00 00 	lea    0x1205(%rip),%rsi        # a45a <_IO_stdin_used+0x45a>
    9255:	4c 89 f7             	mov    %r14,%rdi
    9258:	e8 33 92 ff ff       	call   2490 <_ZSt16__ostream_insertIcSt11char_traitsIcEERSt13basic_ostreamIT_T0_ES6_PKS3_l@plt>
    925d:	ba 15 00 00 00       	mov    $0x15,%edx
    9262:	48 8d 35 0a 12 00 00 	lea    0x120a(%rip),%rsi        # a473 <_IO_stdin_used+0x473>
    9269:	4c 89 f7             	mov    %r14,%rdi
    926c:	e8 1f 92 ff ff       	call   2490 <_ZSt16__ostream_insertIcSt11char_traitsIcEERSt13basic_ostreamIT_T0_ES6_PKS3_l@plt>
    9271:	45 85 ed             	test   %r13d,%r13d
    9274:	0f 8e b8 05 00 00    	jle    9832 <_Z12writeVTKFileiPPPPeiiieee+0xc32>
    927a:	49 63 c5             	movslq %r13d,%rax
    927d:	45 31 ed             	xor    %r13d,%r13d
    9280:	48 c1 e0 04          	shl    $0x4,%rax
    9284:	48 89 85 58 fc ff ff 	mov    %rax,-0x3a8(%rbp)
    928b:	48 63 85 80 fc ff ff 	movslq -0x380(%rbp),%rax
    9292:	48 c1 e0 03          	shl    $0x3,%rax
    9296:	48 89 85 68 fc ff ff 	mov    %rax,-0x398(%rbp)
    929d:	48 63 c3             	movslq %ebx,%rax
    92a0:	48 c1 e0 03          	shl    $0x3,%rax
    92a4:	48 89 85 70 fc ff ff 	mov    %rax,-0x390(%rbp)
    92ab:	0f 1f 44 00 00       	nopl   0x0(%rax,%rax,1)
    92b0:	44 8b 95 80 fc ff ff 	mov    -0x380(%rbp),%r10d
    92b7:	45 31 f6             	xor    %r14d,%r14d
    92ba:	4c 89 f2             	mov    %r14,%rdx
    92bd:	45 85 d2             	test   %r10d,%r10d
    92c0:	7e 78                	jle    933a <_Z12writeVTKFileiPPPPeiiieee+0x73a>
    92c2:	44 8b 9d 64 fc ff ff 	mov    -0x39c(%rbp),%r11d
    92c9:	45 85 db             	test   %r11d,%r11d
    92cc:	0f 8e 56 04 00 00    	jle    9728 <_Z12writeVTKFileiPPPPeiiieee+0xb28>
    92d2:	49 89 d6             	mov    %rdx,%r14
    92d5:	0f 1f 00             	nopl   (%rax)
    92d8:	31 db                	xor    %ebx,%ebx
    92da:	66 0f 1f 44 00 00    	nopw   0x0(%rax,%rax,1)
    92e0:	49 8b 44 24 18       	mov    0x18(%r12),%rax
    92e5:	48 8b bd 88 fc ff ff 	mov    -0x378(%rbp),%rdi
    92ec:	48 8b 04 18          	mov    (%rax,%rbx,1),%rax
    92f0:	4a 8b 04 30          	mov    (%rax,%r14,1),%rax
    92f4:	42 ff 74 28 08       	push   0x8(%rax,%r13,1)
    92f9:	42 ff 34 28          	push   (%rax,%r13,1)
    92fd:	e8 7e 90 ff ff       	call   2380 <_ZNSo9_M_insertIeEERSoT_@plt>
    9302:	48 89 c7             	mov    %rax,%rdi
    9305:	4c 89 fe             	mov    %r15,%rsi
    9308:	58                   	pop    %rax
    9309:	5a                   	pop    %rdx
    930a:	ba 01 00 00 00       	mov    $0x1,%edx
    930f:	e8 7c 91 ff ff       	call   2490 <_ZSt16__ostream_insertIcSt11char_traitsIcEERSt13basic_ostreamIT_T0_ES6_PKS3_l@plt>
    9314:	48 8b 85 70 fc ff ff 	mov    -0x390(%rbp),%rax
    931b:	48 83 c3 08          	add    $0x8,%rbx
    931f:	48 39 c3             	cmp    %rax,%rbx
    9322:	75 bc                	jne    92e0 <_Z12writeVTKFileiPPPPeiiieee+0x6e0>
    9324:	4c 89 f0             	mov    %r14,%rax
    9327:	48 8b 8d 68 fc ff ff 	mov    -0x398(%rbp),%rcx
    932e:	48 83 c0 08          	add    $0x8,%rax
    9332:	49 89 c6             	mov    %rax,%r14
    9335:	48 39 c8             	cmp    %rcx,%rax
    9338:	75 9e                	jne    92d8 <_Z12writeVTKFileiPPPPeiiieee+0x6d8>
    933a:	48 8b bd 88 fc ff ff 	mov    -0x378(%rbp),%rdi
    9341:	ba 01 00 00 00       	mov    $0x1,%edx
    9346:	48 8d 35 73 11 00 00 	lea    0x1173(%rip),%rsi        # a4c0 <_IO_stdin_used+0x4c0>
    934d:	e8 3e 91 ff ff       	call   2490 <_ZSt16__ostream_insertIcSt11char_traitsIcEERSt13basic_ostreamIT_T0_ES6_PKS3_l@plt>
    9352:	49 83 c5 10          	add    $0x10,%r13
    9356:	4c 39 ad 58 fc ff ff 	cmp    %r13,-0x3a8(%rbp)
    935d:	0f 85 4d ff ff ff    	jne    92b0 <_Z12writeVTKFileiPPPPeiiieee+0x6b0>
    9363:	48 8b bd 88 fc ff ff 	mov    -0x378(%rbp),%rdi
    936a:	ba 18 00 00 00       	mov    $0x18,%edx
    936f:	48 8d 35 13 11 00 00 	lea    0x1113(%rip),%rsi        # a489 <_IO_stdin_used+0x489>
    9376:	e8 15 91 ff ff       	call   2490 <_ZSt16__ostream_insertIcSt11char_traitsIcEERSt13basic_ostreamIT_T0_ES6_PKS3_l@plt>
    937b:	8b 85 80 fc ff ff    	mov    -0x380(%rbp),%eax
    9381:	45 31 f6             	xor    %r14d,%r14d
    9384:	85 c0                	test   %eax,%eax
    9386:	0f 8e b8 03 00 00    	jle    9744 <_Z12writeVTKFileiPPPPeiiieee+0xb44>
    938c:	0f 1f 40 00          	nopl   0x0(%rax)
    9390:	45 31 ed             	xor    %r13d,%r13d
    9393:	8b 85 64 fc ff ff    	mov    -0x39c(%rbp),%eax
    9399:	85 c0                	test   %eax,%eax
    939b:	0f 8e 48 02 00 00    	jle    95e9 <_Z12writeVTKFileiPPPPeiiieee+0x9e9>
    93a1:	0f 1f 80 00 00 00 00 	nopl   0x0(%rax)
    93a8:	31 db                	xor    %ebx,%ebx
    93aa:	66 0f 1f 44 00 00    	nopw   0x0(%rax,%rax,1)
    93b0:	49 8b 04 24          	mov    (%r12),%rax
    93b4:	48 8b bd 88 fc ff ff 	mov    -0x378(%rbp),%rdi
    93bb:	48 8b 04 18          	mov    (%rax,%rbx,1),%rax
    93bf:	4a 8b 04 28          	mov    (%rax,%r13,1),%rax
    93c3:	42 ff 74 30 08       	push   0x8(%rax,%r14,1)
    93c8:	42 ff 34 30          	push   (%rax,%r14,1)
    93cc:	e8 af 8f ff ff       	call   2380 <_ZNSo9_M_insertIeEERSoT_@plt>
    93d1:	41 58                	pop    %r8
    93d3:	ba 01 00 00 00       	mov    $0x1,%edx
    93d8:	41 59                	pop    %r9
    93da:	4c 89 fe             	mov    %r15,%rsi
    93dd:	48 89 c7             	mov    %rax,%rdi
    93e0:	48 89 85 80 fc ff ff 	mov    %rax,-0x380(%rbp)
    93e7:	e8 a4 90 ff ff       	call   2490 <_ZSt16__ostream_insertIcSt11char_traitsIcEERSt13basic_ostreamIT_T0_ES6_PKS3_l@plt>
    93ec:	49 8b 44 24 08       	mov    0x8(%r12),%rax
    93f1:	48 8b bd 80 fc ff ff 	mov    -0x380(%rbp),%rdi
    93f8:	48 8b 04 18          	mov    (%rax,%rbx,1),%rax
    93fc:	4a 8b 04 28          	mov    (%rax,%r13,1),%rax
    9400:	42 ff 74 30 08       	push   0x8(%rax,%r14,1)
    9405:	42 ff 34 30          	push   (%rax,%r14,1)
    9409:	e8 72 8f ff ff       	call   2380 <_ZNSo9_M_insertIeEERSoT_@plt>
    940e:	5e                   	pop    %rsi
    940f:	ba 01 00 00 00       	mov    $0x1,%edx
    9414:	5f                   	pop    %rdi
    9415:	4c 89 fe             	mov    %r15,%rsi
    9418:	48 89 c7             	mov    %rax,%rdi
    941b:	48 89 85 80 fc ff ff 	mov    %rax,-0x380(%rbp)
    9422:	e8 69 90 ff ff       	call   2490 <_ZSt16__ostream_insertIcSt11char_traitsIcEERSt13basic_ostreamIT_T0_ES6_PKS3_l@plt>
    9427:	49 8b 44 24 10       	mov    0x10(%r12),%rax
    942c:	48 8b bd 80 fc ff ff 	mov    -0x380(%rbp),%rdi
    9433:	48 8b 04 18          	mov    (%rax,%rbx,1),%rax
    9437:	4a 8b 04 28          	mov    (%rax,%r13,1),%rax
    943b:	42 ff 74 30 08       	push   0x8(%rax,%r14,1)
    9440:	42 ff 34 30          	push   (%rax,%r14,1)
    9444:	e8 37 8f ff ff       	call   2380 <_ZNSo9_M_insertIeEERSoT_@plt>
    9449:	5a                   	pop    %rdx
    944a:	48 89 c7             	mov    %rax,%rdi
    944d:	59                   	pop    %rcx
    944e:	ba 01 00 00 00       	mov    $0x1,%edx
    9453:	48 8d 35 66 10 00 00 	lea    0x1066(%rip),%rsi        # a4c0 <_IO_stdin_used+0x4c0>
    945a:	e8 31 90 ff ff       	call   2490 <_ZSt16__ostream_insertIcSt11char_traitsIcEERSt13basic_ostreamIT_T0_ES6_PKS3_l@plt>
    945f:	48 83 c3 08          	add    $0x8,%rbx
    9463:	48 39 9d 70 fc ff ff 	cmp    %rbx,-0x390(%rbp)
    946a:	0f 85 40 ff ff ff    	jne    93b0 <_Z12writeVTKFileiPPPPeiiieee+0x7b0>
    9470:	48 8b 85 68 fc ff ff 	mov    -0x398(%rbp),%rax
    9477:	49 83 c5 08          	add    $0x8,%r13
    947b:	49 39 c5             	cmp    %rax,%r13
    947e:	0f 85 24 ff ff ff    	jne    93a8 <_Z12writeVTKFileiPPPPeiiieee+0x7a8>
    9484:	48 8b 85 58 fc ff ff 	mov    -0x3a8(%rbp),%rax
    948b:	49 83 c6 10          	add    $0x10,%r14
    948f:	49 39 c6             	cmp    %rax,%r14
    9492:	0f 85 f8 fe ff ff    	jne    9390 <_Z12writeVTKFileiPPPPeiiieee+0x790>
    9498:	48 8b bd 50 fc ff ff 	mov    -0x3b0(%rbp),%rdi
    949f:	e8 8c 8e ff ff       	call   2330 <_ZNSt13basic_filebufIcSt11char_traitsIcEE5closeEv@plt>
    94a4:	48 85 c0             	test   %rax,%rax
    94a7:	0f 84 1a 03 00 00    	je     97c7 <_Z12writeVTKFileiPPPPeiiieee+0xbc7>
    94ad:	48 8d 1d 8c 2b 00 00 	lea    0x2b8c(%rip),%rbx        # c040 <_ZSt4cout@GLIBCXX_3.4>
    94b4:	ba 10 00 00 00       	mov    $0x10,%edx
    94b9:	48 8d 35 e2 0f 00 00 	lea    0xfe2(%rip),%rsi        # a4a2 <_IO_stdin_used+0x4a2>
    94c0:	48 89 df             	mov    %rbx,%rdi
    94c3:	e8 c8 8f ff ff       	call   2490 <_ZSt16__ostream_insertIcSt11char_traitsIcEERSt13basic_ostreamIT_T0_ES6_PKS3_l@plt>
    94c8:	8b b5 60 fc ff ff    	mov    -0x3a0(%rbp),%esi
    94ce:	48 89 df             	mov    %rbx,%rdi
    94d1:	e8 da 90 ff ff       	call   25b0 <_ZNSolsEi@plt>
    94d6:	48 89 c7             	mov    %rax,%rdi
    94d9:	48 8d 05 90 26 00 00 	lea    0x2690(%rip),%rax        # bb70 <_ZTVSt13basic_filebufIcSt11char_traitsIcEE@GLIBCXX_3.4+0x10>
    94e0:	f3 0f 7e 0d 48 27 00 	movq   0x2748(%rip),%xmm1        # bc30 <_ZTVSt14basic_ofstreamIcSt11char_traitsIcEE@GLIBCXX_3.4+0x50>
    94e7:	00 
    94e8:	ba 0e 00 00 00       	mov    $0xe,%edx
    94ed:	66 48 0f 6e d0       	movq   %rax,%xmm2
    94f2:	48 8d 35 ba 0f 00 00 	lea    0xfba(%rip),%rsi        # a4b3 <_IO_stdin_used+0x4b3>
    94f9:	66 0f 6c ca          	punpcklqdq %xmm2,%xmm1
    94fd:	0f 29 8d 70 fc ff ff 	movaps %xmm1,-0x390(%rbp)
    9504:	e8 87 8f ff ff       	call   2490 <_ZSt16__ostream_insertIcSt11char_traitsIcEERSt13basic_ostreamIT_T0_ES6_PKS3_l@plt>
    9509:	66 0f 6f 8d 70 fc ff 	movdqa -0x390(%rbp),%xmm1
    9510:	ff 
    9511:	48 8b bd 50 fc ff ff 	mov    -0x3b0(%rbp),%rdi
    9518:	48 8d 05 01 27 00 00 	lea    0x2701(%rip),%rax        # bc20 <_ZTVSt14basic_ofstreamIcSt11char_traitsIcEE@GLIBCXX_3.4+0x40>
    951f:	48 89 85 e8 fd ff ff 	mov    %rax,-0x218(%rbp)
    9526:	0f 29 8d f0 fc ff ff 	movaps %xmm1,-0x310(%rbp)
    952d:	e8 fe 8d ff ff       	call   2330 <_ZNSt13basic_filebufIcSt11char_traitsIcEE5closeEv@plt>
    9532:	48 8d bd 60 fd ff ff 	lea    -0x2a0(%rbp),%rdi
    9539:	e8 92 90 ff ff       	call   25d0 <_ZNSt12__basic_fileIcED1Ev@plt>
    953e:	48 8d 05 8b 25 00 00 	lea    0x258b(%rip),%rax        # bad0 <_ZTVSt15basic_streambufIcSt11char_traitsIcEE@GLIBCXX_3.4+0x10>
    9545:	48 8d bd 30 fd ff ff 	lea    -0x2d0(%rbp),%rdi
    954c:	48 89 85 f8 fc ff ff 	mov    %rax,-0x308(%rbp)
    9553:	e8 c8 8f ff ff       	call   2520 <_ZNSt6localeD1Ev@plt>
    9558:	48 8b 05 e9 25 00 00 	mov    0x25e9(%rip),%rax        # bb48 <_ZTTSt14basic_ofstreamIcSt11char_traitsIcEE@GLIBCXX_3.4+0x8>
    955f:	48 8b 0d ea 25 00 00 	mov    0x25ea(%rip),%rcx        # bb50 <_ZTTSt14basic_ofstreamIcSt11char_traitsIcEE@GLIBCXX_3.4+0x10>
    9566:	48 8b bd 48 fc ff ff 	mov    -0x3b8(%rbp),%rdi
    956d:	48 89 85 f0 fc ff ff 	mov    %rax,-0x310(%rbp)
    9574:	48 8b 40 e8          	mov    -0x18(%rax),%rax
    9578:	48 89 8c 05 f0 fc ff 	mov    %rcx,-0x310(%rbp,%rax,1)
    957f:	ff 
    9580:	48 8d 05 29 25 00 00 	lea    0x2529(%rip),%rax        # bab0 <_ZTVSt9basic_iosIcSt11char_traitsIcEE@GLIBCXX_3.4+0x10>
    9587:	48 89 85 e8 fd ff ff 	mov    %rax,-0x218(%rbp)
    958e:	e8 cd 8d ff ff       	call   2360 <_ZNSt8ios_baseD2Ev@plt>
    9593:	48 8b 45 c8          	mov    -0x38(%rbp),%rax
    9597:	64 48 2b 04 25 28 00 	sub    %fs:0x28,%rax
    959e:	00 00 
    95a0:	0f 85 81 03 00 00    	jne    9927 <_Z12writeVTKFileiPPPPeiiieee+0xd27>
    95a6:	48 8d 65 d8          	lea    -0x28(%rbp),%rsp
    95aa:	5b                   	pop    %rbx
    95ab:	41 5c                	pop    %r12
    95ad:	41 5d                	pop    %r13
    95af:	41 5e                	pop    %r14
    95b1:	41 5f                	pop    %r15
    95b3:	5d                   	pop    %rbp
    95b4:	c3                   	ret
    95b5:	ba 09 00 00 00       	mov    $0x9,%edx
    95ba:	44 8d 42 ff          	lea    -0x1(%rdx),%r8d
    95be:	48 8d 8d a0 fc ff ff 	lea    -0x360(%rbp),%rcx
    95c5:	44 89 85 58 fc ff ff 	mov    %r8d,-0x3a8(%rbp)
    95cc:	48 8d 9d 90 fc ff ff 	lea    -0x370(%rbp),%rbx
    95d3:	48 89 8d 70 fc ff ff 	mov    %rcx,-0x390(%rbp)
    95da:	8d 34 10             	lea    (%rax,%rdx,1),%esi
    95dd:	48 89 8d 90 fc ff ff 	mov    %rcx,-0x370(%rbp)
    95e4:	e9 dd f7 ff ff       	jmp    8dc6 <_Z12writeVTKFileiPPPPeiiieee+0x1c6>
    95e9:	48 8b 85 68 fc ff ff 	mov    -0x398(%rbp),%rax
    95f0:	49 83 c5 08          	add    $0x8,%r13
    95f4:	49 39 c5             	cmp    %rax,%r13
    95f7:	0f 85 96 fd ff ff    	jne    9393 <_Z12writeVTKFileiPPPPeiiieee+0x793>
    95fd:	48 8b 85 58 fc ff ff 	mov    -0x3a8(%rbp),%rax
    9604:	49 83 c6 10          	add    $0x10,%r14
    9608:	49 39 c6             	cmp    %rax,%r14
    960b:	0f 85 7f fd ff ff    	jne    9390 <_Z12writeVTKFileiPPPPeiiieee+0x790>
    9611:	e9 82 fe ff ff       	jmp    9498 <_Z12writeVTKFileiPPPPeiiieee+0x898>
    9616:	48 8d 9d 90 fc ff ff 	lea    -0x370(%rbp),%rbx
    961d:	48 8d 8d a0 fc ff ff 	lea    -0x360(%rbp),%rcx
    9624:	8d 72 02             	lea    0x2(%rdx),%esi
    9627:	48 89 df             	mov    %rbx,%rdi
    962a:	ba 2d 00 00 00       	mov    $0x2d,%edx
    962f:	48 89 8d 70 fc ff ff 	mov    %rcx,-0x390(%rbp)
    9636:	48 89 8d 90 fc ff ff 	mov    %rcx,-0x370(%rbp)
    963d:	e8 6e 8e ff ff       	call   24b0 <_ZNSt7__cxx1112basic_stringIcSt11char_traitsIcESaIcEE12_M_constructEmc@plt>
    9642:	66 0f 6f 05 f6 0e 00 	movdqa 0xef6(%rip),%xmm0        # a540 <_IO_stdin_used+0x540>
    9649:	00 
    964a:	48 8b 95 90 fc ff ff 	mov    -0x370(%rbp),%rdx
    9651:	0f 29 85 f0 fe ff ff 	movaps %xmm0,-0x110(%rbp)
    9658:	66 0f 6f 05 f0 0e 00 	movdqa 0xef0(%rip),%xmm0        # a550 <_IO_stdin_used+0x550>
    965f:	00 
    9660:	4c 01 ea             	add    %r13,%rdx
    9663:	0f 29 85 00 ff ff ff 	movaps %xmm0,-0x100(%rbp)
    966a:	66 0f 6f 05 ee 0e 00 	movdqa 0xeee(%rip),%xmm0        # a560 <_IO_stdin_used+0x560>
    9671:	00 
    9672:	0f 29 85 10 ff ff ff 	movaps %xmm0,-0xf0(%rbp)
    9679:	66 0f 6f 05 ef 0e 00 	movdqa 0xeef(%rip),%xmm0        # a570 <_IO_stdin_used+0x570>
    9680:	00 
    9681:	0f 29 85 20 ff ff ff 	movaps %xmm0,-0xe0(%rbp)
    9688:	66 0f 6f 05 f0 0e 00 	movdqa 0xef0(%rip),%xmm0        # a580 <_IO_stdin_used+0x580>
    968f:	00 
    9690:	0f 29 85 30 ff ff ff 	movaps %xmm0,-0xd0(%rbp)
    9697:	66 0f 6f 05 f1 0e 00 	movdqa 0xef1(%rip),%xmm0        # a590 <_IO_stdin_used+0x590>
    969e:	00 
    969f:	0f 29 85 40 ff ff ff 	movaps %xmm0,-0xc0(%rbp)
    96a6:	66 0f 6f 05 f2 0e 00 	movdqa 0xef2(%rip),%xmm0        # a5a0 <_IO_stdin_used+0x5a0>
    96ad:	00 
    96ae:	0f 29 85 50 ff ff ff 	movaps %xmm0,-0xb0(%rbp)
    96b5:	66 0f 6f 05 f3 0e 00 	movdqa 0xef3(%rip),%xmm0        # a5b0 <_IO_stdin_used+0x5b0>
    96bc:	00 
    96bd:	0f 29 85 60 ff ff ff 	movaps %xmm0,-0xa0(%rbp)
    96c4:	66 0f 6f 05 f4 0e 00 	movdqa 0xef4(%rip),%xmm0        # a5c0 <_IO_stdin_used+0x5c0>
    96cb:	00 
    96cc:	0f 29 85 70 ff ff ff 	movaps %xmm0,-0x90(%rbp)
    96d3:	66 0f 6f 05 f5 0e 00 	movdqa 0xef5(%rip),%xmm0        # a5d0 <_IO_stdin_used+0x5d0>
    96da:	00 
    96db:	0f 29 45 80          	movaps %xmm0,-0x80(%rbp)
    96df:	66 0f 6f 05 f9 0e 00 	movdqa 0xef9(%rip),%xmm0        # a5e0 <_IO_stdin_used+0x5e0>
    96e6:	00 
    96e7:	0f 29 45 90          	movaps %xmm0,-0x70(%rbp)
    96eb:	66 0f 6f 05 fd 0e 00 	movdqa 0xefd(%rip),%xmm0        # a5f0 <_IO_stdin_used+0x5f0>
    96f2:	00 
    96f3:	0f 29 45 a0          	movaps %xmm0,-0x60(%rbp)
    96f7:	66 0f 6f 05 01 0f 00 	movdqa 0xf01(%rip),%xmm0        # a600 <_IO_stdin_used+0x600>
    96fe:	00 
    96ff:	0f 11 45 a9          	movups %xmm0,-0x57(%rbp)
    9703:	43 8d 0c 3f          	lea    (%r15,%r15,1),%ecx
    9707:	8d 41 01             	lea    0x1(%rcx),%eax
    970a:	0f b6 8c 0d f0 fe ff 	movzbl -0x110(%rbp,%rcx,1),%ecx
    9711:	ff 
    9712:	0f b6 84 05 f0 fe ff 	movzbl -0x110(%rbp,%rax,1),%eax
    9719:	ff 
    971a:	88 42 01             	mov    %al,0x1(%rdx)
    971d:	e9 f0 f7 ff ff       	jmp    8f12 <_Z12writeVTKFileiPPPPeiiieee+0x312>
    9722:	66 0f 1f 44 00 00    	nopw   0x0(%rax,%rax,1)
    9728:	48 89 d0             	mov    %rdx,%rax
    972b:	48 83 c0 08          	add    $0x8,%rax
    972f:	48 89 c2             	mov    %rax,%rdx
    9732:	48 39 85 68 fc ff ff 	cmp    %rax,-0x398(%rbp)
    9739:	0f 85 83 fb ff ff    	jne    92c2 <_Z12writeVTKFileiPPPPeiiieee+0x6c2>
    973f:	e9 f6 fb ff ff       	jmp    933a <_Z12writeVTKFileiPPPPeiiieee+0x73a>
    9744:	49 83 c6 10          	add    $0x10,%r14
    9748:	4c 39 b5 58 fc ff ff 	cmp    %r14,-0x3a8(%rbp)
    974f:	0f 85 2f fc ff ff    	jne    9384 <_Z12writeVTKFileiPPPPeiiieee+0x784>
    9755:	e9 3e fd ff ff       	jmp    9498 <_Z12writeVTKFileiPPPPeiiieee+0x898>
    975a:	8b 77 20             	mov    0x20(%rdi),%esi
    975d:	83 ce 04             	or     $0x4,%esi
    9760:	e8 3b 8e ff ff       	call   25a0 <_ZNSt9basic_iosIcSt11char_traitsIcEE5clearESt12_Ios_Iostate@plt>
    9765:	e9 c9 f8 ff ff       	jmp    9033 <_Z12writeVTKFileiPPPPeiiieee+0x433>
    976a:	41 b8 07 00 00 00    	mov    $0x7,%r8d
    9770:	ba 08 00 00 00       	mov    $0x8,%edx
    9775:	e9 44 fe ff ff       	jmp    95be <_Z12writeVTKFileiPPPPeiiieee+0x9be>
    977a:	48 8d 50 01          	lea    0x1(%rax),%rdx
    977e:	4d 89 f0             	mov    %r14,%r8
    9781:	48 89 f8             	mov    %rdi,%rax
    9784:	83 fa 08             	cmp    $0x8,%edx
    9787:	0f 83 f9 00 00 00    	jae    9886 <_Z12writeVTKFileiPPPPeiiieee+0xc86>
    978d:	31 f6                	xor    %esi,%esi
    978f:	f6 c2 04             	test   $0x4,%dl
    9792:	74 0a                	je     979e <_Z12writeVTKFileiPPPPeiiieee+0xb9e>
    9794:	8b 30                	mov    (%rax),%esi
    9796:	41 89 30             	mov    %esi,(%r8)
    9799:	be 04 00 00 00       	mov    $0x4,%esi
    979e:	f6 c2 02             	test   $0x2,%dl
    97a1:	74 0e                	je     97b1 <_Z12writeVTKFileiPPPPeiiieee+0xbb1>
    97a3:	44 0f b7 0c 30       	movzwl (%rax,%rsi,1),%r9d
    97a8:	66 45 89 0c 30       	mov    %r9w,(%r8,%rsi,1)
    97ad:	48 83 c6 02          	add    $0x2,%rsi
    97b1:	83 e2 01             	and    $0x1,%edx
    97b4:	74 08                	je     97be <_Z12writeVTKFileiPPPPeiiieee+0xbbe>
    97b6:	0f b6 04 30          	movzbl (%rax,%rsi,1),%eax
    97ba:	41 88 04 30          	mov    %al,(%r8,%rsi,1)
    97be:	48 8b 41 08          	mov    0x8(%rcx),%rax
    97c2:	e9 9d f7 ff ff       	jmp    8f64 <_Z12writeVTKFileiPPPPeiiieee+0x364>
    97c7:	48 8b 85 f0 fc ff ff 	mov    -0x310(%rbp),%rax
    97ce:	48 8b bd 88 fc ff ff 	mov    -0x378(%rbp),%rdi
    97d5:	48 03 78 e8          	add    -0x18(%rax),%rdi
    97d9:	8b 77 20             	mov    0x20(%rdi),%esi
    97dc:	83 ce 04             	or     $0x4,%esi
    97df:	e8 bc 8d ff ff       	call   25a0 <_ZNSt9basic_iosIcSt11char_traitsIcEE5clearESt12_Ios_Iostate@plt>
    97e4:	e9 c4 fc ff ff       	jmp    94ad <_Z12writeVTKFileiPPPPeiiieee+0x8ad>
    97e9:	48 83 c1 01          	add    $0x1,%rcx
    97ed:	4d 89 e8             	mov    %r13,%r8
    97f0:	48 89 f8             	mov    %rdi,%rax
    97f3:	83 f9 08             	cmp    $0x8,%ecx
    97f6:	73 57                	jae    984f <_Z12writeVTKFileiPPPPeiiieee+0xc4f>
    97f8:	31 f6                	xor    %esi,%esi
    97fa:	f6 c1 04             	test   $0x4,%cl
    97fd:	74 0a                	je     9809 <_Z12writeVTKFileiPPPPeiiieee+0xc09>
    97ff:	8b 30                	mov    (%rax),%esi
    9801:	41 89 30             	mov    %esi,(%r8)
    9804:	be 04 00 00 00       	mov    $0x4,%esi
    9809:	f6 c1 02             	test   $0x2,%cl
    980c:	74 0e                	je     981c <_Z12writeVTKFileiPPPPeiiieee+0xc1c>
    980e:	44 0f b7 0c 30       	movzwl (%rax,%rsi,1),%r9d
    9813:	66 45 89 0c 30       	mov    %r9w,(%r8,%rsi,1)
    9818:	48 83 c6 02          	add    $0x2,%rsi
    981c:	83 e1 01             	and    $0x1,%ecx
    981f:	74 08                	je     9829 <_Z12writeVTKFileiPPPPeiiieee+0xc29>
    9821:	0f b6 04 30          	movzbl (%rax,%rsi,1),%eax
    9825:	41 88 04 30          	mov    %al,(%r8,%rsi,1)
    9829:	48 8b 4a 08          	mov    0x8(%rdx),%rcx
    982d:	e9 b1 f7 ff ff       	jmp    8fe3 <_Z12writeVTKFileiPPPPeiiieee+0x3e3>
    9832:	48 8b bd 88 fc ff ff 	mov    -0x378(%rbp),%rdi
    9839:	ba 18 00 00 00       	mov    $0x18,%edx
    983e:	48 8d 35 44 0c 00 00 	lea    0xc44(%rip),%rsi        # a489 <_IO_stdin_used+0x489>
    9845:	e8 46 8c ff ff       	call   2490 <_ZSt16__ostream_insertIcSt11char_traitsIcEERSt13basic_ostreamIT_T0_ES6_PKS3_l@plt>
    984a:	e9 49 fc ff ff       	jmp    9498 <_Z12writeVTKFileiPPPPeiiieee+0x898>
    984f:	41 89 c8             	mov    %ecx,%r8d
    9852:	4c 8b 95 70 fc ff ff 	mov    -0x390(%rbp),%r10
    9859:	31 c0                	xor    %eax,%eax
    985b:	41 83 e0 f8          	and    $0xfffffff8,%r8d
    985f:	89 c6                	mov    %eax,%esi
    9861:	83 c0 08             	add    $0x8,%eax
    9864:	4c 8b 0c 37          	mov    (%rdi,%rsi,1),%r9
    9868:	4d 89 4c 35 00       	mov    %r9,0x0(%r13,%rsi,1)
    986d:	44 39 c0             	cmp    %r8d,%eax
    9870:	72 ed                	jb     985f <_Z12writeVTKFileiPPPPeiiieee+0xc5f>
    9872:	4d 8d 44 05 00       	lea    0x0(%r13,%rax,1),%r8
    9877:	4c 89 95 70 fc ff ff 	mov    %r10,-0x390(%rbp)
    987e:	48 01 f8             	add    %rdi,%rax
    9881:	e9 72 ff ff ff       	jmp    97f8 <_Z12writeVTKFileiPPPPeiiieee+0xbf8>
    9886:	41 89 d0             	mov    %edx,%r8d
    9889:	4c 8b 9d 70 fc ff ff 	mov    -0x390(%rbp),%r11
    9890:	31 c0                	xor    %eax,%eax
    9892:	41 83 e0 f8          	and    $0xfffffff8,%r8d
    9896:	89 c6                	mov    %eax,%esi
    9898:	83 c0 08             	add    $0x8,%eax
    989b:	4c 8b 0c 37          	mov    (%rdi,%rsi,1),%r9
    989f:	4d 89 0c 36          	mov    %r9,(%r14,%rsi,1)
    98a3:	44 39 c0             	cmp    %r8d,%eax
    98a6:	72 ee                	jb     9896 <_Z12writeVTKFileiPPPPeiiieee+0xc96>
    98a8:	4d 8d 04 06          	lea    (%r14,%rax,1),%r8
    98ac:	4c 89 9d 70 fc ff ff 	mov    %r11,-0x390(%rbp)
    98b3:	48 01 f8             	add    %rdi,%rax
    98b6:	e9 d2 fe ff ff       	jmp    978d <_Z12writeVTKFileiPPPPeiiieee+0xb8d>
    98bb:	41 b8 05 00 00 00    	mov    $0x5,%r8d
    98c1:	e9 d8 f4 ff ff       	jmp    8d9e <_Z12writeVTKFileiPPPPeiiieee+0x19e>
    98c6:	48 8d 9d 90 fc ff ff 	lea    -0x370(%rbp),%rbx
    98cd:	48 8d 8d a0 fc ff ff 	lea    -0x360(%rbp),%rcx
    98d4:	8d 72 01             	lea    0x1(%rdx),%esi
    98d7:	48 89 df             	mov    %rbx,%rdi
    98da:	ba 2d 00 00 00       	mov    $0x2d,%edx
    98df:	48 89 8d 70 fc ff ff 	mov    %rcx,-0x390(%rbp)
    98e6:	48 89 8d 90 fc ff ff 	mov    %rcx,-0x370(%rbp)
    98ed:	e8 be 8b ff ff       	call   24b0 <_ZNSt7__cxx1112basic_stringIcSt11char_traitsIcESaIcEE12_M_constructEmc@plt>
    98f2:	48 8b 95 90 fc ff ff 	mov    -0x370(%rbp),%rdx
    98f9:	4c 01 ea             	add    %r13,%rdx
    98fc:	e9 0d f6 ff ff       	jmp    8f0e <_Z12writeVTKFileiPPPPeiiieee+0x30e>
    9901:	41 b8 02 00 00 00    	mov    $0x2,%r8d
    9907:	ba 03 00 00 00       	mov    $0x3,%edx
    990c:	41 89 ce             	mov    %ecx,%r14d
    990f:	e9 aa fc ff ff       	jmp    95be <_Z12writeVTKFileiPPPPeiiieee+0x9be>
    9914:	41 b8 03 00 00 00    	mov    $0x3,%r8d
    991a:	ba 04 00 00 00       	mov    $0x4,%edx
    991f:	41 89 ce             	mov    %ecx,%r14d
    9922:	e9 97 fc ff ff       	jmp    95be <_Z12writeVTKFileiPPPPeiiieee+0x9be>
    9927:	e8 44 8b ff ff       	call   2470 <__stack_chk_fail@plt>
    992c:	48 8b 45 c8          	mov    -0x38(%rbp),%rax
    9930:	64 48 2b 04 25 28 00 	sub    %fs:0x28,%rax
    9937:	00 00 
    9939:	75 13                	jne    994e <_Z12writeVTKFileiPPPPeiiieee+0xd4e>
    993b:	48 8d 3d 7b 0a 00 00 	lea    0xa7b(%rip),%rdi        # a3bd <_IO_stdin_used+0x3bd>
    9942:	4c 8d bd b0 fc ff ff 	lea    -0x350(%rbp),%r15
    9949:	e8 42 8a ff ff       	call   2390 <_ZSt20__throw_length_errorPKc@plt>
    994e:	e8 1d 8b ff ff       	call   2470 <__stack_chk_fail@plt>
    9953:	f3 0f 1e fa          	endbr64
    9957:	49 89 c6             	mov    %rax,%r14
    995a:	e9 c2 8c ff ff       	jmp    2621 <_Z12writeVTKFileiPPPPeiiieee.cold>
    995f:	f3 0f 1e fa          	endbr64
    9963:	48 89 c3             	mov    %rax,%rbx
    9966:	e9 d8 8c ff ff       	jmp    2643 <_Z12writeVTKFileiPPPPeiiieee.cold+0x22>
    996b:	f3 0f 1e fa          	endbr64
    996f:	48 89 c3             	mov    %rax,%rbx
    9972:	e9 f4 8c ff ff       	jmp    266b <_Z12writeVTKFileiPPPPeiiieee.cold+0x4a>
    9977:	f3 0f 1e fa          	endbr64
    997b:	48 89 c3             	mov    %rax,%rbx
    997e:	e9 f4 8c ff ff       	jmp    2677 <_Z12writeVTKFileiPPPPeiiieee.cold+0x56>
    9983:	f3 0f 1e fa          	endbr64
    9987:	48 89 c3             	mov    %rax,%rbx
    998a:	e9 09 8d ff ff       	jmp    2698 <_Z12writeVTKFileiPPPPeiiieee.cold+0x77>
    998f:	f3 0f 1e fa          	endbr64
    9993:	48 89 c7             	mov    %rax,%rdi
    9996:	e9 2e 8d ff ff       	jmp    26c9 <_Z12writeVTKFileiPPPPeiiieee.cold+0xa8>
    999b:	f3 0f 1e fa          	endbr64
    999f:	49 89 c6             	mov    %rax,%r14
    99a2:	e9 86 8c ff ff       	jmp    262d <_Z12writeVTKFileiPPPPeiiieee.cold+0xc>
    99a7:	f3 0f 1e fa          	endbr64
    99ab:	49 89 c7             	mov    %rax,%r15
    99ae:	e9 85 8c ff ff       	jmp    2638 <_Z12writeVTKFileiPPPPeiiieee.cold+0x17>

Disassembly of section .fini:

00000000000099b4 <_fini>:
    99b4:	f3 0f 1e fa          	endbr64
    99b8:	48 83 ec 08          	sub    $0x8,%rsp
    99bc:	48 83 c4 08          	add    $0x8,%rsp
    99c0:	c3                   	ret
