
test4dalloc:     file format elf64-x86-64


Disassembly of section .init:

0000000000001000 <_init>:
    1000:	f3 0f 1e fa          	endbr64 
    1004:	48 83 ec 08          	sub    $0x8,%rsp
    1008:	48 8b 05 d9 4f 00 00 	mov    0x4fd9(%rip),%rax        # 5fe8 <__gmon_start__@Base>
    100f:	48 85 c0             	test   %rax,%rax
    1012:	74 02                	je     1016 <_init+0x16>
    1014:	ff d0                	call   *%rax
    1016:	48 83 c4 08          	add    $0x8,%rsp
    101a:	c3                   	ret    

Disassembly of section .plt:

0000000000001020 <.plt>:
    1020:	ff 35 fa 4e 00 00    	push   0x4efa(%rip)        # 5f20 <_GLOBAL_OFFSET_TABLE_+0x8>
    1026:	f2 ff 25 fb 4e 00 00 	bnd jmp *0x4efb(%rip)        # 5f28 <_GLOBAL_OFFSET_TABLE_+0x10>
    102d:	0f 1f 00             	nopl   (%rax)
    1030:	f3 0f 1e fa          	endbr64 
    1034:	68 00 00 00 00       	push   $0x0
    1039:	f2 e9 e1 ff ff ff    	bnd jmp 1020 <_init+0x20>
    103f:	90                   	nop
    1040:	f3 0f 1e fa          	endbr64 
    1044:	68 01 00 00 00       	push   $0x1
    1049:	f2 e9 d1 ff ff ff    	bnd jmp 1020 <_init+0x20>
    104f:	90                   	nop
    1050:	f3 0f 1e fa          	endbr64 
    1054:	68 02 00 00 00       	push   $0x2
    1059:	f2 e9 c1 ff ff ff    	bnd jmp 1020 <_init+0x20>
    105f:	90                   	nop
    1060:	f3 0f 1e fa          	endbr64 
    1064:	68 03 00 00 00       	push   $0x3
    1069:	f2 e9 b1 ff ff ff    	bnd jmp 1020 <_init+0x20>
    106f:	90                   	nop
    1070:	f3 0f 1e fa          	endbr64 
    1074:	68 04 00 00 00       	push   $0x4
    1079:	f2 e9 a1 ff ff ff    	bnd jmp 1020 <_init+0x20>
    107f:	90                   	nop
    1080:	f3 0f 1e fa          	endbr64 
    1084:	68 05 00 00 00       	push   $0x5
    1089:	f2 e9 91 ff ff ff    	bnd jmp 1020 <_init+0x20>
    108f:	90                   	nop
    1090:	f3 0f 1e fa          	endbr64 
    1094:	68 06 00 00 00       	push   $0x6
    1099:	f2 e9 81 ff ff ff    	bnd jmp 1020 <_init+0x20>
    109f:	90                   	nop
    10a0:	f3 0f 1e fa          	endbr64 
    10a4:	68 07 00 00 00       	push   $0x7
    10a9:	f2 e9 71 ff ff ff    	bnd jmp 1020 <_init+0x20>
    10af:	90                   	nop
    10b0:	f3 0f 1e fa          	endbr64 
    10b4:	68 08 00 00 00       	push   $0x8
    10b9:	f2 e9 61 ff ff ff    	bnd jmp 1020 <_init+0x20>
    10bf:	90                   	nop
    10c0:	f3 0f 1e fa          	endbr64 
    10c4:	68 09 00 00 00       	push   $0x9
    10c9:	f2 e9 51 ff ff ff    	bnd jmp 1020 <_init+0x20>
    10cf:	90                   	nop
    10d0:	f3 0f 1e fa          	endbr64 
    10d4:	68 0a 00 00 00       	push   $0xa
    10d9:	f2 e9 41 ff ff ff    	bnd jmp 1020 <_init+0x20>
    10df:	90                   	nop
    10e0:	f3 0f 1e fa          	endbr64 
    10e4:	68 0b 00 00 00       	push   $0xb
    10e9:	f2 e9 31 ff ff ff    	bnd jmp 1020 <_init+0x20>
    10ef:	90                   	nop
    10f0:	f3 0f 1e fa          	endbr64 
    10f4:	68 0c 00 00 00       	push   $0xc
    10f9:	f2 e9 21 ff ff ff    	bnd jmp 1020 <_init+0x20>
    10ff:	90                   	nop
    1100:	f3 0f 1e fa          	endbr64 
    1104:	68 0d 00 00 00       	push   $0xd
    1109:	f2 e9 11 ff ff ff    	bnd jmp 1020 <_init+0x20>
    110f:	90                   	nop
    1110:	f3 0f 1e fa          	endbr64 
    1114:	68 0e 00 00 00       	push   $0xe
    1119:	f2 e9 01 ff ff ff    	bnd jmp 1020 <_init+0x20>
    111f:	90                   	nop
    1120:	f3 0f 1e fa          	endbr64 
    1124:	68 0f 00 00 00       	push   $0xf
    1129:	f2 e9 f1 fe ff ff    	bnd jmp 1020 <_init+0x20>
    112f:	90                   	nop
    1130:	f3 0f 1e fa          	endbr64 
    1134:	68 10 00 00 00       	push   $0x10
    1139:	f2 e9 e1 fe ff ff    	bnd jmp 1020 <_init+0x20>
    113f:	90                   	nop
    1140:	f3 0f 1e fa          	endbr64 
    1144:	68 11 00 00 00       	push   $0x11
    1149:	f2 e9 d1 fe ff ff    	bnd jmp 1020 <_init+0x20>
    114f:	90                   	nop
    1150:	f3 0f 1e fa          	endbr64 
    1154:	68 12 00 00 00       	push   $0x12
    1159:	f2 e9 c1 fe ff ff    	bnd jmp 1020 <_init+0x20>
    115f:	90                   	nop
    1160:	f3 0f 1e fa          	endbr64 
    1164:	68 13 00 00 00       	push   $0x13
    1169:	f2 e9 b1 fe ff ff    	bnd jmp 1020 <_init+0x20>
    116f:	90                   	nop

Disassembly of section .plt.got:

0000000000001170 <__cxa_finalize@plt>:
    1170:	f3 0f 1e fa          	endbr64 
    1174:	f2 ff 25 55 4e 00 00 	bnd jmp *0x4e55(%rip)        # 5fd0 <__cxa_finalize@GLIBC_2.2.5>
    117b:	0f 1f 44 00 00       	nopl   0x0(%rax,%rax,1)

Disassembly of section .plt.sec:

0000000000001180 <__printf_chk@plt>:
    1180:	f3 0f 1e fa          	endbr64 
    1184:	f2 ff 25 a5 4d 00 00 	bnd jmp *0x4da5(%rip)        # 5f30 <__printf_chk@GLIBC_2.3.4>
    118b:	0f 1f 44 00 00       	nopl   0x0(%rax,%rax,1)

0000000000001190 <_Znam@plt>:
    1190:	f3 0f 1e fa          	endbr64 
    1194:	f2 ff 25 9d 4d 00 00 	bnd jmp *0x4d9d(%rip)        # 5f38 <_Znam@GLIBCXX_3.4>
    119b:	0f 1f 44 00 00       	nopl   0x0(%rax,%rax,1)

00000000000011a0 <_ZNSo3putEc@plt>:
    11a0:	f3 0f 1e fa          	endbr64 
    11a4:	f2 ff 25 95 4d 00 00 	bnd jmp *0x4d95(%rip)        # 5f40 <_ZNSo3putEc@GLIBCXX_3.4>
    11ab:	0f 1f 44 00 00       	nopl   0x0(%rax,%rax,1)

00000000000011b0 <sysconf@plt>:
    11b0:	f3 0f 1e fa          	endbr64 
    11b4:	f2 ff 25 8d 4d 00 00 	bnd jmp *0x4d8d(%rip)        # 5f48 <sysconf@GLIBC_2.2.5>
    11bb:	0f 1f 44 00 00       	nopl   0x0(%rax,%rax,1)

00000000000011c0 <_ZNSo9_M_insertImEERSoT_@plt>:
    11c0:	f3 0f 1e fa          	endbr64 
    11c4:	f2 ff 25 85 4d 00 00 	bnd jmp *0x4d85(%rip)        # 5f50 <_ZNSo9_M_insertImEERSoT_@GLIBCXX_3.4.9>
    11cb:	0f 1f 44 00 00       	nopl   0x0(%rax,%rax,1)

00000000000011d0 <_ZNSo5flushEv@plt>:
    11d0:	f3 0f 1e fa          	endbr64 
    11d4:	f2 ff 25 7d 4d 00 00 	bnd jmp *0x4d7d(%rip)        # 5f58 <_ZNSo5flushEv@GLIBCXX_3.4>
    11db:	0f 1f 44 00 00       	nopl   0x0(%rax,%rax,1)

00000000000011e0 <perror@plt>:
    11e0:	f3 0f 1e fa          	endbr64 
    11e4:	f2 ff 25 75 4d 00 00 	bnd jmp *0x4d75(%rip)        # 5f60 <perror@GLIBC_2.2.5>
    11eb:	0f 1f 44 00 00       	nopl   0x0(%rax,%rax,1)

00000000000011f0 <__cxa_atexit@plt>:
    11f0:	f3 0f 1e fa          	endbr64 
    11f4:	f2 ff 25 6d 4d 00 00 	bnd jmp *0x4d6d(%rip)        # 5f68 <__cxa_atexit@GLIBC_2.2.5>
    11fb:	0f 1f 44 00 00       	nopl   0x0(%rax,%rax,1)

0000000000001200 <fclose@plt>:
    1200:	f3 0f 1e fa          	endbr64 
    1204:	f2 ff 25 65 4d 00 00 	bnd jmp *0x4d65(%rip)        # 5f70 <fclose@GLIBC_2.2.5>
    120b:	0f 1f 44 00 00       	nopl   0x0(%rax,%rax,1)

0000000000001210 <__stack_chk_fail@plt>:
    1210:	f3 0f 1e fa          	endbr64 
    1214:	f2 ff 25 5d 4d 00 00 	bnd jmp *0x4d5d(%rip)        # 5f78 <__stack_chk_fail@GLIBC_2.4>
    121b:	0f 1f 44 00 00       	nopl   0x0(%rax,%rax,1)

0000000000001220 <_ZSt16__ostream_insertIcSt11char_traitsIcEERSt13basic_ostreamIT_T0_ES6_PKS3_l@plt>:
    1220:	f3 0f 1e fa          	endbr64 
    1224:	f2 ff 25 55 4d 00 00 	bnd jmp *0x4d55(%rip)        # 5f80 <_ZSt16__ostream_insertIcSt11char_traitsIcEERSt13basic_ostreamIT_T0_ES6_PKS3_l@GLIBCXX_3.4.9>
    122b:	0f 1f 44 00 00       	nopl   0x0(%rax,%rax,1)

0000000000001230 <_ZNKSt5ctypeIcE13_M_widen_initEv@plt>:
    1230:	f3 0f 1e fa          	endbr64 
    1234:	f2 ff 25 4d 4d 00 00 	bnd jmp *0x4d4d(%rip)        # 5f88 <_ZNKSt5ctypeIcE13_M_widen_initEv@GLIBCXX_3.4.11>
    123b:	0f 1f 44 00 00       	nopl   0x0(%rax,%rax,1)

0000000000001240 <fopen@plt>:
    1240:	f3 0f 1e fa          	endbr64 
    1244:	f2 ff 25 45 4d 00 00 	bnd jmp *0x4d45(%rip)        # 5f90 <fopen@GLIBC_2.2.5>
    124b:	0f 1f 44 00 00       	nopl   0x0(%rax,%rax,1)

0000000000001250 <exit@plt>:
    1250:	f3 0f 1e fa          	endbr64 
    1254:	f2 ff 25 3d 4d 00 00 	bnd jmp *0x4d3d(%rip)        # 5f98 <exit@GLIBC_2.2.5>
    125b:	0f 1f 44 00 00       	nopl   0x0(%rax,%rax,1)

0000000000001260 <_ZSt16__throw_bad_castv@plt>:
    1260:	f3 0f 1e fa          	endbr64 
    1264:	f2 ff 25 35 4d 00 00 	bnd jmp *0x4d35(%rip)        # 5fa0 <_ZSt16__throw_bad_castv@GLIBCXX_3.4>
    126b:	0f 1f 44 00 00       	nopl   0x0(%rax,%rax,1)

0000000000001270 <__cxa_throw_bad_array_new_length@plt>:
    1270:	f3 0f 1e fa          	endbr64 
    1274:	f2 ff 25 2d 4d 00 00 	bnd jmp *0x4d2d(%rip)        # 5fa8 <__cxa_throw_bad_array_new_length@CXXABI_1.3.8>
    127b:	0f 1f 44 00 00       	nopl   0x0(%rax,%rax,1)

0000000000001280 <_ZNSt8ios_base4InitC1Ev@plt>:
    1280:	f3 0f 1e fa          	endbr64 
    1284:	f2 ff 25 25 4d 00 00 	bnd jmp *0x4d25(%rip)        # 5fb0 <_ZNSt8ios_base4InitC1Ev@GLIBCXX_3.4>
    128b:	0f 1f 44 00 00       	nopl   0x0(%rax,%rax,1)

0000000000001290 <_ZNSo9_M_insertIdEERSoT_@plt>:
    1290:	f3 0f 1e fa          	endbr64 
    1294:	f2 ff 25 1d 4d 00 00 	bnd jmp *0x4d1d(%rip)        # 5fb8 <_ZNSo9_M_insertIdEERSoT_@GLIBCXX_3.4.9>
    129b:	0f 1f 44 00 00       	nopl   0x0(%rax,%rax,1)

00000000000012a0 <_ZNSolsEi@plt>:
    12a0:	f3 0f 1e fa          	endbr64 
    12a4:	f2 ff 25 15 4d 00 00 	bnd jmp *0x4d15(%rip)        # 5fc0 <_ZNSolsEi@GLIBCXX_3.4>
    12ab:	0f 1f 44 00 00       	nopl   0x0(%rax,%rax,1)

00000000000012b0 <__isoc99_fscanf@plt>:
    12b0:	f3 0f 1e fa          	endbr64 
    12b4:	f2 ff 25 0d 4d 00 00 	bnd jmp *0x4d0d(%rip)        # 5fc8 <__isoc99_fscanf@GLIBC_2.7>
    12bb:	0f 1f 44 00 00       	nopl   0x0(%rax,%rax,1)

Disassembly of section .text:

00000000000012c0 <_Z10allocate3djjj.cold>:
    12c0:	e8 ab ff ff ff       	call   1270 <__cxa_throw_bad_array_new_length@plt>

00000000000012c5 <_Z11allocate3dtjjj.cold>:
    12c5:	e8 a6 ff ff ff       	call   1270 <__cxa_throw_bad_array_new_length@plt>
    12ca:	66 0f 1f 44 00 00    	nopw   0x0(%rax,%rax,1)

00000000000012d0 <main>:
    12d0:	f3 0f 1e fa          	endbr64 
    12d4:	55                   	push   %rbp
    12d5:	b9 0a 00 00 00       	mov    $0xa,%ecx
    12da:	ba 0a 00 00 00       	mov    $0xa,%edx
    12df:	be 0a 00 00 00       	mov    $0xa,%esi
    12e4:	53                   	push   %rbx
    12e5:	bf 03 00 00 00       	mov    $0x3,%edi
    12ea:	48 8d 2d 4f 4d 00 00 	lea    0x4d4f(%rip),%rbp        # 6040 <_ZSt4cout@GLIBCXX_3.4>
    12f1:	48 83 ec 08          	sub    $0x8,%rsp
    12f5:	e8 b6 07 00 00       	call   1ab0 <_Z10allocate4djjjj>
    12fa:	48 89 ef             	mov    %rbp,%rdi
    12fd:	48 89 c3             	mov    %rax,%rbx
    1300:	48 8b 40 10          	mov    0x10(%rax),%rax
    1304:	48 8b 40 18          	mov    0x18(%rax),%rax
    1308:	48 8b 40 20          	mov    0x20(%rax),%rax
    130c:	f2 0f 10 40 28       	movsd  0x28(%rax),%xmm0
    1311:	e8 7a ff ff ff       	call   1290 <_ZNSo9_M_insertIdEERSoT_@plt>
    1316:	48 89 c7             	mov    %rax,%rdi
    1319:	e8 b2 01 00 00       	call   14d0 <_ZSt4endlIcSt11char_traitsIcEERSt13basic_ostreamIT_T0_ES6_.isra.0>
    131e:	48 8b 43 10          	mov    0x10(%rbx),%rax
    1322:	f2 0f 10 05 de 2c 00 	movsd  0x2cde(%rip),%xmm0        # 4008 <_IO_stdin_used+0x8>
    1329:	00 
    132a:	48 89 ef             	mov    %rbp,%rdi
    132d:	48 8b 40 18          	mov    0x18(%rax),%rax
    1331:	48 8b 40 20          	mov    0x20(%rax),%rax
    1335:	f2 0f 11 40 28       	movsd  %xmm0,0x28(%rax)
    133a:	e8 51 ff ff ff       	call   1290 <_ZNSo9_M_insertIdEERSoT_@plt>
    133f:	48 89 c7             	mov    %rax,%rdi
    1342:	e8 89 01 00 00       	call   14d0 <_ZSt4endlIcSt11char_traitsIcEERSt13basic_ostreamIT_T0_ES6_.isra.0>
    1347:	48 83 c4 08          	add    $0x8,%rsp
    134b:	31 c0                	xor    %eax,%eax
    134d:	5b                   	pop    %rbx
    134e:	5d                   	pop    %rbp
    134f:	c3                   	ret    

0000000000001350 <_GLOBAL__sub_I_main>:
    1350:	f3 0f 1e fa          	endbr64 
    1354:	55                   	push   %rbp
    1355:	48 8d 2d f5 4d 00 00 	lea    0x4df5(%rip),%rbp        # 6151 <_ZStL8__ioinit>
    135c:	48 89 ef             	mov    %rbp,%rdi
    135f:	e8 1c ff ff ff       	call   1280 <_ZNSt8ios_base4InitC1Ev@plt>
    1364:	48 8b 3d 8d 4c 00 00 	mov    0x4c8d(%rip),%rdi        # 5ff8 <_ZNSt8ios_base4InitD1Ev@GLIBCXX_3.4>
    136b:	48 89 ee             	mov    %rbp,%rsi
    136e:	5d                   	pop    %rbp
    136f:	48 8d 15 92 4c 00 00 	lea    0x4c92(%rip),%rdx        # 6008 <__dso_handle>
    1376:	e9 75 fe ff ff       	jmp    11f0 <__cxa_atexit@plt>
    137b:	0f 1f 44 00 00       	nopl   0x0(%rax,%rax,1)

0000000000001380 <_GLOBAL__sub_I__Z16print_rss_memoryRKNSt7__cxx1112basic_stringIcSt11char_traitsIcESaIcEEE>:
    1380:	f3 0f 1e fa          	endbr64 
    1384:	55                   	push   %rbp
    1385:	48 8d 2d c6 4d 00 00 	lea    0x4dc6(%rip),%rbp        # 6152 <_ZStL8__ioinit>
    138c:	48 89 ef             	mov    %rbp,%rdi
    138f:	e8 ec fe ff ff       	call   1280 <_ZNSt8ios_base4InitC1Ev@plt>
    1394:	48 8b 3d 5d 4c 00 00 	mov    0x4c5d(%rip),%rdi        # 5ff8 <_ZNSt8ios_base4InitD1Ev@GLIBCXX_3.4>
    139b:	48 89 ee             	mov    %rbp,%rsi
    139e:	5d                   	pop    %rbp
    139f:	48 8d 15 62 4c 00 00 	lea    0x4c62(%rip),%rdx        # 6008 <__dso_handle>
    13a6:	e9 45 fe ff ff       	jmp    11f0 <__cxa_atexit@plt>
    13ab:	0f 1f 44 00 00       	nopl   0x0(%rax,%rax,1)

00000000000013b0 <_GLOBAL__sub_I__Z5shearddd>:
    13b0:	f3 0f 1e fa          	endbr64 
    13b4:	55                   	push   %rbp
    13b5:	48 8d 2d 97 4d 00 00 	lea    0x4d97(%rip),%rbp        # 6153 <_ZStL8__ioinit>
    13bc:	48 89 ef             	mov    %rbp,%rdi
    13bf:	e8 bc fe ff ff       	call   1280 <_ZNSt8ios_base4InitC1Ev@plt>
    13c4:	48 8b 3d 2d 4c 00 00 	mov    0x4c2d(%rip),%rdi        # 5ff8 <_ZNSt8ios_base4InitD1Ev@GLIBCXX_3.4>
    13cb:	48 89 ee             	mov    %rbp,%rsi
    13ce:	5d                   	pop    %rbp
    13cf:	48 8d 15 32 4c 00 00 	lea    0x4c32(%rip),%rdx        # 6008 <__dso_handle>
    13d6:	e9 15 fe ff ff       	jmp    11f0 <__cxa_atexit@plt>
    13db:	0f 1f 44 00 00       	nopl   0x0(%rax,%rax,1)

00000000000013e0 <_start>:
    13e0:	f3 0f 1e fa          	endbr64 
    13e4:	31 ed                	xor    %ebp,%ebp
    13e6:	49 89 d1             	mov    %rdx,%r9
    13e9:	5e                   	pop    %rsi
    13ea:	48 89 e2             	mov    %rsp,%rdx
    13ed:	48 83 e4 f0          	and    $0xfffffffffffffff0,%rsp
    13f1:	50                   	push   %rax
    13f2:	54                   	push   %rsp
    13f3:	45 31 c0             	xor    %r8d,%r8d
    13f6:	31 c9                	xor    %ecx,%ecx
    13f8:	48 8d 3d d1 fe ff ff 	lea    -0x12f(%rip),%rdi        # 12d0 <main>
    13ff:	ff 15 d3 4b 00 00    	call   *0x4bd3(%rip)        # 5fd8 <__libc_start_main@GLIBC_2.34>
    1405:	f4                   	hlt    
    1406:	66 2e 0f 1f 84 00 00 	cs nopw 0x0(%rax,%rax,1)
    140d:	00 00 00 

0000000000001410 <deregister_tm_clones>:
    1410:	48 8d 3d f9 4b 00 00 	lea    0x4bf9(%rip),%rdi        # 6010 <__TMC_END__>
    1417:	48 8d 05 f2 4b 00 00 	lea    0x4bf2(%rip),%rax        # 6010 <__TMC_END__>
    141e:	48 39 f8             	cmp    %rdi,%rax
    1421:	74 15                	je     1438 <deregister_tm_clones+0x28>
    1423:	48 8b 05 b6 4b 00 00 	mov    0x4bb6(%rip),%rax        # 5fe0 <_ITM_deregisterTMCloneTable@Base>
    142a:	48 85 c0             	test   %rax,%rax
    142d:	74 09                	je     1438 <deregister_tm_clones+0x28>
    142f:	ff e0                	jmp    *%rax
    1431:	0f 1f 80 00 00 00 00 	nopl   0x0(%rax)
    1438:	c3                   	ret    
    1439:	0f 1f 80 00 00 00 00 	nopl   0x0(%rax)

0000000000001440 <register_tm_clones>:
    1440:	48 8d 3d c9 4b 00 00 	lea    0x4bc9(%rip),%rdi        # 6010 <__TMC_END__>
    1447:	48 8d 35 c2 4b 00 00 	lea    0x4bc2(%rip),%rsi        # 6010 <__TMC_END__>
    144e:	48 29 fe             	sub    %rdi,%rsi
    1451:	48 89 f0             	mov    %rsi,%rax
    1454:	48 c1 ee 3f          	shr    $0x3f,%rsi
    1458:	48 c1 f8 03          	sar    $0x3,%rax
    145c:	48 01 c6             	add    %rax,%rsi
    145f:	48 d1 fe             	sar    %rsi
    1462:	74 14                	je     1478 <register_tm_clones+0x38>
    1464:	48 8b 05 85 4b 00 00 	mov    0x4b85(%rip),%rax        # 5ff0 <_ITM_registerTMCloneTable@Base>
    146b:	48 85 c0             	test   %rax,%rax
    146e:	74 08                	je     1478 <register_tm_clones+0x38>
    1470:	ff e0                	jmp    *%rax
    1472:	66 0f 1f 44 00 00    	nopw   0x0(%rax,%rax,1)
    1478:	c3                   	ret    
    1479:	0f 1f 80 00 00 00 00 	nopl   0x0(%rax)

0000000000001480 <__do_global_dtors_aux>:
    1480:	f3 0f 1e fa          	endbr64 
    1484:	80 3d c5 4c 00 00 00 	cmpb   $0x0,0x4cc5(%rip)        # 6150 <completed.0>
    148b:	75 2b                	jne    14b8 <__do_global_dtors_aux+0x38>
    148d:	55                   	push   %rbp
    148e:	48 83 3d 3a 4b 00 00 	cmpq   $0x0,0x4b3a(%rip)        # 5fd0 <__cxa_finalize@GLIBC_2.2.5>
    1495:	00 
    1496:	48 89 e5             	mov    %rsp,%rbp
    1499:	74 0c                	je     14a7 <__do_global_dtors_aux+0x27>
    149b:	48 8b 3d 66 4b 00 00 	mov    0x4b66(%rip),%rdi        # 6008 <__dso_handle>
    14a2:	e8 c9 fc ff ff       	call   1170 <__cxa_finalize@plt>
    14a7:	e8 64 ff ff ff       	call   1410 <deregister_tm_clones>
    14ac:	c6 05 9d 4c 00 00 01 	movb   $0x1,0x4c9d(%rip)        # 6150 <completed.0>
    14b3:	5d                   	pop    %rbp
    14b4:	c3                   	ret    
    14b5:	0f 1f 00             	nopl   (%rax)
    14b8:	c3                   	ret    
    14b9:	0f 1f 80 00 00 00 00 	nopl   0x0(%rax)

00000000000014c0 <frame_dummy>:
    14c0:	f3 0f 1e fa          	endbr64 
    14c4:	e9 77 ff ff ff       	jmp    1440 <register_tm_clones>
    14c9:	0f 1f 80 00 00 00 00 	nopl   0x0(%rax)

00000000000014d0 <_ZSt4endlIcSt11char_traitsIcEERSt13basic_ostreamIT_T0_ES6_.isra.0>:
    14d0:	41 54                	push   %r12
    14d2:	55                   	push   %rbp
    14d3:	48 83 ec 08          	sub    $0x8,%rsp
    14d7:	48 8b 07             	mov    (%rdi),%rax
    14da:	48 8b 40 e8          	mov    -0x18(%rax),%rax
    14de:	4c 8b a4 07 f0 00 00 	mov    0xf0(%rdi,%rax,1),%r12
    14e5:	00 
    14e6:	4d 85 e4             	test   %r12,%r12
    14e9:	74 44                	je     152f <_ZSt4endlIcSt11char_traitsIcEERSt13basic_ostreamIT_T0_ES6_.isra.0+0x5f>
    14eb:	41 80 7c 24 38 00    	cmpb   $0x0,0x38(%r12)
    14f1:	48 89 fd             	mov    %rdi,%rbp
    14f4:	74 1d                	je     1513 <_ZSt4endlIcSt11char_traitsIcEERSt13basic_ostreamIT_T0_ES6_.isra.0+0x43>
    14f6:	41 0f be 74 24 43    	movsbl 0x43(%r12),%esi
    14fc:	48 89 ef             	mov    %rbp,%rdi
    14ff:	e8 9c fc ff ff       	call   11a0 <_ZNSo3putEc@plt>
    1504:	48 83 c4 08          	add    $0x8,%rsp
    1508:	5d                   	pop    %rbp
    1509:	48 89 c7             	mov    %rax,%rdi
    150c:	41 5c                	pop    %r12
    150e:	e9 bd fc ff ff       	jmp    11d0 <_ZNSo5flushEv@plt>
    1513:	4c 89 e7             	mov    %r12,%rdi
    1516:	e8 15 fd ff ff       	call   1230 <_ZNKSt5ctypeIcE13_M_widen_initEv@plt>
    151b:	49 8b 04 24          	mov    (%r12),%rax
    151f:	be 0a 00 00 00       	mov    $0xa,%esi
    1524:	4c 89 e7             	mov    %r12,%rdi
    1527:	ff 50 30             	call   *0x30(%rax)
    152a:	0f be f0             	movsbl %al,%esi
    152d:	eb cd                	jmp    14fc <_ZSt4endlIcSt11char_traitsIcEERSt13basic_ostreamIT_T0_ES6_.isra.0+0x2c>
    152f:	e8 2c fd ff ff       	call   1260 <_ZSt16__throw_bad_castv@plt>
    1534:	66 2e 0f 1f 84 00 00 	cs nopw 0x0(%rax,%rax,1)
    153b:	00 00 00 
    153e:	66 90                	xchg   %ax,%ax

0000000000001540 <_Z16print_rss_memoryRKNSt7__cxx1112basic_stringIcSt11char_traitsIcESaIcEEE>:
    1540:	f3 0f 1e fa          	endbr64 
    1544:	55                   	push   %rbp
    1545:	48 83 ec 20          	sub    $0x20,%rsp
    1549:	48 8b 57 08          	mov    0x8(%rdi),%rdx
    154d:	48 8b 37             	mov    (%rdi),%rsi
    1550:	48 8d 3d e9 4a 00 00 	lea    0x4ae9(%rip),%rdi        # 6040 <_ZSt4cout@GLIBCXX_3.4>
    1557:	64 48 8b 04 25 28 00 	mov    %fs:0x28,%rax
    155e:	00 00 
    1560:	48 89 44 24 18       	mov    %rax,0x18(%rsp)
    1565:	31 c0                	xor    %eax,%eax
    1567:	e8 b4 fc ff ff       	call   1220 <_ZSt16__ostream_insertIcSt11char_traitsIcEERSt13basic_ostreamIT_T0_ES6_PKS3_l@plt>
    156c:	48 8d 35 9d 2a 00 00 	lea    0x2a9d(%rip),%rsi        # 4010 <_IO_stdin_used+0x10>
    1573:	ba 01 00 00 00       	mov    $0x1,%edx
    1578:	48 89 c7             	mov    %rax,%rdi
    157b:	e8 a0 fc ff ff       	call   1220 <_ZSt16__ostream_insertIcSt11char_traitsIcEERSt13basic_ostreamIT_T0_ES6_PKS3_l@plt>
    1580:	48 8d 35 8b 2a 00 00 	lea    0x2a8b(%rip),%rsi        # 4012 <_IO_stdin_used+0x12>
    1587:	48 8d 3d 86 2a 00 00 	lea    0x2a86(%rip),%rdi        # 4014 <_IO_stdin_used+0x14>
    158e:	e8 ad fc ff ff       	call   1240 <fopen@plt>
    1593:	48 85 c0             	test   %rax,%rax
    1596:	0f 84 a2 00 00 00    	je     163e <_Z16print_rss_memoryRKNSt7__cxx1112basic_stringIcSt11char_traitsIcESaIcEEE+0xfe>
    159c:	48 89 c5             	mov    %rax,%rbp
    159f:	48 8d 4c 24 10       	lea    0x10(%rsp),%rcx
    15a4:	48 8d 54 24 08       	lea    0x8(%rsp),%rdx
    15a9:	48 89 c7             	mov    %rax,%rdi
    15ac:	48 8d 35 8c 2a 00 00 	lea    0x2a8c(%rip),%rsi        # 403f <_IO_stdin_used+0x3f>
    15b3:	31 c0                	xor    %eax,%eax
    15b5:	e8 f6 fc ff ff       	call   12b0 <__isoc99_fscanf@plt>
    15ba:	83 f8 02             	cmp    $0x2,%eax
    15bd:	75 51                	jne    1610 <_Z16print_rss_memoryRKNSt7__cxx1112basic_stringIcSt11char_traitsIcESaIcEEE+0xd0>
    15bf:	48 89 ef             	mov    %rbp,%rdi
    15c2:	e8 39 fc ff ff       	call   1200 <fclose@plt>
    15c7:	bf 1e 00 00 00       	mov    $0x1e,%edi
    15cc:	e8 df fb ff ff       	call   11b0 <sysconf@plt>
    15d1:	48 83 f8 ff          	cmp    $0xffffffffffffffff,%rax
    15d5:	74 59                	je     1630 <_Z16print_rss_memoryRKNSt7__cxx1112basic_stringIcSt11char_traitsIcESaIcEEE+0xf0>
    15d7:	48 0f af 44 24 10    	imul   0x10(%rsp),%rax
    15dd:	48 8d 35 9c 2a 00 00 	lea    0x2a9c(%rip),%rsi        # 4080 <_IO_stdin_used+0x80>
    15e4:	bf 01 00 00 00       	mov    $0x1,%edi
    15e9:	48 89 c2             	mov    %rax,%rdx
    15ec:	31 c0                	xor    %eax,%eax
    15ee:	e8 8d fb ff ff       	call   1180 <__printf_chk@plt>
    15f3:	48 8b 44 24 18       	mov    0x18(%rsp),%rax
    15f8:	64 48 2b 04 25 28 00 	sub    %fs:0x28,%rax
    15ff:	00 00 
    1601:	75 5c                	jne    165f <_Z16print_rss_memoryRKNSt7__cxx1112basic_stringIcSt11char_traitsIcESaIcEEE+0x11f>
    1603:	48 83 c4 20          	add    $0x20,%rsp
    1607:	5d                   	pop    %rbp
    1608:	c3                   	ret    
    1609:	0f 1f 80 00 00 00 00 	nopl   0x0(%rax)
    1610:	48 8d 3d 30 2a 00 00 	lea    0x2a30(%rip),%rdi        # 4047 <_IO_stdin_used+0x47>
    1617:	e8 c4 fb ff ff       	call   11e0 <perror@plt>
    161c:	48 89 ef             	mov    %rbp,%rdi
    161f:	e8 dc fb ff ff       	call   1200 <fclose@plt>
    1624:	eb cd                	jmp    15f3 <_Z16print_rss_memoryRKNSt7__cxx1112basic_stringIcSt11char_traitsIcESaIcEEE+0xb3>
    1626:	66 2e 0f 1f 84 00 00 	cs nopw 0x0(%rax,%rax,1)
    162d:	00 00 00 
    1630:	48 8d 3d 2a 2a 00 00 	lea    0x2a2a(%rip),%rdi        # 4061 <_IO_stdin_used+0x61>
    1637:	e8 a4 fb ff ff       	call   11e0 <perror@plt>
    163c:	eb b5                	jmp    15f3 <_Z16print_rss_memoryRKNSt7__cxx1112basic_stringIcSt11char_traitsIcESaIcEEE+0xb3>
    163e:	48 8b 44 24 18       	mov    0x18(%rsp),%rax
    1643:	64 48 2b 04 25 28 00 	sub    %fs:0x28,%rax
    164a:	00 00 
    164c:	75 11                	jne    165f <_Z16print_rss_memoryRKNSt7__cxx1112basic_stringIcSt11char_traitsIcESaIcEEE+0x11f>
    164e:	48 83 c4 20          	add    $0x20,%rsp
    1652:	48 8d 3d cc 29 00 00 	lea    0x29cc(%rip),%rdi        # 4025 <_IO_stdin_used+0x25>
    1659:	5d                   	pop    %rbp
    165a:	e9 81 fb ff ff       	jmp    11e0 <perror@plt>
    165f:	e8 ac fb ff ff       	call   1210 <__stack_chk_fail@plt>
    1664:	66 66 2e 0f 1f 84 00 	data16 cs nopw 0x0(%rax,%rax,1)
    166b:	00 00 00 00 
    166f:	90                   	nop

0000000000001670 <_Z10allocate2djjPPd>:
    1670:	f3 0f 1e fa          	endbr64 
    1674:	41 55                	push   %r13
    1676:	41 89 fd             	mov    %edi,%r13d
    1679:	41 54                	push   %r12
    167b:	55                   	push   %rbp
    167c:	89 f5                	mov    %esi,%ebp
    167e:	53                   	push   %rbx
    167f:	4c 89 eb             	mov    %r13,%rbx
    1682:	49 c1 e5 03          	shl    $0x3,%r13
    1686:	4c 89 ef             	mov    %r13,%rdi
    1689:	48 83 ec 08          	sub    $0x8,%rsp
    168d:	e8 fe fa ff ff       	call   1190 <_Znam@plt>
    1692:	49 89 c4             	mov    %rax,%r12
    1695:	85 db                	test   %ebx,%ebx
    1697:	74 24                	je     16bd <_Z10allocate2djjPPd+0x4d>
    1699:	48 c1 e5 03          	shl    $0x3,%rbp
    169d:	48 89 c3             	mov    %rax,%rbx
    16a0:	49 01 c5             	add    %rax,%r13
    16a3:	0f 1f 44 00 00       	nopl   0x0(%rax,%rax,1)
    16a8:	48 89 ef             	mov    %rbp,%rdi
    16ab:	48 83 c3 08          	add    $0x8,%rbx
    16af:	e8 dc fa ff ff       	call   1190 <_Znam@plt>
    16b4:	48 89 43 f8          	mov    %rax,-0x8(%rbx)
    16b8:	4c 39 eb             	cmp    %r13,%rbx
    16bb:	75 eb                	jne    16a8 <_Z10allocate2djjPPd+0x38>
    16bd:	48 83 c4 08          	add    $0x8,%rsp
    16c1:	4c 89 e0             	mov    %r12,%rax
    16c4:	5b                   	pop    %rbx
    16c5:	5d                   	pop    %rbp
    16c6:	41 5c                	pop    %r12
    16c8:	41 5d                	pop    %r13
    16ca:	c3                   	ret    
    16cb:	0f 1f 44 00 00       	nopl   0x0(%rax,%rax,1)

00000000000016d0 <_Z10allocate3djjj>:
    16d0:	f3 0f 1e fa          	endbr64 
    16d4:	41 57                	push   %r15
    16d6:	48 63 c7             	movslq %edi,%rax
    16d9:	4c 63 fe             	movslq %esi,%r15
    16dc:	41 56                	push   %r14
    16de:	49 be ff ff ff ff ff 	movabs $0xfffffffffffffff,%r14
    16e5:	ff ff 0f 
    16e8:	41 55                	push   %r13
    16ea:	41 54                	push   %r12
    16ec:	55                   	push   %rbp
    16ed:	53                   	push   %rbx
    16ee:	48 83 ec 28          	sub    $0x28,%rsp
    16f2:	44 89 7c 24 04       	mov    %r15d,0x4(%rsp)
    16f7:	4c 39 f0             	cmp    %r14,%rax
    16fa:	0f 87 c0 fb ff ff    	ja     12c0 <_Z10allocate3djjj.cold>
    1700:	48 8d 3c c5 00 00 00 	lea    0x0(,%rax,8),%rdi
    1707:	00 
    1708:	48 89 c3             	mov    %rax,%rbx
    170b:	89 d5                	mov    %edx,%ebp
    170d:	e8 7e fa ff ff       	call   1190 <_Znam@plt>
    1712:	48 89 44 24 18       	mov    %rax,0x18(%rsp)
    1717:	85 db                	test   %ebx,%ebx
    1719:	0f 8e 97 00 00 00    	jle    17b6 <_Z10allocate3djjj+0xe6>
    171f:	4d 39 f7             	cmp    %r14,%r15
    1722:	0f 87 98 fb ff ff    	ja     12c0 <_Z10allocate3djjj.cold>
    1728:	48 63 c5             	movslq %ebp,%rax
    172b:	89 db                	mov    %ebx,%ebx
    172d:	49 c1 e7 03          	shl    $0x3,%r15
    1731:	48 89 44 24 10       	mov    %rax,0x10(%rsp)
    1736:	4c 8d 2c c5 00 00 00 	lea    0x0(,%rax,8),%r13
    173d:	00 
    173e:	48 8b 44 24 18       	mov    0x18(%rsp),%rax
    1743:	48 89 c5             	mov    %rax,%rbp
    1746:	48 8d 04 d8          	lea    (%rax,%rbx,8),%rax
    174a:	48 89 44 24 08       	mov    %rax,0x8(%rsp)
    174f:	8b 44 24 04          	mov    0x4(%rsp),%eax
    1753:	44 8d 60 ff          	lea    -0x1(%rax),%r12d
    1757:	49 c1 e4 03          	shl    $0x3,%r12
    175b:	0f 1f 44 00 00       	nopl   0x0(%rax,%rax,1)
    1760:	4c 89 ff             	mov    %r15,%rdi
    1763:	e8 28 fa ff ff       	call   1190 <_Znam@plt>
    1768:	48 89 45 00          	mov    %rax,0x0(%rbp)
    176c:	48 89 c3             	mov    %rax,%rbx
    176f:	8b 44 24 04          	mov    0x4(%rsp),%eax
    1773:	85 c0                	test   %eax,%eax
    1775:	7e 34                	jle    17ab <_Z10allocate3djjj+0xdb>
    1777:	48 b9 ff ff ff ff ff 	movabs $0xfffffffffffffff,%rcx
    177e:	ff ff 0f 
    1781:	48 39 4c 24 10       	cmp    %rcx,0x10(%rsp)
    1786:	77 42                	ja     17ca <_Z10allocate3djjj+0xfa>
    1788:	45 31 f6             	xor    %r14d,%r14d
    178b:	eb 0b                	jmp    1798 <_Z10allocate3djjj+0xc8>
    178d:	0f 1f 00             	nopl   (%rax)
    1790:	48 8b 5d 00          	mov    0x0(%rbp),%rbx
    1794:	49 83 c6 08          	add    $0x8,%r14
    1798:	4c 89 ef             	mov    %r13,%rdi
    179b:	4c 01 f3             	add    %r14,%rbx
    179e:	e8 ed f9 ff ff       	call   1190 <_Znam@plt>
    17a3:	48 89 03             	mov    %rax,(%rbx)
    17a6:	4d 39 e6             	cmp    %r12,%r14
    17a9:	75 e5                	jne    1790 <_Z10allocate3djjj+0xc0>
    17ab:	48 83 c5 08          	add    $0x8,%rbp
    17af:	48 3b 6c 24 08       	cmp    0x8(%rsp),%rbp
    17b4:	75 aa                	jne    1760 <_Z10allocate3djjj+0x90>
    17b6:	48 8b 44 24 18       	mov    0x18(%rsp),%rax
    17bb:	48 83 c4 28          	add    $0x28,%rsp
    17bf:	5b                   	pop    %rbx
    17c0:	5d                   	pop    %rbp
    17c1:	41 5c                	pop    %r12
    17c3:	41 5d                	pop    %r13
    17c5:	41 5e                	pop    %r14
    17c7:	41 5f                	pop    %r15
    17c9:	c3                   	ret    
    17ca:	e9 f1 fa ff ff       	jmp    12c0 <_Z10allocate3djjj.cold>
    17cf:	90                   	nop

00000000000017d0 <_Z11allocate3dtjjj>:
    17d0:	f3 0f 1e fa          	endbr64 
    17d4:	41 57                	push   %r15
    17d6:	48 63 c7             	movslq %edi,%rax
    17d9:	41 56                	push   %r14
    17db:	41 55                	push   %r13
    17dd:	41 54                	push   %r12
    17df:	55                   	push   %rbp
    17e0:	53                   	push   %rbx
    17e1:	48 bb ff ff ff ff ff 	movabs $0xfffffffffffffff,%rbx
    17e8:	ff ff 0f 
    17eb:	48 83 ec 58          	sub    $0x58,%rsp
    17ef:	89 74 24 40          	mov    %esi,0x40(%rsp)
    17f3:	89 54 24 44          	mov    %edx,0x44(%rsp)
    17f7:	48 39 d8             	cmp    %rbx,%rax
    17fa:	0f 87 c5 fa ff ff    	ja     12c5 <_Z11allocate3dtjjj.cold>
    1800:	48 8d 3c c5 00 00 00 	lea    0x0(,%rax,8),%rdi
    1807:	00 
    1808:	49 89 c4             	mov    %rax,%r12
    180b:	e8 80 f9 ff ff       	call   1190 <_Znam@plt>
    1810:	48 89 44 24 38       	mov    %rax,0x38(%rsp)
    1815:	45 85 e4             	test   %r12d,%r12d
    1818:	0f 8e 7d 02 00 00    	jle    1a9b <_Z11allocate3dtjjj+0x2cb>
    181e:	48 63 44 24 40       	movslq 0x40(%rsp),%rax
    1823:	48 39 d8             	cmp    %rbx,%rax
    1826:	0f 87 99 fa ff ff    	ja     12c5 <_Z11allocate3dtjjj.cold>
    182c:	48 8b 74 24 38       	mov    0x38(%rsp),%rsi
    1831:	48 c1 e0 03          	shl    $0x3,%rax
    1835:	48 63 7c 24 44       	movslq 0x44(%rsp),%rdi
    183a:	48 89 44 24 28       	mov    %rax,0x28(%rsp)
    183f:	44 89 e0             	mov    %r12d,%eax
    1842:	48 89 44 24 48       	mov    %rax,0x48(%rsp)
    1847:	48 8d 04 c6          	lea    (%rsi,%rax,8),%rax
    184b:	48 8d 2c ff          	lea    (%rdi,%rdi,8),%rbp
    184f:	48 89 44 24 30       	mov    %rax,0x30(%rsp)
    1854:	8b 44 24 40          	mov    0x40(%rsp),%eax
    1858:	48 8d 5f ff          	lea    -0x1(%rdi),%rbx
    185c:	48 c1 e5 03          	shl    $0x3,%rbp
    1860:	48 89 7c 24 08       	mov    %rdi,0x8(%rsp)
    1865:	83 e8 01             	sub    $0x1,%eax
    1868:	4c 8d 24 c5 08 00 00 	lea    0x8(,%rax,8),%r12
    186f:	00 
    1870:	48 89 f8             	mov    %rdi,%rax
    1873:	48 83 e7 fe          	and    $0xfffffffffffffffe,%rdi
    1877:	48 d1 e8             	shr    %rax
    187a:	4c 8d 34 ff          	lea    (%rdi,%rdi,8),%r14
    187e:	48 89 7c 24 10       	mov    %rdi,0x10(%rsp)
    1883:	4c 8d 3c c0          	lea    (%rax,%rax,8),%r15
    1887:	4a 8d 04 f5 00 00 00 	lea    0x0(,%r14,8),%rax
    188e:	00 
    188f:	49 89 f6             	mov    %rsi,%r14
    1892:	48 89 44 24 18       	mov    %rax,0x18(%rsp)
    1897:	48 89 d8             	mov    %rbx,%rax
    189a:	49 c1 e7 04          	shl    $0x4,%r15
    189e:	48 29 f8             	sub    %rdi,%rax
    18a1:	48 89 44 24 20       	mov    %rax,0x20(%rsp)
    18a6:	66 2e 0f 1f 84 00 00 	cs nopw 0x0(%rax,%rax,1)
    18ad:	00 00 00 
    18b0:	48 8b 7c 24 28       	mov    0x28(%rsp),%rdi
    18b5:	e8 d6 f8 ff ff       	call   1190 <_Znam@plt>
    18ba:	49 89 06             	mov    %rax,(%r14)
    18bd:	8b 44 24 40          	mov    0x40(%rsp),%eax
    18c1:	85 c0                	test   %eax,%eax
    18c3:	0f 8e ee 00 00 00    	jle    19b7 <_Z11allocate3dtjjj+0x1e7>
    18c9:	48 bf c7 71 1c c7 71 	movabs $0x1c71c71c71c71c7,%rdi
    18d0:	1c c7 01 
    18d3:	48 39 7c 24 08       	cmp    %rdi,0x8(%rsp)
    18d8:	0f 87 e7 f9 ff ff    	ja     12c5 <_Z11allocate3dtjjj.cold>
    18de:	31 c0                	xor    %eax,%eax
    18e0:	4d 89 f5             	mov    %r14,%r13
    18e3:	49 89 c6             	mov    %rax,%r14
    18e6:	66 2e 0f 1f 84 00 00 	cs nopw 0x0(%rax,%rax,1)
    18ed:	00 00 00 
    18f0:	48 89 ef             	mov    %rbp,%rdi
    18f3:	e8 98 f8 ff ff       	call   1190 <_Znam@plt>
    18f8:	48 83 fb ff          	cmp    $0xffffffffffffffff,%rbx
    18fc:	66 0f 28 05 ac 27 00 	movapd 0x27ac(%rip),%xmm0        # 40b0 <_IO_stdin_used+0xb0>
    1903:	00 
    1904:	0f 84 95 00 00 00    	je     199f <_Z11allocate3dtjjj+0x1cf>
    190a:	48 83 fb 01          	cmp    $0x1,%rbx
    190e:	0f 86 4d 01 00 00    	jbe    1a61 <_Z11allocate3dtjjj+0x291>
    1914:	48 89 c2             	mov    %rax,%rdx
    1917:	4a 8d 0c 38          	lea    (%rax,%r15,1),%rcx
    191b:	66 0f 28 c8          	movapd %xmm0,%xmm1
    191f:	90                   	nop
    1920:	0f 11 02             	movups %xmm0,(%rdx)
    1923:	48 81 c2 90 00 00 00 	add    $0x90,%rdx
    192a:	0f 11 42 80          	movups %xmm0,-0x80(%rdx)
    192e:	0f 11 42 90          	movups %xmm0,-0x70(%rdx)
    1932:	0f 11 42 a0          	movups %xmm0,-0x60(%rdx)
    1936:	0f 11 42 b0          	movups %xmm0,-0x50(%rdx)
    193a:	0f 11 42 c0          	movups %xmm0,-0x40(%rdx)
    193e:	0f 11 42 d0          	movups %xmm0,-0x30(%rdx)
    1942:	0f 11 42 e0          	movups %xmm0,-0x20(%rdx)
    1946:	0f 11 42 f0          	movups %xmm0,-0x10(%rdx)
    194a:	48 39 d1             	cmp    %rdx,%rcx
    194d:	75 d1                	jne    1920 <_Z11allocate3dtjjj+0x150>
    194f:	48 8b 74 24 18       	mov    0x18(%rsp),%rsi
    1954:	48 8d 14 30          	lea    (%rax,%rsi,1),%rdx
    1958:	48 8b 74 24 10       	mov    0x10(%rsp),%rsi
    195d:	48 39 74 24 08       	cmp    %rsi,0x8(%rsp)
    1962:	74 3b                	je     199f <_Z11allocate3dtjjj+0x1cf>
    1964:	48 8b 4c 24 20       	mov    0x20(%rsp),%rcx
    1969:	48 8b 3d 40 27 00 00 	mov    0x2740(%rip),%rdi        # 40b0 <_IO_stdin_used+0xb0>
    1970:	0f 11 0a             	movups %xmm1,(%rdx)
    1973:	0f 11 4a 10          	movups %xmm1,0x10(%rdx)
    1977:	48 89 7a 40          	mov    %rdi,0x40(%rdx)
    197b:	0f 11 4a 20          	movups %xmm1,0x20(%rdx)
    197f:	0f 11 4a 30          	movups %xmm1,0x30(%rdx)
    1983:	48 85 c9             	test   %rcx,%rcx
    1986:	74 17                	je     199f <_Z11allocate3dtjjj+0x1cf>
    1988:	48 89 ba 88 00 00 00 	mov    %rdi,0x88(%rdx)
    198f:	0f 11 4a 48          	movups %xmm1,0x48(%rdx)
    1993:	0f 11 4a 58          	movups %xmm1,0x58(%rdx)
    1997:	0f 11 4a 68          	movups %xmm1,0x68(%rdx)
    199b:	0f 11 4a 78          	movups %xmm1,0x78(%rdx)
    199f:	49 8b 55 00          	mov    0x0(%r13),%rdx
    19a3:	4a 89 04 32          	mov    %rax,(%rdx,%r14,1)
    19a7:	49 83 c6 08          	add    $0x8,%r14
    19ab:	4d 39 f4             	cmp    %r14,%r12
    19ae:	0f 85 3c ff ff ff    	jne    18f0 <_Z11allocate3dtjjj+0x120>
    19b4:	4d 89 ee             	mov    %r13,%r14
    19b7:	49 83 c6 08          	add    $0x8,%r14
    19bb:	4c 3b 74 24 30       	cmp    0x30(%rsp),%r14
    19c0:	0f 85 ea fe ff ff    	jne    18b0 <_Z11allocate3dtjjj+0xe0>
    19c6:	48 8b 74 24 48       	mov    0x48(%rsp),%rsi
    19cb:	48 8d 3d 6e 46 00 00 	lea    0x466e(%rip),%rdi        # 6040 <_ZSt4cout@GLIBCXX_3.4>
    19d2:	4c 8d 25 f8 26 00 00 	lea    0x26f8(%rip),%r12        # 40d1 <_IO_stdin_used+0xd1>
    19d9:	e8 e2 f7 ff ff       	call   11c0 <_ZNSo9_M_insertImEERSoT_@plt>
    19de:	ba 01 00 00 00       	mov    $0x1,%edx
    19e3:	4c 89 e6             	mov    %r12,%rsi
    19e6:	48 89 c7             	mov    %rax,%rdi
    19e9:	48 89 c5             	mov    %rax,%rbp
    19ec:	e8 2f f8 ff ff       	call   1220 <_ZSt16__ostream_insertIcSt11char_traitsIcEERSt13basic_ostreamIT_T0_ES6_PKS3_l@plt>
    19f1:	8b 74 24 40          	mov    0x40(%rsp),%esi
    19f5:	48 89 ef             	mov    %rbp,%rdi
    19f8:	e8 c3 f7 ff ff       	call   11c0 <_ZNSo9_M_insertImEERSoT_@plt>
    19fd:	4c 89 e6             	mov    %r12,%rsi
    1a00:	ba 01 00 00 00       	mov    $0x1,%edx
    1a05:	48 89 c7             	mov    %rax,%rdi
    1a08:	48 89 c5             	mov    %rax,%rbp
    1a0b:	e8 10 f8 ff ff       	call   1220 <_ZSt16__ostream_insertIcSt11char_traitsIcEERSt13basic_ostreamIT_T0_ES6_PKS3_l@plt>
    1a10:	8b 74 24 44          	mov    0x44(%rsp),%esi
    1a14:	48 89 ef             	mov    %rbp,%rdi
    1a17:	e8 a4 f7 ff ff       	call   11c0 <_ZNSo9_M_insertImEERSoT_@plt>
    1a1c:	49 89 c4             	mov    %rax,%r12
    1a1f:	48 8b 00             	mov    (%rax),%rax
    1a22:	48 8b 40 e8          	mov    -0x18(%rax),%rax
    1a26:	49 8b ac 04 f0 00 00 	mov    0xf0(%r12,%rax,1),%rbp
    1a2d:	00 
    1a2e:	48 85 ed             	test   %rbp,%rbp
    1a31:	74 75                	je     1aa8 <_Z11allocate3dtjjj+0x2d8>
    1a33:	80 7d 38 00          	cmpb   $0x0,0x38(%rbp)
    1a37:	74 37                	je     1a70 <_Z11allocate3dtjjj+0x2a0>
    1a39:	0f be 75 43          	movsbl 0x43(%rbp),%esi
    1a3d:	4c 89 e7             	mov    %r12,%rdi
    1a40:	e8 5b f7 ff ff       	call   11a0 <_ZNSo3putEc@plt>
    1a45:	48 89 c7             	mov    %rax,%rdi
    1a48:	e8 83 f7 ff ff       	call   11d0 <_ZNSo5flushEv@plt>
    1a4d:	48 8b 44 24 38       	mov    0x38(%rsp),%rax
    1a52:	48 83 c4 58          	add    $0x58,%rsp
    1a56:	5b                   	pop    %rbx
    1a57:	5d                   	pop    %rbp
    1a58:	41 5c                	pop    %r12
    1a5a:	41 5d                	pop    %r13
    1a5c:	41 5e                	pop    %r14
    1a5e:	41 5f                	pop    %r15
    1a60:	c3                   	ret    
    1a61:	48 89 d9             	mov    %rbx,%rcx
    1a64:	48 89 c2             	mov    %rax,%rdx
    1a67:	66 0f 28 c8          	movapd %xmm0,%xmm1
    1a6b:	e9 f9 fe ff ff       	jmp    1969 <_Z11allocate3dtjjj+0x199>
    1a70:	48 89 ef             	mov    %rbp,%rdi
    1a73:	e8 b8 f7 ff ff       	call   1230 <_ZNKSt5ctypeIcE13_M_widen_initEv@plt>
    1a78:	48 8b 45 00          	mov    0x0(%rbp),%rax
    1a7c:	be 0a 00 00 00       	mov    $0xa,%esi
    1a81:	48 8d 15 c8 02 00 00 	lea    0x2c8(%rip),%rdx        # 1d50 <_ZNKSt5ctypeIcE8do_widenEc>
    1a88:	48 8b 40 30          	mov    0x30(%rax),%rax
    1a8c:	48 39 d0             	cmp    %rdx,%rax
    1a8f:	74 ac                	je     1a3d <_Z11allocate3dtjjj+0x26d>
    1a91:	48 89 ef             	mov    %rbp,%rdi
    1a94:	ff d0                	call   *%rax
    1a96:	0f be f0             	movsbl %al,%esi
    1a99:	eb a2                	jmp    1a3d <_Z11allocate3dtjjj+0x26d>
    1a9b:	44 89 e0             	mov    %r12d,%eax
    1a9e:	48 89 44 24 48       	mov    %rax,0x48(%rsp)
    1aa3:	e9 1e ff ff ff       	jmp    19c6 <_Z11allocate3dtjjj+0x1f6>
    1aa8:	e8 b3 f7 ff ff       	call   1260 <_ZSt16__throw_bad_castv@plt>
    1aad:	0f 1f 00             	nopl   (%rax)

0000000000001ab0 <_Z10allocate4djjjj>:
    1ab0:	f3 0f 1e fa          	endbr64 
    1ab4:	41 57                	push   %r15
    1ab6:	41 89 cf             	mov    %ecx,%r15d
    1ab9:	41 56                	push   %r14
    1abb:	41 89 f6             	mov    %esi,%r14d
    1abe:	41 55                	push   %r13
    1ac0:	41 89 fd             	mov    %edi,%r13d
    1ac3:	41 54                	push   %r12
    1ac5:	55                   	push   %rbp
    1ac6:	4c 89 ed             	mov    %r13,%rbp
    1ac9:	49 c1 e5 03          	shl    $0x3,%r13
    1acd:	53                   	push   %rbx
    1ace:	4c 89 ef             	mov    %r13,%rdi
    1ad1:	89 d3                	mov    %edx,%ebx
    1ad3:	48 83 ec 38          	sub    $0x38,%rsp
    1ad7:	89 74 24 24          	mov    %esi,0x24(%rsp)
    1adb:	89 4c 24 20          	mov    %ecx,0x20(%rsp)
    1adf:	e8 ac f6 ff ff       	call   1190 <_Znam@plt>
    1ae4:	48 89 44 24 28       	mov    %rax,0x28(%rsp)
    1ae9:	85 ed                	test   %ebp,%ebp
    1aeb:	0f 84 ca 00 00 00    	je     1bbb <_Z10allocate4djjjj+0x10b>
    1af1:	48 89 c6             	mov    %rax,%rsi
    1af4:	44 89 f0             	mov    %r14d,%eax
    1af7:	45 89 fc             	mov    %r15d,%r12d
    1afa:	48 89 c2             	mov    %rax,%rdx
    1afd:	48 c1 e0 03          	shl    $0x3,%rax
    1b01:	4c 89 e1             	mov    %r12,%rcx
    1b04:	49 01 f5             	add    %rsi,%r13
    1b07:	48 89 44 24 10       	mov    %rax,0x10(%rsp)
    1b0c:	48 8d 04 dd 00 00 00 	lea    0x0(,%rbx,8),%rax
    1b13:	00 
    1b14:	49 c1 e4 03          	shl    $0x3,%r12
    1b18:	48 89 f5             	mov    %rsi,%rbp
    1b1b:	48 89 04 24          	mov    %rax,(%rsp)
    1b1f:	8d 42 ff             	lea    -0x1(%rdx),%eax
    1b22:	48 c1 e0 03          	shl    $0x3,%rax
    1b26:	4c 89 6c 24 18       	mov    %r13,0x18(%rsp)
    1b2b:	48 89 44 24 08       	mov    %rax,0x8(%rsp)
    1b30:	8d 41 ff             	lea    -0x1(%rcx),%eax
    1b33:	4c 8d 2c c5 08 00 00 	lea    0x8(,%rax,8),%r13
    1b3a:	00 
    1b3b:	0f 1f 44 00 00       	nopl   0x0(%rax,%rax,1)
    1b40:	48 8b 7c 24 10       	mov    0x10(%rsp),%rdi
    1b45:	e8 46 f6 ff ff       	call   1190 <_Znam@plt>
    1b4a:	8b 54 24 24          	mov    0x24(%rsp),%edx
    1b4e:	48 89 45 00          	mov    %rax,0x0(%rbp)
    1b52:	49 89 c6             	mov    %rax,%r14
    1b55:	85 d2                	test   %edx,%edx
    1b57:	74 57                	je     1bb0 <_Z10allocate4djjjj+0x100>
    1b59:	31 db                	xor    %ebx,%ebx
    1b5b:	0f 1f 44 00 00       	nopl   0x0(%rax,%rax,1)
    1b60:	48 8b 3c 24          	mov    (%rsp),%rdi
    1b64:	49 01 de             	add    %rbx,%r14
    1b67:	e8 24 f6 ff ff       	call   1190 <_Znam@plt>
    1b6c:	49 89 06             	mov    %rax,(%r14)
    1b6f:	8b 44 24 20          	mov    0x20(%rsp),%eax
    1b73:	45 31 f6             	xor    %r14d,%r14d
    1b76:	85 c0                	test   %eax,%eax
    1b78:	74 25                	je     1b9f <_Z10allocate4djjjj+0xef>
    1b7a:	66 0f 1f 44 00 00    	nopw   0x0(%rax,%rax,1)
    1b80:	48 8b 45 00          	mov    0x0(%rbp),%rax
    1b84:	4c 89 e7             	mov    %r12,%rdi
    1b87:	4c 8b 3c 18          	mov    (%rax,%rbx,1),%r15
    1b8b:	e8 00 f6 ff ff       	call   1190 <_Znam@plt>
    1b90:	4d 01 f7             	add    %r14,%r15
    1b93:	49 83 c6 08          	add    $0x8,%r14
    1b97:	49 89 07             	mov    %rax,(%r15)
    1b9a:	4d 39 ee             	cmp    %r13,%r14
    1b9d:	75 e1                	jne    1b80 <_Z10allocate4djjjj+0xd0>
    1b9f:	48 39 5c 24 08       	cmp    %rbx,0x8(%rsp)
    1ba4:	74 0a                	je     1bb0 <_Z10allocate4djjjj+0x100>
    1ba6:	4c 8b 75 00          	mov    0x0(%rbp),%r14
    1baa:	48 83 c3 08          	add    $0x8,%rbx
    1bae:	eb b0                	jmp    1b60 <_Z10allocate4djjjj+0xb0>
    1bb0:	48 83 c5 08          	add    $0x8,%rbp
    1bb4:	48 3b 6c 24 18       	cmp    0x18(%rsp),%rbp
    1bb9:	75 85                	jne    1b40 <_Z10allocate4djjjj+0x90>
    1bbb:	48 8b 44 24 28       	mov    0x28(%rsp),%rax
    1bc0:	48 83 c4 38          	add    $0x38,%rsp
    1bc4:	5b                   	pop    %rbx
    1bc5:	5d                   	pop    %rbp
    1bc6:	41 5c                	pop    %r12
    1bc8:	41 5d                	pop    %r13
    1bca:	41 5e                	pop    %r14
    1bcc:	41 5f                	pop    %r15
    1bce:	c3                   	ret    
    1bcf:	90                   	nop

0000000000001bd0 <_Z11allocate3dvjjj>:
    1bd0:	f3 0f 1e fa          	endbr64 
    1bd4:	41 57                	push   %r15
    1bd6:	41 89 f7             	mov    %esi,%r15d
    1bd9:	41 56                	push   %r14
    1bdb:	41 55                	push   %r13
    1bdd:	41 89 d5             	mov    %edx,%r13d
    1be0:	41 54                	push   %r12
    1be2:	41 89 fc             	mov    %edi,%r12d
    1be5:	55                   	push   %rbp
    1be6:	53                   	push   %rbx
    1be7:	4c 89 e3             	mov    %r12,%rbx
    1bea:	49 c1 e4 03          	shl    $0x3,%r12
    1bee:	4c 89 e7             	mov    %r12,%rdi
    1bf1:	48 83 ec 48          	sub    $0x48,%rsp
    1bf5:	89 74 24 34          	mov    %esi,0x34(%rsp)
    1bf9:	e8 92 f5 ff ff       	call   1190 <_Znam@plt>
    1bfe:	48 89 44 24 38       	mov    %rax,0x38(%rsp)
    1c03:	85 db                	test   %ebx,%ebx
    1c05:	0f 84 29 01 00 00    	je     1d34 <_Z11allocate3dvjjj+0x164>
    1c0b:	48 89 c1             	mov    %rax,%rcx
    1c0e:	44 89 f8             	mov    %r15d,%eax
    1c11:	44 89 ef             	mov    %r13d,%edi
    1c14:	48 89 c6             	mov    %rax,%rsi
    1c17:	48 c1 e0 03          	shl    $0x3,%rax
    1c1b:	49 01 cc             	add    %rcx,%r12
    1c1e:	48 8d 2c 7f          	lea    (%rdi,%rdi,2),%rbp
    1c22:	48 89 44 24 20       	mov    %rax,0x20(%rsp)
    1c27:	8d 46 ff             	lea    -0x1(%rsi),%eax
    1c2a:	48 8d 5f ff          	lea    -0x1(%rdi),%rbx
    1c2e:	48 c1 e5 03          	shl    $0x3,%rbp
    1c32:	48 89 3c 24          	mov    %rdi,(%rsp)
    1c36:	4c 89 64 24 28       	mov    %r12,0x28(%rsp)
    1c3b:	4c 8d 24 c5 08 00 00 	lea    0x8(,%rax,8),%r12
    1c42:	00 
    1c43:	48 89 f8             	mov    %rdi,%rax
    1c46:	48 83 e7 fe          	and    $0xfffffffffffffffe,%rdi
    1c4a:	48 d1 e8             	shr    %rax
    1c4d:	4c 8d 34 7f          	lea    (%rdi,%rdi,2),%r14
    1c51:	48 89 7c 24 08       	mov    %rdi,0x8(%rsp)
    1c56:	4c 8d 3c 40          	lea    (%rax,%rax,2),%r15
    1c5a:	4a 8d 04 f5 00 00 00 	lea    0x0(,%r14,8),%rax
    1c61:	00 
    1c62:	49 89 ce             	mov    %rcx,%r14
    1c65:	48 89 44 24 10       	mov    %rax,0x10(%rsp)
    1c6a:	48 89 d8             	mov    %rbx,%rax
    1c6d:	49 c1 e7 04          	shl    $0x4,%r15
    1c71:	48 29 f8             	sub    %rdi,%rax
    1c74:	48 89 44 24 18       	mov    %rax,0x18(%rsp)
    1c79:	0f 1f 80 00 00 00 00 	nopl   0x0(%rax)
    1c80:	48 8b 7c 24 20       	mov    0x20(%rsp),%rdi
    1c85:	e8 06 f5 ff ff       	call   1190 <_Znam@plt>
    1c8a:	49 89 06             	mov    %rax,(%r14)
    1c8d:	8b 44 24 34          	mov    0x34(%rsp),%eax
    1c91:	85 c0                	test   %eax,%eax
    1c93:	0f 84 8c 00 00 00    	je     1d25 <_Z11allocate3dvjjj+0x155>
    1c99:	45 31 ed             	xor    %r13d,%r13d
    1c9c:	0f 1f 40 00          	nopl   0x0(%rax)
    1ca0:	48 89 ef             	mov    %rbp,%rdi
    1ca3:	e8 e8 f4 ff ff       	call   1190 <_Znam@plt>
    1ca8:	48 83 fb ff          	cmp    $0xffffffffffffffff,%rbx
    1cac:	66 0f ef c0          	pxor   %xmm0,%xmm0
    1cb0:	74 5f                	je     1d11 <_Z11allocate3dvjjj+0x141>
    1cb2:	48 83 fb 01          	cmp    $0x1,%rbx
    1cb6:	0f 86 8c 00 00 00    	jbe    1d48 <_Z11allocate3dvjjj+0x178>
    1cbc:	48 89 c2             	mov    %rax,%rdx
    1cbf:	4a 8d 0c 38          	lea    (%rax,%r15,1),%rcx
    1cc3:	0f 1f 44 00 00       	nopl   0x0(%rax,%rax,1)
    1cc8:	0f 11 02             	movups %xmm0,(%rdx)
    1ccb:	48 83 c2 30          	add    $0x30,%rdx
    1ccf:	0f 11 42 e0          	movups %xmm0,-0x20(%rdx)
    1cd3:	0f 11 42 f0          	movups %xmm0,-0x10(%rdx)
    1cd7:	48 39 d1             	cmp    %rdx,%rcx
    1cda:	75 ec                	jne    1cc8 <_Z11allocate3dvjjj+0xf8>
    1cdc:	48 8b 74 24 10       	mov    0x10(%rsp),%rsi
    1ce1:	48 8d 14 30          	lea    (%rax,%rsi,1),%rdx
    1ce5:	48 8b 74 24 08       	mov    0x8(%rsp),%rsi
    1cea:	48 39 34 24          	cmp    %rsi,(%rsp)
    1cee:	74 21                	je     1d11 <_Z11allocate3dvjjj+0x141>
    1cf0:	48 8b 4c 24 18       	mov    0x18(%rsp),%rcx
    1cf5:	48 c7 42 10 00 00 00 	movq   $0x0,0x10(%rdx)
    1cfc:	00 
    1cfd:	0f 11 02             	movups %xmm0,(%rdx)
    1d00:	48 85 c9             	test   %rcx,%rcx
    1d03:	74 0c                	je     1d11 <_Z11allocate3dvjjj+0x141>
    1d05:	48 c7 42 28 00 00 00 	movq   $0x0,0x28(%rdx)
    1d0c:	00 
    1d0d:	0f 11 42 18          	movups %xmm0,0x18(%rdx)
    1d11:	49 8b 16             	mov    (%r14),%rdx
    1d14:	4a 89 04 2a          	mov    %rax,(%rdx,%r13,1)
    1d18:	49 83 c5 08          	add    $0x8,%r13
    1d1c:	4d 39 e5             	cmp    %r12,%r13
    1d1f:	0f 85 7b ff ff ff    	jne    1ca0 <_Z11allocate3dvjjj+0xd0>
    1d25:	49 83 c6 08          	add    $0x8,%r14
    1d29:	4c 3b 74 24 28       	cmp    0x28(%rsp),%r14
    1d2e:	0f 85 4c ff ff ff    	jne    1c80 <_Z11allocate3dvjjj+0xb0>
    1d34:	48 8b 44 24 38       	mov    0x38(%rsp),%rax
    1d39:	48 83 c4 48          	add    $0x48,%rsp
    1d3d:	5b                   	pop    %rbx
    1d3e:	5d                   	pop    %rbp
    1d3f:	41 5c                	pop    %r12
    1d41:	41 5d                	pop    %r13
    1d43:	41 5e                	pop    %r14
    1d45:	41 5f                	pop    %r15
    1d47:	c3                   	ret    
    1d48:	48 89 d9             	mov    %rbx,%rcx
    1d4b:	48 89 c2             	mov    %rax,%rdx
    1d4e:	eb a5                	jmp    1cf5 <_Z11allocate3dvjjj+0x125>

0000000000001d50 <_ZNKSt5ctypeIcE8do_widenEc>:
    1d50:	f3 0f 1e fa          	endbr64 
    1d54:	89 f0                	mov    %esi,%eax
    1d56:	c3                   	ret    
    1d57:	66 0f 1f 84 00 00 00 	nopw   0x0(%rax,%rax,1)
    1d5e:	00 00 

0000000000001d60 <_Z5shearddd>:
    1d60:	f3 0f 1e fa          	endbr64 
    1d64:	f2 0f 10 05 6c 23 00 	movsd  0x236c(%rip),%xmm0        # 40d8 <_IO_stdin_used+0xd8>
    1d6b:	00 
    1d6c:	66 0f 28 d9          	movapd %xmm1,%xmm3
    1d70:	66 0f ef f6          	pxor   %xmm6,%xmm6
    1d74:	48 89 f8             	mov    %rdi,%rax
    1d77:	f2 0f 10 25 61 23 00 	movsd  0x2361(%rip),%xmm4        # 40e0 <_IO_stdin_used+0xe0>
    1d7e:	00 
    1d7f:	48 c7 47 38 00 00 00 	movq   $0x0,0x38(%rdi)
    1d86:	00 
    1d87:	f2 0f 59 d8          	mulsd  %xmm0,%xmm3
    1d8b:	48 c7 47 40 00 00 00 	movq   $0x0,0x40(%rdi)
    1d92:	00 
    1d93:	f2 0f 59 d9          	mulsd  %xmm1,%xmm3
    1d97:	f2 0f 58 cc          	addsd  %xmm4,%xmm1
    1d9b:	f2 0f 59 c1          	mulsd  %xmm1,%xmm0
    1d9f:	66 0f 28 d3          	movapd %xmm3,%xmm2
    1da3:	f2 0f 5c d3          	subsd  %xmm3,%xmm2
    1da7:	f2 0f 59 c1          	mulsd  %xmm1,%xmm0
    1dab:	f2 0f 5e d4          	divsd  %xmm4,%xmm2
    1daf:	f2 0f 5c c3          	subsd  %xmm3,%xmm0
    1db3:	f2 0f 5e c4          	divsd  %xmm4,%xmm0
    1db7:	66 0f 28 ea          	movapd %xmm2,%xmm5
    1dbb:	f2 0f 58 d2          	addsd  %xmm2,%xmm2
    1dbf:	f2 0f 58 ee          	addsd  %xmm6,%xmm5
    1dc3:	66 0f 28 cd          	movapd %xmm5,%xmm1
    1dc7:	f2 0f 11 6f 30       	movsd  %xmm5,0x30(%rdi)
    1dcc:	f2 0f 58 c6          	addsd  %xmm6,%xmm0
    1dd0:	66 0f 14 d0          	unpcklpd %xmm0,%xmm2
    1dd4:	66 0f 14 c8          	unpcklpd %xmm0,%xmm1
    1dd8:	66 0f ef c0          	pxor   %xmm0,%xmm0
    1ddc:	0f 11 17             	movups %xmm2,(%rdi)
    1ddf:	0f 11 4f 10          	movups %xmm1,0x10(%rdi)
    1de3:	0f 11 47 20          	movups %xmm0,0x20(%rdi)
    1de7:	c3                   	ret    
    1de8:	0f 1f 84 00 00 00 00 	nopl   0x0(%rax,%rax,1)
    1def:	00 

0000000000001df0 <_Z6stressdddd>:
    1df0:	f3 0f 1e fa          	endbr64 
    1df4:	66 0f 28 e0          	movapd %xmm0,%xmm4
    1df8:	66 0f 28 ea          	movapd %xmm2,%xmm5
    1dfc:	66 0f ef db          	pxor   %xmm3,%xmm3
    1e00:	48 89 f8             	mov    %rdi,%rax
    1e03:	f2 0f 10 05 cd 22 00 	movsd  0x22cd(%rip),%xmm0        # 40d8 <_IO_stdin_used+0xd8>
    1e0a:	00 
    1e0b:	f2 0f 10 35 cd 22 00 	movsd  0x22cd(%rip),%xmm6        # 40e0 <_IO_stdin_used+0xe0>
    1e12:	00 
    1e13:	48 c7 47 28 00 00 00 	movq   $0x0,0x28(%rdi)
    1e1a:	00 
    1e1b:	48 c7 47 38 00 00 00 	movq   $0x0,0x38(%rdi)
    1e22:	00 
    1e23:	f2 0f 59 e8          	mulsd  %xmm0,%xmm5
    1e27:	f2 0f 59 ea          	mulsd  %xmm2,%xmm5
    1e2b:	f2 0f 58 d6          	addsd  %xmm6,%xmm2
    1e2f:	f2 0f 59 c2          	mulsd  %xmm2,%xmm0
    1e33:	66 0f 28 cd          	movapd %xmm5,%xmm1
    1e37:	f2 0f 5c cd          	subsd  %xmm5,%xmm1
    1e3b:	f2 0f 59 c2          	mulsd  %xmm2,%xmm0
    1e3f:	f2 0f 5e ce          	divsd  %xmm6,%xmm1
    1e43:	f2 0f 5c c5          	subsd  %xmm5,%xmm0
    1e47:	f2 0f 5e c6          	divsd  %xmm6,%xmm0
    1e4b:	66 0f 28 f9          	movapd %xmm1,%xmm7
    1e4f:	f2 0f 58 c9          	addsd  %xmm1,%xmm1
    1e53:	f2 0f 58 fb          	addsd  %xmm3,%xmm7
    1e57:	f2 0f 5c cc          	subsd  %xmm4,%xmm1
    1e5b:	f2 0f 11 7f 30       	movsd  %xmm7,0x30(%rdi)
    1e60:	f2 0f 58 c3          	addsd  %xmm3,%xmm0
    1e64:	f2 0f 5c dc          	subsd  %xmm4,%xmm3
    1e68:	66 0f 14 c8          	unpcklpd %xmm0,%xmm1
    1e6c:	f2 0f 11 5f 20       	movsd  %xmm3,0x20(%rdi)
    1e71:	0f 11 0f             	movups %xmm1,(%rdi)
    1e74:	66 0f 28 cf          	movapd %xmm7,%xmm1
    1e78:	66 0f 14 c8          	unpcklpd %xmm0,%xmm1
    1e7c:	f2 0f 11 5f 40       	movsd  %xmm3,0x40(%rdi)
    1e81:	0f 11 4f 10          	movups %xmm1,0x10(%rdi)
    1e85:	c3                   	ret    
    1e86:	66 2e 0f 1f 84 00 00 	cs nopw 0x0(%rax,%rax,1)
    1e8d:	00 00 00 

0000000000001e90 <_Z4diffdddi>:
    1e90:	f3 0f 1e fa          	endbr64 
    1e94:	48 89 f8             	mov    %rdi,%rax
    1e97:	83 fe 02             	cmp    $0x2,%esi
    1e9a:	74 3c                	je     1ed8 <_Z4diffdddi+0x48>
    1e9c:	f2 0f 10 05 34 22 00 	movsd  0x2234(%rip),%xmm0        # 40d8 <_IO_stdin_used+0xd8>
    1ea3:	00 
    1ea4:	48 c7 47 08 00 00 00 	movq   $0x0,0x8(%rdi)
    1eab:	00 
    1eac:	48 c7 47 10 00 00 00 	movq   $0x0,0x10(%rdi)
    1eb3:	00 
    1eb4:	f2 0f 59 c1          	mulsd  %xmm1,%xmm0
    1eb8:	f2 0f 59 c1          	mulsd  %xmm1,%xmm0
    1ebc:	f2 0f 5c c0          	subsd  %xmm0,%xmm0
    1ec0:	f2 0f 5e 05 18 22 00 	divsd  0x2218(%rip),%xmm0        # 40e0 <_IO_stdin_used+0xe0>
    1ec7:	00 
    1ec8:	f2 0f 11 07          	movsd  %xmm0,(%rdi)
    1ecc:	83 fe 03             	cmp    $0x3,%esi
    1ecf:	75 57                	jne    1f28 <_Z4diffdddi+0x98>
    1ed1:	c3                   	ret    
    1ed2:	66 0f 1f 44 00 00    	nopw   0x0(%rax,%rax,1)
    1ed8:	f2 0f 10 1d 00 22 00 	movsd  0x2200(%rip),%xmm3        # 40e0 <_IO_stdin_used+0xe0>
    1edf:	00 
    1ee0:	66 0f 28 e1          	movapd %xmm1,%xmm4
    1ee4:	f2 0f 10 15 ec 21 00 	movsd  0x21ec(%rip),%xmm2        # 40d8 <_IO_stdin_used+0xd8>
    1eeb:	00 
    1eec:	48 c7 47 08 00 00 00 	movq   $0x0,0x8(%rdi)
    1ef3:	00 
    1ef4:	48 c7 47 10 00 00 00 	movq   $0x0,0x10(%rdi)
    1efb:	00 
    1efc:	f2 0f 58 e3          	addsd  %xmm3,%xmm4
    1f00:	66 0f 28 c4          	movapd %xmm4,%xmm0
    1f04:	f2 0f 59 c2          	mulsd  %xmm2,%xmm0
    1f08:	f2 0f 59 d1          	mulsd  %xmm1,%xmm2
    1f0c:	f2 0f 59 c4          	mulsd  %xmm4,%xmm0
    1f10:	f2 0f 59 d1          	mulsd  %xmm1,%xmm2
    1f14:	f2 0f 5c c2          	subsd  %xmm2,%xmm0
    1f18:	f2 0f 5e c3          	divsd  %xmm3,%xmm0
    1f1c:	f2 0f 11 07          	movsd  %xmm0,(%rdi)
    1f20:	c3                   	ret    
    1f21:	0f 1f 80 00 00 00 00 	nopl   0x0(%rax)
    1f28:	c3                   	ret    
    1f29:	0f 1f 80 00 00 00 00 	nopl   0x0(%rax)

0000000000001f30 <_Z6shearaPPPPdiii>:
    1f30:	f3 0f 1e fa          	endbr64 
    1f34:	66 0f ef d2          	pxor   %xmm2,%xmm2
    1f38:	f2 0f 10 05 98 21 00 	movsd  0x2198(%rip),%xmm0        # 40d8 <_IO_stdin_used+0xd8>
    1f3f:	00 
    1f40:	66 0f ef f6          	pxor   %xmm6,%xmm6
    1f44:	f2 0f 10 25 94 21 00 	movsd  0x2194(%rip),%xmm4        # 40e0 <_IO_stdin_used+0xe0>
    1f4b:	00 
    1f4c:	f2 0f 2a d1          	cvtsi2sd %ecx,%xmm2
    1f50:	48 c7 47 38 00 00 00 	movq   $0x0,0x38(%rdi)
    1f57:	00 
    1f58:	48 89 f8             	mov    %rdi,%rax
    1f5b:	48 c7 47 40 00 00 00 	movq   $0x0,0x40(%rdi)
    1f62:	00 
    1f63:	66 0f 28 da          	movapd %xmm2,%xmm3
    1f67:	f2 0f 59 d8          	mulsd  %xmm0,%xmm3
    1f6b:	f2 0f 59 da          	mulsd  %xmm2,%xmm3
    1f6f:	f2 0f 58 d4          	addsd  %xmm4,%xmm2
    1f73:	f2 0f 59 c2          	mulsd  %xmm2,%xmm0
    1f77:	66 0f 28 cb          	movapd %xmm3,%xmm1
    1f7b:	f2 0f 5c cb          	subsd  %xmm3,%xmm1
    1f7f:	f2 0f 59 c2          	mulsd  %xmm2,%xmm0
    1f83:	f2 0f 5e cc          	divsd  %xmm4,%xmm1
    1f87:	f2 0f 5c c3          	subsd  %xmm3,%xmm0
    1f8b:	f2 0f 5e c4          	divsd  %xmm4,%xmm0
    1f8f:	66 0f 28 e9          	movapd %xmm1,%xmm5
    1f93:	f2 0f 58 c9          	addsd  %xmm1,%xmm1
    1f97:	f2 0f 58 ee          	addsd  %xmm6,%xmm5
    1f9b:	f2 0f 11 6f 30       	movsd  %xmm5,0x30(%rdi)
    1fa0:	f2 0f 58 c6          	addsd  %xmm6,%xmm0
    1fa4:	66 0f 14 c8          	unpcklpd %xmm0,%xmm1
    1fa8:	0f 11 0f             	movups %xmm1,(%rdi)
    1fab:	66 0f 28 cd          	movapd %xmm5,%xmm1
    1faf:	66 0f 14 c8          	unpcklpd %xmm0,%xmm1
    1fb3:	66 0f ef c0          	pxor   %xmm0,%xmm0
    1fb7:	0f 11 4f 10          	movups %xmm1,0x10(%rdi)
    1fbb:	0f 11 47 20          	movups %xmm0,0x20(%rdi)
    1fbf:	c3                   	ret    

0000000000001fc0 <_Z7partdifPPPPdiiiidii>:
    1fc0:	f3 0f 1e fa          	endbr64 
    1fc4:	41 57                	push   %r15
    1fc6:	66 0f 28 c8          	movapd %xmm0,%xmm1
    1fca:	41 56                	push   %r14
    1fcc:	41 55                	push   %r13
    1fce:	4c 63 ee             	movslq %esi,%r13
    1fd1:	41 54                	push   %r12
    1fd3:	4c 63 e2             	movslq %edx,%r12
    1fd6:	55                   	push   %rbp
    1fd7:	48 63 e9             	movslq %ecx,%rbp
    1fda:	48 83 ec 10          	sub    $0x10,%rsp
    1fde:	44 8b 74 24 40       	mov    0x40(%rsp),%r14d
    1fe3:	41 83 fe 01          	cmp    $0x1,%r14d
    1fe7:	0f 84 1b 01 00 00    	je     2108 <_Z7partdifPPPPdiiiidii+0x148>
    1fed:	41 83 fe 02          	cmp    $0x2,%r14d
    1ff1:	0f 84 c9 01 00 00    	je     21c0 <_Z7partdifPPPPdiiiidii+0x200>
    1ff7:	45 85 f6             	test   %r14d,%r14d
    1ffa:	0f 84 60 01 00 00    	je     2160 <_Z7partdifPPPPdiiiidii+0x1a0>
    2000:	4c 8d 3d 39 40 00 00 	lea    0x4039(%rip),%r15        # 6040 <_ZSt4cout@GLIBCXX_3.4>
    2007:	ba 12 00 00 00       	mov    $0x12,%edx
    200c:	44 89 4c 24 0c       	mov    %r9d,0xc(%rsp)
    2011:	48 8d 35 a8 20 00 00 	lea    0x20a8(%rip),%rsi        # 40c0 <_IO_stdin_used+0xc0>
    2018:	4c 89 ff             	mov    %r15,%rdi
    201b:	44 89 44 24 08       	mov    %r8d,0x8(%rsp)
    2020:	f2 0f 11 04 24       	movsd  %xmm0,(%rsp)
    2025:	e8 f6 f1 ff ff       	call   1220 <_ZSt16__ostream_insertIcSt11char_traitsIcEERSt13basic_ostreamIT_T0_ES6_PKS3_l@plt>
    202a:	44 89 ee             	mov    %r13d,%esi
    202d:	4c 89 ff             	mov    %r15,%rdi
    2030:	4c 8d 2d 9a 20 00 00 	lea    0x209a(%rip),%r13        # 40d1 <_IO_stdin_used+0xd1>
    2037:	e8 64 f2 ff ff       	call   12a0 <_ZNSolsEi@plt>
    203c:	ba 01 00 00 00       	mov    $0x1,%edx
    2041:	4c 89 ee             	mov    %r13,%rsi
    2044:	49 89 c7             	mov    %rax,%r15
    2047:	48 89 c7             	mov    %rax,%rdi
    204a:	e8 d1 f1 ff ff       	call   1220 <_ZSt16__ostream_insertIcSt11char_traitsIcEERSt13basic_ostreamIT_T0_ES6_PKS3_l@plt>
    204f:	44 89 e6             	mov    %r12d,%esi
    2052:	4c 89 ff             	mov    %r15,%rdi
    2055:	e8 46 f2 ff ff       	call   12a0 <_ZNSolsEi@plt>
    205a:	ba 01 00 00 00       	mov    $0x1,%edx
    205f:	4c 89 ee             	mov    %r13,%rsi
    2062:	49 89 c4             	mov    %rax,%r12
    2065:	48 89 c7             	mov    %rax,%rdi
    2068:	e8 b3 f1 ff ff       	call   1220 <_ZSt16__ostream_insertIcSt11char_traitsIcEERSt13basic_ostreamIT_T0_ES6_PKS3_l@plt>
    206d:	89 ee                	mov    %ebp,%esi
    206f:	4c 89 e7             	mov    %r12,%rdi
    2072:	e8 29 f2 ff ff       	call   12a0 <_ZNSolsEi@plt>
    2077:	ba 01 00 00 00       	mov    $0x1,%edx
    207c:	4c 89 ee             	mov    %r13,%rsi
    207f:	48 89 c7             	mov    %rax,%rdi
    2082:	48 89 c5             	mov    %rax,%rbp
    2085:	e8 96 f1 ff ff       	call   1220 <_ZSt16__ostream_insertIcSt11char_traitsIcEERSt13basic_ostreamIT_T0_ES6_PKS3_l@plt>
    208a:	8b 74 24 08          	mov    0x8(%rsp),%esi
    208e:	48 89 ef             	mov    %rbp,%rdi
    2091:	e8 0a f2 ff ff       	call   12a0 <_ZNSolsEi@plt>
    2096:	ba 01 00 00 00       	mov    $0x1,%edx
    209b:	4c 89 ee             	mov    %r13,%rsi
    209e:	48 89 c7             	mov    %rax,%rdi
    20a1:	48 89 c5             	mov    %rax,%rbp
    20a4:	e8 77 f1 ff ff       	call   1220 <_ZSt16__ostream_insertIcSt11char_traitsIcEERSt13basic_ostreamIT_T0_ES6_PKS3_l@plt>
    20a9:	f2 0f 10 0c 24       	movsd  (%rsp),%xmm1
    20ae:	48 89 ef             	mov    %rbp,%rdi
    20b1:	66 0f 28 c1          	movapd %xmm1,%xmm0
    20b5:	e8 d6 f1 ff ff       	call   1290 <_ZNSo9_M_insertIdEERSoT_@plt>
    20ba:	ba 01 00 00 00       	mov    $0x1,%edx
    20bf:	4c 89 ee             	mov    %r13,%rsi
    20c2:	48 89 c7             	mov    %rax,%rdi
    20c5:	48 89 c5             	mov    %rax,%rbp
    20c8:	e8 53 f1 ff ff       	call   1220 <_ZSt16__ostream_insertIcSt11char_traitsIcEERSt13basic_ostreamIT_T0_ES6_PKS3_l@plt>
    20cd:	8b 74 24 0c          	mov    0xc(%rsp),%esi
    20d1:	48 89 ef             	mov    %rbp,%rdi
    20d4:	e8 c7 f1 ff ff       	call   12a0 <_ZNSolsEi@plt>
    20d9:	ba 01 00 00 00       	mov    $0x1,%edx
    20de:	4c 89 ee             	mov    %r13,%rsi
    20e1:	48 89 c5             	mov    %rax,%rbp
    20e4:	48 89 c7             	mov    %rax,%rdi
    20e7:	e8 34 f1 ff ff       	call   1220 <_ZSt16__ostream_insertIcSt11char_traitsIcEERSt13basic_ostreamIT_T0_ES6_PKS3_l@plt>
    20ec:	48 89 ef             	mov    %rbp,%rdi
    20ef:	44 89 f6             	mov    %r14d,%esi
    20f2:	e8 a9 f1 ff ff       	call   12a0 <_ZNSolsEi@plt>
    20f7:	bf 01 00 00 00       	mov    $0x1,%edi
    20fc:	e8 4f f1 ff ff       	call   1250 <exit@plt>
    2101:	0f 1f 80 00 00 00 00 	nopl   0x0(%rax)
    2108:	4d 63 c9             	movslq %r9d,%r9
    210b:	49 63 cc             	movslq %r12d,%rcx
    210e:	4a 8b 04 cf          	mov    (%rdi,%r9,8),%rax
    2112:	48 8d 14 cd 00 00 00 	lea    0x0(,%rcx,8),%rdx
    2119:	00 
    211a:	4a 8b 04 e8          	mov    (%rax,%r13,8),%rax
    211e:	45 85 e4             	test   %r12d,%r12d
    2121:	0f 8e 59 01 00 00    	jle    2280 <_Z7partdifPPPPdiiiidii+0x2c0>
    2127:	48 8b 74 10 f8       	mov    -0x8(%rax,%rdx,1),%rsi
    212c:	41 83 e8 01          	sub    $0x1,%r8d
    2130:	f2 0f 10 14 ee       	movsd  (%rsi,%rbp,8),%xmm2
    2135:	45 39 e0             	cmp    %r12d,%r8d
    2138:	0f 8e 12 02 00 00    	jle    2350 <_Z7partdifPPPPdiiiidii+0x390>
    213e:	48 8b 44 10 08       	mov    0x8(%rax,%rdx,1),%rax
    2143:	f2 0f 10 04 e8       	movsd  (%rax,%rbp,8),%xmm0
    2148:	f2 0f 5c c2          	subsd  %xmm2,%xmm0
    214c:	f2 0f 59 05 94 1f 00 	mulsd  0x1f94(%rip),%xmm0        # 40e8 <_IO_stdin_used+0xe8>
    2153:	00 
    2154:	f2 0f 5e c1          	divsd  %xmm1,%xmm0
    2158:	e9 ae 00 00 00       	jmp    220b <_Z7partdifPPPPdiiiidii+0x24b>
    215d:	0f 1f 00             	nopl   (%rax)
    2160:	4d 63 c9             	movslq %r9d,%r9
    2163:	49 63 c5             	movslq %r13d,%rax
    2166:	4a 8b 14 cf          	mov    (%rdi,%r9,8),%rdx
    216a:	48 8d 0c c5 00 00 00 	lea    0x0(,%rax,8),%rcx
    2171:	00 
    2172:	45 85 ed             	test   %r13d,%r13d
    2175:	0f 8e a5 00 00 00    	jle    2220 <_Z7partdifPPPPdiiiidii+0x260>
    217b:	48 8b 74 0a f8       	mov    -0x8(%rdx,%rcx,1),%rsi
    2180:	41 83 e8 01          	sub    $0x1,%r8d
    2184:	4a 8b 34 e6          	mov    (%rsi,%r12,8),%rsi
    2188:	f2 0f 10 14 ee       	movsd  (%rsi,%rbp,8),%xmm2
    218d:	45 39 e8             	cmp    %r13d,%r8d
    2190:	0f 8e 7a 01 00 00    	jle    2310 <_Z7partdifPPPPdiiiidii+0x350>
    2196:	48 8b 44 0a 08       	mov    0x8(%rdx,%rcx,1),%rax
    219b:	4a 8b 04 e0          	mov    (%rax,%r12,8),%rax
    219f:	f2 0f 10 04 e8       	movsd  (%rax,%rbp,8),%xmm0
    21a4:	f2 0f 5c c2          	subsd  %xmm2,%xmm0
    21a8:	f2 0f 59 05 38 1f 00 	mulsd  0x1f38(%rip),%xmm0        # 40e8 <_IO_stdin_used+0xe8>
    21af:	00 
    21b0:	f2 0f 5e c1          	divsd  %xmm1,%xmm0
    21b4:	eb 55                	jmp    220b <_Z7partdifPPPPdiiiidii+0x24b>
    21b6:	66 2e 0f 1f 84 00 00 	cs nopw 0x0(%rax,%rax,1)
    21bd:	00 00 00 
    21c0:	4d 63 c9             	movslq %r9d,%r9
    21c3:	48 63 cd             	movslq %ebp,%rcx
    21c6:	4a 8b 04 cf          	mov    (%rdi,%r9,8),%rax
    21ca:	48 8d 14 cd 00 00 00 	lea    0x0(,%rcx,8),%rdx
    21d1:	00 
    21d2:	4a 8b 04 e8          	mov    (%rax,%r13,8),%rax
    21d6:	4a 8b 04 e0          	mov    (%rax,%r12,8),%rax
    21da:	85 ed                	test   %ebp,%ebp
    21dc:	0f 8e ee 00 00 00    	jle    22d0 <_Z7partdifPPPPdiiiidii+0x310>
    21e2:	41 83 e8 01          	sub    $0x1,%r8d
    21e6:	f2 0f 10 54 10 f8    	movsd  -0x8(%rax,%rdx,1),%xmm2
    21ec:	41 39 e8             	cmp    %ebp,%r8d
    21ef:	0f 8e 9b 01 00 00    	jle    2390 <_Z7partdifPPPPdiiiidii+0x3d0>
    21f5:	f2 0f 10 44 10 08    	movsd  0x8(%rax,%rdx,1),%xmm0
    21fb:	f2 0f 5c c2          	subsd  %xmm2,%xmm0
    21ff:	f2 0f 59 05 e1 1e 00 	mulsd  0x1ee1(%rip),%xmm0        # 40e8 <_IO_stdin_used+0xe8>
    2206:	00 
    2207:	f2 0f 5e c1          	divsd  %xmm1,%xmm0
    220b:	48 83 c4 10          	add    $0x10,%rsp
    220f:	5d                   	pop    %rbp
    2210:	41 5c                	pop    %r12
    2212:	41 5d                	pop    %r13
    2214:	41 5e                	pop    %r14
    2216:	41 5f                	pop    %r15
    2218:	c3                   	ret    
    2219:	0f 1f 80 00 00 00 00 	nopl   0x0(%rax)
    2220:	48 8b 74 0a 08       	mov    0x8(%rdx,%rcx,1),%rsi
    2225:	48 8b 04 c2          	mov    (%rdx,%rax,8),%rax
    2229:	f2 0f 10 05 a7 1e 00 	movsd  0x1ea7(%rip),%xmm0        # 40d8 <_IO_stdin_used+0xd8>
    2230:	00 
    2231:	f2 0f 10 15 b7 1e 00 	movsd  0x1eb7(%rip),%xmm2        # 40f0 <_IO_stdin_used+0xf0>
    2238:	00 
    2239:	4a 8b 04 e0          	mov    (%rax,%r12,8),%rax
    223d:	4a 8b 34 e6          	mov    (%rsi,%r12,8),%rsi
    2241:	f2 0f 59 14 e8       	mulsd  (%rax,%rbp,8),%xmm2
    2246:	48 8b 44 0a 10       	mov    0x10(%rdx,%rcx,1),%rax
    224b:	f2 0f 59 04 ee       	mulsd  (%rsi,%rbp,8),%xmm0
    2250:	4a 8b 04 e0          	mov    (%rax,%r12,8),%rax
    2254:	f2 0f 58 c2          	addsd  %xmm2,%xmm0
    2258:	f2 0f 5c 04 e8       	subsd  (%rax,%rbp,8),%xmm0
    225d:	f2 0f 59 05 83 1e 00 	mulsd  0x1e83(%rip),%xmm0        # 40e8 <_IO_stdin_used+0xe8>
    2264:	00 
    2265:	48 83 c4 10          	add    $0x10,%rsp
    2269:	5d                   	pop    %rbp
    226a:	41 5c                	pop    %r12
    226c:	41 5d                	pop    %r13
    226e:	41 5e                	pop    %r14
    2270:	41 5f                	pop    %r15
    2272:	f2 0f 5e c1          	divsd  %xmm1,%xmm0
    2276:	c3                   	ret    
    2277:	66 0f 1f 84 00 00 00 	nopw   0x0(%rax,%rax,1)
    227e:	00 00 
    2280:	48 8b 74 10 08       	mov    0x8(%rax,%rdx,1),%rsi
    2285:	48 8b 0c c8          	mov    (%rax,%rcx,8),%rcx
    2289:	f2 0f 10 05 47 1e 00 	movsd  0x1e47(%rip),%xmm0        # 40d8 <_IO_stdin_used+0xd8>
    2290:	00 
    2291:	f2 0f 10 15 57 1e 00 	movsd  0x1e57(%rip),%xmm2        # 40f0 <_IO_stdin_used+0xf0>
    2298:	00 
    2299:	f2 0f 59 04 ee       	mulsd  (%rsi,%rbp,8),%xmm0
    229e:	48 8b 44 10 10       	mov    0x10(%rax,%rdx,1),%rax
    22a3:	f2 0f 59 14 e9       	mulsd  (%rcx,%rbp,8),%xmm2
    22a8:	f2 0f 58 c2          	addsd  %xmm2,%xmm0
    22ac:	f2 0f 5c 04 e8       	subsd  (%rax,%rbp,8),%xmm0
    22b1:	f2 0f 59 05 2f 1e 00 	mulsd  0x1e2f(%rip),%xmm0        # 40e8 <_IO_stdin_used+0xe8>
    22b8:	00 
    22b9:	48 83 c4 10          	add    $0x10,%rsp
    22bd:	5d                   	pop    %rbp
    22be:	41 5c                	pop    %r12
    22c0:	41 5d                	pop    %r13
    22c2:	41 5e                	pop    %r14
    22c4:	41 5f                	pop    %r15
    22c6:	f2 0f 5e c1          	divsd  %xmm1,%xmm0
    22ca:	c3                   	ret    
    22cb:	0f 1f 44 00 00       	nopl   0x0(%rax,%rax,1)
    22d0:	f2 0f 10 05 00 1e 00 	movsd  0x1e00(%rip),%xmm0        # 40d8 <_IO_stdin_used+0xd8>
    22d7:	00 
    22d8:	f2 0f 10 15 10 1e 00 	movsd  0x1e10(%rip),%xmm2        # 40f0 <_IO_stdin_used+0xf0>
    22df:	00 
    22e0:	f2 0f 59 44 10 08    	mulsd  0x8(%rax,%rdx,1),%xmm0
    22e6:	f2 0f 59 14 c8       	mulsd  (%rax,%rcx,8),%xmm2
    22eb:	f2 0f 58 c2          	addsd  %xmm2,%xmm0
    22ef:	f2 0f 5c 44 10 10    	subsd  0x10(%rax,%rdx,1),%xmm0
    22f5:	f2 0f 59 05 eb 1d 00 	mulsd  0x1deb(%rip),%xmm0        # 40e8 <_IO_stdin_used+0xe8>
    22fc:	00 
    22fd:	48 83 c4 10          	add    $0x10,%rsp
    2301:	5d                   	pop    %rbp
    2302:	41 5c                	pop    %r12
    2304:	41 5d                	pop    %r13
    2306:	41 5e                	pop    %r14
    2308:	41 5f                	pop    %r15
    230a:	f2 0f 5e c1          	divsd  %xmm1,%xmm0
    230e:	c3                   	ret    
    230f:	90                   	nop
    2310:	48 8b 04 c2          	mov    (%rdx,%rax,8),%rax
    2314:	f2 0f 59 15 bc 1d 00 	mulsd  0x1dbc(%rip),%xmm2        # 40d8 <_IO_stdin_used+0xd8>
    231b:	00 
    231c:	f2 0f 10 05 e4 1c 00 	movsd  0x1ce4(%rip),%xmm0        # 4008 <_IO_stdin_used+0x8>
    2323:	00 
    2324:	4a 8b 04 e0          	mov    (%rax,%r12,8),%rax
    2328:	f2 0f 59 04 e8       	mulsd  (%rax,%rbp,8),%xmm0
    232d:	48 8b 44 0a f0       	mov    -0x10(%rdx,%rcx,1),%rax
    2332:	4a 8b 04 e0          	mov    (%rax,%r12,8),%rax
    2336:	f2 0f 5c c2          	subsd  %xmm2,%xmm0
    233a:	f2 0f 58 04 e8       	addsd  (%rax,%rbp,8),%xmm0
    233f:	f2 0f 59 05 a1 1d 00 	mulsd  0x1da1(%rip),%xmm0        # 40e8 <_IO_stdin_used+0xe8>
    2346:	00 
    2347:	f2 0f 5e c1          	divsd  %xmm1,%xmm0
    234b:	e9 bb fe ff ff       	jmp    220b <_Z7partdifPPPPdiiiidii+0x24b>
    2350:	48 8b 0c c8          	mov    (%rax,%rcx,8),%rcx
    2354:	f2 0f 59 15 7c 1d 00 	mulsd  0x1d7c(%rip),%xmm2        # 40d8 <_IO_stdin_used+0xd8>
    235b:	00 
    235c:	f2 0f 10 05 a4 1c 00 	movsd  0x1ca4(%rip),%xmm0        # 4008 <_IO_stdin_used+0x8>
    2363:	00 
    2364:	48 8b 44 10 f0       	mov    -0x10(%rax,%rdx,1),%rax
    2369:	f2 0f 59 04 e9       	mulsd  (%rcx,%rbp,8),%xmm0
    236e:	f2 0f 5c c2          	subsd  %xmm2,%xmm0
    2372:	f2 0f 58 04 e8       	addsd  (%rax,%rbp,8),%xmm0
    2377:	f2 0f 59 05 69 1d 00 	mulsd  0x1d69(%rip),%xmm0        # 40e8 <_IO_stdin_used+0xe8>
    237e:	00 
    237f:	f2 0f 5e c1          	divsd  %xmm1,%xmm0
    2383:	e9 83 fe ff ff       	jmp    220b <_Z7partdifPPPPdiiiidii+0x24b>
    2388:	0f 1f 84 00 00 00 00 	nopl   0x0(%rax,%rax,1)
    238f:	00 
    2390:	f2 0f 59 15 40 1d 00 	mulsd  0x1d40(%rip),%xmm2        # 40d8 <_IO_stdin_used+0xd8>
    2397:	00 
    2398:	f2 0f 10 05 68 1c 00 	movsd  0x1c68(%rip),%xmm0        # 4008 <_IO_stdin_used+0x8>
    239f:	00 
    23a0:	f2 0f 59 04 c8       	mulsd  (%rax,%rcx,8),%xmm0
    23a5:	f2 0f 5c c2          	subsd  %xmm2,%xmm0
    23a9:	f2 0f 58 44 10 f0    	addsd  -0x10(%rax,%rdx,1),%xmm0
    23af:	f2 0f 59 05 31 1d 00 	mulsd  0x1d31(%rip),%xmm0        # 40e8 <_IO_stdin_used+0xe8>
    23b6:	00 
    23b7:	f2 0f 5e c1          	divsd  %xmm1,%xmm0
    23bb:	e9 4b fe ff ff       	jmp    220b <_Z7partdifPPPPdiiiidii+0x24b>

00000000000023c0 <_Z7partdifRSt6vectorIS_IS_IS_IdSaIdEESaIS1_EESaIS3_EESaIS5_EEiiiidii>:
    23c0:	f3 0f 1e fa          	endbr64 
    23c4:	41 57                	push   %r15
    23c6:	66 0f 28 c8          	movapd %xmm0,%xmm1
    23ca:	41 56                	push   %r14
    23cc:	4c 63 f6             	movslq %esi,%r14
    23cf:	41 55                	push   %r13
    23d1:	4c 63 ea             	movslq %edx,%r13
    23d4:	41 54                	push   %r12
    23d6:	55                   	push   %rbp
    23d7:	48 63 e9             	movslq %ecx,%rbp
    23da:	48 83 ec 10          	sub    $0x10,%rsp
    23de:	44 8b 64 24 40       	mov    0x40(%rsp),%r12d
    23e3:	41 83 fc 01          	cmp    $0x1,%r12d
    23e7:	0f 84 1b 01 00 00    	je     2508 <_Z7partdifRSt6vectorIS_IS_IS_IdSaIdEESaIS1_EESaIS3_EESaIS5_EEiiiidii+0x148>
    23ed:	41 83 fc 02          	cmp    $0x2,%r12d
    23f1:	0f 84 f1 01 00 00    	je     25e8 <_Z7partdifRSt6vectorIS_IS_IS_IdSaIdEESaIS1_EESaIS3_EESaIS5_EEiiiidii+0x228>
    23f7:	45 85 e4             	test   %r12d,%r12d
    23fa:	0f 84 78 01 00 00    	je     2578 <_Z7partdifRSt6vectorIS_IS_IS_IdSaIdEESaIS1_EESaIS3_EESaIS5_EEiiiidii+0x1b8>
    2400:	4c 8d 3d 39 3c 00 00 	lea    0x3c39(%rip),%r15        # 6040 <_ZSt4cout@GLIBCXX_3.4>
    2407:	ba 12 00 00 00       	mov    $0x12,%edx
    240c:	44 89 4c 24 0c       	mov    %r9d,0xc(%rsp)
    2411:	48 8d 35 a8 1c 00 00 	lea    0x1ca8(%rip),%rsi        # 40c0 <_IO_stdin_used+0xc0>
    2418:	4c 89 ff             	mov    %r15,%rdi
    241b:	44 89 44 24 08       	mov    %r8d,0x8(%rsp)
    2420:	f2 0f 11 04 24       	movsd  %xmm0,(%rsp)
    2425:	e8 f6 ed ff ff       	call   1220 <_ZSt16__ostream_insertIcSt11char_traitsIcEERSt13basic_ostreamIT_T0_ES6_PKS3_l@plt>
    242a:	44 89 f6             	mov    %r14d,%esi
    242d:	4c 89 ff             	mov    %r15,%rdi
    2430:	4c 8d 35 9a 1c 00 00 	lea    0x1c9a(%rip),%r14        # 40d1 <_IO_stdin_used+0xd1>
    2437:	e8 64 ee ff ff       	call   12a0 <_ZNSolsEi@plt>
    243c:	ba 01 00 00 00       	mov    $0x1,%edx
    2441:	4c 89 f6             	mov    %r14,%rsi
    2444:	49 89 c7             	mov    %rax,%r15
    2447:	48 89 c7             	mov    %rax,%rdi
    244a:	e8 d1 ed ff ff       	call   1220 <_ZSt16__ostream_insertIcSt11char_traitsIcEERSt13basic_ostreamIT_T0_ES6_PKS3_l@plt>
    244f:	44 89 ee             	mov    %r13d,%esi
    2452:	4c 89 ff             	mov    %r15,%rdi
    2455:	e8 46 ee ff ff       	call   12a0 <_ZNSolsEi@plt>
    245a:	ba 01 00 00 00       	mov    $0x1,%edx
    245f:	4c 89 f6             	mov    %r14,%rsi
    2462:	49 89 c5             	mov    %rax,%r13
    2465:	48 89 c7             	mov    %rax,%rdi
    2468:	e8 b3 ed ff ff       	call   1220 <_ZSt16__ostream_insertIcSt11char_traitsIcEERSt13basic_ostreamIT_T0_ES6_PKS3_l@plt>
    246d:	89 ee                	mov    %ebp,%esi
    246f:	4c 89 ef             	mov    %r13,%rdi
    2472:	e8 29 ee ff ff       	call   12a0 <_ZNSolsEi@plt>
    2477:	ba 01 00 00 00       	mov    $0x1,%edx
    247c:	4c 89 f6             	mov    %r14,%rsi
    247f:	48 89 c7             	mov    %rax,%rdi
    2482:	48 89 c5             	mov    %rax,%rbp
    2485:	e8 96 ed ff ff       	call   1220 <_ZSt16__ostream_insertIcSt11char_traitsIcEERSt13basic_ostreamIT_T0_ES6_PKS3_l@plt>
    248a:	8b 74 24 08          	mov    0x8(%rsp),%esi
    248e:	48 89 ef             	mov    %rbp,%rdi
    2491:	e8 0a ee ff ff       	call   12a0 <_ZNSolsEi@plt>
    2496:	ba 01 00 00 00       	mov    $0x1,%edx
    249b:	4c 89 f6             	mov    %r14,%rsi
    249e:	48 89 c7             	mov    %rax,%rdi
    24a1:	48 89 c5             	mov    %rax,%rbp
    24a4:	e8 77 ed ff ff       	call   1220 <_ZSt16__ostream_insertIcSt11char_traitsIcEERSt13basic_ostreamIT_T0_ES6_PKS3_l@plt>
    24a9:	f2 0f 10 0c 24       	movsd  (%rsp),%xmm1
    24ae:	48 89 ef             	mov    %rbp,%rdi
    24b1:	66 0f 28 c1          	movapd %xmm1,%xmm0
    24b5:	e8 d6 ed ff ff       	call   1290 <_ZNSo9_M_insertIdEERSoT_@plt>
    24ba:	ba 01 00 00 00       	mov    $0x1,%edx
    24bf:	4c 89 f6             	mov    %r14,%rsi
    24c2:	48 89 c7             	mov    %rax,%rdi
    24c5:	48 89 c5             	mov    %rax,%rbp
    24c8:	e8 53 ed ff ff       	call   1220 <_ZSt16__ostream_insertIcSt11char_traitsIcEERSt13basic_ostreamIT_T0_ES6_PKS3_l@plt>
    24cd:	8b 74 24 0c          	mov    0xc(%rsp),%esi
    24d1:	48 89 ef             	mov    %rbp,%rdi
    24d4:	e8 c7 ed ff ff       	call   12a0 <_ZNSolsEi@plt>
    24d9:	ba 01 00 00 00       	mov    $0x1,%edx
    24de:	4c 89 f6             	mov    %r14,%rsi
    24e1:	48 89 c5             	mov    %rax,%rbp
    24e4:	48 89 c7             	mov    %rax,%rdi
    24e7:	e8 34 ed ff ff       	call   1220 <_ZSt16__ostream_insertIcSt11char_traitsIcEERSt13basic_ostreamIT_T0_ES6_PKS3_l@plt>
    24ec:	48 89 ef             	mov    %rbp,%rdi
    24ef:	44 89 e6             	mov    %r12d,%esi
    24f2:	e8 a9 ed ff ff       	call   12a0 <_ZNSolsEi@plt>
    24f7:	bf 01 00 00 00       	mov    $0x1,%edi
    24fc:	e8 4f ed ff ff       	call   1250 <exit@plt>
    2501:	0f 1f 80 00 00 00 00 	nopl   0x0(%rax)
    2508:	4d 63 c9             	movslq %r9d,%r9
    250b:	4b 8d 04 76          	lea    (%r14,%r14,2),%rax
    250f:	4b 8d 14 49          	lea    (%r9,%r9,2),%rdx
    2513:	4c 8b 0f             	mov    (%rdi),%r9
    2516:	49 8d 14 d1          	lea    (%r9,%rdx,8),%rdx
    251a:	4c 8b 12             	mov    (%rdx),%r10
    251d:	49 8d 04 c2          	lea    (%r10,%rax,8),%rax
    2521:	48 8b 00             	mov    (%rax),%rax
    2524:	45 85 ed             	test   %r13d,%r13d
    2527:	0f 8e 93 01 00 00    	jle    26c0 <_Z7partdifRSt6vectorIS_IS_IS_IdSaIdEESaIS1_EESaIS3_EESaIS5_EEiiiidii+0x300>
    252d:	41 8d 55 ff          	lea    -0x1(%r13),%edx
    2531:	41 83 e8 01          	sub    $0x1,%r8d
    2535:	48 63 d2             	movslq %edx,%rdx
    2538:	48 8d 14 52          	lea    (%rdx,%rdx,2),%rdx
    253c:	48 c1 e2 03          	shl    $0x3,%rdx
    2540:	48 8b 0c 10          	mov    (%rax,%rdx,1),%rcx
    2544:	f2 0f 10 14 e9       	movsd  (%rcx,%rbp,8),%xmm2
    2549:	45 39 e8             	cmp    %r13d,%r8d
    254c:	0f 8e 56 02 00 00    	jle    27a8 <_Z7partdifRSt6vectorIS_IS_IS_IdSaIdEESaIS1_EESaIS3_EESaIS5_EEiiiidii+0x3e8>
    2552:	48 8b 44 10 30       	mov    0x30(%rax,%rdx,1),%rax
    2557:	f2 0f 10 04 e8       	movsd  (%rax,%rbp,8),%xmm0
    255c:	f2 0f 5c c2          	subsd  %xmm2,%xmm0
    2560:	f2 0f 59 05 80 1b 00 	mulsd  0x1b80(%rip),%xmm0        # 40e8 <_IO_stdin_used+0xe8>
    2567:	00 
    2568:	f2 0f 5e c1          	divsd  %xmm1,%xmm0
    256c:	e9 e0 00 00 00       	jmp    2651 <_Z7partdifRSt6vectorIS_IS_IS_IdSaIdEESaIS1_EESaIS3_EESaIS5_EEiiiidii+0x291>
    2571:	0f 1f 80 00 00 00 00 	nopl   0x0(%rax)
    2578:	4c 8b 1f             	mov    (%rdi),%r11
    257b:	4d 63 c9             	movslq %r9d,%r9
    257e:	4b 8d 4c 6d 00       	lea    0x0(%r13,%r13,2),%rcx
    2583:	4b 8d 14 49          	lea    (%r9,%r9,2),%rdx
    2587:	48 c1 e1 03          	shl    $0x3,%rcx
    258b:	49 8d 14 d3          	lea    (%r11,%rdx,8),%rdx
    258f:	48 8b 02             	mov    (%rdx),%rax
    2592:	45 85 f6             	test   %r14d,%r14d
    2595:	0f 8e c5 00 00 00    	jle    2660 <_Z7partdifRSt6vectorIS_IS_IS_IdSaIdEESaIS1_EESaIS3_EESaIS5_EEiiiidii+0x2a0>
    259b:	41 8d 56 ff          	lea    -0x1(%r14),%edx
    259f:	41 83 e8 01          	sub    $0x1,%r8d
    25a3:	48 63 d2             	movslq %edx,%rdx
    25a6:	48 8d 14 52          	lea    (%rdx,%rdx,2),%rdx
    25aa:	48 c1 e2 03          	shl    $0x3,%rdx
    25ae:	48 8b 34 10          	mov    (%rax,%rdx,1),%rsi
    25b2:	48 8b 34 0e          	mov    (%rsi,%rcx,1),%rsi
    25b6:	f2 0f 10 14 ee       	movsd  (%rsi,%rbp,8),%xmm2
    25bb:	45 39 f0             	cmp    %r14d,%r8d
    25be:	0f 8e 9c 01 00 00    	jle    2760 <_Z7partdifRSt6vectorIS_IS_IS_IdSaIdEESaIS1_EESaIS3_EESaIS5_EEiiiidii+0x3a0>
    25c4:	48 8b 44 10 30       	mov    0x30(%rax,%rdx,1),%rax
    25c9:	48 8b 04 08          	mov    (%rax,%rcx,1),%rax
    25cd:	f2 0f 10 04 e8       	movsd  (%rax,%rbp,8),%xmm0
    25d2:	f2 0f 5c c2          	subsd  %xmm2,%xmm0
    25d6:	f2 0f 59 05 0a 1b 00 	mulsd  0x1b0a(%rip),%xmm0        # 40e8 <_IO_stdin_used+0xe8>
    25dd:	00 
    25de:	f2 0f 5e c1          	divsd  %xmm1,%xmm0
    25e2:	eb 6d                	jmp    2651 <_Z7partdifRSt6vectorIS_IS_IS_IdSaIdEESaIS1_EESaIS3_EESaIS5_EEiiiidii+0x291>
    25e4:	0f 1f 40 00          	nopl   0x0(%rax)
    25e8:	48 8b 0f             	mov    (%rdi),%rcx
    25eb:	4d 63 c9             	movslq %r9d,%r9
    25ee:	4b 8d 14 49          	lea    (%r9,%r9,2),%rdx
    25f2:	48 8d 14 d1          	lea    (%rcx,%rdx,8),%rdx
    25f6:	48 89 d0             	mov    %rdx,%rax
    25f9:	4b 8d 14 76          	lea    (%r14,%r14,2),%rdx
    25fd:	48 8b 30             	mov    (%rax),%rsi
    2600:	4b 8d 44 6d 00       	lea    0x0(%r13,%r13,2),%rax
    2605:	48 8d 14 d6          	lea    (%rsi,%rdx,8),%rdx
    2609:	48 8b 3a             	mov    (%rdx),%rdi
    260c:	48 8d 04 c7          	lea    (%rdi,%rax,8),%rax
    2610:	48 8b 00             	mov    (%rax),%rax
    2613:	85 ed                	test   %ebp,%ebp
    2615:	0f 8e fd 00 00 00    	jle    2718 <_Z7partdifRSt6vectorIS_IS_IS_IdSaIdEESaIS1_EESaIS3_EESaIS5_EEiiiidii+0x358>
    261b:	8d 55 ff             	lea    -0x1(%rbp),%edx
    261e:	41 83 e8 01          	sub    $0x1,%r8d
    2622:	48 63 d2             	movslq %edx,%rdx
    2625:	f2 0f 10 14 d0       	movsd  (%rax,%rdx,8),%xmm2
    262a:	48 8d 0c d5 00 00 00 	lea    0x0(,%rdx,8),%rcx
    2631:	00 
    2632:	41 39 e8             	cmp    %ebp,%r8d
    2635:	0f 8e ad 01 00 00    	jle    27e8 <_Z7partdifRSt6vectorIS_IS_IS_IdSaIdEESaIS1_EESaIS3_EESaIS5_EEiiiidii+0x428>
    263b:	f2 0f 10 44 08 10    	movsd  0x10(%rax,%rcx,1),%xmm0
    2641:	f2 0f 5c c2          	subsd  %xmm2,%xmm0
    2645:	f2 0f 59 05 9b 1a 00 	mulsd  0x1a9b(%rip),%xmm0        # 40e8 <_IO_stdin_used+0xe8>
    264c:	00 
    264d:	f2 0f 5e c1          	divsd  %xmm1,%xmm0
    2651:	48 83 c4 10          	add    $0x10,%rsp
    2655:	5d                   	pop    %rbp
    2656:	41 5c                	pop    %r12
    2658:	41 5d                	pop    %r13
    265a:	41 5e                	pop    %r14
    265c:	41 5f                	pop    %r15
    265e:	c3                   	ret    
    265f:	90                   	nop
    2660:	4b 8d 14 76          	lea    (%r14,%r14,2),%rdx
    2664:	f2 0f 10 05 6c 1a 00 	movsd  0x1a6c(%rip),%xmm0        # 40d8 <_IO_stdin_used+0xd8>
    266b:	00 
    266c:	f2 0f 10 15 7c 1a 00 	movsd  0x1a7c(%rip),%xmm2        # 40f0 <_IO_stdin_used+0xf0>
    2673:	00 
    2674:	48 c1 e2 03          	shl    $0x3,%rdx
    2678:	48 8b 74 10 18       	mov    0x18(%rax,%rdx,1),%rsi
    267d:	48 8b 34 0e          	mov    (%rsi,%rcx,1),%rsi
    2681:	f2 0f 59 04 ee       	mulsd  (%rsi,%rbp,8),%xmm0
    2686:	48 8b 34 10          	mov    (%rax,%rdx,1),%rsi
    268a:	48 8b 44 10 30       	mov    0x30(%rax,%rdx,1),%rax
    268f:	48 8b 34 0e          	mov    (%rsi,%rcx,1),%rsi
    2693:	48 8b 04 08          	mov    (%rax,%rcx,1),%rax
    2697:	f2 0f 59 14 ee       	mulsd  (%rsi,%rbp,8),%xmm2
    269c:	f2 0f 58 c2          	addsd  %xmm2,%xmm0
    26a0:	f2 0f 5c 04 e8       	subsd  (%rax,%rbp,8),%xmm0
    26a5:	f2 0f 59 05 3b 1a 00 	mulsd  0x1a3b(%rip),%xmm0        # 40e8 <_IO_stdin_used+0xe8>
    26ac:	00 
    26ad:	48 83 c4 10          	add    $0x10,%rsp
    26b1:	5d                   	pop    %rbp
    26b2:	41 5c                	pop    %r12
    26b4:	41 5d                	pop    %r13
    26b6:	41 5e                	pop    %r14
    26b8:	41 5f                	pop    %r15
    26ba:	f2 0f 5e c1          	divsd  %xmm1,%xmm0
    26be:	c3                   	ret    
    26bf:	90                   	nop
    26c0:	4b 8d 54 6d 00       	lea    0x0(%r13,%r13,2),%rdx
    26c5:	f2 0f 10 05 0b 1a 00 	movsd  0x1a0b(%rip),%xmm0        # 40d8 <_IO_stdin_used+0xd8>
    26cc:	00 
    26cd:	f2 0f 10 15 1b 1a 00 	movsd  0x1a1b(%rip),%xmm2        # 40f0 <_IO_stdin_used+0xf0>
    26d4:	00 
    26d5:	48 c1 e2 03          	shl    $0x3,%rdx
    26d9:	48 8b 4c 10 18       	mov    0x18(%rax,%rdx,1),%rcx
    26de:	f2 0f 59 04 e9       	mulsd  (%rcx,%rbp,8),%xmm0
    26e3:	48 8b 0c 10          	mov    (%rax,%rdx,1),%rcx
    26e7:	48 8b 44 10 30       	mov    0x30(%rax,%rdx,1),%rax
    26ec:	f2 0f 59 14 e9       	mulsd  (%rcx,%rbp,8),%xmm2
    26f1:	f2 0f 58 c2          	addsd  %xmm2,%xmm0
    26f5:	f2 0f 5c 04 e8       	subsd  (%rax,%rbp,8),%xmm0
    26fa:	f2 0f 59 05 e6 19 00 	mulsd  0x19e6(%rip),%xmm0        # 40e8 <_IO_stdin_used+0xe8>
    2701:	00 
    2702:	48 83 c4 10          	add    $0x10,%rsp
    2706:	5d                   	pop    %rbp
    2707:	41 5c                	pop    %r12
    2709:	41 5d                	pop    %r13
    270b:	41 5e                	pop    %r14
    270d:	41 5f                	pop    %r15
    270f:	f2 0f 5e c1          	divsd  %xmm1,%xmm0
    2713:	c3                   	ret    
    2714:	0f 1f 40 00          	nopl   0x0(%rax)
    2718:	f2 0f 10 05 b8 19 00 	movsd  0x19b8(%rip),%xmm0        # 40d8 <_IO_stdin_used+0xd8>
    271f:	00 
    2720:	f2 0f 10 15 c8 19 00 	movsd  0x19c8(%rip),%xmm2        # 40f0 <_IO_stdin_used+0xf0>
    2727:	00 
    2728:	f2 0f 59 44 e8 08    	mulsd  0x8(%rax,%rbp,8),%xmm0
    272e:	f2 0f 59 14 e8       	mulsd  (%rax,%rbp,8),%xmm2
    2733:	f2 0f 58 c2          	addsd  %xmm2,%xmm0
    2737:	f2 0f 5c 44 e8 10    	subsd  0x10(%rax,%rbp,8),%xmm0
    273d:	f2 0f 59 05 a3 19 00 	mulsd  0x19a3(%rip),%xmm0        # 40e8 <_IO_stdin_used+0xe8>
    2744:	00 
    2745:	48 83 c4 10          	add    $0x10,%rsp
    2749:	5d                   	pop    %rbp
    274a:	41 5c                	pop    %r12
    274c:	41 5d                	pop    %r13
    274e:	41 5e                	pop    %r14
    2750:	41 5f                	pop    %r15
    2752:	f2 0f 5e c1          	divsd  %xmm1,%xmm0
    2756:	c3                   	ret    
    2757:	66 0f 1f 84 00 00 00 	nopw   0x0(%rax,%rax,1)
    275e:	00 00 
    2760:	48 8b 74 10 18       	mov    0x18(%rax,%rdx,1),%rsi
    2765:	f2 0f 59 15 6b 19 00 	mulsd  0x196b(%rip),%xmm2        # 40d8 <_IO_stdin_used+0xd8>
    276c:	00 
    276d:	f2 0f 10 05 93 18 00 	movsd  0x1893(%rip),%xmm0        # 4008 <_IO_stdin_used+0x8>
    2774:	00 
    2775:	48 8b 44 10 e8       	mov    -0x18(%rax,%rdx,1),%rax
    277a:	48 8b 34 0e          	mov    (%rsi,%rcx,1),%rsi
    277e:	48 8b 04 08          	mov    (%rax,%rcx,1),%rax
    2782:	f2 0f 59 04 ee       	mulsd  (%rsi,%rbp,8),%xmm0
    2787:	f2 0f 5c c2          	subsd  %xmm2,%xmm0
    278b:	f2 0f 58 04 e8       	addsd  (%rax,%rbp,8),%xmm0
    2790:	f2 0f 59 05 50 19 00 	mulsd  0x1950(%rip),%xmm0        # 40e8 <_IO_stdin_used+0xe8>
    2797:	00 
    2798:	f2 0f 5e c1          	divsd  %xmm1,%xmm0
    279c:	e9 b0 fe ff ff       	jmp    2651 <_Z7partdifRSt6vectorIS_IS_IS_IdSaIdEESaIS1_EESaIS3_EESaIS5_EEiiiidii+0x291>
    27a1:	0f 1f 80 00 00 00 00 	nopl   0x0(%rax)
    27a8:	48 8b 4c 10 18       	mov    0x18(%rax,%rdx,1),%rcx
    27ad:	f2 0f 59 15 23 19 00 	mulsd  0x1923(%rip),%xmm2        # 40d8 <_IO_stdin_used+0xd8>
    27b4:	00 
    27b5:	f2 0f 10 05 4b 18 00 	movsd  0x184b(%rip),%xmm0        # 4008 <_IO_stdin_used+0x8>
    27bc:	00 
    27bd:	48 8b 44 10 e8       	mov    -0x18(%rax,%rdx,1),%rax
    27c2:	f2 0f 59 04 e9       	mulsd  (%rcx,%rbp,8),%xmm0
    27c7:	f2 0f 5c c2          	subsd  %xmm2,%xmm0
    27cb:	f2 0f 58 04 e8       	addsd  (%rax,%rbp,8),%xmm0
    27d0:	f2 0f 59 05 10 19 00 	mulsd  0x1910(%rip),%xmm0        # 40e8 <_IO_stdin_used+0xe8>
    27d7:	00 
    27d8:	f2 0f 5e c1          	divsd  %xmm1,%xmm0
    27dc:	e9 70 fe ff ff       	jmp    2651 <_Z7partdifRSt6vectorIS_IS_IS_IdSaIdEESaIS1_EESaIS3_EESaIS5_EEiiiidii+0x291>
    27e1:	0f 1f 80 00 00 00 00 	nopl   0x0(%rax)
    27e8:	f2 0f 59 15 e8 18 00 	mulsd  0x18e8(%rip),%xmm2        # 40d8 <_IO_stdin_used+0xd8>
    27ef:	00 
    27f0:	f2 0f 10 05 10 18 00 	movsd  0x1810(%rip),%xmm0        # 4008 <_IO_stdin_used+0x8>
    27f7:	00 
    27f8:	f2 0f 59 44 08 08    	mulsd  0x8(%rax,%rcx,1),%xmm0
    27fe:	f2 0f 5c c2          	subsd  %xmm2,%xmm0
    2802:	f2 0f 58 44 08 f8    	addsd  -0x8(%rax,%rcx,1),%xmm0
    2808:	f2 0f 59 05 d8 18 00 	mulsd  0x18d8(%rip),%xmm0        # 40e8 <_IO_stdin_used+0xe8>
    280f:	00 
    2810:	f2 0f 5e c1          	divsd  %xmm1,%xmm0
    2814:	e9 38 fe ff ff       	jmp    2651 <_Z7partdifRSt6vectorIS_IS_IS_IdSaIdEESaIS1_EESaIS3_EESaIS5_EEiiiidii+0x291>
    2819:	0f 1f 80 00 00 00 00 	nopl   0x0(%rax)

0000000000002820 <_Z7partdifRSt6vectorIS_IS_IdSaIdEESaIS1_EESaIS3_EEiiiidi>:
    2820:	f3 0f 1e fa          	endbr64 
    2824:	41 56                	push   %r14
    2826:	66 0f 28 c8          	movapd %xmm0,%xmm1
    282a:	41 55                	push   %r13
    282c:	4c 63 ee             	movslq %esi,%r13
    282f:	41 54                	push   %r12
    2831:	4c 63 e2             	movslq %edx,%r12
    2834:	55                   	push   %rbp
    2835:	48 63 e9             	movslq %ecx,%rbp
    2838:	48 83 ec 18          	sub    $0x18,%rsp
    283c:	41 83 f9 01          	cmp    $0x1,%r9d
    2840:	0f 84 fa 00 00 00    	je     2940 <_Z7partdifRSt6vectorIS_IS_IdSaIdEESaIS1_EESaIS3_EEiiiidi+0x120>
    2846:	41 83 f9 02          	cmp    $0x2,%r9d
    284a:	0f 84 b0 01 00 00    	je     2a00 <_Z7partdifRSt6vectorIS_IS_IdSaIdEESaIS1_EESaIS3_EEiiiidi+0x1e0>
    2850:	45 85 c9             	test   %r9d,%r9d
    2853:	0f 84 47 01 00 00    	je     29a0 <_Z7partdifRSt6vectorIS_IS_IdSaIdEESaIS1_EESaIS3_EEiiiidi+0x180>
    2859:	4c 8d 35 e0 37 00 00 	lea    0x37e0(%rip),%r14        # 6040 <_ZSt4cout@GLIBCXX_3.4>
    2860:	ba 12 00 00 00       	mov    $0x12,%edx
    2865:	44 89 4c 24 0c       	mov    %r9d,0xc(%rsp)
    286a:	48 8d 35 4f 18 00 00 	lea    0x184f(%rip),%rsi        # 40c0 <_IO_stdin_used+0xc0>
    2871:	4c 89 f7             	mov    %r14,%rdi
    2874:	44 89 44 24 08       	mov    %r8d,0x8(%rsp)
    2879:	f2 0f 11 04 24       	movsd  %xmm0,(%rsp)
    287e:	e8 9d e9 ff ff       	call   1220 <_ZSt16__ostream_insertIcSt11char_traitsIcEERSt13basic_ostreamIT_T0_ES6_PKS3_l@plt>
    2883:	44 89 ee             	mov    %r13d,%esi
    2886:	4c 89 f7             	mov    %r14,%rdi
    2889:	4c 8d 2d 41 18 00 00 	lea    0x1841(%rip),%r13        # 40d1 <_IO_stdin_used+0xd1>
    2890:	e8 0b ea ff ff       	call   12a0 <_ZNSolsEi@plt>
    2895:	ba 01 00 00 00       	mov    $0x1,%edx
    289a:	4c 89 ee             	mov    %r13,%rsi
    289d:	49 89 c6             	mov    %rax,%r14
    28a0:	48 89 c7             	mov    %rax,%rdi
    28a3:	e8 78 e9 ff ff       	call   1220 <_ZSt16__ostream_insertIcSt11char_traitsIcEERSt13basic_ostreamIT_T0_ES6_PKS3_l@plt>
    28a8:	44 89 e6             	mov    %r12d,%esi
    28ab:	4c 89 f7             	mov    %r14,%rdi
    28ae:	e8 ed e9 ff ff       	call   12a0 <_ZNSolsEi@plt>
    28b3:	ba 01 00 00 00       	mov    $0x1,%edx
    28b8:	4c 89 ee             	mov    %r13,%rsi
    28bb:	49 89 c4             	mov    %rax,%r12
    28be:	48 89 c7             	mov    %rax,%rdi
    28c1:	e8 5a e9 ff ff       	call   1220 <_ZSt16__ostream_insertIcSt11char_traitsIcEERSt13basic_ostreamIT_T0_ES6_PKS3_l@plt>
    28c6:	89 ee                	mov    %ebp,%esi
    28c8:	4c 89 e7             	mov    %r12,%rdi
    28cb:	e8 d0 e9 ff ff       	call   12a0 <_ZNSolsEi@plt>
    28d0:	ba 01 00 00 00       	mov    $0x1,%edx
    28d5:	4c 89 ee             	mov    %r13,%rsi
    28d8:	48 89 c7             	mov    %rax,%rdi
    28db:	48 89 c5             	mov    %rax,%rbp
    28de:	e8 3d e9 ff ff       	call   1220 <_ZSt16__ostream_insertIcSt11char_traitsIcEERSt13basic_ostreamIT_T0_ES6_PKS3_l@plt>
    28e3:	8b 74 24 08          	mov    0x8(%rsp),%esi
    28e7:	48 89 ef             	mov    %rbp,%rdi
    28ea:	e8 b1 e9 ff ff       	call   12a0 <_ZNSolsEi@plt>
    28ef:	ba 01 00 00 00       	mov    $0x1,%edx
    28f4:	4c 89 ee             	mov    %r13,%rsi
    28f7:	48 89 c7             	mov    %rax,%rdi
    28fa:	48 89 c5             	mov    %rax,%rbp
    28fd:	e8 1e e9 ff ff       	call   1220 <_ZSt16__ostream_insertIcSt11char_traitsIcEERSt13basic_ostreamIT_T0_ES6_PKS3_l@plt>
    2902:	f2 0f 10 0c 24       	movsd  (%rsp),%xmm1
    2907:	48 89 ef             	mov    %rbp,%rdi
    290a:	66 0f 28 c1          	movapd %xmm1,%xmm0
    290e:	e8 7d e9 ff ff       	call   1290 <_ZNSo9_M_insertIdEERSoT_@plt>
    2913:	ba 01 00 00 00       	mov    $0x1,%edx
    2918:	4c 89 ee             	mov    %r13,%rsi
    291b:	48 89 c7             	mov    %rax,%rdi
    291e:	48 89 c5             	mov    %rax,%rbp
    2921:	e8 fa e8 ff ff       	call   1220 <_ZSt16__ostream_insertIcSt11char_traitsIcEERSt13basic_ostreamIT_T0_ES6_PKS3_l@plt>
    2926:	8b 74 24 0c          	mov    0xc(%rsp),%esi
    292a:	48 89 ef             	mov    %rbp,%rdi
    292d:	e8 6e e9 ff ff       	call   12a0 <_ZNSolsEi@plt>
    2932:	bf 01 00 00 00       	mov    $0x1,%edi
    2937:	e8 14 e9 ff ff       	call   1250 <exit@plt>
    293c:	0f 1f 40 00          	nopl   0x0(%rax)
    2940:	48 8b 3f             	mov    (%rdi),%rdi
    2943:	4b 8d 54 6d 00       	lea    0x0(%r13,%r13,2),%rdx
    2948:	48 8d 14 d7          	lea    (%rdi,%rdx,8),%rdx
    294c:	48 8b 02             	mov    (%rdx),%rax
    294f:	45 85 e4             	test   %r12d,%r12d
    2952:	0f 8e 78 01 00 00    	jle    2ad0 <_Z7partdifRSt6vectorIS_IS_IdSaIdEESaIS1_EESaIS3_EEiiiidi+0x2b0>
    2958:	41 8d 54 24 ff       	lea    -0x1(%r12),%edx
    295d:	41 83 e8 01          	sub    $0x1,%r8d
    2961:	48 63 d2             	movslq %edx,%rdx
    2964:	48 8d 14 52          	lea    (%rdx,%rdx,2),%rdx
    2968:	48 c1 e2 03          	shl    $0x3,%rdx
    296c:	48 8b 0c 10          	mov    (%rax,%rdx,1),%rcx
    2970:	f2 0f 10 14 e9       	movsd  (%rcx,%rbp,8),%xmm2
    2975:	45 39 e0             	cmp    %r12d,%r8d
    2978:	0f 8e 32 02 00 00    	jle    2bb0 <_Z7partdifRSt6vectorIS_IS_IdSaIdEESaIS1_EESaIS3_EEiiiidi+0x390>
    297e:	48 8b 44 10 30       	mov    0x30(%rax,%rdx,1),%rax
    2983:	f2 0f 10 04 e8       	movsd  (%rax,%rbp,8),%xmm0
    2988:	f2 0f 5c c2          	subsd  %xmm2,%xmm0
    298c:	f2 0f 59 05 54 17 00 	mulsd  0x1754(%rip),%xmm0        # 40e8 <_IO_stdin_used+0xe8>
    2993:	00 
    2994:	f2 0f 5e c1          	divsd  %xmm1,%xmm0
    2998:	e9 bb 00 00 00       	jmp    2a58 <_Z7partdifRSt6vectorIS_IS_IdSaIdEESaIS1_EESaIS3_EEiiiidi+0x238>
    299d:	0f 1f 00             	nopl   (%rax)
    29a0:	4b 8d 14 64          	lea    (%r12,%r12,2),%rdx
    29a4:	48 8b 07             	mov    (%rdi),%rax
    29a7:	48 c1 e2 03          	shl    $0x3,%rdx
    29ab:	45 85 ed             	test   %r13d,%r13d
    29ae:	0f 8e b4 00 00 00    	jle    2a68 <_Z7partdifRSt6vectorIS_IS_IdSaIdEESaIS1_EESaIS3_EEiiiidi+0x248>
    29b4:	41 8d 4d ff          	lea    -0x1(%r13),%ecx
    29b8:	41 83 e8 01          	sub    $0x1,%r8d
    29bc:	48 63 c9             	movslq %ecx,%rcx
    29bf:	48 8d 0c 49          	lea    (%rcx,%rcx,2),%rcx
    29c3:	48 c1 e1 03          	shl    $0x3,%rcx
    29c7:	48 8b 34 08          	mov    (%rax,%rcx,1),%rsi
    29cb:	48 8b 34 16          	mov    (%rsi,%rdx,1),%rsi
    29cf:	f2 0f 10 14 ee       	movsd  (%rsi,%rbp,8),%xmm2
    29d4:	45 39 e8             	cmp    %r13d,%r8d
    29d7:	0f 8e 8b 01 00 00    	jle    2b68 <_Z7partdifRSt6vectorIS_IS_IdSaIdEESaIS1_EESaIS3_EEiiiidi+0x348>
    29dd:	48 8b 44 08 30       	mov    0x30(%rax,%rcx,1),%rax
    29e2:	48 8b 04 10          	mov    (%rax,%rdx,1),%rax
    29e6:	f2 0f 10 04 e8       	movsd  (%rax,%rbp,8),%xmm0
    29eb:	f2 0f 5c c2          	subsd  %xmm2,%xmm0
    29ef:	f2 0f 59 05 f1 16 00 	mulsd  0x16f1(%rip),%xmm0        # 40e8 <_IO_stdin_used+0xe8>
    29f6:	00 
    29f7:	f2 0f 5e c1          	divsd  %xmm1,%xmm0
    29fb:	eb 5b                	jmp    2a58 <_Z7partdifRSt6vectorIS_IS_IdSaIdEESaIS1_EESaIS3_EEiiiidi+0x238>
    29fd:	0f 1f 00             	nopl   (%rax)
    2a00:	48 8b 0f             	mov    (%rdi),%rcx
    2a03:	4b 8d 54 6d 00       	lea    0x0(%r13,%r13,2),%rdx
    2a08:	4b 8d 04 64          	lea    (%r12,%r12,2),%rax
    2a0c:	48 8d 14 d1          	lea    (%rcx,%rdx,8),%rdx
    2a10:	48 8b 32             	mov    (%rdx),%rsi
    2a13:	48 8d 04 c6          	lea    (%rsi,%rax,8),%rax
    2a17:	48 8b 00             	mov    (%rax),%rax
    2a1a:	85 ed                	test   %ebp,%ebp
    2a1c:	0f 8e 06 01 00 00    	jle    2b28 <_Z7partdifRSt6vectorIS_IS_IdSaIdEESaIS1_EESaIS3_EEiiiidi+0x308>
    2a22:	8d 55 ff             	lea    -0x1(%rbp),%edx
    2a25:	41 83 e8 01          	sub    $0x1,%r8d
    2a29:	48 63 d2             	movslq %edx,%rdx
    2a2c:	f2 0f 10 14 d0       	movsd  (%rax,%rdx,8),%xmm2
    2a31:	48 8d 0c d5 00 00 00 	lea    0x0(,%rdx,8),%rcx
    2a38:	00 
    2a39:	41 39 e8             	cmp    %ebp,%r8d
    2a3c:	0f 8e ae 01 00 00    	jle    2bf0 <_Z7partdifRSt6vectorIS_IS_IdSaIdEESaIS1_EESaIS3_EEiiiidi+0x3d0>
    2a42:	f2 0f 10 44 08 10    	movsd  0x10(%rax,%rcx,1),%xmm0
    2a48:	f2 0f 5c c2          	subsd  %xmm2,%xmm0
    2a4c:	f2 0f 59 05 94 16 00 	mulsd  0x1694(%rip),%xmm0        # 40e8 <_IO_stdin_used+0xe8>
    2a53:	00 
    2a54:	f2 0f 5e c1          	divsd  %xmm1,%xmm0
    2a58:	48 83 c4 18          	add    $0x18,%rsp
    2a5c:	5d                   	pop    %rbp
    2a5d:	41 5c                	pop    %r12
    2a5f:	41 5d                	pop    %r13
    2a61:	41 5e                	pop    %r14
    2a63:	c3                   	ret    
    2a64:	0f 1f 40 00          	nopl   0x0(%rax)
    2a68:	4b 8d 4c 6d 00       	lea    0x0(%r13,%r13,2),%rcx
    2a6d:	f2 0f 10 05 63 16 00 	movsd  0x1663(%rip),%xmm0        # 40d8 <_IO_stdin_used+0xd8>
    2a74:	00 
    2a75:	f2 0f 10 15 73 16 00 	movsd  0x1673(%rip),%xmm2        # 40f0 <_IO_stdin_used+0xf0>
    2a7c:	00 
    2a7d:	48 c1 e1 03          	shl    $0x3,%rcx
    2a81:	48 8b 74 08 18       	mov    0x18(%rax,%rcx,1),%rsi
    2a86:	48 8b 34 16          	mov    (%rsi,%rdx,1),%rsi
    2a8a:	f2 0f 59 04 ee       	mulsd  (%rsi,%rbp,8),%xmm0
    2a8f:	48 8b 34 08          	mov    (%rax,%rcx,1),%rsi
    2a93:	48 8b 44 08 30       	mov    0x30(%rax,%rcx,1),%rax
    2a98:	48 8b 34 16          	mov    (%rsi,%rdx,1),%rsi
    2a9c:	48 8b 04 10          	mov    (%rax,%rdx,1),%rax
    2aa0:	f2 0f 59 14 ee       	mulsd  (%rsi,%rbp,8),%xmm2
    2aa5:	f2 0f 58 c2          	addsd  %xmm2,%xmm0
    2aa9:	f2 0f 5c 04 e8       	subsd  (%rax,%rbp,8),%xmm0
    2aae:	f2 0f 59 05 32 16 00 	mulsd  0x1632(%rip),%xmm0        # 40e8 <_IO_stdin_used+0xe8>
    2ab5:	00 
    2ab6:	48 83 c4 18          	add    $0x18,%rsp
    2aba:	5d                   	pop    %rbp
    2abb:	41 5c                	pop    %r12
    2abd:	41 5d                	pop    %r13
    2abf:	41 5e                	pop    %r14
    2ac1:	f2 0f 5e c1          	divsd  %xmm1,%xmm0
    2ac5:	c3                   	ret    
    2ac6:	66 2e 0f 1f 84 00 00 	cs nopw 0x0(%rax,%rax,1)
    2acd:	00 00 00 
    2ad0:	4b 8d 14 64          	lea    (%r12,%r12,2),%rdx
    2ad4:	f2 0f 10 05 fc 15 00 	movsd  0x15fc(%rip),%xmm0        # 40d8 <_IO_stdin_used+0xd8>
    2adb:	00 
    2adc:	f2 0f 10 15 0c 16 00 	movsd  0x160c(%rip),%xmm2        # 40f0 <_IO_stdin_used+0xf0>
    2ae3:	00 
    2ae4:	48 c1 e2 03          	shl    $0x3,%rdx
    2ae8:	48 8b 4c 10 18       	mov    0x18(%rax,%rdx,1),%rcx
    2aed:	f2 0f 59 04 e9       	mulsd  (%rcx,%rbp,8),%xmm0
    2af2:	48 8b 0c 10          	mov    (%rax,%rdx,1),%rcx
    2af6:	48 8b 44 10 30       	mov    0x30(%rax,%rdx,1),%rax
    2afb:	f2 0f 59 14 e9       	mulsd  (%rcx,%rbp,8),%xmm2
    2b00:	f2 0f 58 c2          	addsd  %xmm2,%xmm0
    2b04:	f2 0f 5c 04 e8       	subsd  (%rax,%rbp,8),%xmm0
    2b09:	f2 0f 59 05 d7 15 00 	mulsd  0x15d7(%rip),%xmm0        # 40e8 <_IO_stdin_used+0xe8>
    2b10:	00 
    2b11:	48 83 c4 18          	add    $0x18,%rsp
    2b15:	5d                   	pop    %rbp
    2b16:	41 5c                	pop    %r12
    2b18:	41 5d                	pop    %r13
    2b1a:	41 5e                	pop    %r14
    2b1c:	f2 0f 5e c1          	divsd  %xmm1,%xmm0
    2b20:	c3                   	ret    
    2b21:	0f 1f 80 00 00 00 00 	nopl   0x0(%rax)
    2b28:	f2 0f 10 05 a8 15 00 	movsd  0x15a8(%rip),%xmm0        # 40d8 <_IO_stdin_used+0xd8>
    2b2f:	00 
    2b30:	f2 0f 10 15 b8 15 00 	movsd  0x15b8(%rip),%xmm2        # 40f0 <_IO_stdin_used+0xf0>
    2b37:	00 
    2b38:	f2 0f 59 44 e8 08    	mulsd  0x8(%rax,%rbp,8),%xmm0
    2b3e:	f2 0f 59 14 e8       	mulsd  (%rax,%rbp,8),%xmm2
    2b43:	f2 0f 58 c2          	addsd  %xmm2,%xmm0
    2b47:	f2 0f 5c 44 e8 10    	subsd  0x10(%rax,%rbp,8),%xmm0
    2b4d:	f2 0f 59 05 93 15 00 	mulsd  0x1593(%rip),%xmm0        # 40e8 <_IO_stdin_used+0xe8>
    2b54:	00 
    2b55:	48 83 c4 18          	add    $0x18,%rsp
    2b59:	5d                   	pop    %rbp
    2b5a:	41 5c                	pop    %r12
    2b5c:	41 5d                	pop    %r13
    2b5e:	41 5e                	pop    %r14
    2b60:	f2 0f 5e c1          	divsd  %xmm1,%xmm0
    2b64:	c3                   	ret    
    2b65:	0f 1f 00             	nopl   (%rax)
    2b68:	48 8b 74 08 18       	mov    0x18(%rax,%rcx,1),%rsi
    2b6d:	f2 0f 59 15 63 15 00 	mulsd  0x1563(%rip),%xmm2        # 40d8 <_IO_stdin_used+0xd8>
    2b74:	00 
    2b75:	f2 0f 10 05 8b 14 00 	movsd  0x148b(%rip),%xmm0        # 4008 <_IO_stdin_used+0x8>
    2b7c:	00 
    2b7d:	48 8b 44 08 e8       	mov    -0x18(%rax,%rcx,1),%rax
    2b82:	48 8b 34 16          	mov    (%rsi,%rdx,1),%rsi
    2b86:	48 8b 04 10          	mov    (%rax,%rdx,1),%rax
    2b8a:	f2 0f 59 04 ee       	mulsd  (%rsi,%rbp,8),%xmm0
    2b8f:	f2 0f 5c c2          	subsd  %xmm2,%xmm0
    2b93:	f2 0f 58 04 e8       	addsd  (%rax,%rbp,8),%xmm0
    2b98:	f2 0f 59 05 48 15 00 	mulsd  0x1548(%rip),%xmm0        # 40e8 <_IO_stdin_used+0xe8>
    2b9f:	00 
    2ba0:	f2 0f 5e c1          	divsd  %xmm1,%xmm0
    2ba4:	e9 af fe ff ff       	jmp    2a58 <_Z7partdifRSt6vectorIS_IS_IdSaIdEESaIS1_EESaIS3_EEiiiidi+0x238>
    2ba9:	0f 1f 80 00 00 00 00 	nopl   0x0(%rax)
    2bb0:	48 8b 4c 10 18       	mov    0x18(%rax,%rdx,1),%rcx
    2bb5:	f2 0f 59 15 1b 15 00 	mulsd  0x151b(%rip),%xmm2        # 40d8 <_IO_stdin_used+0xd8>
    2bbc:	00 
    2bbd:	f2 0f 10 05 43 14 00 	movsd  0x1443(%rip),%xmm0        # 4008 <_IO_stdin_used+0x8>
    2bc4:	00 
    2bc5:	48 8b 44 10 e8       	mov    -0x18(%rax,%rdx,1),%rax
    2bca:	f2 0f 59 04 e9       	mulsd  (%rcx,%rbp,8),%xmm0
    2bcf:	f2 0f 5c c2          	subsd  %xmm2,%xmm0
    2bd3:	f2 0f 58 04 e8       	addsd  (%rax,%rbp,8),%xmm0
    2bd8:	f2 0f 59 05 08 15 00 	mulsd  0x1508(%rip),%xmm0        # 40e8 <_IO_stdin_used+0xe8>
    2bdf:	00 
    2be0:	f2 0f 5e c1          	divsd  %xmm1,%xmm0
    2be4:	e9 6f fe ff ff       	jmp    2a58 <_Z7partdifRSt6vectorIS_IS_IdSaIdEESaIS1_EESaIS3_EEiiiidi+0x238>
    2be9:	0f 1f 80 00 00 00 00 	nopl   0x0(%rax)
    2bf0:	f2 0f 59 15 e0 14 00 	mulsd  0x14e0(%rip),%xmm2        # 40d8 <_IO_stdin_used+0xd8>
    2bf7:	00 
    2bf8:	f2 0f 10 05 08 14 00 	movsd  0x1408(%rip),%xmm0        # 4008 <_IO_stdin_used+0x8>
    2bff:	00 
    2c00:	f2 0f 59 44 08 08    	mulsd  0x8(%rax,%rcx,1),%xmm0
    2c06:	f2 0f 5c c2          	subsd  %xmm2,%xmm0
    2c0a:	f2 0f 58 44 08 f8    	addsd  -0x8(%rax,%rcx,1),%xmm0
    2c10:	f2 0f 59 05 d0 14 00 	mulsd  0x14d0(%rip),%xmm0        # 40e8 <_IO_stdin_used+0xe8>
    2c17:	00 
    2c18:	f2 0f 5e c1          	divsd  %xmm1,%xmm0
    2c1c:	e9 37 fe ff ff       	jmp    2a58 <_Z7partdifRSt6vectorIS_IS_IdSaIdEESaIS1_EESaIS3_EEiiiidi+0x238>
    2c21:	66 66 2e 0f 1f 84 00 	data16 cs nopw 0x0(%rax,%rax,1)
    2c28:	00 00 00 00 
    2c2c:	0f 1f 40 00          	nopl   0x0(%rax)

0000000000002c30 <_Z8partdif2RSt6vectorIS_IS_IS_IdSaIdEESaIS1_EESaIS3_EESaIS5_EEiiiidii>:
    2c30:	f3 0f 1e fa          	endbr64 
    2c34:	41 57                	push   %r15
    2c36:	66 0f 28 c8          	movapd %xmm0,%xmm1
    2c3a:	41 56                	push   %r14
    2c3c:	41 55                	push   %r13
    2c3e:	4c 63 ee             	movslq %esi,%r13
    2c41:	41 54                	push   %r12
    2c43:	4c 63 e2             	movslq %edx,%r12
    2c46:	55                   	push   %rbp
    2c47:	48 63 e9             	movslq %ecx,%rbp
    2c4a:	48 83 ec 10          	sub    $0x10,%rsp
    2c4e:	44 8b 74 24 40       	mov    0x40(%rsp),%r14d
    2c53:	41 83 fe 01          	cmp    $0x1,%r14d
    2c57:	0f 84 1b 01 00 00    	je     2d78 <_Z8partdif2RSt6vectorIS_IS_IS_IdSaIdEESaIS1_EESaIS3_EESaIS5_EEiiiidii+0x148>
    2c5d:	41 83 fe 02          	cmp    $0x2,%r14d
    2c61:	0f 84 e9 01 00 00    	je     2e50 <_Z8partdif2RSt6vectorIS_IS_IS_IdSaIdEESaIS1_EESaIS3_EESaIS5_EEiiiidii+0x220>
    2c67:	45 85 f6             	test   %r14d,%r14d
    2c6a:	0f 84 70 01 00 00    	je     2de0 <_Z8partdif2RSt6vectorIS_IS_IS_IdSaIdEESaIS1_EESaIS3_EESaIS5_EEiiiidii+0x1b0>
    2c70:	4c 8d 3d c9 33 00 00 	lea    0x33c9(%rip),%r15        # 6040 <_ZSt4cout@GLIBCXX_3.4>
    2c77:	ba 12 00 00 00       	mov    $0x12,%edx
    2c7c:	44 89 4c 24 0c       	mov    %r9d,0xc(%rsp)
    2c81:	48 8d 35 38 14 00 00 	lea    0x1438(%rip),%rsi        # 40c0 <_IO_stdin_used+0xc0>
    2c88:	4c 89 ff             	mov    %r15,%rdi
    2c8b:	44 89 44 24 08       	mov    %r8d,0x8(%rsp)
    2c90:	f2 0f 11 04 24       	movsd  %xmm0,(%rsp)
    2c95:	e8 86 e5 ff ff       	call   1220 <_ZSt16__ostream_insertIcSt11char_traitsIcEERSt13basic_ostreamIT_T0_ES6_PKS3_l@plt>
    2c9a:	44 89 ee             	mov    %r13d,%esi
    2c9d:	4c 89 ff             	mov    %r15,%rdi
    2ca0:	4c 8d 2d 2a 14 00 00 	lea    0x142a(%rip),%r13        # 40d1 <_IO_stdin_used+0xd1>
    2ca7:	e8 f4 e5 ff ff       	call   12a0 <_ZNSolsEi@plt>
    2cac:	ba 01 00 00 00       	mov    $0x1,%edx
    2cb1:	4c 89 ee             	mov    %r13,%rsi
    2cb4:	49 89 c7             	mov    %rax,%r15
    2cb7:	48 89 c7             	mov    %rax,%rdi
    2cba:	e8 61 e5 ff ff       	call   1220 <_ZSt16__ostream_insertIcSt11char_traitsIcEERSt13basic_ostreamIT_T0_ES6_PKS3_l@plt>
    2cbf:	44 89 e6             	mov    %r12d,%esi
    2cc2:	4c 89 ff             	mov    %r15,%rdi
    2cc5:	e8 d6 e5 ff ff       	call   12a0 <_ZNSolsEi@plt>
    2cca:	ba 01 00 00 00       	mov    $0x1,%edx
    2ccf:	4c 89 ee             	mov    %r13,%rsi
    2cd2:	49 89 c4             	mov    %rax,%r12
    2cd5:	48 89 c7             	mov    %rax,%rdi
    2cd8:	e8 43 e5 ff ff       	call   1220 <_ZSt16__ostream_insertIcSt11char_traitsIcEERSt13basic_ostreamIT_T0_ES6_PKS3_l@plt>
    2cdd:	89 ee                	mov    %ebp,%esi
    2cdf:	4c 89 e7             	mov    %r12,%rdi
    2ce2:	e8 b9 e5 ff ff       	call   12a0 <_ZNSolsEi@plt>
    2ce7:	ba 01 00 00 00       	mov    $0x1,%edx
    2cec:	4c 89 ee             	mov    %r13,%rsi
    2cef:	48 89 c7             	mov    %rax,%rdi
    2cf2:	48 89 c5             	mov    %rax,%rbp
    2cf5:	e8 26 e5 ff ff       	call   1220 <_ZSt16__ostream_insertIcSt11char_traitsIcEERSt13basic_ostreamIT_T0_ES6_PKS3_l@plt>
    2cfa:	8b 74 24 08          	mov    0x8(%rsp),%esi
    2cfe:	48 89 ef             	mov    %rbp,%rdi
    2d01:	e8 9a e5 ff ff       	call   12a0 <_ZNSolsEi@plt>
    2d06:	ba 01 00 00 00       	mov    $0x1,%edx
    2d0b:	4c 89 ee             	mov    %r13,%rsi
    2d0e:	48 89 c7             	mov    %rax,%rdi
    2d11:	48 89 c5             	mov    %rax,%rbp
    2d14:	e8 07 e5 ff ff       	call   1220 <_ZSt16__ostream_insertIcSt11char_traitsIcEERSt13basic_ostreamIT_T0_ES6_PKS3_l@plt>
    2d19:	f2 0f 10 0c 24       	movsd  (%rsp),%xmm1
    2d1e:	48 89 ef             	mov    %rbp,%rdi
    2d21:	66 0f 28 c1          	movapd %xmm1,%xmm0
    2d25:	e8 66 e5 ff ff       	call   1290 <_ZNSo9_M_insertIdEERSoT_@plt>
    2d2a:	ba 01 00 00 00       	mov    $0x1,%edx
    2d2f:	4c 89 ee             	mov    %r13,%rsi
    2d32:	48 89 c7             	mov    %rax,%rdi
    2d35:	48 89 c5             	mov    %rax,%rbp
    2d38:	e8 e3 e4 ff ff       	call   1220 <_ZSt16__ostream_insertIcSt11char_traitsIcEERSt13basic_ostreamIT_T0_ES6_PKS3_l@plt>
    2d3d:	8b 74 24 0c          	mov    0xc(%rsp),%esi
    2d41:	48 89 ef             	mov    %rbp,%rdi
    2d44:	e8 57 e5 ff ff       	call   12a0 <_ZNSolsEi@plt>
    2d49:	ba 01 00 00 00       	mov    $0x1,%edx
    2d4e:	4c 89 ee             	mov    %r13,%rsi
    2d51:	48 89 c5             	mov    %rax,%rbp
    2d54:	48 89 c7             	mov    %rax,%rdi
    2d57:	e8 c4 e4 ff ff       	call   1220 <_ZSt16__ostream_insertIcSt11char_traitsIcEERSt13basic_ostreamIT_T0_ES6_PKS3_l@plt>
    2d5c:	48 89 ef             	mov    %rbp,%rdi
    2d5f:	44 89 f6             	mov    %r14d,%esi
    2d62:	e8 39 e5 ff ff       	call   12a0 <_ZNSolsEi@plt>
    2d67:	bf 01 00 00 00       	mov    $0x1,%edi
    2d6c:	e8 df e4 ff ff       	call   1250 <exit@plt>
    2d71:	0f 1f 80 00 00 00 00 	nopl   0x0(%rax)
    2d78:	4d 63 c9             	movslq %r9d,%r9
    2d7b:	4b 8d 44 6d 00       	lea    0x0(%r13,%r13,2),%rax
    2d80:	4b 8d 14 49          	lea    (%r9,%r9,2),%rdx
    2d84:	4c 8b 0f             	mov    (%rdi),%r9
    2d87:	49 8d 14 d1          	lea    (%r9,%rdx,8),%rdx
    2d8b:	4c 8b 12             	mov    (%rdx),%r10
    2d8e:	49 8d 04 c2          	lea    (%r10,%rax,8),%rax
    2d92:	48 8b 10             	mov    (%rax),%rdx
    2d95:	49 63 c4             	movslq %r12d,%rax
    2d98:	48 8d 04 40          	lea    (%rax,%rax,2),%rax
    2d9c:	48 c1 e0 03          	shl    $0x3,%rax
    2da0:	48 8b 0c 02          	mov    (%rdx,%rax,1),%rcx
    2da4:	f2 0f 10 04 e9       	movsd  (%rcx,%rbp,8),%xmm0
    2da9:	f2 0f 58 c0          	addsd  %xmm0,%xmm0
    2dad:	45 85 e4             	test   %r12d,%r12d
    2db0:	0f 8e 7a 01 00 00    	jle    2f30 <_Z8partdif2RSt6vectorIS_IS_IS_IdSaIdEESaIS1_EESaIS3_EESaIS5_EEiiiidii+0x300>
    2db6:	48 8b 4c 02 e8       	mov    -0x18(%rdx,%rax,1),%rcx
    2dbb:	41 83 e8 01          	sub    $0x1,%r8d
    2dbf:	f2 0f 10 1c e9       	movsd  (%rcx,%rbp,8),%xmm3
    2dc4:	45 39 e0             	cmp    %r12d,%r8d
    2dc7:	0f 8e 3b 02 00 00    	jle    3008 <_Z8partdif2RSt6vectorIS_IS_IS_IdSaIdEESaIS1_EESaIS3_EESaIS5_EEiiiidii+0x3d8>
    2dcd:	48 8b 44 02 18       	mov    0x18(%rdx,%rax,1),%rax
    2dd2:	f2 0f 10 14 e8       	movsd  (%rax,%rbp,8),%xmm2
    2dd7:	e9 d4 00 00 00       	jmp    2eb0 <_Z8partdif2RSt6vectorIS_IS_IS_IdSaIdEESaIS1_EESaIS3_EESaIS5_EEiiiidii+0x280>
    2ddc:	0f 1f 40 00          	nopl   0x0(%rax)
    2de0:	4c 8b 1f             	mov    (%rdi),%r11
    2de3:	4d 63 c9             	movslq %r9d,%r9
    2de6:	49 63 c5             	movslq %r13d,%rax
    2de9:	4b 8d 14 49          	lea    (%r9,%r9,2),%rdx
    2ded:	48 8d 0c 40          	lea    (%rax,%rax,2),%rcx
    2df1:	49 8d 14 d3          	lea    (%r11,%rdx,8),%rdx
    2df5:	48 c1 e1 03          	shl    $0x3,%rcx
    2df9:	4b 8d 04 64          	lea    (%r12,%r12,2),%rax
    2dfd:	48 8b 32             	mov    (%rdx),%rsi
    2e00:	48 c1 e0 03          	shl    $0x3,%rax
    2e04:	48 8b 14 0e          	mov    (%rsi,%rcx,1),%rdx
    2e08:	48 8b 14 02          	mov    (%rdx,%rax,1),%rdx
    2e0c:	f2 0f 10 04 ea       	movsd  (%rdx,%rbp,8),%xmm0
    2e11:	f2 0f 58 c0          	addsd  %xmm0,%xmm0
    2e15:	45 85 ed             	test   %r13d,%r13d
    2e18:	0f 8e ba 00 00 00    	jle    2ed8 <_Z8partdif2RSt6vectorIS_IS_IS_IdSaIdEESaIS1_EESaIS3_EESaIS5_EEiiiidii+0x2a8>
    2e1e:	48 8b 54 0e e8       	mov    -0x18(%rsi,%rcx,1),%rdx
    2e23:	41 83 e8 01          	sub    $0x1,%r8d
    2e27:	48 8b 14 02          	mov    (%rdx,%rax,1),%rdx
    2e2b:	f2 0f 10 1c ea       	movsd  (%rdx,%rbp,8),%xmm3
    2e30:	45 39 e8             	cmp    %r13d,%r8d
    2e33:	0f 8e 87 01 00 00    	jle    2fc0 <_Z8partdif2RSt6vectorIS_IS_IS_IdSaIdEESaIS1_EESaIS3_EESaIS5_EEiiiidii+0x390>
    2e39:	48 8b 54 0e 18       	mov    0x18(%rsi,%rcx,1),%rdx
    2e3e:	48 8b 04 02          	mov    (%rdx,%rax,1),%rax
    2e42:	f2 0f 10 14 e8       	movsd  (%rax,%rbp,8),%xmm2
    2e47:	eb 67                	jmp    2eb0 <_Z8partdif2RSt6vectorIS_IS_IS_IdSaIdEESaIS1_EESaIS3_EESaIS5_EEiiiidii+0x280>
    2e49:	0f 1f 80 00 00 00 00 	nopl   0x0(%rax)
    2e50:	48 8b 0f             	mov    (%rdi),%rcx
    2e53:	4d 63 c9             	movslq %r9d,%r9
    2e56:	4b 8d 14 49          	lea    (%r9,%r9,2),%rdx
    2e5a:	48 8d 14 d1          	lea    (%rcx,%rdx,8),%rdx
    2e5e:	48 63 cd             	movslq %ebp,%rcx
    2e61:	48 89 d0             	mov    %rdx,%rax
    2e64:	4b 8d 54 6d 00       	lea    0x0(%r13,%r13,2),%rdx
    2e69:	48 8b 30             	mov    (%rax),%rsi
    2e6c:	4b 8d 04 64          	lea    (%r12,%r12,2),%rax
    2e70:	48 8d 14 d6          	lea    (%rsi,%rdx,8),%rdx
    2e74:	48 8b 3a             	mov    (%rdx),%rdi
    2e77:	48 8d 14 cd 00 00 00 	lea    0x0(,%rcx,8),%rdx
    2e7e:	00 
    2e7f:	48 8d 04 c7          	lea    (%rdi,%rax,8),%rax
    2e83:	48 8b 00             	mov    (%rax),%rax
    2e86:	f2 0f 10 04 c8       	movsd  (%rax,%rcx,8),%xmm0
    2e8b:	f2 0f 58 c0          	addsd  %xmm0,%xmm0
    2e8f:	85 ed                	test   %ebp,%ebp
    2e91:	0f 8e e9 00 00 00    	jle    2f80 <_Z8partdif2RSt6vectorIS_IS_IS_IdSaIdEESaIS1_EESaIS3_EESaIS5_EEiiiidii+0x350>
    2e97:	41 83 e8 01          	sub    $0x1,%r8d
    2e9b:	f2 0f 10 5c 10 f8    	movsd  -0x8(%rax,%rdx,1),%xmm3
    2ea1:	41 39 e8             	cmp    %ebp,%r8d
    2ea4:	0f 8e 9e 01 00 00    	jle    3048 <_Z8partdif2RSt6vectorIS_IS_IS_IdSaIdEESaIS1_EESaIS3_EESaIS5_EEiiiidii+0x418>
    2eaa:	f2 0f 10 54 10 08    	movsd  0x8(%rax,%rdx,1),%xmm2
    2eb0:	f2 0f 5c d0          	subsd  %xmm0,%xmm2
    2eb4:	f2 0f 58 d3          	addsd  %xmm3,%xmm2
    2eb8:	f2 0f 5e d1          	divsd  %xmm1,%xmm2
    2ebc:	f2 0f 5e d1          	divsd  %xmm1,%xmm2
    2ec0:	66 0f 28 c2          	movapd %xmm2,%xmm0
    2ec4:	48 83 c4 10          	add    $0x10,%rsp
    2ec8:	5d                   	pop    %rbp
    2ec9:	41 5c                	pop    %r12
    2ecb:	41 5d                	pop    %r13
    2ecd:	41 5e                	pop    %r14
    2ecf:	41 5f                	pop    %r15
    2ed1:	c3                   	ret    
    2ed2:	66 0f 1f 44 00 00    	nopw   0x0(%rax,%rax,1)
    2ed8:	48 8b 54 0e 18       	mov    0x18(%rsi,%rcx,1),%rdx
    2edd:	f2 0f 10 15 13 12 00 	movsd  0x1213(%rip),%xmm2        # 40f8 <_IO_stdin_used+0xf8>
    2ee4:	00 
    2ee5:	48 8b 14 02          	mov    (%rdx,%rax,1),%rdx
    2ee9:	f2 0f 59 14 ea       	mulsd  (%rdx,%rbp,8),%xmm2
    2eee:	48 8b 54 0e 30       	mov    0x30(%rsi,%rcx,1),%rdx
    2ef3:	48 8b 14 02          	mov    (%rdx,%rax,1),%rdx
    2ef7:	f2 0f 5c c2          	subsd  %xmm2,%xmm0
    2efb:	f2 0f 10 15 d5 11 00 	movsd  0x11d5(%rip),%xmm2        # 40d8 <_IO_stdin_used+0xd8>
    2f02:	00 
    2f03:	f2 0f 59 14 ea       	mulsd  (%rdx,%rbp,8),%xmm2
    2f08:	48 8b 54 0e 48       	mov    0x48(%rsi,%rcx,1),%rdx
    2f0d:	48 8b 04 02          	mov    (%rdx,%rax,1),%rax
    2f11:	f2 0f 58 c2          	addsd  %xmm2,%xmm0
    2f15:	f2 0f 5c 04 e8       	subsd  (%rax,%rbp,8),%xmm0
    2f1a:	48 83 c4 10          	add    $0x10,%rsp
    2f1e:	5d                   	pop    %rbp
    2f1f:	41 5c                	pop    %r12
    2f21:	41 5d                	pop    %r13
    2f23:	41 5e                	pop    %r14
    2f25:	f2 0f 5e c1          	divsd  %xmm1,%xmm0
    2f29:	41 5f                	pop    %r15
    2f2b:	f2 0f 5e c1          	divsd  %xmm1,%xmm0
    2f2f:	c3                   	ret    
    2f30:	48 8b 4c 02 18       	mov    0x18(%rdx,%rax,1),%rcx
    2f35:	f2 0f 10 15 bb 11 00 	movsd  0x11bb(%rip),%xmm2        # 40f8 <_IO_stdin_used+0xf8>
    2f3c:	00 
    2f3d:	f2 0f 59 14 e9       	mulsd  (%rcx,%rbp,8),%xmm2
    2f42:	48 8b 4c 02 30       	mov    0x30(%rdx,%rax,1),%rcx
    2f47:	48 8b 44 02 48       	mov    0x48(%rdx,%rax,1),%rax
    2f4c:	f2 0f 5c c2          	subsd  %xmm2,%xmm0
    2f50:	f2 0f 10 15 80 11 00 	movsd  0x1180(%rip),%xmm2        # 40d8 <_IO_stdin_used+0xd8>
    2f57:	00 
    2f58:	f2 0f 59 14 e9       	mulsd  (%rcx,%rbp,8),%xmm2
    2f5d:	f2 0f 58 c2          	addsd  %xmm2,%xmm0
    2f61:	f2 0f 5c 04 e8       	subsd  (%rax,%rbp,8),%xmm0
    2f66:	48 83 c4 10          	add    $0x10,%rsp
    2f6a:	5d                   	pop    %rbp
    2f6b:	41 5c                	pop    %r12
    2f6d:	41 5d                	pop    %r13
    2f6f:	41 5e                	pop    %r14
    2f71:	f2 0f 5e c1          	divsd  %xmm1,%xmm0
    2f75:	41 5f                	pop    %r15
    2f77:	f2 0f 5e c1          	divsd  %xmm1,%xmm0
    2f7b:	c3                   	ret    
    2f7c:	0f 1f 40 00          	nopl   0x0(%rax)
    2f80:	f2 0f 10 15 70 11 00 	movsd  0x1170(%rip),%xmm2        # 40f8 <_IO_stdin_used+0xf8>
    2f87:	00 
    2f88:	f2 0f 59 54 10 08    	mulsd  0x8(%rax,%rdx,1),%xmm2
    2f8e:	f2 0f 5c c2          	subsd  %xmm2,%xmm0
    2f92:	f2 0f 10 15 3e 11 00 	movsd  0x113e(%rip),%xmm2        # 40d8 <_IO_stdin_used+0xd8>
    2f99:	00 
    2f9a:	f2 0f 59 54 10 10    	mulsd  0x10(%rax,%rdx,1),%xmm2
    2fa0:	f2 0f 58 c2          	addsd  %xmm2,%xmm0
    2fa4:	f2 0f 5c 44 10 18    	subsd  0x18(%rax,%rdx,1),%xmm0
    2faa:	48 83 c4 10          	add    $0x10,%rsp
    2fae:	5d                   	pop    %rbp
    2faf:	41 5c                	pop    %r12
    2fb1:	41 5d                	pop    %r13
    2fb3:	41 5e                	pop    %r14
    2fb5:	f2 0f 5e c1          	divsd  %xmm1,%xmm0
    2fb9:	41 5f                	pop    %r15
    2fbb:	f2 0f 5e c1          	divsd  %xmm1,%xmm0
    2fbf:	c3                   	ret    
    2fc0:	48 8b 54 0e d0       	mov    -0x30(%rsi,%rcx,1),%rdx
    2fc5:	f2 0f 59 1d 2b 11 00 	mulsd  0x112b(%rip),%xmm3        # 40f8 <_IO_stdin_used+0xf8>
    2fcc:	00 
    2fcd:	f2 0f 10 15 03 11 00 	movsd  0x1103(%rip),%xmm2        # 40d8 <_IO_stdin_used+0xd8>
    2fd4:	00 
    2fd5:	48 8b 14 02          	mov    (%rdx,%rax,1),%rdx
    2fd9:	f2 0f 59 14 ea       	mulsd  (%rdx,%rbp,8),%xmm2
    2fde:	48 8b 54 0e b8       	mov    -0x48(%rsi,%rcx,1),%rdx
    2fe3:	f2 0f 5c c3          	subsd  %xmm3,%xmm0
    2fe7:	48 8b 04 02          	mov    (%rdx,%rax,1),%rax
    2feb:	f2 0f 58 d0          	addsd  %xmm0,%xmm2
    2fef:	f2 0f 5c 14 e8       	subsd  (%rax,%rbp,8),%xmm2
    2ff4:	f2 0f 5e d1          	divsd  %xmm1,%xmm2
    2ff8:	f2 0f 5e d1          	divsd  %xmm1,%xmm2
    2ffc:	66 0f 28 c2          	movapd %xmm2,%xmm0
    3000:	e9 bf fe ff ff       	jmp    2ec4 <_Z8partdif2RSt6vectorIS_IS_IS_IdSaIdEESaIS1_EESaIS3_EESaIS5_EEiiiidii+0x294>
    3005:	0f 1f 00             	nopl   (%rax)
    3008:	f2 0f 59 1d e8 10 00 	mulsd  0x10e8(%rip),%xmm3        # 40f8 <_IO_stdin_used+0xf8>
    300f:	00 
    3010:	48 8b 4c 02 d0       	mov    -0x30(%rdx,%rax,1),%rcx
    3015:	f2 0f 10 15 bb 10 00 	movsd  0x10bb(%rip),%xmm2        # 40d8 <_IO_stdin_used+0xd8>
    301c:	00 
    301d:	48 8b 44 02 b8       	mov    -0x48(%rdx,%rax,1),%rax
    3022:	f2 0f 59 14 e9       	mulsd  (%rcx,%rbp,8),%xmm2
    3027:	f2 0f 5c c3          	subsd  %xmm3,%xmm0
    302b:	f2 0f 58 d0          	addsd  %xmm0,%xmm2
    302f:	f2 0f 5c 14 e8       	subsd  (%rax,%rbp,8),%xmm2
    3034:	f2 0f 5e d1          	divsd  %xmm1,%xmm2
    3038:	f2 0f 5e d1          	divsd  %xmm1,%xmm2
    303c:	66 0f 28 c2          	movapd %xmm2,%xmm0
    3040:	e9 7f fe ff ff       	jmp    2ec4 <_Z8partdif2RSt6vectorIS_IS_IS_IdSaIdEESaIS1_EESaIS3_EESaIS5_EEiiiidii+0x294>
    3045:	0f 1f 00             	nopl   (%rax)
    3048:	f2 0f 59 1d a8 10 00 	mulsd  0x10a8(%rip),%xmm3        # 40f8 <_IO_stdin_used+0xf8>
    304f:	00 
    3050:	f2 0f 10 15 80 10 00 	movsd  0x1080(%rip),%xmm2        # 40d8 <_IO_stdin_used+0xd8>
    3057:	00 
    3058:	f2 0f 59 54 10 f0    	mulsd  -0x10(%rax,%rdx,1),%xmm2
    305e:	f2 0f 5c c3          	subsd  %xmm3,%xmm0
    3062:	f2 0f 58 d0          	addsd  %xmm0,%xmm2
    3066:	f2 0f 5c 54 10 e8    	subsd  -0x18(%rax,%rdx,1),%xmm2
    306c:	f2 0f 5e d1          	divsd  %xmm1,%xmm2
    3070:	f2 0f 5e d1          	divsd  %xmm1,%xmm2
    3074:	66 0f 28 c2          	movapd %xmm2,%xmm0
    3078:	e9 47 fe ff ff       	jmp    2ec4 <_Z8partdif2RSt6vectorIS_IS_IS_IdSaIdEESaIS1_EESaIS3_EESaIS5_EEiiiidii+0x294>
    307d:	0f 1f 00             	nopl   (%rax)

0000000000003080 <_Z9divtenallPPP6tensorid>:
    3080:	f3 0f 1e fa          	endbr64 
    3084:	41 57                	push   %r15
    3086:	89 f1                	mov    %esi,%ecx
    3088:	41 89 f7             	mov    %esi,%r15d
    308b:	89 f2                	mov    %esi,%edx
    308d:	41 56                	push   %r14
    308f:	41 55                	push   %r13
    3091:	41 54                	push   %r12
    3093:	55                   	push   %rbp
    3094:	53                   	push   %rbx
    3095:	48 81 ec e8 00 00 00 	sub    $0xe8,%rsp
    309c:	48 89 bc 24 a8 00 00 	mov    %rdi,0xa8(%rsp)
    30a3:	00 
    30a4:	bf 09 00 00 00       	mov    $0x9,%edi
    30a9:	f2 0f 11 44 24 20    	movsd  %xmm0,0x20(%rsp)
    30af:	64 48 8b 04 25 28 00 	mov    %fs:0x28,%rax
    30b6:	00 00 
    30b8:	48 89 84 24 d8 00 00 	mov    %rax,0xd8(%rsp)
    30bf:	00 
    30c0:	31 c0                	xor    %eax,%eax
    30c2:	e8 e9 e9 ff ff       	call   1ab0 <_Z10allocate4djjjj>
    30c7:	45 85 ff             	test   %r15d,%r15d
    30ca:	0f 8e e5 03 00 00    	jle    34b5 <_Z9divtenallPPP6tensorid+0x435>
    30d0:	48 89 c3             	mov    %rax,%rbx
    30d3:	41 8d 47 ff          	lea    -0x1(%r15),%eax
    30d7:	48 c7 44 24 58 00 00 	movq   $0x0,0x58(%rsp)
    30de:	00 00 
    30e0:	48 89 44 24 30       	mov    %rax,0x30(%rsp)
    30e5:	4c 8d 34 c5 08 00 00 	lea    0x8(,%rax,8),%r14
    30ec:	00 
    30ed:	48 8b 03             	mov    (%rbx),%rax
    30f0:	48 89 9c 24 b0 00 00 	mov    %rbx,0xb0(%rsp)
    30f7:	00 
    30f8:	48 89 44 24 78       	mov    %rax,0x78(%rsp)
    30fd:	48 8b 43 08          	mov    0x8(%rbx),%rax
    3101:	44 89 bc 24 bc 00 00 	mov    %r15d,0xbc(%rsp)
    3108:	00 
    3109:	48 89 84 24 80 00 00 	mov    %rax,0x80(%rsp)
    3110:	00 
    3111:	48 8b 43 10          	mov    0x10(%rbx),%rax
    3115:	48 89 84 24 88 00 00 	mov    %rax,0x88(%rsp)
    311c:	00 
    311d:	48 8b 43 18          	mov    0x18(%rbx),%rax
    3121:	48 89 84 24 90 00 00 	mov    %rax,0x90(%rsp)
    3128:	00 
    3129:	48 8b 43 20          	mov    0x20(%rbx),%rax
    312d:	48 89 84 24 98 00 00 	mov    %rax,0x98(%rsp)
    3134:	00 
    3135:	48 8b 43 28          	mov    0x28(%rbx),%rax
    3139:	48 89 84 24 a0 00 00 	mov    %rax,0xa0(%rsp)
    3140:	00 
    3141:	48 8b 43 30          	mov    0x30(%rbx),%rax
    3145:	48 89 44 24 68       	mov    %rax,0x68(%rsp)
    314a:	48 8b 43 38          	mov    0x38(%rbx),%rax
    314e:	48 89 44 24 60       	mov    %rax,0x60(%rsp)
    3153:	48 8b 43 40          	mov    0x40(%rbx),%rax
    3157:	48 89 44 24 70       	mov    %rax,0x70(%rsp)
    315c:	48 8b 44 24 58       	mov    0x58(%rsp),%rax
    3161:	48 8b 8c 24 a8 00 00 	mov    0xa8(%rsp),%rcx
    3168:	00 
    3169:	4c 8b 3c 01          	mov    (%rcx,%rax,1),%r15
    316d:	48 8b 4c 24 78       	mov    0x78(%rsp),%rcx
    3172:	4c 8b 2c 01          	mov    (%rcx,%rax,1),%r13
    3176:	48 8b 8c 24 80 00 00 	mov    0x80(%rsp),%rcx
    317d:	00 
    317e:	48 8b 0c 01          	mov    (%rcx,%rax,1),%rcx
    3182:	48 89 4c 24 28       	mov    %rcx,0x28(%rsp)
    3187:	48 8b 8c 24 88 00 00 	mov    0x88(%rsp),%rcx
    318e:	00 
    318f:	48 8b 0c 01          	mov    (%rcx,%rax,1),%rcx
    3193:	48 89 4c 24 38       	mov    %rcx,0x38(%rsp)
    3198:	48 8b 8c 24 90 00 00 	mov    0x90(%rsp),%rcx
    319f:	00 
    31a0:	48 8b 0c 01          	mov    (%rcx,%rax,1),%rcx
    31a4:	48 89 4c 24 40       	mov    %rcx,0x40(%rsp)
    31a9:	48 8b 8c 24 98 00 00 	mov    0x98(%rsp),%rcx
    31b0:	00 
    31b1:	48 8b 0c 01          	mov    (%rcx,%rax,1),%rcx
    31b5:	48 89 4c 24 48       	mov    %rcx,0x48(%rsp)
    31ba:	48 8b 8c 24 a0 00 00 	mov    0xa0(%rsp),%rcx
    31c1:	00 
    31c2:	48 8b 0c 01          	mov    (%rcx,%rax,1),%rcx
    31c6:	48 89 4c 24 50       	mov    %rcx,0x50(%rsp)
    31cb:	48 8b 4c 24 68       	mov    0x68(%rsp),%rcx
    31d0:	48 8b 0c 01          	mov    (%rcx,%rax,1),%rcx
    31d4:	48 89 4c 24 10       	mov    %rcx,0x10(%rsp)
    31d9:	48 8b 4c 24 60       	mov    0x60(%rsp),%rcx
    31de:	48 8b 0c 01          	mov    (%rcx,%rax,1),%rcx
    31e2:	48 89 4c 24 08       	mov    %rcx,0x8(%rsp)
    31e7:	48 8b 4c 24 70       	mov    0x70(%rsp),%rcx
    31ec:	48 8b 04 01          	mov    (%rcx,%rax,1),%rax
    31f0:	31 c9                	xor    %ecx,%ecx
    31f2:	48 89 44 24 18       	mov    %rax,0x18(%rsp)
    31f7:	66 0f 1f 84 00 00 00 	nopw   0x0(%rax,%rax,1)
    31fe:	00 00 
    3200:	48 8b 44 24 28       	mov    0x28(%rsp),%rax
    3205:	49 8b 14 0f          	mov    (%r15,%rcx,1),%rdx
    3209:	4d 8b 64 0d 00       	mov    0x0(%r13,%rcx,1),%r12
    320e:	48 8b 2c 08          	mov    (%rax,%rcx,1),%rbp
    3212:	48 8b 44 24 38       	mov    0x38(%rsp),%rax
    3217:	48 8b 1c 08          	mov    (%rax,%rcx,1),%rbx
    321b:	48 8b 44 24 40       	mov    0x40(%rsp),%rax
    3220:	4c 8b 1c 08          	mov    (%rax,%rcx,1),%r11
    3224:	48 8b 44 24 48       	mov    0x48(%rsp),%rax
    3229:	4c 8b 14 08          	mov    (%rax,%rcx,1),%r10
    322d:	48 8b 44 24 50       	mov    0x50(%rsp),%rax
    3232:	4c 8b 0c 08          	mov    (%rax,%rcx,1),%r9
    3236:	48 8b 44 24 10       	mov    0x10(%rsp),%rax
    323b:	4c 8b 04 08          	mov    (%rax,%rcx,1),%r8
    323f:	48 8b 44 24 08       	mov    0x8(%rsp),%rax
    3244:	48 8b 3c 08          	mov    (%rax,%rcx,1),%rdi
    3248:	48 8b 44 24 18       	mov    0x18(%rsp),%rax
    324d:	48 8b 34 08          	mov    (%rax,%rcx,1),%rsi
    3251:	31 c0                	xor    %eax,%eax
    3253:	0f 1f 44 00 00       	nopl   0x0(%rax,%rax,1)
    3258:	f2 0f 10 02          	movsd  (%rdx),%xmm0
    325c:	48 83 c2 48          	add    $0x48,%rdx
    3260:	f2 41 0f 11 04 04    	movsd  %xmm0,(%r12,%rax,1)
    3266:	f2 0f 10 42 c0       	movsd  -0x40(%rdx),%xmm0
    326b:	f2 0f 11 44 05 00    	movsd  %xmm0,0x0(%rbp,%rax,1)
    3271:	f2 0f 10 42 c8       	movsd  -0x38(%rdx),%xmm0
    3276:	f2 0f 11 04 03       	movsd  %xmm0,(%rbx,%rax,1)
    327b:	f2 0f 10 42 d0       	movsd  -0x30(%rdx),%xmm0
    3280:	f2 41 0f 11 04 03    	movsd  %xmm0,(%r11,%rax,1)
    3286:	f2 0f 10 42 d8       	movsd  -0x28(%rdx),%xmm0
    328b:	f2 41 0f 11 04 02    	movsd  %xmm0,(%r10,%rax,1)
    3291:	f2 0f 10 42 e0       	movsd  -0x20(%rdx),%xmm0
    3296:	f2 41 0f 11 04 01    	movsd  %xmm0,(%r9,%rax,1)
    329c:	f2 0f 10 42 e8       	movsd  -0x18(%rdx),%xmm0
    32a1:	f2 41 0f 11 04 00    	movsd  %xmm0,(%r8,%rax,1)
    32a7:	f2 0f 10 42 f0       	movsd  -0x10(%rdx),%xmm0
    32ac:	f2 0f 11 04 07       	movsd  %xmm0,(%rdi,%rax,1)
    32b1:	f2 0f 10 42 f8       	movsd  -0x8(%rdx),%xmm0
    32b6:	f2 0f 11 04 06       	movsd  %xmm0,(%rsi,%rax,1)
    32bb:	48 83 c0 08          	add    $0x8,%rax
    32bf:	4c 39 f0             	cmp    %r14,%rax
    32c2:	75 94                	jne    3258 <_Z9divtenallPPP6tensorid+0x1d8>
    32c4:	48 83 c1 08          	add    $0x8,%rcx
    32c8:	48 39 c8             	cmp    %rcx,%rax
    32cb:	0f 85 2f ff ff ff    	jne    3200 <_Z9divtenallPPP6tensorid+0x180>
    32d1:	48 83 44 24 58 08    	addq   $0x8,0x58(%rsp)
    32d7:	48 8b 4c 24 58       	mov    0x58(%rsp),%rcx
    32dc:	48 39 c8             	cmp    %rcx,%rax
    32df:	0f 85 77 fe ff ff    	jne    315c <_Z9divtenallPPP6tensorid+0xdc>
    32e5:	44 8b bc 24 bc 00 00 	mov    0xbc(%rsp),%r15d
    32ec:	00 
    32ed:	48 8b 9c 24 b0 00 00 	mov    0xb0(%rsp),%rbx
    32f4:	00 
    32f5:	44 89 fa             	mov    %r15d,%edx
    32f8:	44 89 fe             	mov    %r15d,%esi
    32fb:	44 89 ff             	mov    %r15d,%edi
    32fe:	45 89 fe             	mov    %r15d,%r14d
    3301:	e8 ca e8 ff ff       	call   1bd0 <_Z11allocate3dvjjj>
    3306:	49 89 df             	mov    %rbx,%r15
    3309:	48 c7 44 24 40 00 00 	movq   $0x0,0x40(%rsp)
    3310:	00 00 
    3312:	48 89 44 24 48       	mov    %rax,0x48(%rsp)
    3317:	48 8d 84 24 c0 00 00 	lea    0xc0(%rsp),%rax
    331e:	00 
    331f:	48 89 44 24 50       	mov    %rax,0x50(%rsp)
    3324:	48 c7 44 24 58 00 00 	movq   $0x0,0x58(%rsp)
    332b:	00 00 
    332d:	8b 44 24 40          	mov    0x40(%rsp),%eax
    3331:	44 89 f3             	mov    %r14d,%ebx
    3334:	89 44 24 18          	mov    %eax,0x18(%rsp)
    3338:	48 8b 44 24 58       	mov    0x58(%rsp),%rax
    333d:	0f 1f 00             	nopl   (%rax)
    3340:	48 c7 44 24 28 00 00 	movq   $0x0,0x28(%rsp)
    3347:	00 00 
    3349:	41 89 c5             	mov    %eax,%r13d
    334c:	48 c1 e0 03          	shl    $0x3,%rax
    3350:	89 dd                	mov    %ebx,%ebp
    3352:	48 89 44 24 38       	mov    %rax,0x38(%rsp)
    3357:	66 0f 1f 84 00 00 00 	nopw   0x0(%rax,%rax,1)
    335e:	00 00 
    3360:	4c 8b 64 24 50       	mov    0x50(%rsp),%r12
    3365:	44 8b 74 24 28       	mov    0x28(%rsp),%r14d
    336a:	66 0f ef c9          	pxor   %xmm1,%xmm1
    336e:	48 c7 84 24 d0 00 00 	movq   $0x0,0xd0(%rsp)
    3375:	00 00 00 00 00 
    337a:	c7 44 24 08 03 00 00 	movl   $0x3,0x8(%rsp)
    3381:	00 
    3382:	4c 89 e3             	mov    %r12,%rbx
    3385:	0f 29 8c 24 c0 00 00 	movaps %xmm1,0xc0(%rsp)
    338c:	00 
    338d:	41 89 ec             	mov    %ebp,%r12d
    3390:	44 89 f5             	mov    %r14d,%ebp
    3393:	8b 44 24 08          	mov    0x8(%rsp),%eax
    3397:	45 31 f6             	xor    %r14d,%r14d
    339a:	83 e8 03             	sub    $0x3,%eax
    339d:	89 44 24 10          	mov    %eax,0x10(%rsp)
    33a1:	44 89 e0             	mov    %r12d,%eax
    33a4:	41 89 ec             	mov    %ebp,%r12d
    33a7:	89 c5                	mov    %eax,%ebp
    33a9:	48 83 ec 08          	sub    $0x8,%rsp
    33ad:	44 89 ea             	mov    %r13d,%edx
    33b0:	41 89 e8             	mov    %ebp,%r8d
    33b3:	44 89 e1             	mov    %r12d,%ecx
    33b6:	41 56                	push   %r14
    33b8:	8b 44 24 20          	mov    0x20(%rsp),%eax
    33bc:	4c 89 ff             	mov    %r15,%rdi
    33bf:	f2 0f 10 44 24 30    	movsd  0x30(%rsp),%xmm0
    33c5:	8b 74 24 28          	mov    0x28(%rsp),%esi
    33c9:	46 8d 0c 30          	lea    (%rax,%r14,1),%r9d
    33cd:	41 83 c6 01          	add    $0x1,%r14d
    33d1:	e8 ea eb ff ff       	call   1fc0 <_Z7partdifPPPPdiiiidii>
    33d6:	f2 0f 58 03          	addsd  (%rbx),%xmm0
    33da:	f2 0f 11 03          	movsd  %xmm0,(%rbx)
    33de:	58                   	pop    %rax
    33df:	5a                   	pop    %rdx
    33e0:	41 83 fe 03          	cmp    $0x3,%r14d
    33e4:	75 c3                	jne    33a9 <_Z9divtenallPPP6tensorid+0x329>
    33e6:	89 e8                	mov    %ebp,%eax
    33e8:	83 44 24 08 03       	addl   $0x3,0x8(%rsp)
    33ed:	44 89 e5             	mov    %r12d,%ebp
    33f0:	48 83 c3 08          	add    $0x8,%rbx
    33f4:	41 89 c4             	mov    %eax,%r12d
    33f7:	8b 44 24 08          	mov    0x8(%rsp),%eax
    33fb:	83 f8 0c             	cmp    $0xc,%eax
    33fe:	75 93                	jne    3393 <_Z9divtenallPPP6tensorid+0x313>
    3400:	48 8b 44 24 48       	mov    0x48(%rsp),%rax
    3405:	48 8b 7c 24 40       	mov    0x40(%rsp),%rdi
    340a:	44 89 e5             	mov    %r12d,%ebp
    340d:	48 8b 4c 24 38       	mov    0x38(%rsp),%rcx
    3412:	48 8b 74 24 28       	mov    0x28(%rsp),%rsi
    3417:	66 0f 28 94 24 c0 00 	movapd 0xc0(%rsp),%xmm2
    341e:	00 00 
    3420:	48 8b 04 f8          	mov    (%rax,%rdi,8),%rax
    3424:	f2 0f 10 84 24 d0 00 	movsd  0xd0(%rsp),%xmm0
    342b:	00 00 
    342d:	48 8d 14 76          	lea    (%rsi,%rsi,2),%rdx
    3431:	48 8b 04 08          	mov    (%rax,%rcx,1),%rax
    3435:	48 8d 04 d0          	lea    (%rax,%rdx,8),%rax
    3439:	0f 11 10             	movups %xmm2,(%rax)
    343c:	f2 0f 11 40 10       	movsd  %xmm0,0x10(%rax)
    3441:	48 8d 46 01          	lea    0x1(%rsi),%rax
    3445:	48 39 74 24 30       	cmp    %rsi,0x30(%rsp)
    344a:	74 0a                	je     3456 <_Z9divtenallPPP6tensorid+0x3d6>
    344c:	48 89 44 24 28       	mov    %rax,0x28(%rsp)
    3451:	e9 0a ff ff ff       	jmp    3360 <_Z9divtenallPPP6tensorid+0x2e0>
    3456:	48 8b 4c 24 58       	mov    0x58(%rsp),%rcx
    345b:	44 89 e3             	mov    %r12d,%ebx
    345e:	48 8d 41 01          	lea    0x1(%rcx),%rax
    3462:	48 3b 4c 24 30       	cmp    0x30(%rsp),%rcx
    3467:	74 0a                	je     3473 <_Z9divtenallPPP6tensorid+0x3f3>
    3469:	48 89 44 24 58       	mov    %rax,0x58(%rsp)
    346e:	e9 cd fe ff ff       	jmp    3340 <_Z9divtenallPPP6tensorid+0x2c0>
    3473:	45 89 e6             	mov    %r12d,%r14d
    3476:	48 8d 47 01          	lea    0x1(%rdi),%rax
    347a:	48 3b 7c 24 30       	cmp    0x30(%rsp),%rdi
    347f:	74 0a                	je     348b <_Z9divtenallPPP6tensorid+0x40b>
    3481:	48 89 44 24 40       	mov    %rax,0x40(%rsp)
    3486:	e9 99 fe ff ff       	jmp    3324 <_Z9divtenallPPP6tensorid+0x2a4>
    348b:	48 8b 84 24 d8 00 00 	mov    0xd8(%rsp),%rax
    3492:	00 
    3493:	64 48 2b 04 25 28 00 	sub    %fs:0x28,%rax
    349a:	00 00 
    349c:	75 49                	jne    34e7 <_Z9divtenallPPP6tensorid+0x467>
    349e:	48 8b 44 24 48       	mov    0x48(%rsp),%rax
    34a3:	48 81 c4 e8 00 00 00 	add    $0xe8,%rsp
    34aa:	5b                   	pop    %rbx
    34ab:	5d                   	pop    %rbp
    34ac:	41 5c                	pop    %r12
    34ae:	41 5d                	pop    %r13
    34b0:	41 5e                	pop    %r14
    34b2:	41 5f                	pop    %r15
    34b4:	c3                   	ret    
    34b5:	48 8b 84 24 d8 00 00 	mov    0xd8(%rsp),%rax
    34bc:	00 
    34bd:	64 48 2b 04 25 28 00 	sub    %fs:0x28,%rax
    34c4:	00 00 
    34c6:	75 1f                	jne    34e7 <_Z9divtenallPPP6tensorid+0x467>
    34c8:	48 81 c4 e8 00 00 00 	add    $0xe8,%rsp
    34cf:	44 89 fa             	mov    %r15d,%edx
    34d2:	44 89 fe             	mov    %r15d,%esi
    34d5:	44 89 ff             	mov    %r15d,%edi
    34d8:	5b                   	pop    %rbx
    34d9:	5d                   	pop    %rbp
    34da:	41 5c                	pop    %r12
    34dc:	41 5d                	pop    %r13
    34de:	41 5e                	pop    %r14
    34e0:	41 5f                	pop    %r15
    34e2:	e9 e9 e6 ff ff       	jmp    1bd0 <_Z11allocate3dvjjj>
    34e7:	e8 24 dd ff ff       	call   1210 <__stack_chk_fail@plt>
    34ec:	0f 1f 40 00          	nopl   0x0(%rax)

00000000000034f0 <_Z8velocityddd>:
    34f0:	f3 0f 1e fa          	endbr64 
    34f4:	f2 0f 10 05 dc 0b 00 	movsd  0xbdc(%rip),%xmm0        # 40d8 <_IO_stdin_used+0xd8>
    34fb:	00 
    34fc:	48 c7 47 08 00 00 00 	movq   $0x0,0x8(%rdi)
    3503:	00 
    3504:	48 89 f8             	mov    %rdi,%rax
    3507:	48 c7 47 10 00 00 00 	movq   $0x0,0x10(%rdi)
    350e:	00 
    350f:	f2 0f 59 c1          	mulsd  %xmm1,%xmm0
    3513:	f2 0f 59 c1          	mulsd  %xmm1,%xmm0
    3517:	f2 0f 11 07          	movsd  %xmm0,(%rdi)
    351b:	c3                   	ret    
    351c:	0f 1f 40 00          	nopl   0x0(%rax)

0000000000003520 <_Z10divvadvecvPPPPddddid>:
    3520:	f3 0f 1e fa          	endbr64 
    3524:	41 57                	push   %r15
    3526:	41 89 f0             	mov    %esi,%r8d
    3529:	41 56                	push   %r14
    352b:	f2 44 0f 2c f2       	cvttsd2si %xmm2,%r14d
    3530:	41 55                	push   %r13
    3532:	f2 44 0f 2c e9       	cvttsd2si %xmm1,%r13d
    3537:	66 0f ef c9          	pxor   %xmm1,%xmm1
    353b:	41 54                	push   %r12
    353d:	f2 44 0f 2c e0       	cvttsd2si %xmm0,%r12d
    3542:	55                   	push   %rbp
    3543:	48 89 fd             	mov    %rdi,%rbp
    3546:	53                   	push   %rbx
    3547:	31 db                	xor    %ebx,%ebx
    3549:	48 83 ec 28          	sub    $0x28,%rsp
    354d:	f2 0f 11 1c 24       	movsd  %xmm3,(%rsp)
    3552:	45 31 ff             	xor    %r15d,%r15d
    3555:	f2 0f 11 4c 24 18    	movsd  %xmm1,0x18(%rsp)
    355b:	48 83 ec 08          	sub    $0x8,%rsp
    355f:	41 89 d9             	mov    %ebx,%r9d
    3562:	44 89 f1             	mov    %r14d,%ecx
    3565:	41 57                	push   %r15
    3567:	f2 0f 10 44 24 10    	movsd  0x10(%rsp),%xmm0
    356d:	44 89 ea             	mov    %r13d,%edx
    3570:	44 89 e6             	mov    %r12d,%esi
    3573:	48 89 ef             	mov    %rbp,%rdi
    3576:	44 89 44 24 24       	mov    %r8d,0x24(%rsp)
    357b:	e8 40 ea ff ff       	call   1fc0 <_Z7partdifPPPPdiiiidii>
    3580:	44 8b 44 24 24       	mov    0x24(%rsp),%r8d
    3585:	45 89 f9             	mov    %r15d,%r9d
    3588:	44 89 ea             	mov    %r13d,%edx
    358b:	f2 0f 11 44 24 18    	movsd  %xmm0,0x18(%rsp)
    3591:	44 89 f1             	mov    %r14d,%ecx
    3594:	44 89 e6             	mov    %r12d,%esi
    3597:	48 89 ef             	mov    %rbp,%rdi
    359a:	f2 0f 10 44 24 10    	movsd  0x10(%rsp),%xmm0
    35a0:	89 1c 24             	mov    %ebx,(%rsp)
    35a3:	41 83 c7 01          	add    $0x1,%r15d
    35a7:	e8 14 ea ff ff       	call   1fc0 <_Z7partdifPPPPdiiiidii>
    35ac:	f2 0f 59 44 24 18    	mulsd  0x18(%rsp),%xmm0
    35b2:	f2 0f 10 4c 24 28    	movsd  0x28(%rsp),%xmm1
    35b8:	41 83 ff 03          	cmp    $0x3,%r15d
    35bc:	58                   	pop    %rax
    35bd:	5a                   	pop    %rdx
    35be:	44 8b 44 24 14       	mov    0x14(%rsp),%r8d
    35c3:	f2 0f 58 c8          	addsd  %xmm0,%xmm1
    35c7:	75 8c                	jne    3555 <_Z10divvadvecvPPPPddddid+0x35>
    35c9:	83 c3 01             	add    $0x1,%ebx
    35cc:	83 fb 03             	cmp    $0x3,%ebx
    35cf:	75 81                	jne    3552 <_Z10divvadvecvPPPPddddid+0x32>
    35d1:	48 83 c4 28          	add    $0x28,%rsp
    35d5:	66 0f 28 c1          	movapd %xmm1,%xmm0
    35d9:	5b                   	pop    %rbx
    35da:	5d                   	pop    %rbp
    35db:	41 5c                	pop    %r12
    35dd:	41 5d                	pop    %r13
    35df:	41 5e                	pop    %r14
    35e1:	41 5f                	pop    %r15
    35e3:	c3                   	ret    

Disassembly of section .fini:

00000000000035e4 <_fini>:
    35e4:	f3 0f 1e fa          	endbr64 
    35e8:	48 83 ec 08          	sub    $0x8,%rsp
    35ec:	48 83 c4 08          	add    $0x8,%rsp
    35f0:	c3                   	ret    
