
cubyboxy:     file format elf64-x86-64


Disassembly of section .init:

0000000000002000 <_init>:
    2000:	f3 0f 1e fa          	endbr64 
    2004:	48 83 ec 08          	sub    $0x8,%rsp
    2008:	48 8b 05 d9 0f 01 00 	mov    0x10fd9(%rip),%rax        # 12fe8 <__gmon_start__@Base>
    200f:	48 85 c0             	test   %rax,%rax
    2012:	74 02                	je     2016 <_init+0x16>
    2014:	ff d0                	call   *%rax
    2016:	48 83 c4 08          	add    $0x8,%rsp
    201a:	c3                   	ret    

Disassembly of section .plt:

0000000000002020 <.plt>:
    2020:	ff 35 12 0e 01 00    	push   0x10e12(%rip)        # 12e38 <_GLOBAL_OFFSET_TABLE_+0x8>
    2026:	f2 ff 25 13 0e 01 00 	bnd jmp *0x10e13(%rip)        # 12e40 <_GLOBAL_OFFSET_TABLE_+0x10>
    202d:	0f 1f 00             	nopl   (%rax)
    2030:	f3 0f 1e fa          	endbr64 
    2034:	68 00 00 00 00       	push   $0x0
    2039:	f2 e9 e1 ff ff ff    	bnd jmp 2020 <_init+0x20>
    203f:	90                   	nop
    2040:	f3 0f 1e fa          	endbr64 
    2044:	68 01 00 00 00       	push   $0x1
    2049:	f2 e9 d1 ff ff ff    	bnd jmp 2020 <_init+0x20>
    204f:	90                   	nop
    2050:	f3 0f 1e fa          	endbr64 
    2054:	68 02 00 00 00       	push   $0x2
    2059:	f2 e9 c1 ff ff ff    	bnd jmp 2020 <_init+0x20>
    205f:	90                   	nop
    2060:	f3 0f 1e fa          	endbr64 
    2064:	68 03 00 00 00       	push   $0x3
    2069:	f2 e9 b1 ff ff ff    	bnd jmp 2020 <_init+0x20>
    206f:	90                   	nop
    2070:	f3 0f 1e fa          	endbr64 
    2074:	68 04 00 00 00       	push   $0x4
    2079:	f2 e9 a1 ff ff ff    	bnd jmp 2020 <_init+0x20>
    207f:	90                   	nop
    2080:	f3 0f 1e fa          	endbr64 
    2084:	68 05 00 00 00       	push   $0x5
    2089:	f2 e9 91 ff ff ff    	bnd jmp 2020 <_init+0x20>
    208f:	90                   	nop
    2090:	f3 0f 1e fa          	endbr64 
    2094:	68 06 00 00 00       	push   $0x6
    2099:	f2 e9 81 ff ff ff    	bnd jmp 2020 <_init+0x20>
    209f:	90                   	nop
    20a0:	f3 0f 1e fa          	endbr64 
    20a4:	68 07 00 00 00       	push   $0x7
    20a9:	f2 e9 71 ff ff ff    	bnd jmp 2020 <_init+0x20>
    20af:	90                   	nop
    20b0:	f3 0f 1e fa          	endbr64 
    20b4:	68 08 00 00 00       	push   $0x8
    20b9:	f2 e9 61 ff ff ff    	bnd jmp 2020 <_init+0x20>
    20bf:	90                   	nop
    20c0:	f3 0f 1e fa          	endbr64 
    20c4:	68 09 00 00 00       	push   $0x9
    20c9:	f2 e9 51 ff ff ff    	bnd jmp 2020 <_init+0x20>
    20cf:	90                   	nop
    20d0:	f3 0f 1e fa          	endbr64 
    20d4:	68 0a 00 00 00       	push   $0xa
    20d9:	f2 e9 41 ff ff ff    	bnd jmp 2020 <_init+0x20>
    20df:	90                   	nop
    20e0:	f3 0f 1e fa          	endbr64 
    20e4:	68 0b 00 00 00       	push   $0xb
    20e9:	f2 e9 31 ff ff ff    	bnd jmp 2020 <_init+0x20>
    20ef:	90                   	nop
    20f0:	f3 0f 1e fa          	endbr64 
    20f4:	68 0c 00 00 00       	push   $0xc
    20f9:	f2 e9 21 ff ff ff    	bnd jmp 2020 <_init+0x20>
    20ff:	90                   	nop
    2100:	f3 0f 1e fa          	endbr64 
    2104:	68 0d 00 00 00       	push   $0xd
    2109:	f2 e9 11 ff ff ff    	bnd jmp 2020 <_init+0x20>
    210f:	90                   	nop
    2110:	f3 0f 1e fa          	endbr64 
    2114:	68 0e 00 00 00       	push   $0xe
    2119:	f2 e9 01 ff ff ff    	bnd jmp 2020 <_init+0x20>
    211f:	90                   	nop
    2120:	f3 0f 1e fa          	endbr64 
    2124:	68 0f 00 00 00       	push   $0xf
    2129:	f2 e9 f1 fe ff ff    	bnd jmp 2020 <_init+0x20>
    212f:	90                   	nop
    2130:	f3 0f 1e fa          	endbr64 
    2134:	68 10 00 00 00       	push   $0x10
    2139:	f2 e9 e1 fe ff ff    	bnd jmp 2020 <_init+0x20>
    213f:	90                   	nop
    2140:	f3 0f 1e fa          	endbr64 
    2144:	68 11 00 00 00       	push   $0x11
    2149:	f2 e9 d1 fe ff ff    	bnd jmp 2020 <_init+0x20>
    214f:	90                   	nop
    2150:	f3 0f 1e fa          	endbr64 
    2154:	68 12 00 00 00       	push   $0x12
    2159:	f2 e9 c1 fe ff ff    	bnd jmp 2020 <_init+0x20>
    215f:	90                   	nop
    2160:	f3 0f 1e fa          	endbr64 
    2164:	68 13 00 00 00       	push   $0x13
    2169:	f2 e9 b1 fe ff ff    	bnd jmp 2020 <_init+0x20>
    216f:	90                   	nop
    2170:	f3 0f 1e fa          	endbr64 
    2174:	68 14 00 00 00       	push   $0x14
    2179:	f2 e9 a1 fe ff ff    	bnd jmp 2020 <_init+0x20>
    217f:	90                   	nop
    2180:	f3 0f 1e fa          	endbr64 
    2184:	68 15 00 00 00       	push   $0x15
    2189:	f2 e9 91 fe ff ff    	bnd jmp 2020 <_init+0x20>
    218f:	90                   	nop
    2190:	f3 0f 1e fa          	endbr64 
    2194:	68 16 00 00 00       	push   $0x16
    2199:	f2 e9 81 fe ff ff    	bnd jmp 2020 <_init+0x20>
    219f:	90                   	nop
    21a0:	f3 0f 1e fa          	endbr64 
    21a4:	68 17 00 00 00       	push   $0x17
    21a9:	f2 e9 71 fe ff ff    	bnd jmp 2020 <_init+0x20>
    21af:	90                   	nop
    21b0:	f3 0f 1e fa          	endbr64 
    21b4:	68 18 00 00 00       	push   $0x18
    21b9:	f2 e9 61 fe ff ff    	bnd jmp 2020 <_init+0x20>
    21bf:	90                   	nop
    21c0:	f3 0f 1e fa          	endbr64 
    21c4:	68 19 00 00 00       	push   $0x19
    21c9:	f2 e9 51 fe ff ff    	bnd jmp 2020 <_init+0x20>
    21cf:	90                   	nop
    21d0:	f3 0f 1e fa          	endbr64 
    21d4:	68 1a 00 00 00       	push   $0x1a
    21d9:	f2 e9 41 fe ff ff    	bnd jmp 2020 <_init+0x20>
    21df:	90                   	nop
    21e0:	f3 0f 1e fa          	endbr64 
    21e4:	68 1b 00 00 00       	push   $0x1b
    21e9:	f2 e9 31 fe ff ff    	bnd jmp 2020 <_init+0x20>
    21ef:	90                   	nop
    21f0:	f3 0f 1e fa          	endbr64 
    21f4:	68 1c 00 00 00       	push   $0x1c
    21f9:	f2 e9 21 fe ff ff    	bnd jmp 2020 <_init+0x20>
    21ff:	90                   	nop
    2200:	f3 0f 1e fa          	endbr64 
    2204:	68 1d 00 00 00       	push   $0x1d
    2209:	f2 e9 11 fe ff ff    	bnd jmp 2020 <_init+0x20>
    220f:	90                   	nop
    2210:	f3 0f 1e fa          	endbr64 
    2214:	68 1e 00 00 00       	push   $0x1e
    2219:	f2 e9 01 fe ff ff    	bnd jmp 2020 <_init+0x20>
    221f:	90                   	nop
    2220:	f3 0f 1e fa          	endbr64 
    2224:	68 1f 00 00 00       	push   $0x1f
    2229:	f2 e9 f1 fd ff ff    	bnd jmp 2020 <_init+0x20>
    222f:	90                   	nop
    2230:	f3 0f 1e fa          	endbr64 
    2234:	68 20 00 00 00       	push   $0x20
    2239:	f2 e9 e1 fd ff ff    	bnd jmp 2020 <_init+0x20>
    223f:	90                   	nop
    2240:	f3 0f 1e fa          	endbr64 
    2244:	68 21 00 00 00       	push   $0x21
    2249:	f2 e9 d1 fd ff ff    	bnd jmp 2020 <_init+0x20>
    224f:	90                   	nop
    2250:	f3 0f 1e fa          	endbr64 
    2254:	68 22 00 00 00       	push   $0x22
    2259:	f2 e9 c1 fd ff ff    	bnd jmp 2020 <_init+0x20>
    225f:	90                   	nop
    2260:	f3 0f 1e fa          	endbr64 
    2264:	68 23 00 00 00       	push   $0x23
    2269:	f2 e9 b1 fd ff ff    	bnd jmp 2020 <_init+0x20>
    226f:	90                   	nop
    2270:	f3 0f 1e fa          	endbr64 
    2274:	68 24 00 00 00       	push   $0x24
    2279:	f2 e9 a1 fd ff ff    	bnd jmp 2020 <_init+0x20>
    227f:	90                   	nop
    2280:	f3 0f 1e fa          	endbr64 
    2284:	68 25 00 00 00       	push   $0x25
    2289:	f2 e9 91 fd ff ff    	bnd jmp 2020 <_init+0x20>
    228f:	90                   	nop
    2290:	f3 0f 1e fa          	endbr64 
    2294:	68 26 00 00 00       	push   $0x26
    2299:	f2 e9 81 fd ff ff    	bnd jmp 2020 <_init+0x20>
    229f:	90                   	nop
    22a0:	f3 0f 1e fa          	endbr64 
    22a4:	68 27 00 00 00       	push   $0x27
    22a9:	f2 e9 71 fd ff ff    	bnd jmp 2020 <_init+0x20>
    22af:	90                   	nop
    22b0:	f3 0f 1e fa          	endbr64 
    22b4:	68 28 00 00 00       	push   $0x28
    22b9:	f2 e9 61 fd ff ff    	bnd jmp 2020 <_init+0x20>
    22bf:	90                   	nop
    22c0:	f3 0f 1e fa          	endbr64 
    22c4:	68 29 00 00 00       	push   $0x29
    22c9:	f2 e9 51 fd ff ff    	bnd jmp 2020 <_init+0x20>
    22cf:	90                   	nop
    22d0:	f3 0f 1e fa          	endbr64 
    22d4:	68 2a 00 00 00       	push   $0x2a
    22d9:	f2 e9 41 fd ff ff    	bnd jmp 2020 <_init+0x20>
    22df:	90                   	nop
    22e0:	f3 0f 1e fa          	endbr64 
    22e4:	68 2b 00 00 00       	push   $0x2b
    22e9:	f2 e9 31 fd ff ff    	bnd jmp 2020 <_init+0x20>
    22ef:	90                   	nop
    22f0:	f3 0f 1e fa          	endbr64 
    22f4:	68 2c 00 00 00       	push   $0x2c
    22f9:	f2 e9 21 fd ff ff    	bnd jmp 2020 <_init+0x20>
    22ff:	90                   	nop
    2300:	f3 0f 1e fa          	endbr64 
    2304:	68 2d 00 00 00       	push   $0x2d
    2309:	f2 e9 11 fd ff ff    	bnd jmp 2020 <_init+0x20>
    230f:	90                   	nop
    2310:	f3 0f 1e fa          	endbr64 
    2314:	68 2e 00 00 00       	push   $0x2e
    2319:	f2 e9 01 fd ff ff    	bnd jmp 2020 <_init+0x20>
    231f:	90                   	nop
    2320:	f3 0f 1e fa          	endbr64 
    2324:	68 2f 00 00 00       	push   $0x2f
    2329:	f2 e9 f1 fc ff ff    	bnd jmp 2020 <_init+0x20>
    232f:	90                   	nop

Disassembly of section .plt.got:

0000000000002330 <__cxa_finalize@plt>:
    2330:	f3 0f 1e fa          	endbr64 
    2334:	f2 ff 25 8d 0c 01 00 	bnd jmp *0x10c8d(%rip)        # 12fc8 <__cxa_finalize@GLIBC_2.2.5>
    233b:	0f 1f 44 00 00       	nopl   0x0(%rax,%rax,1)

Disassembly of section .plt.sec:

0000000000002340 <_Znam@plt>:
    2340:	f3 0f 1e fa          	endbr64 
    2344:	f2 ff 25 fd 0a 01 00 	bnd jmp *0x10afd(%rip)        # 12e48 <_Znam@GLIBCXX_3.4>
    234b:	0f 1f 44 00 00       	nopl   0x0(%rax,%rax,1)

0000000000002350 <ceil@plt>:
    2350:	f3 0f 1e fa          	endbr64 
    2354:	f2 ff 25 f5 0a 01 00 	bnd jmp *0x10af5(%rip)        # 12e50 <ceil@GLIBC_2.2.5>
    235b:	0f 1f 44 00 00       	nopl   0x0(%rax,%rax,1)

0000000000002360 <sin@plt>:
    2360:	f3 0f 1e fa          	endbr64 
    2364:	f2 ff 25 ed 0a 01 00 	bnd jmp *0x10aed(%rip)        # 12e58 <sin@GLIBC_2.2.5>
    236b:	0f 1f 44 00 00       	nopl   0x0(%rax,%rax,1)

0000000000002370 <_ZNSt13basic_filebufIcSt11char_traitsIcEE5closeEv@plt>:
    2370:	f3 0f 1e fa          	endbr64 
    2374:	f2 ff 25 e5 0a 01 00 	bnd jmp *0x10ae5(%rip)        # 12e60 <_ZNSt13basic_filebufIcSt11char_traitsIcEE5closeEv@GLIBCXX_3.4>
    237b:	0f 1f 44 00 00       	nopl   0x0(%rax,%rax,1)

0000000000002380 <_ZNSirsERe@plt>:
    2380:	f3 0f 1e fa          	endbr64 
    2384:	f2 ff 25 dd 0a 01 00 	bnd jmp *0x10add(%rip)        # 12e68 <_ZNSirsERe@GLIBCXX_3.4>
    238b:	0f 1f 44 00 00       	nopl   0x0(%rax,%rax,1)

0000000000002390 <_ZNSt8ios_baseC2Ev@plt>:
    2390:	f3 0f 1e fa          	endbr64 
    2394:	f2 ff 25 d5 0a 01 00 	bnd jmp *0x10ad5(%rip)        # 12e70 <_ZNSt8ios_baseC2Ev@GLIBCXX_3.4>
    239b:	0f 1f 44 00 00       	nopl   0x0(%rax,%rax,1)

00000000000023a0 <_ZNSt7__cxx1112basic_stringIcSt11char_traitsIcESaIcEE9_M_appendEPKcm@plt>:
    23a0:	f3 0f 1e fa          	endbr64 
    23a4:	f2 ff 25 cd 0a 01 00 	bnd jmp *0x10acd(%rip)        # 12e78 <_ZNSt7__cxx1112basic_stringIcSt11char_traitsIcESaIcEE9_M_appendEPKcm@GLIBCXX_3.4.21>
    23ab:	0f 1f 44 00 00       	nopl   0x0(%rax,%rax,1)

00000000000023b0 <_ZNSt8ios_baseD2Ev@plt>:
    23b0:	f3 0f 1e fa          	endbr64 
    23b4:	f2 ff 25 c5 0a 01 00 	bnd jmp *0x10ac5(%rip)        # 12e80 <_ZNSt8ios_baseD2Ev@GLIBCXX_3.4>
    23bb:	0f 1f 44 00 00       	nopl   0x0(%rax,%rax,1)

00000000000023c0 <_ZSt17__throw_bad_allocv@plt>:
    23c0:	f3 0f 1e fa          	endbr64 
    23c4:	f2 ff 25 bd 0a 01 00 	bnd jmp *0x10abd(%rip)        # 12e88 <_ZSt17__throw_bad_allocv@GLIBCXX_3.4>
    23cb:	0f 1f 44 00 00       	nopl   0x0(%rax,%rax,1)

00000000000023d0 <__cxa_begin_catch@plt>:
    23d0:	f3 0f 1e fa          	endbr64 
    23d4:	f2 ff 25 b5 0a 01 00 	bnd jmp *0x10ab5(%rip)        # 12e90 <__cxa_begin_catch@CXXABI_1.3>
    23db:	0f 1f 44 00 00       	nopl   0x0(%rax,%rax,1)

00000000000023e0 <_ZNSo9_M_insertIeEERSoT_@plt>:
    23e0:	f3 0f 1e fa          	endbr64 
    23e4:	f2 ff 25 ad 0a 01 00 	bnd jmp *0x10aad(%rip)        # 12e98 <_ZNSo9_M_insertIeEERSoT_@GLIBCXX_3.4.9>
    23eb:	0f 1f 44 00 00       	nopl   0x0(%rax,%rax,1)

00000000000023f0 <_ZSt20__throw_length_errorPKc@plt>:
    23f0:	f3 0f 1e fa          	endbr64 
    23f4:	f2 ff 25 a5 0a 01 00 	bnd jmp *0x10aa5(%rip)        # 12ea0 <_ZSt20__throw_length_errorPKc@GLIBCXX_3.4>
    23fb:	0f 1f 44 00 00       	nopl   0x0(%rax,%rax,1)

0000000000002400 <_ZNSirsERi@plt>:
    2400:	f3 0f 1e fa          	endbr64 
    2404:	f2 ff 25 9d 0a 01 00 	bnd jmp *0x10a9d(%rip)        # 12ea8 <_ZNSirsERi@GLIBCXX_3.4>
    240b:	0f 1f 44 00 00       	nopl   0x0(%rax,%rax,1)

0000000000002410 <__assert_fail@plt>:
    2410:	f3 0f 1e fa          	endbr64 
    2414:	f2 ff 25 95 0a 01 00 	bnd jmp *0x10a95(%rip)        # 12eb0 <__assert_fail@GLIBC_2.2.5>
    241b:	0f 1f 44 00 00       	nopl   0x0(%rax,%rax,1)

0000000000002420 <_ZSt28__throw_bad_array_new_lengthv@plt>:
    2420:	f3 0f 1e fa          	endbr64 
    2424:	f2 ff 25 8d 0a 01 00 	bnd jmp *0x10a8d(%rip)        # 12eb8 <_ZSt28__throw_bad_array_new_lengthv@GLIBCXX_3.4.29>
    242b:	0f 1f 44 00 00       	nopl   0x0(%rax,%rax,1)

0000000000002430 <sqrt@plt>:
    2430:	f3 0f 1e fa          	endbr64 
    2434:	f2 ff 25 85 0a 01 00 	bnd jmp *0x10a85(%rip)        # 12ec0 <sqrt@GLIBC_2.2.5>
    243b:	0f 1f 44 00 00       	nopl   0x0(%rax,%rax,1)

0000000000002440 <_ZNSirsERd@plt>:
    2440:	f3 0f 1e fa          	endbr64 
    2444:	f2 ff 25 7d 0a 01 00 	bnd jmp *0x10a7d(%rip)        # 12ec8 <_ZNSirsERd@GLIBCXX_3.4>
    244b:	0f 1f 44 00 00       	nopl   0x0(%rax,%rax,1)

0000000000002450 <atan@plt>:
    2450:	f3 0f 1e fa          	endbr64 
    2454:	f2 ff 25 75 0a 01 00 	bnd jmp *0x10a75(%rip)        # 12ed0 <atan@GLIBC_2.2.5>
    245b:	0f 1f 44 00 00       	nopl   0x0(%rax,%rax,1)

0000000000002460 <__cxa_atexit@plt>:
    2460:	f3 0f 1e fa          	endbr64 
    2464:	f2 ff 25 6d 0a 01 00 	bnd jmp *0x10a6d(%rip)        # 12ed8 <__cxa_atexit@GLIBC_2.2.5>
    246b:	0f 1f 44 00 00       	nopl   0x0(%rax,%rax,1)

0000000000002470 <_ZNSt13basic_filebufIcSt11char_traitsIcEE4openEPKcSt13_Ios_Openmode@plt>:
    2470:	f3 0f 1e fa          	endbr64 
    2474:	f2 ff 25 65 0a 01 00 	bnd jmp *0x10a65(%rip)        # 12ee0 <_ZNSt13basic_filebufIcSt11char_traitsIcEE4openEPKcSt13_Ios_Openmode@GLIBCXX_3.4>
    247b:	0f 1f 44 00 00       	nopl   0x0(%rax,%rax,1)

0000000000002480 <acos@plt>:
    2480:	f3 0f 1e fa          	endbr64 
    2484:	f2 ff 25 5d 0a 01 00 	bnd jmp *0x10a5d(%rip)        # 12ee8 <acos@GLIBC_2.2.5>
    248b:	0f 1f 44 00 00       	nopl   0x0(%rax,%rax,1)

0000000000002490 <_ZStlsISt11char_traitsIcEERSt13basic_ostreamIcT_ES5_PKc@plt>:
    2490:	f3 0f 1e fa          	endbr64 
    2494:	f2 ff 25 55 0a 01 00 	bnd jmp *0x10a55(%rip)        # 12ef0 <_ZStlsISt11char_traitsIcEERSt13basic_ostreamIcT_ES5_PKc@GLIBCXX_3.4>
    249b:	0f 1f 44 00 00       	nopl   0x0(%rax,%rax,1)

00000000000024a0 <_Znwm@plt>:
    24a0:	f3 0f 1e fa          	endbr64 
    24a4:	f2 ff 25 4d 0a 01 00 	bnd jmp *0x10a4d(%rip)        # 12ef8 <_Znwm@GLIBCXX_3.4>
    24ab:	0f 1f 44 00 00       	nopl   0x0(%rax,%rax,1)

00000000000024b0 <_ZdlPvm@plt>:
    24b0:	f3 0f 1e fa          	endbr64 
    24b4:	f2 ff 25 45 0a 01 00 	bnd jmp *0x10a45(%rip)        # 12f00 <_ZdlPvm@CXXABI_1.3.9>
    24bb:	0f 1f 44 00 00       	nopl   0x0(%rax,%rax,1)

00000000000024c0 <_ZNSt13basic_filebufIcSt11char_traitsIcEEC1Ev@plt>:
    24c0:	f3 0f 1e fa          	endbr64 
    24c4:	f2 ff 25 3d 0a 01 00 	bnd jmp *0x10a3d(%rip)        # 12f08 <_ZNSt13basic_filebufIcSt11char_traitsIcEEC1Ev@GLIBCXX_3.4>
    24cb:	0f 1f 44 00 00       	nopl   0x0(%rax,%rax,1)

00000000000024d0 <_ZNSolsEPFRSoS_E@plt>:
    24d0:	f3 0f 1e fa          	endbr64 
    24d4:	f2 ff 25 35 0a 01 00 	bnd jmp *0x10a35(%rip)        # 12f10 <_ZNSolsEPFRSoS_E@GLIBCXX_3.4>
    24db:	0f 1f 44 00 00       	nopl   0x0(%rax,%rax,1)

00000000000024e0 <__stack_chk_fail@plt>:
    24e0:	f3 0f 1e fa          	endbr64 
    24e4:	f2 ff 25 2d 0a 01 00 	bnd jmp *0x10a2d(%rip)        # 12f18 <__stack_chk_fail@GLIBC_2.4>
    24eb:	0f 1f 44 00 00       	nopl   0x0(%rax,%rax,1)

00000000000024f0 <_ZSt16__ostream_insertIcSt11char_traitsIcEERSt13basic_ostreamIT_T0_ES6_PKS3_l@plt>:
    24f0:	f3 0f 1e fa          	endbr64 
    24f4:	f2 ff 25 25 0a 01 00 	bnd jmp *0x10a25(%rip)        # 12f20 <_ZSt16__ostream_insertIcSt11char_traitsIcEERSt13basic_ostreamIT_T0_ES6_PKS3_l@GLIBCXX_3.4.9>
    24fb:	0f 1f 44 00 00       	nopl   0x0(%rax,%rax,1)

0000000000002500 <_ZNSt7__cxx1112basic_stringIcSt11char_traitsIcESaIcEE12_M_constructEmc@plt>:
    2500:	f3 0f 1e fa          	endbr64 
    2504:	f2 ff 25 1d 0a 01 00 	bnd jmp *0x10a1d(%rip)        # 12f28 <_ZNSt7__cxx1112basic_stringIcSt11char_traitsIcESaIcEE12_M_constructEmc@GLIBCXX_3.4.21>
    250b:	0f 1f 44 00 00       	nopl   0x0(%rax,%rax,1)

0000000000002510 <cosl@plt>:
    2510:	f3 0f 1e fa          	endbr64 
    2514:	f2 ff 25 15 0a 01 00 	bnd jmp *0x10a15(%rip)        # 12f30 <cosl@GLIBC_2.2.5>
    251b:	0f 1f 44 00 00       	nopl   0x0(%rax,%rax,1)

0000000000002520 <_ZNSolsEj@plt>:
    2520:	f3 0f 1e fa          	endbr64 
    2524:	f2 ff 25 0d 0a 01 00 	bnd jmp *0x10a0d(%rip)        # 12f38 <_ZNSolsEj@GLIBCXX_3.4>
    252b:	0f 1f 44 00 00       	nopl   0x0(%rax,%rax,1)

0000000000002530 <_ZNSt9basic_iosIcSt11char_traitsIcEE4initEPSt15basic_streambufIcS1_E@plt>:
    2530:	f3 0f 1e fa          	endbr64 
    2534:	f2 ff 25 05 0a 01 00 	bnd jmp *0x10a05(%rip)        # 12f40 <_ZNSt9basic_iosIcSt11char_traitsIcEE4initEPSt15basic_streambufIcS1_E@GLIBCXX_3.4>
    253b:	0f 1f 44 00 00       	nopl   0x0(%rax,%rax,1)

0000000000002540 <_ZNSt6localeD1Ev@plt>:
    2540:	f3 0f 1e fa          	endbr64 
    2544:	f2 ff 25 fd 09 01 00 	bnd jmp *0x109fd(%rip)        # 12f48 <_ZNSt6localeD1Ev@GLIBCXX_3.4>
    254b:	0f 1f 44 00 00       	nopl   0x0(%rax,%rax,1)

0000000000002550 <__cxa_throw_bad_array_new_length@plt>:
    2550:	f3 0f 1e fa          	endbr64 
    2554:	f2 ff 25 f5 09 01 00 	bnd jmp *0x109f5(%rip)        # 12f50 <__cxa_throw_bad_array_new_length@CXXABI_1.3.8>
    255b:	0f 1f 44 00 00       	nopl   0x0(%rax,%rax,1)

0000000000002560 <_ZNSt14basic_ofstreamIcSt11char_traitsIcEED1Ev@plt>:
    2560:	f3 0f 1e fa          	endbr64 
    2564:	f2 ff 25 ed 09 01 00 	bnd jmp *0x109ed(%rip)        # 12f58 <_ZNSt14basic_ofstreamIcSt11char_traitsIcEED1Ev@GLIBCXX_3.4>
    256b:	0f 1f 44 00 00       	nopl   0x0(%rax,%rax,1)

0000000000002570 <sinl@plt>:
    2570:	f3 0f 1e fa          	endbr64 
    2574:	f2 ff 25 e5 09 01 00 	bnd jmp *0x109e5(%rip)        # 12f60 <sinl@GLIBC_2.2.5>
    257b:	0f 1f 44 00 00       	nopl   0x0(%rax,%rax,1)

0000000000002580 <_ZNSt8ios_base4InitC1Ev@plt>:
    2580:	f3 0f 1e fa          	endbr64 
    2584:	f2 ff 25 dd 09 01 00 	bnd jmp *0x109dd(%rip)        # 12f68 <_ZNSt8ios_base4InitC1Ev@GLIBCXX_3.4>
    258b:	0f 1f 44 00 00       	nopl   0x0(%rax,%rax,1)

0000000000002590 <_ZNSt7__cxx1112basic_stringIcSt11char_traitsIcESaIcEE10_M_replaceEmmPKcm@plt>:
    2590:	f3 0f 1e fa          	endbr64 
    2594:	f2 ff 25 d5 09 01 00 	bnd jmp *0x109d5(%rip)        # 12f70 <_ZNSt7__cxx1112basic_stringIcSt11char_traitsIcESaIcEE10_M_replaceEmmPKcm@GLIBCXX_3.4.21>
    259b:	0f 1f 44 00 00       	nopl   0x0(%rax,%rax,1)

00000000000025a0 <_ZNSt13basic_filebufIcSt11char_traitsIcEED1Ev@plt>:
    25a0:	f3 0f 1e fa          	endbr64 
    25a4:	f2 ff 25 cd 09 01 00 	bnd jmp *0x109cd(%rip)        # 12f78 <_ZNSt13basic_filebufIcSt11char_traitsIcEED1Ev@GLIBCXX_3.4>
    25ab:	0f 1f 44 00 00       	nopl   0x0(%rax,%rax,1)

00000000000025b0 <memmove@plt>:
    25b0:	f3 0f 1e fa          	endbr64 
    25b4:	f2 ff 25 c5 09 01 00 	bnd jmp *0x109c5(%rip)        # 12f80 <memmove@GLIBC_2.2.5>
    25bb:	0f 1f 44 00 00       	nopl   0x0(%rax,%rax,1)

00000000000025c0 <__cxa_end_catch@plt>:
    25c0:	f3 0f 1e fa          	endbr64 
    25c4:	f2 ff 25 bd 09 01 00 	bnd jmp *0x109bd(%rip)        # 12f88 <__cxa_end_catch@CXXABI_1.3>
    25cb:	0f 1f 44 00 00       	nopl   0x0(%rax,%rax,1)

00000000000025d0 <floor@plt>:
    25d0:	f3 0f 1e fa          	endbr64 
    25d4:	f2 ff 25 b5 09 01 00 	bnd jmp *0x109b5(%rip)        # 12f90 <floor@GLIBC_2.2.5>
    25db:	0f 1f 44 00 00       	nopl   0x0(%rax,%rax,1)

00000000000025e0 <_ZNSt9basic_iosIcSt11char_traitsIcEE5clearESt12_Ios_Iostate@plt>:
    25e0:	f3 0f 1e fa          	endbr64 
    25e4:	f2 ff 25 ad 09 01 00 	bnd jmp *0x109ad(%rip)        # 12f98 <_ZNSt9basic_iosIcSt11char_traitsIcEE5clearESt12_Ios_Iostate@GLIBCXX_3.4>
    25eb:	0f 1f 44 00 00       	nopl   0x0(%rax,%rax,1)

00000000000025f0 <_ZNSolsEi@plt>:
    25f0:	f3 0f 1e fa          	endbr64 
    25f4:	f2 ff 25 a5 09 01 00 	bnd jmp *0x109a5(%rip)        # 12fa0 <_ZNSolsEi@GLIBCXX_3.4>
    25fb:	0f 1f 44 00 00       	nopl   0x0(%rax,%rax,1)

0000000000002600 <_Unwind_Resume@plt>:
    2600:	f3 0f 1e fa          	endbr64 
    2604:	f2 ff 25 9d 09 01 00 	bnd jmp *0x1099d(%rip)        # 12fa8 <_Unwind_Resume@GCC_3.0>
    260b:	0f 1f 44 00 00       	nopl   0x0(%rax,%rax,1)

0000000000002610 <_ZNSt12__basic_fileIcED1Ev@plt>:
    2610:	f3 0f 1e fa          	endbr64 
    2614:	f2 ff 25 95 09 01 00 	bnd jmp *0x10995(%rip)        # 12fb0 <_ZNSt12__basic_fileIcED1Ev@GLIBCXX_3.4>
    261b:	0f 1f 44 00 00       	nopl   0x0(%rax,%rax,1)

0000000000002620 <cos@plt>:
    2620:	f3 0f 1e fa          	endbr64 
    2624:	f2 ff 25 8d 09 01 00 	bnd jmp *0x1098d(%rip)        # 12fb8 <cos@GLIBC_2.2.5>
    262b:	0f 1f 44 00 00       	nopl   0x0(%rax,%rax,1)

0000000000002630 <_ZNSolsEd@plt>:
    2630:	f3 0f 1e fa          	endbr64 
    2634:	f2 ff 25 85 09 01 00 	bnd jmp *0x10985(%rip)        # 12fc0 <_ZNSolsEd@GLIBCXX_3.4>
    263b:	0f 1f 44 00 00       	nopl   0x0(%rax,%rax,1)

Disassembly of section .text:

0000000000002640 <_Z12writeVTKFileiPPPPeiiieee.cold>:
    2640:	48 8b bd a0 fd ff ff 	mov    -0x260(%rbp),%rdi
    2647:	48 39 df             	cmp    %rbx,%rdi
    264a:	0f 85 a4 00 00 00    	jne    26f4 <_Z12writeVTKFileiPPPPeiiieee.cold+0xb4>
    2650:	4c 89 e3             	mov    %r12,%rbx
    2653:	48 8b bd 80 fd ff ff 	mov    -0x280(%rbp),%rdi
    265a:	4c 39 ff             	cmp    %r15,%rdi
    265d:	74 10                	je     266f <_Z12writeVTKFileiPPPPeiiieee.cold+0x2f>
    265f:	48 8b 85 90 fd ff ff 	mov    -0x270(%rbp),%rax
    2666:	48 8d 70 01          	lea    0x1(%rax),%rsi
    266a:	e8 41 fe ff ff       	call   24b0 <_ZdlPvm@plt>
    266f:	48 8b bd 60 fd ff ff 	mov    -0x2a0(%rbp),%rdi
    2676:	4c 39 f7             	cmp    %r14,%rdi
    2679:	74 10                	je     268b <_Z12writeVTKFileiPPPPeiiieee.cold+0x4b>
    267b:	48 8b 85 70 fd ff ff 	mov    -0x290(%rbp),%rax
    2682:	48 8d 70 01          	lea    0x1(%rax),%rsi
    2686:	e8 25 fe ff ff       	call   24b0 <_ZdlPvm@plt>
    268b:	48 8b bd 58 fd ff ff 	mov    -0x2a8(%rbp),%rdi
    2692:	e8 c9 fe ff ff       	call   2560 <_ZNSt14basic_ofstreamIcSt11char_traitsIcEED1Ev@plt>
    2697:	48 89 df             	mov    %rbx,%rdi
    269a:	e8 61 ff ff ff       	call   2600 <_Unwind_Resume@plt>
    269f:	48 8b bd 20 fd ff ff 	mov    -0x2e0(%rbp),%rdi
    26a6:	e8 f5 fe ff ff       	call   25a0 <_ZNSt13basic_filebufIcSt11char_traitsIcEED1Ev@plt>
    26ab:	48 89 de             	mov    %rbx,%rsi
    26ae:	48 8b 05 6b 04 01 00 	mov    0x1046b(%rip),%rax        # 12b20 <_ZTTSt14basic_ofstreamIcSt11char_traitsIcEE@GLIBCXX_3.4+0x8>
    26b5:	48 8b 0d 6c 04 01 00 	mov    0x1046c(%rip),%rcx        # 12b28 <_ZTTSt14basic_ofstreamIcSt11char_traitsIcEE@GLIBCXX_3.4+0x10>
    26bc:	48 89 f3             	mov    %rsi,%rbx
    26bf:	48 89 85 c0 fd ff ff 	mov    %rax,-0x240(%rbp)
    26c6:	48 8b 40 e8          	mov    -0x18(%rax),%rax
    26ca:	48 89 8c 05 c0 fd ff 	mov    %rcx,-0x240(%rbp,%rax,1)
    26d1:	ff 
    26d2:	48 8b bd 10 fd ff ff 	mov    -0x2f0(%rbp),%rdi
    26d9:	48 8d 05 a8 03 01 00 	lea    0x103a8(%rip),%rax        # 12a88 <_ZTVSt9basic_iosIcSt11char_traitsIcEE@GLIBCXX_3.4+0x10>
    26e0:	48 89 85 b8 fe ff ff 	mov    %rax,-0x148(%rbp)
    26e7:	e8 c4 fc ff ff       	call   23b0 <_ZNSt8ios_baseD2Ev@plt>
    26ec:	48 89 df             	mov    %rbx,%rdi
    26ef:	e8 0c ff ff ff       	call   2600 <_Unwind_Resume@plt>
    26f4:	48 8b 85 b0 fd ff ff 	mov    -0x250(%rbp),%rax
    26fb:	48 8d 70 01          	lea    0x1(%rax),%rsi
    26ff:	e8 ac fd ff ff       	call   24b0 <_ZdlPvm@plt>
    2704:	e9 47 ff ff ff       	jmp    2650 <_Z12writeVTKFileiPPPPeiiieee.cold+0x10>
    2709:	e8 c2 fc ff ff       	call   23d0 <__cxa_begin_catch@plt>
    270e:	e8 ad fe ff ff       	call   25c0 <__cxa_end_catch@plt>
    2713:	e9 c6 ba 00 00       	jmp    e1de <_Z12writeVTKFileiPPPPeiiieee+0x8be>
    2718:	0f 1f 84 00 00 00 00 	nopl   0x0(%rax,%rax,1)
    271f:	00 

0000000000002720 <_GLOBAL__sub_I__Z12writeVTKFileiPPPPeiiieee>:
    2720:	f3 0f 1e fa          	endbr64 
    2724:	55                   	push   %rbp
    2725:	48 8d 2d 50 0b 01 00 	lea    0x10b50(%rip),%rbp        # 1327c <_ZStL8__ioinit>
    272c:	48 89 ef             	mov    %rbp,%rdi
    272f:	e8 4c fe ff ff       	call   2580 <_ZNSt8ios_base4InitC1Ev@plt>
    2734:	48 8b 3d bd 08 01 00 	mov    0x108bd(%rip),%rdi        # 12ff8 <_ZNSt8ios_base4InitD1Ev@GLIBCXX_3.4>
    273b:	48 89 ee             	mov    %rbp,%rsi
    273e:	5d                   	pop    %rbp
    273f:	48 8d 15 c2 08 01 00 	lea    0x108c2(%rip),%rdx        # 13008 <__dso_handle>
    2746:	e9 15 fd ff ff       	jmp    2460 <__cxa_atexit@plt>
    274b:	0f 1f 44 00 00       	nopl   0x0(%rax,%rax,1)

0000000000002750 <_start>:
    2750:	f3 0f 1e fa          	endbr64 
    2754:	31 ed                	xor    %ebp,%ebp
    2756:	49 89 d1             	mov    %rdx,%r9
    2759:	5e                   	pop    %rsi
    275a:	48 89 e2             	mov    %rsp,%rdx
    275d:	48 83 e4 f0          	and    $0xfffffffffffffff0,%rsp
    2761:	50                   	push   %rax
    2762:	54                   	push   %rsp
    2763:	45 31 c0             	xor    %r8d,%r8d
    2766:	31 c9                	xor    %ecx,%ecx
    2768:	48 8d 3d 87 64 00 00 	lea    0x6487(%rip),%rdi        # 8bf6 <main>
    276f:	ff 15 63 08 01 00    	call   *0x10863(%rip)        # 12fd8 <__libc_start_main@GLIBC_2.34>
    2775:	f4                   	hlt    
    2776:	66 2e 0f 1f 84 00 00 	cs nopw 0x0(%rax,%rax,1)
    277d:	00 00 00 

0000000000002780 <deregister_tm_clones>:
    2780:	48 8d 3d 91 08 01 00 	lea    0x10891(%rip),%rdi        # 13018 <__TMC_END__>
    2787:	48 8d 05 8a 08 01 00 	lea    0x1088a(%rip),%rax        # 13018 <__TMC_END__>
    278e:	48 39 f8             	cmp    %rdi,%rax
    2791:	74 15                	je     27a8 <deregister_tm_clones+0x28>
    2793:	48 8b 05 46 08 01 00 	mov    0x10846(%rip),%rax        # 12fe0 <_ITM_deregisterTMCloneTable@Base>
    279a:	48 85 c0             	test   %rax,%rax
    279d:	74 09                	je     27a8 <deregister_tm_clones+0x28>
    279f:	ff e0                	jmp    *%rax
    27a1:	0f 1f 80 00 00 00 00 	nopl   0x0(%rax)
    27a8:	c3                   	ret    
    27a9:	0f 1f 80 00 00 00 00 	nopl   0x0(%rax)

00000000000027b0 <register_tm_clones>:
    27b0:	48 8d 3d 61 08 01 00 	lea    0x10861(%rip),%rdi        # 13018 <__TMC_END__>
    27b7:	48 8d 35 5a 08 01 00 	lea    0x1085a(%rip),%rsi        # 13018 <__TMC_END__>
    27be:	48 29 fe             	sub    %rdi,%rsi
    27c1:	48 89 f0             	mov    %rsi,%rax
    27c4:	48 c1 ee 3f          	shr    $0x3f,%rsi
    27c8:	48 c1 f8 03          	sar    $0x3,%rax
    27cc:	48 01 c6             	add    %rax,%rsi
    27cf:	48 d1 fe             	sar    %rsi
    27d2:	74 14                	je     27e8 <register_tm_clones+0x38>
    27d4:	48 8b 05 15 08 01 00 	mov    0x10815(%rip),%rax        # 12ff0 <_ITM_registerTMCloneTable@Base>
    27db:	48 85 c0             	test   %rax,%rax
    27de:	74 08                	je     27e8 <register_tm_clones+0x38>
    27e0:	ff e0                	jmp    *%rax
    27e2:	66 0f 1f 44 00 00    	nopw   0x0(%rax,%rax,1)
    27e8:	c3                   	ret    
    27e9:	0f 1f 80 00 00 00 00 	nopl   0x0(%rax)

00000000000027f0 <__do_global_dtors_aux>:
    27f0:	f3 0f 1e fa          	endbr64 
    27f4:	80 3d 7d 0a 01 00 00 	cmpb   $0x0,0x10a7d(%rip)        # 13278 <completed.0>
    27fb:	75 2b                	jne    2828 <__do_global_dtors_aux+0x38>
    27fd:	55                   	push   %rbp
    27fe:	48 83 3d c2 07 01 00 	cmpq   $0x0,0x107c2(%rip)        # 12fc8 <__cxa_finalize@GLIBC_2.2.5>
    2805:	00 
    2806:	48 89 e5             	mov    %rsp,%rbp
    2809:	74 0c                	je     2817 <__do_global_dtors_aux+0x27>
    280b:	48 8b 3d f6 07 01 00 	mov    0x107f6(%rip),%rdi        # 13008 <__dso_handle>
    2812:	e8 19 fb ff ff       	call   2330 <__cxa_finalize@plt>
    2817:	e8 64 ff ff ff       	call   2780 <deregister_tm_clones>
    281c:	c6 05 55 0a 01 00 01 	movb   $0x1,0x10a55(%rip)        # 13278 <completed.0>
    2823:	5d                   	pop    %rbp
    2824:	c3                   	ret    
    2825:	0f 1f 00             	nopl   (%rax)
    2828:	c3                   	ret    
    2829:	0f 1f 80 00 00 00 00 	nopl   0x0(%rax)

0000000000002830 <frame_dummy>:
    2830:	f3 0f 1e fa          	endbr64 
    2834:	e9 77 ff ff ff       	jmp    27b0 <register_tm_clones>

0000000000002839 <_Z7angleofdd>:
    2839:	f3 0f 1e fa          	endbr64 
    283d:	55                   	push   %rbp
    283e:	48 89 e5             	mov    %rsp,%rbp
    2841:	48 83 ec 30          	sub    $0x30,%rsp
    2845:	f2 0f 11 45 e8       	movsd  %xmm0,-0x18(%rbp)
    284a:	f2 0f 11 4d e0       	movsd  %xmm1,-0x20(%rbp)
    284f:	66 0f ef c0          	pxor   %xmm0,%xmm0
    2853:	66 0f 2e 45 e8       	ucomisd -0x18(%rbp),%xmm0
    2858:	7a 0f                	jp     2869 <_Z7angleofdd+0x30>
    285a:	66 0f ef c0          	pxor   %xmm0,%xmm0
    285e:	66 0f 2e 45 e8       	ucomisd -0x18(%rbp),%xmm0
    2863:	0f 84 af 00 00 00    	je     2918 <_Z7angleofdd+0xdf>
    2869:	f2 0f 10 45 e0       	movsd  -0x20(%rbp),%xmm0
    286e:	f2 0f 5e 45 e8       	divsd  -0x18(%rbp),%xmm0
    2873:	66 48 0f 7e c0       	movq   %xmm0,%rax
    2878:	66 48 0f 6e c0       	movq   %rax,%xmm0
    287d:	e8 ce fb ff ff       	call   2450 <atan@plt>
    2882:	f2 0f 11 45 d8       	movsd  %xmm0,-0x28(%rbp)
    2887:	dd 45 d8             	fldl   -0x28(%rbp)
    288a:	db 7d f0             	fstpt  -0x10(%rbp)
    288d:	66 0f ef c0          	pxor   %xmm0,%xmm0
    2891:	66 0f 2f 45 e0       	comisd -0x20(%rbp),%xmm0
    2896:	76 35                	jbe    28cd <_Z7angleofdd+0x94>
    2898:	f2 0f 10 45 e8       	movsd  -0x18(%rbp),%xmm0
    289d:	66 0f ef c9          	pxor   %xmm1,%xmm1
    28a1:	66 0f 2f c1          	comisd %xmm1,%xmm0
    28a5:	76 13                	jbe    28ba <_Z7angleofdd+0x81>
    28a7:	db 6d f0             	fldt   -0x10(%rbp)
    28aa:	db 2d 60 cb 00 00    	fldt   0xcb60(%rip)        # f410 <_ZN6__pstl9execution2v1L5unseqE+0x3fd>
    28b0:	de c1                	faddp  %st,%st(1)
    28b2:	db 7d f0             	fstpt  -0x10(%rbp)
    28b5:	e9 93 00 00 00       	jmp    294d <_Z7angleofdd+0x114>
    28ba:	db 6d f0             	fldt   -0x10(%rbp)
    28bd:	db 2d 5d cb 00 00    	fldt   0xcb5d(%rip)        # f420 <_ZN6__pstl9execution2v1L5unseqE+0x40d>
    28c3:	de c1                	faddp  %st,%st(1)
    28c5:	db 7d f0             	fstpt  -0x10(%rbp)
    28c8:	e9 80 00 00 00       	jmp    294d <_Z7angleofdd+0x114>
    28cd:	f2 0f 10 45 e0       	movsd  -0x20(%rbp),%xmm0
    28d2:	66 0f ef c9          	pxor   %xmm1,%xmm1
    28d6:	66 0f 2f c1          	comisd %xmm1,%xmm0
    28da:	76 1b                	jbe    28f7 <_Z7angleofdd+0xbe>
    28dc:	66 0f ef c0          	pxor   %xmm0,%xmm0
    28e0:	66 0f 2f 45 e8       	comisd -0x18(%rbp),%xmm0
    28e5:	76 66                	jbe    294d <_Z7angleofdd+0x114>
    28e7:	db 6d f0             	fldt   -0x10(%rbp)
    28ea:	db 2d 30 cb 00 00    	fldt   0xcb30(%rip)        # f420 <_ZN6__pstl9execution2v1L5unseqE+0x40d>
    28f0:	de c1                	faddp  %st,%st(1)
    28f2:	db 7d f0             	fstpt  -0x10(%rbp)
    28f5:	eb 56                	jmp    294d <_Z7angleofdd+0x114>
    28f7:	f2 0f 10 45 e8       	movsd  -0x18(%rbp),%xmm0
    28fc:	66 0f ef c9          	pxor   %xmm1,%xmm1
    2900:	66 0f 2f c1          	comisd %xmm1,%xmm0
    2904:	76 07                	jbe    290d <_Z7angleofdd+0xd4>
    2906:	d9 ee                	fldz   
    2908:	db 7d f0             	fstpt  -0x10(%rbp)
    290b:	eb 40                	jmp    294d <_Z7angleofdd+0x114>
    290d:	db 2d 0d cb 00 00    	fldt   0xcb0d(%rip)        # f420 <_ZN6__pstl9execution2v1L5unseqE+0x40d>
    2913:	db 7d f0             	fstpt  -0x10(%rbp)
    2916:	eb 35                	jmp    294d <_Z7angleofdd+0x114>
    2918:	f2 0f 10 45 e0       	movsd  -0x20(%rbp),%xmm0
    291d:	66 0f ef c9          	pxor   %xmm1,%xmm1
    2921:	66 0f 2f c1          	comisd %xmm1,%xmm0
    2925:	76 0b                	jbe    2932 <_Z7angleofdd+0xf9>
    2927:	db 2d 03 cb 00 00    	fldt   0xcb03(%rip)        # f430 <_ZN6__pstl9execution2v1L5unseqE+0x41d>
    292d:	db 7d f0             	fstpt  -0x10(%rbp)
    2930:	eb 1b                	jmp    294d <_Z7angleofdd+0x114>
    2932:	66 0f ef c0          	pxor   %xmm0,%xmm0
    2936:	66 0f 2f 45 e0       	comisd -0x20(%rbp),%xmm0
    293b:	76 0b                	jbe    2948 <_Z7angleofdd+0x10f>
    293d:	db 2d fd ca 00 00    	fldt   0xcafd(%rip)        # f440 <_ZN6__pstl9execution2v1L5unseqE+0x42d>
    2943:	db 7d f0             	fstpt  -0x10(%rbp)
    2946:	eb 05                	jmp    294d <_Z7angleofdd+0x114>
    2948:	d9 ee                	fldz   
    294a:	db 7d f0             	fstpt  -0x10(%rbp)
    294d:	db 6d f0             	fldt   -0x10(%rbp)
    2950:	c9                   	leave  
    2951:	c3                   	ret    

0000000000002952 <_Z18compute_spheremeshdjj>:
    2952:	f3 0f 1e fa          	endbr64 
    2956:	55                   	push   %rbp
    2957:	48 89 e5             	mov    %rsp,%rbp
    295a:	48 81 ec b0 00 00 00 	sub    $0xb0,%rsp
    2961:	f2 0f 11 45 88       	movsd  %xmm0,-0x78(%rbp)
    2966:	89 7d 84             	mov    %edi,-0x7c(%rbp)
    2969:	89 75 80             	mov    %esi,-0x80(%rbp)
    296c:	8b 4d 80             	mov    -0x80(%rbp),%ecx
    296f:	8b 45 84             	mov    -0x7c(%rbp),%eax
    2972:	ba 04 00 00 00       	mov    $0x4,%edx
    2977:	89 ce                	mov    %ecx,%esi
    2979:	89 c7                	mov    %eax,%edi
    297b:	e8 ae 90 00 00       	call   ba2e <_Z10allocate3djjj>
    2980:	48 89 45 a8          	mov    %rax,-0x58(%rbp)
    2984:	8b 45 84             	mov    -0x7c(%rbp),%eax
    2987:	01 c0                	add    %eax,%eax
    2989:	89 c0                	mov    %eax,%eax
    298b:	48 85 c0             	test   %rax,%rax
    298e:	78 0b                	js     299b <_Z18compute_spheremeshdjj+0x49>
    2990:	66 0f ef c0          	pxor   %xmm0,%xmm0
    2994:	f2 48 0f 2a c0       	cvtsi2sd %rax,%xmm0
    2999:	eb 19                	jmp    29b4 <_Z18compute_spheremeshdjj+0x62>
    299b:	48 89 c2             	mov    %rax,%rdx
    299e:	48 d1 ea             	shr    %rdx
    29a1:	83 e0 01             	and    $0x1,%eax
    29a4:	48 09 c2             	or     %rax,%rdx
    29a7:	66 0f ef c0          	pxor   %xmm0,%xmm0
    29ab:	f2 48 0f 2a c2       	cvtsi2sd %rdx,%xmm0
    29b0:	f2 0f 58 c0          	addsd  %xmm0,%xmm0
    29b4:	f2 0f 10 0d 94 ca 00 	movsd  0xca94(%rip),%xmm1        # f450 <_ZN6__pstl9execution2v1L5unseqE+0x43d>
    29bb:	00 
    29bc:	f2 0f 5e c8          	divsd  %xmm0,%xmm1
    29c0:	f2 0f 11 8d 70 ff ff 	movsd  %xmm1,-0x90(%rbp)
    29c7:	ff 
    29c8:	dd 85 70 ff ff ff    	fldl   -0x90(%rbp)
    29ce:	db 7d b0             	fstpt  -0x50(%rbp)
    29d1:	c7 45 98 00 00 00 00 	movl   $0x0,-0x68(%rbp)
    29d8:	e9 61 03 00 00       	jmp    2d3e <_Z18compute_spheremeshdjj+0x3ec>
    29dd:	dd 45 88             	fldl   -0x78(%rbp)
    29e0:	db bd 70 ff ff ff    	fstpt  -0x90(%rbp)
    29e6:	ff 75 b8             	push   -0x48(%rbp)
    29e9:	ff 75 b0             	push   -0x50(%rbp)
    29ec:	e8 62 68 00 00       	call   9253 <_ZSt3cose>
    29f1:	48 83 c4 10          	add    $0x10,%rsp
    29f5:	db ad 70 ff ff ff    	fldt   -0x90(%rbp)
    29fb:	de c9                	fmulp  %st,%st(1)
    29fd:	db 7d c0             	fstpt  -0x40(%rbp)
    2a00:	66 0f ef c0          	pxor   %xmm0,%xmm0
    2a04:	f2 0f 11 45 a0       	movsd  %xmm0,-0x60(%rbp)
    2a09:	f2 0f 10 45 88       	movsd  -0x78(%rbp),%xmm0
    2a0e:	f2 0f 59 c0          	mulsd  %xmm0,%xmm0
    2a12:	f2 0f 11 85 70 ff ff 	movsd  %xmm0,-0x90(%rbp)
    2a19:	ff 
    2a1a:	dd 85 70 ff ff ff    	fldl   -0x90(%rbp)
    2a20:	db bd 70 ff ff ff    	fstpt  -0x90(%rbp)
    2a26:	8b 45 84             	mov    -0x7c(%rbp),%eax
    2a29:	48 85 c0             	test   %rax,%rax
    2a2c:	78 0b                	js     2a39 <_Z18compute_spheremeshdjj+0xe7>
    2a2e:	66 0f ef c0          	pxor   %xmm0,%xmm0
    2a32:	f2 48 0f 2a c0       	cvtsi2sd %rax,%xmm0
    2a37:	eb 19                	jmp    2a52 <_Z18compute_spheremeshdjj+0x100>
    2a39:	48 89 c2             	mov    %rax,%rdx
    2a3c:	48 d1 ea             	shr    %rdx
    2a3f:	83 e0 01             	and    $0x1,%eax
    2a42:	48 09 c2             	or     %rax,%rdx
    2a45:	66 0f ef c0          	pxor   %xmm0,%xmm0
    2a49:	f2 48 0f 2a c2       	cvtsi2sd %rdx,%xmm0
    2a4e:	f2 0f 58 c0          	addsd  %xmm0,%xmm0
    2a52:	f2 0f 10 0d fe c9 00 	movsd  0xc9fe(%rip),%xmm1        # f458 <_ZN6__pstl9execution2v1L5unseqE+0x445>
    2a59:	00 
    2a5a:	f2 0f 5e c8          	divsd  %xmm0,%xmm1
    2a5e:	f2 0f 11 8d 60 ff ff 	movsd  %xmm1,-0xa0(%rbp)
    2a65:	ff 
    2a66:	dd 85 60 ff ff ff    	fldl   -0xa0(%rbp)
    2a6c:	db 6d b0             	fldt   -0x50(%rbp)
    2a6f:	de e1                	fsubp  %st,%st(1)
    2a71:	48 8d 64 24 f0       	lea    -0x10(%rsp),%rsp
    2a76:	db 3c 24             	fstpt  (%rsp)
    2a79:	e8 d5 67 00 00       	call   9253 <_ZSt3cose>
    2a7e:	48 83 c4 10          	add    $0x10,%rsp
    2a82:	db bd 60 ff ff ff    	fstpt  -0xa0(%rbp)
    2a88:	8b 45 84             	mov    -0x7c(%rbp),%eax
    2a8b:	48 85 c0             	test   %rax,%rax
    2a8e:	78 0b                	js     2a9b <_Z18compute_spheremeshdjj+0x149>
    2a90:	66 0f ef c0          	pxor   %xmm0,%xmm0
    2a94:	f2 48 0f 2a c0       	cvtsi2sd %rax,%xmm0
    2a99:	eb 19                	jmp    2ab4 <_Z18compute_spheremeshdjj+0x162>
    2a9b:	48 89 c2             	mov    %rax,%rdx
    2a9e:	48 d1 ea             	shr    %rdx
    2aa1:	83 e0 01             	and    $0x1,%eax
    2aa4:	48 09 c2             	or     %rax,%rdx
    2aa7:	66 0f ef c0          	pxor   %xmm0,%xmm0
    2aab:	f2 48 0f 2a c2       	cvtsi2sd %rdx,%xmm0
    2ab0:	f2 0f 58 c0          	addsd  %xmm0,%xmm0
    2ab4:	f2 0f 10 0d 9c c9 00 	movsd  0xc99c(%rip),%xmm1        # f458 <_ZN6__pstl9execution2v1L5unseqE+0x445>
    2abb:	00 
    2abc:	f2 0f 5e c8          	divsd  %xmm0,%xmm1
    2ac0:	f2 0f 11 8d 58 ff ff 	movsd  %xmm1,-0xa8(%rbp)
    2ac7:	ff 
    2ac8:	dd 85 58 ff ff ff    	fldl   -0xa8(%rbp)
    2ace:	db 6d b0             	fldt   -0x50(%rbp)
    2ad1:	de c1                	faddp  %st,%st(1)
    2ad3:	48 8d 64 24 f0       	lea    -0x10(%rsp),%rsp
    2ad8:	db 3c 24             	fstpt  (%rsp)
    2adb:	e8 73 67 00 00       	call   9253 <_ZSt3cose>
    2ae0:	48 83 c4 10          	add    $0x10,%rsp
    2ae4:	db ad 60 ff ff ff    	fldt   -0xa0(%rbp)
    2aea:	de e1                	fsubp  %st,%st(1)
    2aec:	db ad 70 ff ff ff    	fldt   -0x90(%rbp)
    2af2:	de c9                	fmulp  %st,%st(1)
    2af4:	8b 45 80             	mov    -0x80(%rbp),%eax
    2af7:	48 85 c0             	test   %rax,%rax
    2afa:	78 0b                	js     2b07 <_Z18compute_spheremeshdjj+0x1b5>
    2afc:	66 0f ef c0          	pxor   %xmm0,%xmm0
    2b00:	f2 48 0f 2a c0       	cvtsi2sd %rax,%xmm0
    2b05:	eb 19                	jmp    2b20 <_Z18compute_spheremeshdjj+0x1ce>
    2b07:	48 89 c2             	mov    %rax,%rdx
    2b0a:	48 d1 ea             	shr    %rdx
    2b0d:	83 e0 01             	and    $0x1,%eax
    2b10:	48 09 c2             	or     %rax,%rdx
    2b13:	66 0f ef c0          	pxor   %xmm0,%xmm0
    2b17:	f2 48 0f 2a c2       	cvtsi2sd %rdx,%xmm0
    2b1c:	f2 0f 58 c0          	addsd  %xmm0,%xmm0
    2b20:	f2 0f 10 0d 38 c9 00 	movsd  0xc938(%rip),%xmm1        # f460 <_ZN6__pstl9execution2v1L5unseqE+0x44d>
    2b27:	00 
    2b28:	f2 0f 5e c8          	divsd  %xmm0,%xmm1
    2b2c:	f2 0f 11 8d 70 ff ff 	movsd  %xmm1,-0x90(%rbp)
    2b33:	ff 
    2b34:	dd 85 70 ff ff ff    	fldl   -0x90(%rbp)
    2b3a:	de c9                	fmulp  %st,%st(1)
    2b3c:	db 7d d0             	fstpt  -0x30(%rbp)
    2b3f:	c7 45 9c 00 00 00 00 	movl   $0x0,-0x64(%rbp)
    2b46:	e9 8c 01 00 00       	jmp    2cd7 <_Z18compute_spheremeshdjj+0x385>
    2b4b:	dd 45 88             	fldl   -0x78(%rbp)
    2b4e:	db bd 70 ff ff ff    	fstpt  -0x90(%rbp)
    2b54:	ff 75 b8             	push   -0x48(%rbp)
    2b57:	ff 75 b0             	push   -0x50(%rbp)
    2b5a:	e8 33 67 00 00       	call   9292 <_ZSt3sine>
    2b5f:	48 83 c4 10          	add    $0x10,%rsp
    2b63:	db ad 70 ff ff ff    	fldt   -0x90(%rbp)
    2b69:	de c9                	fmulp  %st,%st(1)
    2b6b:	db bd 70 ff ff ff    	fstpt  -0x90(%rbp)
    2b71:	48 8b 45 a0          	mov    -0x60(%rbp),%rax
    2b75:	66 48 0f 6e c0       	movq   %rax,%xmm0
    2b7a:	e8 a1 fa ff ff       	call   2620 <cos@plt>
    2b7f:	f2 0f 11 85 60 ff ff 	movsd  %xmm0,-0xa0(%rbp)
    2b86:	ff 
    2b87:	dd 85 60 ff ff ff    	fldl   -0xa0(%rbp)
    2b8d:	db ad 70 ff ff ff    	fldt   -0x90(%rbp)
    2b93:	de c9                	fmulp  %st,%st(1)
    2b95:	db 7d e0             	fstpt  -0x20(%rbp)
    2b98:	dd 45 88             	fldl   -0x78(%rbp)
    2b9b:	db bd 70 ff ff ff    	fstpt  -0x90(%rbp)
    2ba1:	ff 75 b8             	push   -0x48(%rbp)
    2ba4:	ff 75 b0             	push   -0x50(%rbp)
    2ba7:	e8 e6 66 00 00       	call   9292 <_ZSt3sine>
    2bac:	48 83 c4 10          	add    $0x10,%rsp
    2bb0:	db ad 70 ff ff ff    	fldt   -0x90(%rbp)
    2bb6:	de c9                	fmulp  %st,%st(1)
    2bb8:	db bd 70 ff ff ff    	fstpt  -0x90(%rbp)
    2bbe:	48 8b 45 a0          	mov    -0x60(%rbp),%rax
    2bc2:	66 48 0f 6e c0       	movq   %rax,%xmm0
    2bc7:	e8 94 f7 ff ff       	call   2360 <sin@plt>
    2bcc:	f2 0f 11 85 60 ff ff 	movsd  %xmm0,-0xa0(%rbp)
    2bd3:	ff 
    2bd4:	dd 85 60 ff ff ff    	fldl   -0xa0(%rbp)
    2bda:	db ad 70 ff ff ff    	fldt   -0x90(%rbp)
    2be0:	de c9                	fmulp  %st,%st(1)
    2be2:	db 7d f0             	fstpt  -0x10(%rbp)
    2be5:	8b 45 98             	mov    -0x68(%rbp),%eax
    2be8:	48 8d 14 c5 00 00 00 	lea    0x0(,%rax,8),%rdx
    2bef:	00 
    2bf0:	48 8b 45 a8          	mov    -0x58(%rbp),%rax
    2bf4:	48 01 d0             	add    %rdx,%rax
    2bf7:	48 8b 10             	mov    (%rax),%rdx
    2bfa:	8b 45 9c             	mov    -0x64(%rbp),%eax
    2bfd:	48 c1 e0 03          	shl    $0x3,%rax
    2c01:	48 01 d0             	add    %rdx,%rax
    2c04:	48 8b 00             	mov    (%rax),%rax
    2c07:	db 6d e0             	fldt   -0x20(%rbp)
    2c0a:	db 38                	fstpt  (%rax)
    2c0c:	8b 45 98             	mov    -0x68(%rbp),%eax
    2c0f:	48 8d 14 c5 00 00 00 	lea    0x0(,%rax,8),%rdx
    2c16:	00 
    2c17:	48 8b 45 a8          	mov    -0x58(%rbp),%rax
    2c1b:	48 01 d0             	add    %rdx,%rax
    2c1e:	48 8b 10             	mov    (%rax),%rdx
    2c21:	8b 45 9c             	mov    -0x64(%rbp),%eax
    2c24:	48 c1 e0 03          	shl    $0x3,%rax
    2c28:	48 01 d0             	add    %rdx,%rax
    2c2b:	48 8b 00             	mov    (%rax),%rax
    2c2e:	48 83 c0 10          	add    $0x10,%rax
    2c32:	db 6d f0             	fldt   -0x10(%rbp)
    2c35:	db 38                	fstpt  (%rax)
    2c37:	8b 45 98             	mov    -0x68(%rbp),%eax
    2c3a:	48 8d 14 c5 00 00 00 	lea    0x0(,%rax,8),%rdx
    2c41:	00 
    2c42:	48 8b 45 a8          	mov    -0x58(%rbp),%rax
    2c46:	48 01 d0             	add    %rdx,%rax
    2c49:	48 8b 10             	mov    (%rax),%rdx
    2c4c:	8b 45 9c             	mov    -0x64(%rbp),%eax
    2c4f:	48 c1 e0 03          	shl    $0x3,%rax
    2c53:	48 01 d0             	add    %rdx,%rax
    2c56:	48 8b 00             	mov    (%rax),%rax
    2c59:	48 83 c0 20          	add    $0x20,%rax
    2c5d:	db 6d c0             	fldt   -0x40(%rbp)
    2c60:	db 38                	fstpt  (%rax)
    2c62:	8b 45 98             	mov    -0x68(%rbp),%eax
    2c65:	48 8d 14 c5 00 00 00 	lea    0x0(,%rax,8),%rdx
    2c6c:	00 
    2c6d:	48 8b 45 a8          	mov    -0x58(%rbp),%rax
    2c71:	48 01 d0             	add    %rdx,%rax
    2c74:	48 8b 10             	mov    (%rax),%rdx
    2c77:	8b 45 9c             	mov    -0x64(%rbp),%eax
    2c7a:	48 c1 e0 03          	shl    $0x3,%rax
    2c7e:	48 01 d0             	add    %rdx,%rax
    2c81:	48 8b 00             	mov    (%rax),%rax
    2c84:	48 83 c0 30          	add    $0x30,%rax
    2c88:	db 6d d0             	fldt   -0x30(%rbp)
    2c8b:	db 38                	fstpt  (%rax)
    2c8d:	8b 45 80             	mov    -0x80(%rbp),%eax
    2c90:	48 85 c0             	test   %rax,%rax
    2c93:	78 0b                	js     2ca0 <_Z18compute_spheremeshdjj+0x34e>
    2c95:	66 0f ef c0          	pxor   %xmm0,%xmm0
    2c99:	f2 48 0f 2a c0       	cvtsi2sd %rax,%xmm0
    2c9e:	eb 19                	jmp    2cb9 <_Z18compute_spheremeshdjj+0x367>
    2ca0:	48 89 c2             	mov    %rax,%rdx
    2ca3:	48 d1 ea             	shr    %rdx
    2ca6:	83 e0 01             	and    $0x1,%eax
    2ca9:	48 09 c2             	or     %rax,%rdx
    2cac:	66 0f ef c0          	pxor   %xmm0,%xmm0
    2cb0:	f2 48 0f 2a c2       	cvtsi2sd %rdx,%xmm0
    2cb5:	f2 0f 58 c0          	addsd  %xmm0,%xmm0
    2cb9:	f2 0f 10 0d 9f c7 00 	movsd  0xc79f(%rip),%xmm1        # f460 <_ZN6__pstl9execution2v1L5unseqE+0x44d>
    2cc0:	00 
    2cc1:	f2 0f 5e c8          	divsd  %xmm0,%xmm1
    2cc5:	f2 0f 10 45 a0       	movsd  -0x60(%rbp),%xmm0
    2cca:	f2 0f 58 c1          	addsd  %xmm1,%xmm0
    2cce:	f2 0f 11 45 a0       	movsd  %xmm0,-0x60(%rbp)
    2cd3:	83 45 9c 01          	addl   $0x1,-0x64(%rbp)
    2cd7:	8b 45 9c             	mov    -0x64(%rbp),%eax
    2cda:	3b 45 80             	cmp    -0x80(%rbp),%eax
    2cdd:	0f 82 68 fe ff ff    	jb     2b4b <_Z18compute_spheremeshdjj+0x1f9>
    2ce3:	8b 45 84             	mov    -0x7c(%rbp),%eax
    2ce6:	48 85 c0             	test   %rax,%rax
    2ce9:	78 0b                	js     2cf6 <_Z18compute_spheremeshdjj+0x3a4>
    2ceb:	66 0f ef c0          	pxor   %xmm0,%xmm0
    2cef:	f2 48 0f 2a c0       	cvtsi2sd %rax,%xmm0
    2cf4:	eb 19                	jmp    2d0f <_Z18compute_spheremeshdjj+0x3bd>
    2cf6:	48 89 c2             	mov    %rax,%rdx
    2cf9:	48 d1 ea             	shr    %rdx
    2cfc:	83 e0 01             	and    $0x1,%eax
    2cff:	48 09 c2             	or     %rax,%rdx
    2d02:	66 0f ef c0          	pxor   %xmm0,%xmm0
    2d06:	f2 48 0f 2a c2       	cvtsi2sd %rdx,%xmm0
    2d0b:	f2 0f 58 c0          	addsd  %xmm0,%xmm0
    2d0f:	f2 0f 10 0d 39 c7 00 	movsd  0xc739(%rip),%xmm1        # f450 <_ZN6__pstl9execution2v1L5unseqE+0x43d>
    2d16:	00 
    2d17:	f2 0f 5e c8          	divsd  %xmm0,%xmm1
    2d1b:	f2 0f 11 8d 70 ff ff 	movsd  %xmm1,-0x90(%rbp)
    2d22:	ff 
    2d23:	dd 85 70 ff ff ff    	fldl   -0x90(%rbp)
    2d29:	db 6d b0             	fldt   -0x50(%rbp)
    2d2c:	de c1                	faddp  %st,%st(1)
    2d2e:	db 7d b0             	fstpt  -0x50(%rbp)
    2d31:	66 0f ef c0          	pxor   %xmm0,%xmm0
    2d35:	f2 0f 11 45 a0       	movsd  %xmm0,-0x60(%rbp)
    2d3a:	83 45 98 01          	addl   $0x1,-0x68(%rbp)
    2d3e:	8b 45 98             	mov    -0x68(%rbp),%eax
    2d41:	3b 45 84             	cmp    -0x7c(%rbp),%eax
    2d44:	0f 82 93 fc ff ff    	jb     29dd <_Z18compute_spheremeshdjj+0x8b>
    2d4a:	48 8b 45 a8          	mov    -0x58(%rbp),%rax
    2d4e:	c9                   	leave  
    2d4f:	c3                   	ret    

0000000000002d50 <_Z13compute_cubesdjPPe>:
    2d50:	f3 0f 1e fa          	endbr64 
    2d54:	55                   	push   %rbp
    2d55:	48 89 e5             	mov    %rsp,%rbp
    2d58:	48 81 ec 90 00 00 00 	sub    $0x90,%rsp
    2d5f:	f2 0f 11 45 88       	movsd  %xmm0,-0x78(%rbp)
    2d64:	89 7d 84             	mov    %edi,-0x7c(%rbp)
    2d67:	48 89 b5 78 ff ff ff 	mov    %rsi,-0x88(%rbp)
    2d6e:	8b 45 84             	mov    -0x7c(%rbp),%eax
    2d71:	0f af c0             	imul   %eax,%eax
    2d74:	0f af 45 84          	imul   -0x7c(%rbp),%eax
    2d78:	c1 e0 03             	shl    $0x3,%eax
    2d7b:	89 c0                	mov    %eax,%eax
    2d7d:	48 89 45 a8          	mov    %rax,-0x58(%rbp)
    2d81:	48 8b 45 a8          	mov    -0x58(%rbp),%rax
    2d85:	89 c1                	mov    %eax,%ecx
    2d87:	48 8b 85 78 ff ff ff 	mov    -0x88(%rbp),%rax
    2d8e:	48 89 c2             	mov    %rax,%rdx
    2d91:	be 03 00 00 00       	mov    $0x3,%esi
    2d96:	89 cf                	mov    %ecx,%edi
    2d98:	e8 23 8c 00 00       	call   b9c0 <_Z10allocate2djjPPe>
    2d9d:	48 89 85 78 ff ff ff 	mov    %rax,-0x88(%rbp)
    2da4:	8b 45 84             	mov    -0x7c(%rbp),%eax
    2da7:	48 85 c0             	test   %rax,%rax
    2daa:	78 0b                	js     2db7 <_Z13compute_cubesdjPPe+0x67>
    2dac:	66 0f ef c0          	pxor   %xmm0,%xmm0
    2db0:	f2 48 0f 2a c0       	cvtsi2sd %rax,%xmm0
    2db5:	eb 19                	jmp    2dd0 <_Z13compute_cubesdjPPe+0x80>
    2db7:	48 89 c2             	mov    %rax,%rdx
    2dba:	48 d1 ea             	shr    %rdx
    2dbd:	83 e0 01             	and    $0x1,%eax
    2dc0:	48 09 c2             	or     %rax,%rdx
    2dc3:	66 0f ef c0          	pxor   %xmm0,%xmm0
    2dc7:	f2 48 0f 2a c2       	cvtsi2sd %rdx,%xmm0
    2dcc:	f2 0f 58 c0          	addsd  %xmm0,%xmm0
    2dd0:	f2 0f 10 4d 88       	movsd  -0x78(%rbp),%xmm1
    2dd5:	f2 0f 5e c8          	divsd  %xmm0,%xmm1
    2dd9:	f2 0f 11 8d 70 ff ff 	movsd  %xmm1,-0x90(%rbp)
    2de0:	ff 
    2de1:	dd 85 70 ff ff ff    	fldl   -0x90(%rbp)
    2de7:	db 7d e0             	fstpt  -0x20(%rbp)
    2dea:	db 6d e0             	fldt   -0x20(%rbp)
    2ded:	db 2d 7d c6 00 00    	fldt   0xc67d(%rip)        # f470 <_ZN6__pstl9execution2v1L5unseqE+0x45d>
    2df3:	de f9                	fdivrp %st,%st(1)
    2df5:	db 7d f0             	fstpt  -0x10(%rbp)
    2df8:	c7 45 98 00 00 00 00 	movl   $0x0,-0x68(%rbp)
    2dff:	db 6d e0             	fldt   -0x20(%rbp)
    2e02:	db 2d 68 c6 00 00    	fldt   0xc668(%rip)        # f470 <_ZN6__pstl9execution2v1L5unseqE+0x45d>
    2e08:	de f9                	fdivrp %st,%st(1)
    2e0a:	db 7d b0             	fstpt  -0x50(%rbp)
    2e0d:	db 6d e0             	fldt   -0x20(%rbp)
    2e10:	db 2d 5a c6 00 00    	fldt   0xc65a(%rip)        # f470 <_ZN6__pstl9execution2v1L5unseqE+0x45d>
    2e16:	de f9                	fdivrp %st,%st(1)
    2e18:	db 7d c0             	fstpt  -0x40(%rbp)
    2e1b:	db 6d e0             	fldt   -0x20(%rbp)
    2e1e:	db 2d 4c c6 00 00    	fldt   0xc64c(%rip)        # f470 <_ZN6__pstl9execution2v1L5unseqE+0x45d>
    2e24:	de f9                	fdivrp %st,%st(1)
    2e26:	db 7d d0             	fstpt  -0x30(%rbp)
    2e29:	c7 45 9c 00 00 00 00 	movl   $0x0,-0x64(%rbp)
    2e30:	e9 f5 00 00 00       	jmp    2f2a <_Z13compute_cubesdjPPe+0x1da>
    2e35:	c7 45 a0 00 00 00 00 	movl   $0x0,-0x60(%rbp)
    2e3c:	e9 be 00 00 00       	jmp    2eff <_Z13compute_cubesdjPPe+0x1af>
    2e41:	c7 45 a4 00 00 00 00 	movl   $0x0,-0x5c(%rbp)
    2e48:	e9 87 00 00 00       	jmp    2ed4 <_Z13compute_cubesdjPPe+0x184>
    2e4d:	dd 45 88             	fldl   -0x78(%rbp)
    2e50:	8b 45 98             	mov    -0x68(%rbp),%eax
    2e53:	48 98                	cltq   
    2e55:	48 8d 14 c5 00 00 00 	lea    0x0(,%rax,8),%rdx
    2e5c:	00 
    2e5d:	48 8b 85 78 ff ff ff 	mov    -0x88(%rbp),%rax
    2e64:	48 01 d0             	add    %rdx,%rax
    2e67:	48 8b 00             	mov    (%rax),%rax
    2e6a:	db 6d d0             	fldt   -0x30(%rbp)
    2e6d:	de e1                	fsubp  %st,%st(1)
    2e6f:	db 38                	fstpt  (%rax)
    2e71:	dd 45 88             	fldl   -0x78(%rbp)
    2e74:	8b 45 98             	mov    -0x68(%rbp),%eax
    2e77:	48 98                	cltq   
    2e79:	48 8d 14 c5 00 00 00 	lea    0x0(,%rax,8),%rdx
    2e80:	00 
    2e81:	48 8b 85 78 ff ff ff 	mov    -0x88(%rbp),%rax
    2e88:	48 01 d0             	add    %rdx,%rax
    2e8b:	48 8b 00             	mov    (%rax),%rax
    2e8e:	48 83 c0 10          	add    $0x10,%rax
    2e92:	db 6d c0             	fldt   -0x40(%rbp)
    2e95:	de e1                	fsubp  %st,%st(1)
    2e97:	db 38                	fstpt  (%rax)
    2e99:	dd 45 88             	fldl   -0x78(%rbp)
    2e9c:	8b 45 98             	mov    -0x68(%rbp),%eax
    2e9f:	48 98                	cltq   
    2ea1:	48 8d 14 c5 00 00 00 	lea    0x0(,%rax,8),%rdx
    2ea8:	00 
    2ea9:	48 8b 85 78 ff ff ff 	mov    -0x88(%rbp),%rax
    2eb0:	48 01 d0             	add    %rdx,%rax
    2eb3:	48 8b 00             	mov    (%rax),%rax
    2eb6:	48 83 c0 20          	add    $0x20,%rax
    2eba:	db 6d b0             	fldt   -0x50(%rbp)
    2ebd:	de e1                	fsubp  %st,%st(1)
    2ebf:	db 38                	fstpt  (%rax)
    2ec1:	83 45 98 01          	addl   $0x1,-0x68(%rbp)
    2ec5:	db 6d d0             	fldt   -0x30(%rbp)
    2ec8:	db 6d e0             	fldt   -0x20(%rbp)
    2ecb:	de c1                	faddp  %st,%st(1)
    2ecd:	db 7d d0             	fstpt  -0x30(%rbp)
    2ed0:	83 45 a4 01          	addl   $0x1,-0x5c(%rbp)
    2ed4:	8b 45 84             	mov    -0x7c(%rbp),%eax
    2ed7:	01 c0                	add    %eax,%eax
    2ed9:	39 45 a4             	cmp    %eax,-0x5c(%rbp)
    2edc:	0f 8c 6b ff ff ff    	jl     2e4d <_Z13compute_cubesdjPPe+0xfd>
    2ee2:	db 6d c0             	fldt   -0x40(%rbp)
    2ee5:	db 6d e0             	fldt   -0x20(%rbp)
    2ee8:	de c1                	faddp  %st,%st(1)
    2eea:	db 7d c0             	fstpt  -0x40(%rbp)
    2eed:	db 6d e0             	fldt   -0x20(%rbp)
    2ef0:	db 2d 7a c5 00 00    	fldt   0xc57a(%rip)        # f470 <_ZN6__pstl9execution2v1L5unseqE+0x45d>
    2ef6:	de f9                	fdivrp %st,%st(1)
    2ef8:	db 7d d0             	fstpt  -0x30(%rbp)
    2efb:	83 45 a0 01          	addl   $0x1,-0x60(%rbp)
    2eff:	8b 45 84             	mov    -0x7c(%rbp),%eax
    2f02:	01 c0                	add    %eax,%eax
    2f04:	39 45 a0             	cmp    %eax,-0x60(%rbp)
    2f07:	0f 8c 34 ff ff ff    	jl     2e41 <_Z13compute_cubesdjPPe+0xf1>
    2f0d:	db 6d b0             	fldt   -0x50(%rbp)
    2f10:	db 6d e0             	fldt   -0x20(%rbp)
    2f13:	de c1                	faddp  %st,%st(1)
    2f15:	db 7d b0             	fstpt  -0x50(%rbp)
    2f18:	db 6d e0             	fldt   -0x20(%rbp)
    2f1b:	db 2d 4f c5 00 00    	fldt   0xc54f(%rip)        # f470 <_ZN6__pstl9execution2v1L5unseqE+0x45d>
    2f21:	de f9                	fdivrp %st,%st(1)
    2f23:	db 7d c0             	fstpt  -0x40(%rbp)
    2f26:	83 45 9c 01          	addl   $0x1,-0x64(%rbp)
    2f2a:	8b 45 84             	mov    -0x7c(%rbp),%eax
    2f2d:	01 c0                	add    %eax,%eax
    2f2f:	39 45 9c             	cmp    %eax,-0x64(%rbp)
    2f32:	0f 8c fd fe ff ff    	jl     2e35 <_Z13compute_cubesdjPPe+0xe5>
    2f38:	48 8b 85 78 ff ff ff 	mov    -0x88(%rbp),%rax
    2f3f:	c9                   	leave  
    2f40:	c3                   	ret    

0000000000002f41 <_ZL5arealdddddddjjPPPe>:
    2f41:	f3 0f 1e fa          	endbr64 
    2f45:	55                   	push   %rbp
    2f46:	48 89 e5             	mov    %rsp,%rbp
    2f49:	48 81 ec f0 00 00 00 	sub    $0xf0,%rsp
    2f50:	f2 0f 11 85 68 ff ff 	movsd  %xmm0,-0x98(%rbp)
    2f57:	ff 
    2f58:	f2 0f 11 8d 60 ff ff 	movsd  %xmm1,-0xa0(%rbp)
    2f5f:	ff 
    2f60:	f2 0f 11 95 58 ff ff 	movsd  %xmm2,-0xa8(%rbp)
    2f67:	ff 
    2f68:	f2 0f 11 9d 50 ff ff 	movsd  %xmm3,-0xb0(%rbp)
    2f6f:	ff 
    2f70:	f2 0f 11 a5 48 ff ff 	movsd  %xmm4,-0xb8(%rbp)
    2f77:	ff 
    2f78:	f2 0f 11 ad 40 ff ff 	movsd  %xmm5,-0xc0(%rbp)
    2f7f:	ff 
    2f80:	f2 0f 11 b5 38 ff ff 	movsd  %xmm6,-0xc8(%rbp)
    2f87:	ff 
    2f88:	89 bd 34 ff ff ff    	mov    %edi,-0xcc(%rbp)
    2f8e:	89 b5 30 ff ff ff    	mov    %esi,-0xd0(%rbp)
    2f94:	48 89 95 28 ff ff ff 	mov    %rdx,-0xd8(%rbp)
    2f9b:	64 48 8b 04 25 28 00 	mov    %fs:0x28,%rax
    2fa2:	00 00 
    2fa4:	48 89 45 f8          	mov    %rax,-0x8(%rbp)
    2fa8:	31 c0                	xor    %eax,%eax
    2faa:	d9 ee                	fldz   
    2fac:	db 7d a0             	fstpt  -0x60(%rbp)
    2faf:	8b 85 34 ff ff ff    	mov    -0xcc(%rbp),%eax
    2fb5:	89 85 7c ff ff ff    	mov    %eax,-0x84(%rbp)
    2fbb:	f2 0f 10 85 68 ff ff 	movsd  -0x98(%rbp),%xmm0
    2fc2:	ff 
    2fc3:	f3 0f 7e 0d 35 c4 00 	movq   0xc435(%rip),%xmm1        # f400 <_ZN6__pstl9execution2v1L5unseqE+0x3ed>
    2fca:	00 
    2fcb:	66 0f 57 c1          	xorpd  %xmm1,%xmm0
    2fcf:	66 0f 2f 85 40 ff ff 	comisd -0xc0(%rbp),%xmm0
    2fd6:	ff 
    2fd7:	0f 86 c8 00 00 00    	jbe    30a5 <_ZL5arealdddddddjjPPPe+0x164>
    2fdd:	f2 0f 10 85 40 ff ff 	movsd  -0xc0(%rbp),%xmm0
    2fe4:	ff 
    2fe5:	f2 0f 5e 85 68 ff ff 	divsd  -0x98(%rbp),%xmm0
    2fec:	ff 
    2fed:	66 48 0f 7e c0       	movq   %xmm0,%rax
    2ff2:	66 48 0f 6e c0       	movq   %rax,%xmm0
    2ff7:	e8 84 f4 ff ff       	call   2480 <acos@plt>
    2ffc:	66 48 0f 7e c1       	movq   %xmm0,%rcx
    3001:	8b 85 34 ff ff ff    	mov    -0xcc(%rbp),%eax
    3007:	01 c0                	add    %eax,%eax
    3009:	89 c0                	mov    %eax,%eax
    300b:	48 85 c0             	test   %rax,%rax
    300e:	78 0b                	js     301b <_ZL5arealdddddddjjPPPe+0xda>
    3010:	66 0f ef c0          	pxor   %xmm0,%xmm0
    3014:	f2 48 0f 2a c0       	cvtsi2sd %rax,%xmm0
    3019:	eb 19                	jmp    3034 <_ZL5arealdddddddjjPPPe+0xf3>
    301b:	48 89 c2             	mov    %rax,%rdx
    301e:	48 d1 ea             	shr    %rdx
    3021:	83 e0 01             	and    $0x1,%eax
    3024:	48 09 c2             	or     %rax,%rdx
    3027:	66 0f ef c0          	pxor   %xmm0,%xmm0
    302b:	f2 48 0f 2a c2       	cvtsi2sd %rdx,%xmm0
    3030:	f2 0f 58 c0          	addsd  %xmm0,%xmm0
    3034:	f2 0f 10 0d 14 c4 00 	movsd  0xc414(%rip),%xmm1        # f450 <_ZN6__pstl9execution2v1L5unseqE+0x43d>
    303b:	00 
    303c:	66 0f 28 d1          	movapd %xmm1,%xmm2
    3040:	f2 0f 5e d0          	divsd  %xmm0,%xmm2
    3044:	66 48 0f 6e c9       	movq   %rcx,%xmm1
    3049:	f2 0f 5c ca          	subsd  %xmm2,%xmm1
    304d:	8b 85 34 ff ff ff    	mov    -0xcc(%rbp),%eax
    3053:	48 85 c0             	test   %rax,%rax
    3056:	78 0b                	js     3063 <_ZL5arealdddddddjjPPPe+0x122>
    3058:	66 0f ef c0          	pxor   %xmm0,%xmm0
    305c:	f2 48 0f 2a c0       	cvtsi2sd %rax,%xmm0
    3061:	eb 19                	jmp    307c <_ZL5arealdddddddjjPPPe+0x13b>
    3063:	48 89 c2             	mov    %rax,%rdx
    3066:	48 d1 ea             	shr    %rdx
    3069:	83 e0 01             	and    $0x1,%eax
    306c:	48 09 c2             	or     %rax,%rdx
    306f:	66 0f ef c0          	pxor   %xmm0,%xmm0
    3073:	f2 48 0f 2a c2       	cvtsi2sd %rdx,%xmm0
    3078:	f2 0f 58 c0          	addsd  %xmm0,%xmm0
    307c:	f2 0f 10 15 cc c3 00 	movsd  0xc3cc(%rip),%xmm2        # f450 <_ZN6__pstl9execution2v1L5unseqE+0x43d>
    3083:	00 
    3084:	f2 0f 5e d0          	divsd  %xmm0,%xmm2
    3088:	f2 0f 5e ca          	divsd  %xmm2,%xmm1
    308c:	66 48 0f 7e c8       	movq   %xmm1,%rax
    3091:	66 48 0f 6e c0       	movq   %rax,%xmm0
    3096:	e8 b5 f2 ff ff       	call   2350 <ceil@plt>
    309b:	f2 0f 2c c0          	cvttsd2si %xmm0,%eax
    309f:	89 85 7c ff ff ff    	mov    %eax,-0x84(%rbp)
    30a5:	c7 45 80 00 00 00 00 	movl   $0x0,-0x80(%rbp)
    30ac:	8b 45 80             	mov    -0x80(%rbp),%eax
    30af:	48 85 c0             	test   %rax,%rax
    30b2:	78 0b                	js     30bf <_ZL5arealdddddddjjPPPe+0x17e>
    30b4:	66 0f ef c0          	pxor   %xmm0,%xmm0
    30b8:	f2 48 0f 2a c0       	cvtsi2sd %rax,%xmm0
    30bd:	eb 19                	jmp    30d8 <_ZL5arealdddddddjjPPPe+0x197>
    30bf:	48 89 c2             	mov    %rax,%rdx
    30c2:	48 d1 ea             	shr    %rdx
    30c5:	83 e0 01             	and    $0x1,%eax
    30c8:	48 09 c2             	or     %rax,%rdx
    30cb:	66 0f ef c0          	pxor   %xmm0,%xmm0
    30cf:	f2 48 0f 2a c2       	cvtsi2sd %rdx,%xmm0
    30d4:	f2 0f 58 c0          	addsd  %xmm0,%xmm0
    30d8:	66 0f 2f 85 68 ff ff 	comisd -0x98(%rbp),%xmm0
    30df:	ff 
    30e0:	0f 86 c5 00 00 00    	jbe    31ab <_ZL5arealdddddddjjPPPe+0x26a>
    30e6:	f2 0f 10 85 38 ff ff 	movsd  -0xc8(%rbp),%xmm0
    30ed:	ff 
    30ee:	f2 0f 5e 85 68 ff ff 	divsd  -0x98(%rbp),%xmm0
    30f5:	ff 
    30f6:	66 48 0f 7e c0       	movq   %xmm0,%rax
    30fb:	66 48 0f 6e c0       	movq   %rax,%xmm0
    3100:	e8 7b f3 ff ff       	call   2480 <acos@plt>
    3105:	66 48 0f 7e c1       	movq   %xmm0,%rcx
    310a:	8b 85 34 ff ff ff    	mov    -0xcc(%rbp),%eax
    3110:	01 c0                	add    %eax,%eax
    3112:	89 c0                	mov    %eax,%eax
    3114:	48 85 c0             	test   %rax,%rax
    3117:	78 0b                	js     3124 <_ZL5arealdddddddjjPPPe+0x1e3>
    3119:	66 0f ef c0          	pxor   %xmm0,%xmm0
    311d:	f2 48 0f 2a c0       	cvtsi2sd %rax,%xmm0
    3122:	eb 19                	jmp    313d <_ZL5arealdddddddjjPPPe+0x1fc>
    3124:	48 89 c2             	mov    %rax,%rdx
    3127:	48 d1 ea             	shr    %rdx
    312a:	83 e0 01             	and    $0x1,%eax
    312d:	48 09 c2             	or     %rax,%rdx
    3130:	66 0f ef c0          	pxor   %xmm0,%xmm0
    3134:	f2 48 0f 2a c2       	cvtsi2sd %rdx,%xmm0
    3139:	f2 0f 58 c0          	addsd  %xmm0,%xmm0
    313d:	f2 0f 10 0d 0b c3 00 	movsd  0xc30b(%rip),%xmm1        # f450 <_ZN6__pstl9execution2v1L5unseqE+0x43d>
    3144:	00 
    3145:	66 0f 28 d1          	movapd %xmm1,%xmm2
    3149:	f2 0f 5e d0          	divsd  %xmm0,%xmm2
    314d:	66 48 0f 6e c9       	movq   %rcx,%xmm1
    3152:	f2 0f 5c ca          	subsd  %xmm2,%xmm1
    3156:	8b 85 34 ff ff ff    	mov    -0xcc(%rbp),%eax
    315c:	48 85 c0             	test   %rax,%rax
    315f:	78 0b                	js     316c <_ZL5arealdddddddjjPPPe+0x22b>
    3161:	66 0f ef c0          	pxor   %xmm0,%xmm0
    3165:	f2 48 0f 2a c0       	cvtsi2sd %rax,%xmm0
    316a:	eb 19                	jmp    3185 <_ZL5arealdddddddjjPPPe+0x244>
    316c:	48 89 c2             	mov    %rax,%rdx
    316f:	48 d1 ea             	shr    %rdx
    3172:	83 e0 01             	and    $0x1,%eax
    3175:	48 09 c2             	or     %rax,%rdx
    3178:	66 0f ef c0          	pxor   %xmm0,%xmm0
    317c:	f2 48 0f 2a c2       	cvtsi2sd %rdx,%xmm0
    3181:	f2 0f 58 c0          	addsd  %xmm0,%xmm0
    3185:	f2 0f 10 15 c3 c2 00 	movsd  0xc2c3(%rip),%xmm2        # f450 <_ZN6__pstl9execution2v1L5unseqE+0x43d>
    318c:	00 
    318d:	f2 0f 5e d0          	divsd  %xmm0,%xmm2
    3191:	f2 0f 5e ca          	divsd  %xmm2,%xmm1
    3195:	66 48 0f 7e c8       	movq   %xmm1,%rax
    319a:	66 48 0f 6e c0       	movq   %rax,%xmm0
    319f:	e8 2c f4 ff ff       	call   25d0 <floor@plt>
    31a4:	f2 0f 2c c0          	cvttsd2si %xmm0,%eax
    31a8:	89 45 80             	mov    %eax,-0x80(%rbp)
    31ab:	c7 45 84 00 00 00 00 	movl   $0x0,-0x7c(%rbp)
    31b2:	8b 85 30 ff ff ff    	mov    -0xd0(%rbp),%eax
    31b8:	89 45 88             	mov    %eax,-0x78(%rbp)
    31bb:	f2 0f 10 85 50 ff ff 	movsd  -0xb0(%rbp),%xmm0
    31c2:	ff 
    31c3:	48 8b 85 60 ff ff ff 	mov    -0xa0(%rbp),%rax
    31ca:	66 0f 28 c8          	movapd %xmm0,%xmm1
    31ce:	66 48 0f 6e c0       	movq   %rax,%xmm0
    31d3:	e8 61 f6 ff ff       	call   2839 <_Z7angleofdd>
    31d8:	db 7d b0             	fstpt  -0x50(%rbp)
    31db:	f2 0f 10 85 48 ff ff 	movsd  -0xb8(%rbp),%xmm0
    31e2:	ff 
    31e3:	48 8b 85 60 ff ff ff 	mov    -0xa0(%rbp),%rax
    31ea:	66 0f 28 c8          	movapd %xmm0,%xmm1
    31ee:	66 48 0f 6e c0       	movq   %rax,%xmm0
    31f3:	e8 41 f6 ff ff       	call   2839 <_Z7angleofdd>
    31f8:	db 7d c0             	fstpt  -0x40(%rbp)
    31fb:	f2 0f 10 85 50 ff ff 	movsd  -0xb0(%rbp),%xmm0
    3202:	ff 
    3203:	48 8b 85 58 ff ff ff 	mov    -0xa8(%rbp),%rax
    320a:	66 0f 28 c8          	movapd %xmm0,%xmm1
    320e:	66 48 0f 6e c0       	movq   %rax,%xmm0
    3213:	e8 21 f6 ff ff       	call   2839 <_Z7angleofdd>
    3218:	db 7d d0             	fstpt  -0x30(%rbp)
    321b:	f2 0f 10 85 48 ff ff 	movsd  -0xb8(%rbp),%xmm0
    3222:	ff 
    3223:	48 8b 85 58 ff ff ff 	mov    -0xa8(%rbp),%rax
    322a:	66 0f 28 c8          	movapd %xmm0,%xmm1
    322e:	66 48 0f 6e c0       	movq   %rax,%xmm0
    3233:	e8 01 f6 ff ff       	call   2839 <_Z7angleofdd>
    3238:	db 7d e0             	fstpt  -0x20(%rbp)
    323b:	48 8d 45 b0          	lea    -0x50(%rbp),%rax
    323f:	48 83 c0 40          	add    $0x40,%rax
    3243:	48 8d 55 b0          	lea    -0x50(%rbp),%rdx
    3247:	48 89 c6             	mov    %rax,%rsi
    324a:	48 89 d7             	mov    %rdx,%rdi
    324d:	e8 bc 6c 00 00       	call   9f0e <_ZSt4sortIPeEvT_S1_>
    3252:	66 0f ef c0          	pxor   %xmm0,%xmm0
    3256:	66 0f 2f 85 60 ff ff 	comisd -0xa0(%rbp),%xmm0
    325d:	ff 
    325e:	0f 93 c0             	setae  %al
    3261:	83 f0 01             	xor    $0x1,%eax
    3264:	84 c0                	test   %al,%al
    3266:	75 4e                	jne    32b6 <_ZL5arealdddddddjjPPPe+0x375>
    3268:	66 0f ef c0          	pxor   %xmm0,%xmm0
    326c:	66 0f 2f 85 50 ff ff 	comisd -0xb0(%rbp),%xmm0
    3273:	ff 
    3274:	0f 93 c0             	setae  %al
    3277:	83 f0 01             	xor    $0x1,%eax
    327a:	84 c0                	test   %al,%al
    327c:	75 38                	jne    32b6 <_ZL5arealdddddddjjPPPe+0x375>
    327e:	f2 0f 10 85 58 ff ff 	movsd  -0xa8(%rbp),%xmm0
    3285:	ff 
    3286:	66 0f ef c9          	pxor   %xmm1,%xmm1
    328a:	66 0f 2f c1          	comisd %xmm1,%xmm0
    328e:	0f 93 c0             	setae  %al
    3291:	83 f0 01             	xor    $0x1,%eax
    3294:	84 c0                	test   %al,%al
    3296:	75 1e                	jne    32b6 <_ZL5arealdddddddjjPPPe+0x375>
    3298:	f2 0f 10 85 48 ff ff 	movsd  -0xb8(%rbp),%xmm0
    329f:	ff 
    32a0:	66 0f ef c9          	pxor   %xmm1,%xmm1
    32a4:	66 0f 2f c1          	comisd %xmm1,%xmm0
    32a8:	0f 93 c0             	setae  %al
    32ab:	83 f0 01             	xor    $0x1,%eax
    32ae:	84 c0                	test   %al,%al
    32b0:	0f 84 22 01 00 00    	je     33d8 <_ZL5arealdddddddjjPPPe+0x497>
    32b6:	db 6d b0             	fldt   -0x50(%rbp)
    32b9:	8b 85 30 ff ff ff    	mov    -0xd0(%rbp),%eax
    32bf:	48 85 c0             	test   %rax,%rax
    32c2:	78 0b                	js     32cf <_ZL5arealdddddddjjPPPe+0x38e>
    32c4:	66 0f ef c0          	pxor   %xmm0,%xmm0
    32c8:	f2 48 0f 2a c0       	cvtsi2sd %rax,%xmm0
    32cd:	eb 19                	jmp    32e8 <_ZL5arealdddddddjjPPPe+0x3a7>
    32cf:	48 89 c2             	mov    %rax,%rdx
    32d2:	48 d1 ea             	shr    %rdx
    32d5:	83 e0 01             	and    $0x1,%eax
    32d8:	48 09 c2             	or     %rax,%rdx
    32db:	66 0f ef c0          	pxor   %xmm0,%xmm0
    32df:	f2 48 0f 2a c2       	cvtsi2sd %rdx,%xmm0
    32e4:	f2 0f 58 c0          	addsd  %xmm0,%xmm0
    32e8:	f2 0f 10 0d 70 c1 00 	movsd  0xc170(%rip),%xmm1        # f460 <_ZN6__pstl9execution2v1L5unseqE+0x44d>
    32ef:	00 
    32f0:	f2 0f 5e c8          	divsd  %xmm0,%xmm1
    32f4:	f2 0f 11 8d 18 ff ff 	movsd  %xmm1,-0xe8(%rbp)
    32fb:	ff 
    32fc:	dd 85 18 ff ff ff    	fldl   -0xe8(%rbp)
    3302:	de f9                	fdivrp %st,%st(1)
    3304:	48 8d 64 24 f0       	lea    -0x10(%rsp),%rsp
    3309:	db 3c 24             	fstpt  (%rsp)
    330c:	e8 5b 5f 00 00       	call   926c <_ZSt5floore>
    3311:	48 83 c4 10          	add    $0x10,%rsp
    3315:	d9 bd 26 ff ff ff    	fnstcw -0xda(%rbp)
    331b:	0f b7 85 26 ff ff ff 	movzwl -0xda(%rbp),%eax
    3322:	80 cc 0c             	or     $0xc,%ah
    3325:	66 89 85 24 ff ff ff 	mov    %ax,-0xdc(%rbp)
    332c:	d9 ad 24 ff ff ff    	fldcw  -0xdc(%rbp)
    3332:	db 9d 18 ff ff ff    	fistpl -0xe8(%rbp)
    3338:	d9 ad 26 ff ff ff    	fldcw  -0xda(%rbp)
    333e:	8b 85 18 ff ff ff    	mov    -0xe8(%rbp),%eax
    3344:	89 45 84             	mov    %eax,-0x7c(%rbp)
    3347:	db 6d e0             	fldt   -0x20(%rbp)
    334a:	8b 85 30 ff ff ff    	mov    -0xd0(%rbp),%eax
    3350:	48 85 c0             	test   %rax,%rax
    3353:	78 0b                	js     3360 <_ZL5arealdddddddjjPPPe+0x41f>
    3355:	66 0f ef c0          	pxor   %xmm0,%xmm0
    3359:	f2 48 0f 2a c0       	cvtsi2sd %rax,%xmm0
    335e:	eb 19                	jmp    3379 <_ZL5arealdddddddjjPPPe+0x438>
    3360:	48 89 c2             	mov    %rax,%rdx
    3363:	48 d1 ea             	shr    %rdx
    3366:	83 e0 01             	and    $0x1,%eax
    3369:	48 09 c2             	or     %rax,%rdx
    336c:	66 0f ef c0          	pxor   %xmm0,%xmm0
    3370:	f2 48 0f 2a c2       	cvtsi2sd %rdx,%xmm0
    3375:	f2 0f 58 c0          	addsd  %xmm0,%xmm0
    3379:	f2 0f 10 0d df c0 00 	movsd  0xc0df(%rip),%xmm1        # f460 <_ZN6__pstl9execution2v1L5unseqE+0x44d>
    3380:	00 
    3381:	f2 0f 5e c8          	divsd  %xmm0,%xmm1
    3385:	f2 0f 11 8d 18 ff ff 	movsd  %xmm1,-0xe8(%rbp)
    338c:	ff 
    338d:	dd 85 18 ff ff ff    	fldl   -0xe8(%rbp)
    3393:	de f9                	fdivrp %st,%st(1)
    3395:	48 8d 64 24 f0       	lea    -0x10(%rsp),%rsp
    339a:	db 3c 24             	fstpt  (%rsp)
    339d:	e8 8b 5e 00 00       	call   922d <_ZSt4ceile>
    33a2:	48 83 c4 10          	add    $0x10,%rsp
    33a6:	d9 bd 26 ff ff ff    	fnstcw -0xda(%rbp)
    33ac:	0f b7 85 26 ff ff ff 	movzwl -0xda(%rbp),%eax
    33b3:	80 cc 0c             	or     $0xc,%ah
    33b6:	66 89 85 24 ff ff ff 	mov    %ax,-0xdc(%rbp)
    33bd:	d9 ad 24 ff ff ff    	fldcw  -0xdc(%rbp)
    33c3:	db 9d 18 ff ff ff    	fistpl -0xe8(%rbp)
    33c9:	d9 ad 26 ff ff ff    	fldcw  -0xda(%rbp)
    33cf:	8b 85 18 ff ff ff    	mov    -0xe8(%rbp),%eax
    33d5:	89 45 88             	mov    %eax,-0x78(%rbp)
    33d8:	f2 0f 10 85 60 ff ff 	movsd  -0xa0(%rbp),%xmm0
    33df:	ff 
    33e0:	66 0f ef c9          	pxor   %xmm1,%xmm1
    33e4:	66 0f 2f c1          	comisd %xmm1,%xmm0
    33e8:	0f 97 c0             	seta   %al
    33eb:	83 f0 01             	xor    $0x1,%eax
    33ee:	84 c0                	test   %al,%al
    33f0:	75 34                	jne    3426 <_ZL5arealdddddddjjPPPe+0x4e5>
    33f2:	66 0f ef c0          	pxor   %xmm0,%xmm0
    33f6:	66 0f 2f 85 50 ff ff 	comisd -0xb0(%rbp),%xmm0
    33fd:	ff 
    33fe:	0f 97 c0             	seta   %al
    3401:	83 f0 01             	xor    $0x1,%eax
    3404:	84 c0                	test   %al,%al
    3406:	75 1e                	jne    3426 <_ZL5arealdddddddjjPPPe+0x4e5>
    3408:	f2 0f 10 85 48 ff ff 	movsd  -0xb8(%rbp),%xmm0
    340f:	ff 
    3410:	66 0f ef c9          	pxor   %xmm1,%xmm1
    3414:	66 0f 2f c1          	comisd %xmm1,%xmm0
    3418:	0f 93 c0             	setae  %al
    341b:	83 f0 01             	xor    $0x1,%eax
    341e:	84 c0                	test   %al,%al
    3420:	0f 84 c3 01 00 00    	je     35e9 <_ZL5arealdddddddjjPPPe+0x6a8>
    3426:	8b 45 80             	mov    -0x80(%rbp),%eax
    3429:	89 45 8c             	mov    %eax,-0x74(%rbp)
    342c:	e9 a4 01 00 00       	jmp    35d5 <_ZL5arealdddddddjjPPPe+0x694>
    3431:	8b 45 84             	mov    -0x7c(%rbp),%eax
    3434:	89 45 90             	mov    %eax,-0x70(%rbp)
    3437:	e9 89 01 00 00       	jmp    35c5 <_ZL5arealdddddddjjPPPe+0x684>
    343c:	8b 45 8c             	mov    -0x74(%rbp),%eax
    343f:	48 8d 14 c5 00 00 00 	lea    0x0(,%rax,8),%rdx
    3446:	00 
    3447:	48 8b 85 28 ff ff ff 	mov    -0xd8(%rbp),%rax
    344e:	48 01 d0             	add    %rdx,%rax
    3451:	48 8b 10             	mov    (%rax),%rdx
    3454:	8b 45 90             	mov    -0x70(%rbp),%eax
    3457:	48 c1 e0 03          	shl    $0x3,%rax
    345b:	48 01 d0             	add    %rdx,%rax
    345e:	48 8b 00             	mov    (%rax),%rax
    3461:	dd 85 60 ff ff ff    	fldl   -0xa0(%rbp)
    3467:	db 28                	fldt   (%rax)
    3469:	df f1                	fcomip %st(1),%st
    346b:	dd d8                	fstp   %st(0)
    346d:	0f 82 4e 01 00 00    	jb     35c1 <_ZL5arealdddddddjjPPPe+0x680>
    3473:	8b 45 8c             	mov    -0x74(%rbp),%eax
    3476:	48 8d 14 c5 00 00 00 	lea    0x0(,%rax,8),%rdx
    347d:	00 
    347e:	48 8b 85 28 ff ff ff 	mov    -0xd8(%rbp),%rax
    3485:	48 01 d0             	add    %rdx,%rax
    3488:	48 8b 10             	mov    (%rax),%rdx
    348b:	8b 45 90             	mov    -0x70(%rbp),%eax
    348e:	48 c1 e0 03          	shl    $0x3,%rax
    3492:	48 01 d0             	add    %rdx,%rax
    3495:	48 8b 00             	mov    (%rax),%rax
    3498:	db 28                	fldt   (%rax)
    349a:	dd 85 58 ff ff ff    	fldl   -0xa8(%rbp)
    34a0:	df f1                	fcomip %st(1),%st
    34a2:	dd d8                	fstp   %st(0)
    34a4:	0f 82 17 01 00 00    	jb     35c1 <_ZL5arealdddddddjjPPPe+0x680>
    34aa:	8b 45 8c             	mov    -0x74(%rbp),%eax
    34ad:	48 8d 14 c5 00 00 00 	lea    0x0(,%rax,8),%rdx
    34b4:	00 
    34b5:	48 8b 85 28 ff ff ff 	mov    -0xd8(%rbp),%rax
    34bc:	48 01 d0             	add    %rdx,%rax
    34bf:	48 8b 10             	mov    (%rax),%rdx
    34c2:	8b 45 90             	mov    -0x70(%rbp),%eax
    34c5:	48 c1 e0 03          	shl    $0x3,%rax
    34c9:	48 01 d0             	add    %rdx,%rax
    34cc:	48 8b 00             	mov    (%rax),%rax
    34cf:	48 83 c0 10          	add    $0x10,%rax
    34d3:	dd 85 50 ff ff ff    	fldl   -0xb0(%rbp)
    34d9:	db 28                	fldt   (%rax)
    34db:	df f1                	fcomip %st(1),%st
    34dd:	dd d8                	fstp   %st(0)
    34df:	0f 82 dc 00 00 00    	jb     35c1 <_ZL5arealdddddddjjPPPe+0x680>
    34e5:	8b 45 8c             	mov    -0x74(%rbp),%eax
    34e8:	48 8d 14 c5 00 00 00 	lea    0x0(,%rax,8),%rdx
    34ef:	00 
    34f0:	48 8b 85 28 ff ff ff 	mov    -0xd8(%rbp),%rax
    34f7:	48 01 d0             	add    %rdx,%rax
    34fa:	48 8b 10             	mov    (%rax),%rdx
    34fd:	8b 45 90             	mov    -0x70(%rbp),%eax
    3500:	48 c1 e0 03          	shl    $0x3,%rax
    3504:	48 01 d0             	add    %rdx,%rax
    3507:	48 8b 00             	mov    (%rax),%rax
    350a:	48 83 c0 10          	add    $0x10,%rax
    350e:	db 28                	fldt   (%rax)
    3510:	dd 85 48 ff ff ff    	fldl   -0xb8(%rbp)
    3516:	df f1                	fcomip %st(1),%st
    3518:	dd d8                	fstp   %st(0)
    351a:	0f 82 a1 00 00 00    	jb     35c1 <_ZL5arealdddddddjjPPPe+0x680>
    3520:	8b 45 8c             	mov    -0x74(%rbp),%eax
    3523:	48 8d 14 c5 00 00 00 	lea    0x0(,%rax,8),%rdx
    352a:	00 
    352b:	48 8b 85 28 ff ff ff 	mov    -0xd8(%rbp),%rax
    3532:	48 01 d0             	add    %rdx,%rax
    3535:	48 8b 10             	mov    (%rax),%rdx
    3538:	8b 45 90             	mov    -0x70(%rbp),%eax
    353b:	48 c1 e0 03          	shl    $0x3,%rax
    353f:	48 01 d0             	add    %rdx,%rax
    3542:	48 8b 00             	mov    (%rax),%rax
    3545:	48 83 c0 20          	add    $0x20,%rax
    3549:	dd 85 40 ff ff ff    	fldl   -0xc0(%rbp)
    354f:	db 28                	fldt   (%rax)
    3551:	df f1                	fcomip %st(1),%st
    3553:	dd d8                	fstp   %st(0)
    3555:	72 6a                	jb     35c1 <_ZL5arealdddddddjjPPPe+0x680>
    3557:	8b 45 8c             	mov    -0x74(%rbp),%eax
    355a:	48 8d 14 c5 00 00 00 	lea    0x0(,%rax,8),%rdx
    3561:	00 
    3562:	48 8b 85 28 ff ff ff 	mov    -0xd8(%rbp),%rax
    3569:	48 01 d0             	add    %rdx,%rax
    356c:	48 8b 10             	mov    (%rax),%rdx
    356f:	8b 45 90             	mov    -0x70(%rbp),%eax
    3572:	48 c1 e0 03          	shl    $0x3,%rax
    3576:	48 01 d0             	add    %rdx,%rax
    3579:	48 8b 00             	mov    (%rax),%rax
    357c:	48 83 c0 20          	add    $0x20,%rax
    3580:	db 28                	fldt   (%rax)
    3582:	dd 85 38 ff ff ff    	fldl   -0xc8(%rbp)
    3588:	df f1                	fcomip %st(1),%st
    358a:	dd d8                	fstp   %st(0)
    358c:	72 33                	jb     35c1 <_ZL5arealdddddddjjPPPe+0x680>
    358e:	8b 45 8c             	mov    -0x74(%rbp),%eax
    3591:	48 8d 14 c5 00 00 00 	lea    0x0(,%rax,8),%rdx
    3598:	00 
    3599:	48 8b 85 28 ff ff ff 	mov    -0xd8(%rbp),%rax
    35a0:	48 01 d0             	add    %rdx,%rax
    35a3:	48 8b 10             	mov    (%rax),%rdx
    35a6:	8b 45 90             	mov    -0x70(%rbp),%eax
    35a9:	48 c1 e0 03          	shl    $0x3,%rax
    35ad:	48 01 d0             	add    %rdx,%rax
    35b0:	48 8b 00             	mov    (%rax),%rax
    35b3:	48 83 c0 30          	add    $0x30,%rax
    35b7:	db 28                	fldt   (%rax)
    35b9:	db 6d a0             	fldt   -0x60(%rbp)
    35bc:	de c1                	faddp  %st,%st(1)
    35be:	db 7d a0             	fstpt  -0x60(%rbp)
    35c1:	83 45 90 01          	addl   $0x1,-0x70(%rbp)
    35c5:	8b 45 90             	mov    -0x70(%rbp),%eax
    35c8:	3b 45 88             	cmp    -0x78(%rbp),%eax
    35cb:	0f 82 6b fe ff ff    	jb     343c <_ZL5arealdddddddjjPPPe+0x4fb>
    35d1:	83 45 8c 01          	addl   $0x1,-0x74(%rbp)
    35d5:	8b 45 8c             	mov    -0x74(%rbp),%eax
    35d8:	3b 85 7c ff ff ff    	cmp    -0x84(%rbp),%eax
    35de:	0f 82 4d fe ff ff    	jb     3431 <_ZL5arealdddddddjjPPPe+0x4f0>
    35e4:	e9 a7 04 00 00       	jmp    3a90 <_ZL5arealdddddddjjPPPe+0xb4f>
    35e9:	db 6d c0             	fldt   -0x40(%rbp)
    35ec:	8b 85 30 ff ff ff    	mov    -0xd0(%rbp),%eax
    35f2:	48 85 c0             	test   %rax,%rax
    35f5:	78 0b                	js     3602 <_ZL5arealdddddddjjPPPe+0x6c1>
    35f7:	66 0f ef c0          	pxor   %xmm0,%xmm0
    35fb:	f2 48 0f 2a c0       	cvtsi2sd %rax,%xmm0
    3600:	eb 19                	jmp    361b <_ZL5arealdddddddjjPPPe+0x6da>
    3602:	48 89 c2             	mov    %rax,%rdx
    3605:	48 d1 ea             	shr    %rdx
    3608:	83 e0 01             	and    $0x1,%eax
    360b:	48 09 c2             	or     %rax,%rdx
    360e:	66 0f ef c0          	pxor   %xmm0,%xmm0
    3612:	f2 48 0f 2a c2       	cvtsi2sd %rdx,%xmm0
    3617:	f2 0f 58 c0          	addsd  %xmm0,%xmm0
    361b:	f2 0f 10 0d 3d be 00 	movsd  0xbe3d(%rip),%xmm1        # f460 <_ZN6__pstl9execution2v1L5unseqE+0x44d>
    3622:	00 
    3623:	f2 0f 5e c8          	divsd  %xmm0,%xmm1
    3627:	f2 0f 11 8d 18 ff ff 	movsd  %xmm1,-0xe8(%rbp)
    362e:	ff 
    362f:	dd 85 18 ff ff ff    	fldl   -0xe8(%rbp)
    3635:	de f9                	fdivrp %st,%st(1)
    3637:	48 8d 64 24 f0       	lea    -0x10(%rsp),%rsp
    363c:	db 3c 24             	fstpt  (%rsp)
    363f:	e8 e9 5b 00 00       	call   922d <_ZSt4ceile>
    3644:	48 83 c4 10          	add    $0x10,%rsp
    3648:	d9 bd 26 ff ff ff    	fnstcw -0xda(%rbp)
    364e:	0f b7 85 26 ff ff ff 	movzwl -0xda(%rbp),%eax
    3655:	80 cc 0c             	or     $0xc,%ah
    3658:	66 89 85 24 ff ff ff 	mov    %ax,-0xdc(%rbp)
    365f:	d9 ad 24 ff ff ff    	fldcw  -0xdc(%rbp)
    3665:	db 9d 18 ff ff ff    	fistpl -0xe8(%rbp)
    366b:	d9 ad 26 ff ff ff    	fldcw  -0xda(%rbp)
    3671:	8b 85 18 ff ff ff    	mov    -0xe8(%rbp),%eax
    3677:	89 45 84             	mov    %eax,-0x7c(%rbp)
    367a:	66 0f ef c0          	pxor   %xmm0,%xmm0
    367e:	66 0f 2e 85 48 ff ff 	ucomisd -0xb8(%rbp),%xmm0
    3685:	ff 
    3686:	7a 15                	jp     369d <_ZL5arealdddddddjjPPPe+0x75c>
    3688:	66 0f ef c0          	pxor   %xmm0,%xmm0
    368c:	66 0f 2e 85 48 ff ff 	ucomisd -0xb8(%rbp),%xmm0
    3693:	ff 
    3694:	75 07                	jne    369d <_ZL5arealdddddddjjPPPe+0x75c>
    3696:	c7 45 84 01 00 00 00 	movl   $0x1,-0x7c(%rbp)
    369d:	db 6d d0             	fldt   -0x30(%rbp)
    36a0:	8b 85 30 ff ff ff    	mov    -0xd0(%rbp),%eax
    36a6:	48 85 c0             	test   %rax,%rax
    36a9:	78 0b                	js     36b6 <_ZL5arealdddddddjjPPPe+0x775>
    36ab:	66 0f ef c0          	pxor   %xmm0,%xmm0
    36af:	f2 48 0f 2a c0       	cvtsi2sd %rax,%xmm0
    36b4:	eb 19                	jmp    36cf <_ZL5arealdddddddjjPPPe+0x78e>
    36b6:	48 89 c2             	mov    %rax,%rdx
    36b9:	48 d1 ea             	shr    %rdx
    36bc:	83 e0 01             	and    $0x1,%eax
    36bf:	48 09 c2             	or     %rax,%rdx
    36c2:	66 0f ef c0          	pxor   %xmm0,%xmm0
    36c6:	f2 48 0f 2a c2       	cvtsi2sd %rdx,%xmm0
    36cb:	f2 0f 58 c0          	addsd  %xmm0,%xmm0
    36cf:	f2 0f 10 0d 89 bd 00 	movsd  0xbd89(%rip),%xmm1        # f460 <_ZN6__pstl9execution2v1L5unseqE+0x44d>
    36d6:	00 
    36d7:	f2 0f 5e c8          	divsd  %xmm0,%xmm1
    36db:	f2 0f 11 8d 18 ff ff 	movsd  %xmm1,-0xe8(%rbp)
    36e2:	ff 
    36e3:	dd 85 18 ff ff ff    	fldl   -0xe8(%rbp)
    36e9:	de f9                	fdivrp %st,%st(1)
    36eb:	48 8d 64 24 f0       	lea    -0x10(%rsp),%rsp
    36f0:	db 3c 24             	fstpt  (%rsp)
    36f3:	e8 74 5b 00 00       	call   926c <_ZSt5floore>
    36f8:	48 83 c4 10          	add    $0x10,%rsp
    36fc:	d9 bd 26 ff ff ff    	fnstcw -0xda(%rbp)
    3702:	0f b7 85 26 ff ff ff 	movzwl -0xda(%rbp),%eax
    3709:	80 cc 0c             	or     $0xc,%ah
    370c:	66 89 85 24 ff ff ff 	mov    %ax,-0xdc(%rbp)
    3713:	d9 ad 24 ff ff ff    	fldcw  -0xdc(%rbp)
    3719:	db 9d 18 ff ff ff    	fistpl -0xe8(%rbp)
    371f:	d9 ad 26 ff ff ff    	fldcw  -0xda(%rbp)
    3725:	8b 85 18 ff ff ff    	mov    -0xe8(%rbp),%eax
    372b:	89 45 88             	mov    %eax,-0x78(%rbp)
    372e:	8b 45 80             	mov    -0x80(%rbp),%eax
    3731:	89 45 94             	mov    %eax,-0x6c(%rbp)
    3734:	e9 48 03 00 00       	jmp    3a81 <_ZL5arealdddddddjjPPPe+0xb40>
    3739:	c7 45 98 00 00 00 00 	movl   $0x0,-0x68(%rbp)
    3740:	e9 89 01 00 00       	jmp    38ce <_ZL5arealdddddddjjPPPe+0x98d>
    3745:	8b 45 94             	mov    -0x6c(%rbp),%eax
    3748:	48 8d 14 c5 00 00 00 	lea    0x0(,%rax,8),%rdx
    374f:	00 
    3750:	48 8b 85 28 ff ff ff 	mov    -0xd8(%rbp),%rax
    3757:	48 01 d0             	add    %rdx,%rax
    375a:	48 8b 10             	mov    (%rax),%rdx
    375d:	8b 45 98             	mov    -0x68(%rbp),%eax
    3760:	48 c1 e0 03          	shl    $0x3,%rax
    3764:	48 01 d0             	add    %rdx,%rax
    3767:	48 8b 00             	mov    (%rax),%rax
    376a:	dd 85 60 ff ff ff    	fldl   -0xa0(%rbp)
    3770:	db 28                	fldt   (%rax)
    3772:	df f1                	fcomip %st(1),%st
    3774:	dd d8                	fstp   %st(0)
    3776:	0f 82 4e 01 00 00    	jb     38ca <_ZL5arealdddddddjjPPPe+0x989>
    377c:	8b 45 94             	mov    -0x6c(%rbp),%eax
    377f:	48 8d 14 c5 00 00 00 	lea    0x0(,%rax,8),%rdx
    3786:	00 
    3787:	48 8b 85 28 ff ff ff 	mov    -0xd8(%rbp),%rax
    378e:	48 01 d0             	add    %rdx,%rax
    3791:	48 8b 10             	mov    (%rax),%rdx
    3794:	8b 45 98             	mov    -0x68(%rbp),%eax
    3797:	48 c1 e0 03          	shl    $0x3,%rax
    379b:	48 01 d0             	add    %rdx,%rax
    379e:	48 8b 00             	mov    (%rax),%rax
    37a1:	db 28                	fldt   (%rax)
    37a3:	dd 85 58 ff ff ff    	fldl   -0xa8(%rbp)
    37a9:	df f1                	fcomip %st(1),%st
    37ab:	dd d8                	fstp   %st(0)
    37ad:	0f 82 17 01 00 00    	jb     38ca <_ZL5arealdddddddjjPPPe+0x989>
    37b3:	8b 45 94             	mov    -0x6c(%rbp),%eax
    37b6:	48 8d 14 c5 00 00 00 	lea    0x0(,%rax,8),%rdx
    37bd:	00 
    37be:	48 8b 85 28 ff ff ff 	mov    -0xd8(%rbp),%rax
    37c5:	48 01 d0             	add    %rdx,%rax
    37c8:	48 8b 10             	mov    (%rax),%rdx
    37cb:	8b 45 98             	mov    -0x68(%rbp),%eax
    37ce:	48 c1 e0 03          	shl    $0x3,%rax
    37d2:	48 01 d0             	add    %rdx,%rax
    37d5:	48 8b 00             	mov    (%rax),%rax
    37d8:	48 83 c0 10          	add    $0x10,%rax
    37dc:	dd 85 50 ff ff ff    	fldl   -0xb0(%rbp)
    37e2:	db 28                	fldt   (%rax)
    37e4:	df f1                	fcomip %st(1),%st
    37e6:	dd d8                	fstp   %st(0)
    37e8:	0f 82 dc 00 00 00    	jb     38ca <_ZL5arealdddddddjjPPPe+0x989>
    37ee:	8b 45 94             	mov    -0x6c(%rbp),%eax
    37f1:	48 8d 14 c5 00 00 00 	lea    0x0(,%rax,8),%rdx
    37f8:	00 
    37f9:	48 8b 85 28 ff ff ff 	mov    -0xd8(%rbp),%rax
    3800:	48 01 d0             	add    %rdx,%rax
    3803:	48 8b 10             	mov    (%rax),%rdx
    3806:	8b 45 98             	mov    -0x68(%rbp),%eax
    3809:	48 c1 e0 03          	shl    $0x3,%rax
    380d:	48 01 d0             	add    %rdx,%rax
    3810:	48 8b 00             	mov    (%rax),%rax
    3813:	48 83 c0 10          	add    $0x10,%rax
    3817:	db 28                	fldt   (%rax)
    3819:	dd 85 48 ff ff ff    	fldl   -0xb8(%rbp)
    381f:	df f1                	fcomip %st(1),%st
    3821:	dd d8                	fstp   %st(0)
    3823:	0f 82 a1 00 00 00    	jb     38ca <_ZL5arealdddddddjjPPPe+0x989>
    3829:	8b 45 94             	mov    -0x6c(%rbp),%eax
    382c:	48 8d 14 c5 00 00 00 	lea    0x0(,%rax,8),%rdx
    3833:	00 
    3834:	48 8b 85 28 ff ff ff 	mov    -0xd8(%rbp),%rax
    383b:	48 01 d0             	add    %rdx,%rax
    383e:	48 8b 10             	mov    (%rax),%rdx
    3841:	8b 45 98             	mov    -0x68(%rbp),%eax
    3844:	48 c1 e0 03          	shl    $0x3,%rax
    3848:	48 01 d0             	add    %rdx,%rax
    384b:	48 8b 00             	mov    (%rax),%rax
    384e:	48 83 c0 20          	add    $0x20,%rax
    3852:	dd 85 40 ff ff ff    	fldl   -0xc0(%rbp)
    3858:	db 28                	fldt   (%rax)
    385a:	df f1                	fcomip %st(1),%st
    385c:	dd d8                	fstp   %st(0)
    385e:	72 6a                	jb     38ca <_ZL5arealdddddddjjPPPe+0x989>
    3860:	8b 45 94             	mov    -0x6c(%rbp),%eax
    3863:	48 8d 14 c5 00 00 00 	lea    0x0(,%rax,8),%rdx
    386a:	00 
    386b:	48 8b 85 28 ff ff ff 	mov    -0xd8(%rbp),%rax
    3872:	48 01 d0             	add    %rdx,%rax
    3875:	48 8b 10             	mov    (%rax),%rdx
    3878:	8b 45 98             	mov    -0x68(%rbp),%eax
    387b:	48 c1 e0 03          	shl    $0x3,%rax
    387f:	48 01 d0             	add    %rdx,%rax
    3882:	48 8b 00             	mov    (%rax),%rax
    3885:	48 83 c0 20          	add    $0x20,%rax
    3889:	db 28                	fldt   (%rax)
    388b:	dd 85 38 ff ff ff    	fldl   -0xc8(%rbp)
    3891:	df f1                	fcomip %st(1),%st
    3893:	dd d8                	fstp   %st(0)
    3895:	72 33                	jb     38ca <_ZL5arealdddddddjjPPPe+0x989>
    3897:	8b 45 94             	mov    -0x6c(%rbp),%eax
    389a:	48 8d 14 c5 00 00 00 	lea    0x0(,%rax,8),%rdx
    38a1:	00 
    38a2:	48 8b 85 28 ff ff ff 	mov    -0xd8(%rbp),%rax
    38a9:	48 01 d0             	add    %rdx,%rax
    38ac:	48 8b 10             	mov    (%rax),%rdx
    38af:	8b 45 98             	mov    -0x68(%rbp),%eax
    38b2:	48 c1 e0 03          	shl    $0x3,%rax
    38b6:	48 01 d0             	add    %rdx,%rax
    38b9:	48 8b 00             	mov    (%rax),%rax
    38bc:	48 83 c0 30          	add    $0x30,%rax
    38c0:	db 28                	fldt   (%rax)
    38c2:	db 6d a0             	fldt   -0x60(%rbp)
    38c5:	de c1                	faddp  %st,%st(1)
    38c7:	db 7d a0             	fstpt  -0x60(%rbp)
    38ca:	83 45 98 01          	addl   $0x1,-0x68(%rbp)
    38ce:	8b 45 98             	mov    -0x68(%rbp),%eax
    38d1:	3b 45 84             	cmp    -0x7c(%rbp),%eax
    38d4:	0f 82 6b fe ff ff    	jb     3745 <_ZL5arealdddddddjjPPPe+0x804>
    38da:	8b 45 88             	mov    -0x78(%rbp),%eax
    38dd:	89 45 9c             	mov    %eax,-0x64(%rbp)
    38e0:	e9 89 01 00 00       	jmp    3a6e <_ZL5arealdddddddjjPPPe+0xb2d>
    38e5:	8b 45 94             	mov    -0x6c(%rbp),%eax
    38e8:	48 8d 14 c5 00 00 00 	lea    0x0(,%rax,8),%rdx
    38ef:	00 
    38f0:	48 8b 85 28 ff ff ff 	mov    -0xd8(%rbp),%rax
    38f7:	48 01 d0             	add    %rdx,%rax
    38fa:	48 8b 10             	mov    (%rax),%rdx
    38fd:	8b 45 9c             	mov    -0x64(%rbp),%eax
    3900:	48 c1 e0 03          	shl    $0x3,%rax
    3904:	48 01 d0             	add    %rdx,%rax
    3907:	48 8b 00             	mov    (%rax),%rax
    390a:	dd 85 60 ff ff ff    	fldl   -0xa0(%rbp)
    3910:	db 28                	fldt   (%rax)
    3912:	df f1                	fcomip %st(1),%st
    3914:	dd d8                	fstp   %st(0)
    3916:	0f 82 4e 01 00 00    	jb     3a6a <_ZL5arealdddddddjjPPPe+0xb29>
    391c:	8b 45 94             	mov    -0x6c(%rbp),%eax
    391f:	48 8d 14 c5 00 00 00 	lea    0x0(,%rax,8),%rdx
    3926:	00 
    3927:	48 8b 85 28 ff ff ff 	mov    -0xd8(%rbp),%rax
    392e:	48 01 d0             	add    %rdx,%rax
    3931:	48 8b 10             	mov    (%rax),%rdx
    3934:	8b 45 9c             	mov    -0x64(%rbp),%eax
    3937:	48 c1 e0 03          	shl    $0x3,%rax
    393b:	48 01 d0             	add    %rdx,%rax
    393e:	48 8b 00             	mov    (%rax),%rax
    3941:	db 28                	fldt   (%rax)
    3943:	dd 85 58 ff ff ff    	fldl   -0xa8(%rbp)
    3949:	df f1                	fcomip %st(1),%st
    394b:	dd d8                	fstp   %st(0)
    394d:	0f 82 17 01 00 00    	jb     3a6a <_ZL5arealdddddddjjPPPe+0xb29>
    3953:	8b 45 94             	mov    -0x6c(%rbp),%eax
    3956:	48 8d 14 c5 00 00 00 	lea    0x0(,%rax,8),%rdx
    395d:	00 
    395e:	48 8b 85 28 ff ff ff 	mov    -0xd8(%rbp),%rax
    3965:	48 01 d0             	add    %rdx,%rax
    3968:	48 8b 10             	mov    (%rax),%rdx
    396b:	8b 45 9c             	mov    -0x64(%rbp),%eax
    396e:	48 c1 e0 03          	shl    $0x3,%rax
    3972:	48 01 d0             	add    %rdx,%rax
    3975:	48 8b 00             	mov    (%rax),%rax
    3978:	48 83 c0 10          	add    $0x10,%rax
    397c:	dd 85 50 ff ff ff    	fldl   -0xb0(%rbp)
    3982:	db 28                	fldt   (%rax)
    3984:	df f1                	fcomip %st(1),%st
    3986:	dd d8                	fstp   %st(0)
    3988:	0f 82 dc 00 00 00    	jb     3a6a <_ZL5arealdddddddjjPPPe+0xb29>
    398e:	8b 45 94             	mov    -0x6c(%rbp),%eax
    3991:	48 8d 14 c5 00 00 00 	lea    0x0(,%rax,8),%rdx
    3998:	00 
    3999:	48 8b 85 28 ff ff ff 	mov    -0xd8(%rbp),%rax
    39a0:	48 01 d0             	add    %rdx,%rax
    39a3:	48 8b 10             	mov    (%rax),%rdx
    39a6:	8b 45 9c             	mov    -0x64(%rbp),%eax
    39a9:	48 c1 e0 03          	shl    $0x3,%rax
    39ad:	48 01 d0             	add    %rdx,%rax
    39b0:	48 8b 00             	mov    (%rax),%rax
    39b3:	48 83 c0 10          	add    $0x10,%rax
    39b7:	db 28                	fldt   (%rax)
    39b9:	dd 85 48 ff ff ff    	fldl   -0xb8(%rbp)
    39bf:	df f1                	fcomip %st(1),%st
    39c1:	dd d8                	fstp   %st(0)
    39c3:	0f 82 a1 00 00 00    	jb     3a6a <_ZL5arealdddddddjjPPPe+0xb29>
    39c9:	8b 45 94             	mov    -0x6c(%rbp),%eax
    39cc:	48 8d 14 c5 00 00 00 	lea    0x0(,%rax,8),%rdx
    39d3:	00 
    39d4:	48 8b 85 28 ff ff ff 	mov    -0xd8(%rbp),%rax
    39db:	48 01 d0             	add    %rdx,%rax
    39de:	48 8b 10             	mov    (%rax),%rdx
    39e1:	8b 45 9c             	mov    -0x64(%rbp),%eax
    39e4:	48 c1 e0 03          	shl    $0x3,%rax
    39e8:	48 01 d0             	add    %rdx,%rax
    39eb:	48 8b 00             	mov    (%rax),%rax
    39ee:	48 83 c0 20          	add    $0x20,%rax
    39f2:	dd 85 40 ff ff ff    	fldl   -0xc0(%rbp)
    39f8:	db 28                	fldt   (%rax)
    39fa:	df f1                	fcomip %st(1),%st
    39fc:	dd d8                	fstp   %st(0)
    39fe:	72 6a                	jb     3a6a <_ZL5arealdddddddjjPPPe+0xb29>
    3a00:	8b 45 94             	mov    -0x6c(%rbp),%eax
    3a03:	48 8d 14 c5 00 00 00 	lea    0x0(,%rax,8),%rdx
    3a0a:	00 
    3a0b:	48 8b 85 28 ff ff ff 	mov    -0xd8(%rbp),%rax
    3a12:	48 01 d0             	add    %rdx,%rax
    3a15:	48 8b 10             	mov    (%rax),%rdx
    3a18:	8b 45 9c             	mov    -0x64(%rbp),%eax
    3a1b:	48 c1 e0 03          	shl    $0x3,%rax
    3a1f:	48 01 d0             	add    %rdx,%rax
    3a22:	48 8b 00             	mov    (%rax),%rax
    3a25:	48 83 c0 20          	add    $0x20,%rax
    3a29:	db 28                	fldt   (%rax)
    3a2b:	dd 85 38 ff ff ff    	fldl   -0xc8(%rbp)
    3a31:	df f1                	fcomip %st(1),%st
    3a33:	dd d8                	fstp   %st(0)
    3a35:	72 33                	jb     3a6a <_ZL5arealdddddddjjPPPe+0xb29>
    3a37:	8b 45 94             	mov    -0x6c(%rbp),%eax
    3a3a:	48 8d 14 c5 00 00 00 	lea    0x0(,%rax,8),%rdx
    3a41:	00 
    3a42:	48 8b 85 28 ff ff ff 	mov    -0xd8(%rbp),%rax
    3a49:	48 01 d0             	add    %rdx,%rax
    3a4c:	48 8b 10             	mov    (%rax),%rdx
    3a4f:	8b 45 9c             	mov    -0x64(%rbp),%eax
    3a52:	48 c1 e0 03          	shl    $0x3,%rax
    3a56:	48 01 d0             	add    %rdx,%rax
    3a59:	48 8b 00             	mov    (%rax),%rax
    3a5c:	48 83 c0 30          	add    $0x30,%rax
    3a60:	db 28                	fldt   (%rax)
    3a62:	db 6d a0             	fldt   -0x60(%rbp)
    3a65:	de c1                	faddp  %st,%st(1)
    3a67:	db 7d a0             	fstpt  -0x60(%rbp)
    3a6a:	83 45 9c 01          	addl   $0x1,-0x64(%rbp)
    3a6e:	8b 45 9c             	mov    -0x64(%rbp),%eax
    3a71:	3b 85 34 ff ff ff    	cmp    -0xcc(%rbp),%eax
    3a77:	0f 82 68 fe ff ff    	jb     38e5 <_ZL5arealdddddddjjPPPe+0x9a4>
    3a7d:	83 45 94 01          	addl   $0x1,-0x6c(%rbp)
    3a81:	8b 45 94             	mov    -0x6c(%rbp),%eax
    3a84:	3b 85 7c ff ff ff    	cmp    -0x84(%rbp),%eax
    3a8a:	0f 82 a9 fc ff ff    	jb     3739 <_ZL5arealdddddddjjPPPe+0x7f8>
    3a90:	db 6d a0             	fldt   -0x60(%rbp)
    3a93:	48 8b 45 f8          	mov    -0x8(%rbp),%rax
    3a97:	64 48 2b 04 25 28 00 	sub    %fs:0x28,%rax
    3a9e:	00 00 
    3aa0:	74 07                	je     3aa9 <_ZL5arealdddddddjjPPPe+0xb68>
    3aa2:	dd d8                	fstp   %st(0)
    3aa4:	e8 37 ea ff ff       	call   24e0 <__stack_chk_fail@plt>
    3aa9:	c9                   	leave  
    3aaa:	c3                   	ret    

0000000000003aab <_Z8pressureddd>:
    3aab:	f3 0f 1e fa          	endbr64 
    3aaf:	55                   	push   %rbp
    3ab0:	48 89 e5             	mov    %rsp,%rbp
    3ab3:	f2 0f 11 45 f8       	movsd  %xmm0,-0x8(%rbp)
    3ab8:	f2 0f 11 4d f0       	movsd  %xmm1,-0x10(%rbp)
    3abd:	f2 0f 11 55 e8       	movsd  %xmm2,-0x18(%rbp)
    3ac2:	f2 0f 10 45 f8       	movsd  -0x8(%rbp),%xmm0
    3ac7:	f2 0f 58 45 f0       	addsd  -0x10(%rbp),%xmm0
    3acc:	f2 0f 58 45 e8       	addsd  -0x18(%rbp),%xmm0
    3ad1:	66 48 0f 7e c0       	movq   %xmm0,%rax
    3ad6:	66 48 0f 6e c0       	movq   %rax,%xmm0
    3adb:	5d                   	pop    %rbp
    3adc:	c3                   	ret    

0000000000003add <_Z5pgradddd>:
    3add:	f3 0f 1e fa          	endbr64 
    3ae1:	55                   	push   %rbp
    3ae2:	48 89 e5             	mov    %rsp,%rbp
    3ae5:	53                   	push   %rbx
    3ae6:	48 83 ec 68          	sub    $0x68,%rsp
    3aea:	48 89 7d b8          	mov    %rdi,-0x48(%rbp)
    3aee:	f2 0f 11 45 b0       	movsd  %xmm0,-0x50(%rbp)
    3af3:	f2 0f 11 4d a8       	movsd  %xmm1,-0x58(%rbp)
    3af8:	f2 0f 11 55 a0       	movsd  %xmm2,-0x60(%rbp)
    3afd:	64 48 8b 04 25 28 00 	mov    %fs:0x28,%rax
    3b04:	00 00 
    3b06:	48 89 45 e8          	mov    %rax,-0x18(%rbp)
    3b0a:	31 c0                	xor    %eax,%eax
    3b0c:	f2 0f 10 05 6c b9 00 	movsd  0xb96c(%rip),%xmm0        # f480 <_ZN6__pstl9execution2v1L5unseqE+0x46d>
    3b13:	00 
    3b14:	f2 0f 11 45 c8       	movsd  %xmm0,-0x38(%rbp)
    3b19:	f2 0f 10 45 a0       	movsd  -0x60(%rbp),%xmm0
    3b1e:	66 0f 28 c8          	movapd %xmm0,%xmm1
    3b22:	f2 0f 58 4d c8       	addsd  -0x38(%rbp),%xmm1
    3b27:	f2 0f 10 45 a8       	movsd  -0x58(%rbp),%xmm0
    3b2c:	48 8b 45 b0          	mov    -0x50(%rbp),%rax
    3b30:	66 0f 28 d1          	movapd %xmm1,%xmm2
    3b34:	66 0f 28 c8          	movapd %xmm0,%xmm1
    3b38:	66 48 0f 6e c0       	movq   %rax,%xmm0
    3b3d:	e8 69 ff ff ff       	call   3aab <_Z8pressureddd>
    3b42:	66 48 0f 7e c3       	movq   %xmm0,%rbx
    3b47:	f2 0f 10 4d a0       	movsd  -0x60(%rbp),%xmm1
    3b4c:	f2 0f 10 45 a8       	movsd  -0x58(%rbp),%xmm0
    3b51:	48 8b 45 b0          	mov    -0x50(%rbp),%rax
    3b55:	66 0f 28 d1          	movapd %xmm1,%xmm2
    3b59:	66 0f 28 c8          	movapd %xmm0,%xmm1
    3b5d:	66 48 0f 6e c0       	movq   %rax,%xmm0
    3b62:	e8 44 ff ff ff       	call   3aab <_Z8pressureddd>
    3b67:	66 48 0f 6e db       	movq   %rbx,%xmm3
    3b6c:	f2 0f 5c d8          	subsd  %xmm0,%xmm3
    3b70:	f2 0f 11 5d 98       	movsd  %xmm3,-0x68(%rbp)
    3b75:	f2 0f 10 45 a8       	movsd  -0x58(%rbp),%xmm0
    3b7a:	f2 0f 58 45 c8       	addsd  -0x38(%rbp),%xmm0
    3b7f:	f2 0f 10 4d a0       	movsd  -0x60(%rbp),%xmm1
    3b84:	48 8b 45 b0          	mov    -0x50(%rbp),%rax
    3b88:	66 0f 28 d1          	movapd %xmm1,%xmm2
    3b8c:	66 0f 28 c8          	movapd %xmm0,%xmm1
    3b90:	66 48 0f 6e c0       	movq   %rax,%xmm0
    3b95:	e8 11 ff ff ff       	call   3aab <_Z8pressureddd>
    3b9a:	66 48 0f 7e c3       	movq   %xmm0,%rbx
    3b9f:	f2 0f 10 4d a0       	movsd  -0x60(%rbp),%xmm1
    3ba4:	f2 0f 10 45 a8       	movsd  -0x58(%rbp),%xmm0
    3ba9:	48 8b 45 b0          	mov    -0x50(%rbp),%rax
    3bad:	66 0f 28 d1          	movapd %xmm1,%xmm2
    3bb1:	66 0f 28 c8          	movapd %xmm0,%xmm1
    3bb5:	66 48 0f 6e c0       	movq   %rax,%xmm0
    3bba:	e8 ec fe ff ff       	call   3aab <_Z8pressureddd>
    3bbf:	66 48 0f 6e e3       	movq   %rbx,%xmm4
    3bc4:	f2 0f 5c e0          	subsd  %xmm0,%xmm4
    3bc8:	f2 0f 11 65 90       	movsd  %xmm4,-0x70(%rbp)
    3bcd:	f2 0f 10 45 b0       	movsd  -0x50(%rbp),%xmm0
    3bd2:	f2 0f 58 45 c8       	addsd  -0x38(%rbp),%xmm0
    3bd7:	66 48 0f 7e c0       	movq   %xmm0,%rax
    3bdc:	f2 0f 10 4d a0       	movsd  -0x60(%rbp),%xmm1
    3be1:	f2 0f 10 45 a8       	movsd  -0x58(%rbp),%xmm0
    3be6:	66 0f 28 d1          	movapd %xmm1,%xmm2
    3bea:	66 0f 28 c8          	movapd %xmm0,%xmm1
    3bee:	66 48 0f 6e c0       	movq   %rax,%xmm0
    3bf3:	e8 b3 fe ff ff       	call   3aab <_Z8pressureddd>
    3bf8:	66 48 0f 7e c3       	movq   %xmm0,%rbx
    3bfd:	f2 0f 10 4d a0       	movsd  -0x60(%rbp),%xmm1
    3c02:	f2 0f 10 45 a8       	movsd  -0x58(%rbp),%xmm0
    3c07:	48 8b 45 b0          	mov    -0x50(%rbp),%rax
    3c0b:	66 0f 28 d1          	movapd %xmm1,%xmm2
    3c0f:	66 0f 28 c8          	movapd %xmm0,%xmm1
    3c13:	66 48 0f 6e c0       	movq   %rax,%xmm0
    3c18:	e8 8e fe ff ff       	call   3aab <_Z8pressureddd>
    3c1d:	66 48 0f 6e eb       	movq   %rbx,%xmm5
    3c22:	f2 0f 5c e8          	subsd  %xmm0,%xmm5
    3c26:	66 48 0f 7e ea       	movq   %xmm5,%rdx
    3c2b:	48 8b 45 b8          	mov    -0x48(%rbp),%rax
    3c2f:	f2 0f 10 55 98       	movsd  -0x68(%rbp),%xmm2
    3c34:	f2 0f 10 4d 90       	movsd  -0x70(%rbp),%xmm1
    3c39:	66 48 0f 6e c2       	movq   %rdx,%xmm0
    3c3e:	48 89 c7             	mov    %rax,%rdi
    3c41:	e8 ca 56 00 00       	call   9310 <_ZN6vectorC1Eddd>
    3c46:	48 8d 45 d0          	lea    -0x30(%rbp),%rax
    3c4a:	48 8b 4d c8          	mov    -0x38(%rbp),%rcx
    3c4e:	48 8b 55 b8          	mov    -0x48(%rbp),%rdx
    3c52:	66 48 0f 6e c1       	movq   %rcx,%xmm0
    3c57:	48 89 d6             	mov    %rdx,%rsi
    3c5a:	48 89 c7             	mov    %rax,%rdi
    3c5d:	e8 12 5a 00 00       	call   9674 <_ZN6vectordvEd>
    3c62:	48 8d 55 d0          	lea    -0x30(%rbp),%rdx
    3c66:	48 8b 45 b8          	mov    -0x48(%rbp),%rax
    3c6a:	48 89 d6             	mov    %rdx,%rsi
    3c6d:	48 89 c7             	mov    %rax,%rdi
    3c70:	e8 67 5a 00 00       	call   96dc <_ZN6vectoraSERKS_>
    3c75:	90                   	nop
    3c76:	48 8b 45 e8          	mov    -0x18(%rbp),%rax
    3c7a:	64 48 2b 04 25 28 00 	sub    %fs:0x28,%rax
    3c81:	00 00 
    3c83:	74 05                	je     3c8a <_Z5pgradddd+0x1ad>
    3c85:	e8 56 e8 ff ff       	call   24e0 <__stack_chk_fail@plt>
    3c8a:	48 8b 45 b8          	mov    -0x48(%rbp),%rax
    3c8e:	48 8b 5d f8          	mov    -0x8(%rbp),%rbx
    3c92:	c9                   	leave  
    3c93:	c3                   	ret    

0000000000003c94 <_Z8plaplacedddd>:
    3c94:	f3 0f 1e fa          	endbr64 
    3c98:	55                   	push   %rbp
    3c99:	48 89 e5             	mov    %rsp,%rbp
    3c9c:	48 83 ec 28          	sub    $0x28,%rsp
    3ca0:	f2 0f 11 45 f8       	movsd  %xmm0,-0x8(%rbp)
    3ca5:	f2 0f 11 4d f0       	movsd  %xmm1,-0x10(%rbp)
    3caa:	f2 0f 11 55 e8       	movsd  %xmm2,-0x18(%rbp)
    3caf:	f2 0f 11 5d e0       	movsd  %xmm3,-0x20(%rbp)
    3cb4:	f2 0f 10 45 f8       	movsd  -0x8(%rbp),%xmm0
    3cb9:	f2 0f 58 45 e0       	addsd  -0x20(%rbp),%xmm0
    3cbe:	66 48 0f 7e c0       	movq   %xmm0,%rax
    3cc3:	f2 0f 10 4d e8       	movsd  -0x18(%rbp),%xmm1
    3cc8:	f2 0f 10 45 f0       	movsd  -0x10(%rbp),%xmm0
    3ccd:	66 0f 28 d1          	movapd %xmm1,%xmm2
    3cd1:	66 0f 28 c8          	movapd %xmm0,%xmm1
    3cd5:	66 48 0f 6e c0       	movq   %rax,%xmm0
    3cda:	e8 cc fd ff ff       	call   3aab <_Z8pressureddd>
    3cdf:	f2 0f 11 45 d8       	movsd  %xmm0,-0x28(%rbp)
    3ce4:	f2 0f 10 45 f8       	movsd  -0x8(%rbp),%xmm0
    3ce9:	66 0f 28 f0          	movapd %xmm0,%xmm6
    3ced:	f2 0f 5c 75 e0       	subsd  -0x20(%rbp),%xmm6
    3cf2:	66 48 0f 7e f0       	movq   %xmm6,%rax
    3cf7:	f2 0f 10 4d e8       	movsd  -0x18(%rbp),%xmm1
    3cfc:	f2 0f 10 45 f0       	movsd  -0x10(%rbp),%xmm0
    3d01:	66 0f 28 d1          	movapd %xmm1,%xmm2
    3d05:	66 0f 28 c8          	movapd %xmm0,%xmm1
    3d09:	66 48 0f 6e c0       	movq   %rax,%xmm0
    3d0e:	e8 98 fd ff ff       	call   3aab <_Z8pressureddd>
    3d13:	66 0f 28 e0          	movapd %xmm0,%xmm4
    3d17:	f2 0f 58 65 d8       	addsd  -0x28(%rbp),%xmm4
    3d1c:	f2 0f 11 65 d8       	movsd  %xmm4,-0x28(%rbp)
    3d21:	f2 0f 10 4d e8       	movsd  -0x18(%rbp),%xmm1
    3d26:	f2 0f 10 45 f0       	movsd  -0x10(%rbp),%xmm0
    3d2b:	48 8b 45 f8          	mov    -0x8(%rbp),%rax
    3d2f:	66 0f 28 d1          	movapd %xmm1,%xmm2
    3d33:	66 0f 28 c8          	movapd %xmm0,%xmm1
    3d37:	66 48 0f 6e c0       	movq   %rax,%xmm0
    3d3c:	e8 6a fd ff ff       	call   3aab <_Z8pressureddd>
    3d41:	f2 0f 58 c0          	addsd  %xmm0,%xmm0
    3d45:	f2 0f 10 65 d8       	movsd  -0x28(%rbp),%xmm4
    3d4a:	f2 0f 5c e0          	subsd  %xmm0,%xmm4
    3d4e:	f2 0f 11 65 d8       	movsd  %xmm4,-0x28(%rbp)
    3d53:	f2 0f 10 45 f0       	movsd  -0x10(%rbp),%xmm0
    3d58:	f2 0f 58 45 e0       	addsd  -0x20(%rbp),%xmm0
    3d5d:	f2 0f 10 4d e8       	movsd  -0x18(%rbp),%xmm1
    3d62:	48 8b 45 f8          	mov    -0x8(%rbp),%rax
    3d66:	66 0f 28 d1          	movapd %xmm1,%xmm2
    3d6a:	66 0f 28 c8          	movapd %xmm0,%xmm1
    3d6e:	66 48 0f 6e c0       	movq   %rax,%xmm0
    3d73:	e8 33 fd ff ff       	call   3aab <_Z8pressureddd>
    3d78:	f2 0f 58 45 d8       	addsd  -0x28(%rbp),%xmm0
    3d7d:	f2 0f 11 45 d8       	movsd  %xmm0,-0x28(%rbp)
    3d82:	f2 0f 10 45 f0       	movsd  -0x10(%rbp),%xmm0
    3d87:	f2 0f 5c 45 e0       	subsd  -0x20(%rbp),%xmm0
    3d8c:	f2 0f 10 4d e8       	movsd  -0x18(%rbp),%xmm1
    3d91:	48 8b 45 f8          	mov    -0x8(%rbp),%rax
    3d95:	66 0f 28 d1          	movapd %xmm1,%xmm2
    3d99:	66 0f 28 c8          	movapd %xmm0,%xmm1
    3d9d:	66 48 0f 6e c0       	movq   %rax,%xmm0
    3da2:	e8 04 fd ff ff       	call   3aab <_Z8pressureddd>
    3da7:	f2 0f 58 45 d8       	addsd  -0x28(%rbp),%xmm0
    3dac:	f2 0f 11 45 d8       	movsd  %xmm0,-0x28(%rbp)
    3db1:	f2 0f 10 4d e8       	movsd  -0x18(%rbp),%xmm1
    3db6:	f2 0f 10 45 f0       	movsd  -0x10(%rbp),%xmm0
    3dbb:	48 8b 45 f8          	mov    -0x8(%rbp),%rax
    3dbf:	66 0f 28 d1          	movapd %xmm1,%xmm2
    3dc3:	66 0f 28 c8          	movapd %xmm0,%xmm1
    3dc7:	66 48 0f 6e c0       	movq   %rax,%xmm0
    3dcc:	e8 da fc ff ff       	call   3aab <_Z8pressureddd>
    3dd1:	f2 0f 58 c0          	addsd  %xmm0,%xmm0
    3dd5:	f2 0f 10 6d d8       	movsd  -0x28(%rbp),%xmm5
    3dda:	f2 0f 5c e8          	subsd  %xmm0,%xmm5
    3dde:	f2 0f 11 6d d8       	movsd  %xmm5,-0x28(%rbp)
    3de3:	f2 0f 10 45 e8       	movsd  -0x18(%rbp),%xmm0
    3de8:	66 0f 28 c8          	movapd %xmm0,%xmm1
    3dec:	f2 0f 58 4d e0       	addsd  -0x20(%rbp),%xmm1
    3df1:	f2 0f 10 45 f0       	movsd  -0x10(%rbp),%xmm0
    3df6:	48 8b 45 f8          	mov    -0x8(%rbp),%rax
    3dfa:	66 0f 28 d1          	movapd %xmm1,%xmm2
    3dfe:	66 0f 28 c8          	movapd %xmm0,%xmm1
    3e02:	66 48 0f 6e c0       	movq   %rax,%xmm0
    3e07:	e8 9f fc ff ff       	call   3aab <_Z8pressureddd>
    3e0c:	f2 0f 58 45 d8       	addsd  -0x28(%rbp),%xmm0
    3e11:	f2 0f 11 45 d8       	movsd  %xmm0,-0x28(%rbp)
    3e16:	f2 0f 10 45 e8       	movsd  -0x18(%rbp),%xmm0
    3e1b:	66 0f 28 c8          	movapd %xmm0,%xmm1
    3e1f:	f2 0f 5c 4d e0       	subsd  -0x20(%rbp),%xmm1
    3e24:	f2 0f 10 45 f0       	movsd  -0x10(%rbp),%xmm0
    3e29:	48 8b 45 f8          	mov    -0x8(%rbp),%rax
    3e2d:	66 0f 28 d1          	movapd %xmm1,%xmm2
    3e31:	66 0f 28 c8          	movapd %xmm0,%xmm1
    3e35:	66 48 0f 6e c0       	movq   %rax,%xmm0
    3e3a:	e8 6c fc ff ff       	call   3aab <_Z8pressureddd>
    3e3f:	f2 0f 58 45 d8       	addsd  -0x28(%rbp),%xmm0
    3e44:	f2 0f 11 45 d8       	movsd  %xmm0,-0x28(%rbp)
    3e49:	f2 0f 10 4d e8       	movsd  -0x18(%rbp),%xmm1
    3e4e:	f2 0f 10 45 f0       	movsd  -0x10(%rbp),%xmm0
    3e53:	48 8b 45 f8          	mov    -0x8(%rbp),%rax
    3e57:	66 0f 28 d1          	movapd %xmm1,%xmm2
    3e5b:	66 0f 28 c8          	movapd %xmm0,%xmm1
    3e5f:	66 48 0f 6e c0       	movq   %rax,%xmm0
    3e64:	e8 42 fc ff ff       	call   3aab <_Z8pressureddd>
    3e69:	66 0f 28 c8          	movapd %xmm0,%xmm1
    3e6d:	f2 0f 58 c8          	addsd  %xmm0,%xmm1
    3e71:	f2 0f 10 45 d8       	movsd  -0x28(%rbp),%xmm0
    3e76:	f2 0f 5c c1          	subsd  %xmm1,%xmm0
    3e7a:	f2 0f 5e 45 e0       	divsd  -0x20(%rbp),%xmm0
    3e7f:	f2 0f 5e 45 e0       	divsd  -0x20(%rbp),%xmm0
    3e84:	66 48 0f 7e c0       	movq   %xmm0,%rax
    3e89:	66 48 0f 6e c0       	movq   %rax,%xmm0
    3e8e:	c9                   	leave  
    3e8f:	c3                   	ret    

0000000000003e90 <_ZL6forceldddddddjjPPPedddd>:
    3e90:	f3 0f 1e fa          	endbr64 
    3e94:	55                   	push   %rbp
    3e95:	48 89 e5             	mov    %rsp,%rbp
    3e98:	48 81 ec f0 01 00 00 	sub    $0x1f0,%rsp
    3e9f:	48 89 bd 88 fe ff ff 	mov    %rdi,-0x178(%rbp)
    3ea6:	f2 0f 11 85 80 fe ff 	movsd  %xmm0,-0x180(%rbp)
    3ead:	ff 
    3eae:	f2 0f 11 8d 78 fe ff 	movsd  %xmm1,-0x188(%rbp)
    3eb5:	ff 
    3eb6:	f2 0f 11 95 70 fe ff 	movsd  %xmm2,-0x190(%rbp)
    3ebd:	ff 
    3ebe:	f2 0f 11 9d 68 fe ff 	movsd  %xmm3,-0x198(%rbp)
    3ec5:	ff 
    3ec6:	f2 0f 11 a5 60 fe ff 	movsd  %xmm4,-0x1a0(%rbp)
    3ecd:	ff 
    3ece:	f2 0f 11 ad 58 fe ff 	movsd  %xmm5,-0x1a8(%rbp)
    3ed5:	ff 
    3ed6:	f2 0f 11 b5 50 fe ff 	movsd  %xmm6,-0x1b0(%rbp)
    3edd:	ff 
    3ede:	89 b5 4c fe ff ff    	mov    %esi,-0x1b4(%rbp)
    3ee4:	89 95 48 fe ff ff    	mov    %edx,-0x1b8(%rbp)
    3eea:	48 89 8d 40 fe ff ff 	mov    %rcx,-0x1c0(%rbp)
    3ef1:	f2 0f 11 bd 38 fe ff 	movsd  %xmm7,-0x1c8(%rbp)
    3ef8:	ff 
    3ef9:	64 48 8b 04 25 28 00 	mov    %fs:0x28,%rax
    3f00:	00 00 
    3f02:	48 89 45 f8          	mov    %rax,-0x8(%rbp)
    3f06:	31 c0                	xor    %eax,%eax
    3f08:	48 8b 85 88 fe ff ff 	mov    -0x178(%rbp),%rax
    3f0f:	66 0f ef d2          	pxor   %xmm2,%xmm2
    3f13:	66 0f ef c9          	pxor   %xmm1,%xmm1
    3f17:	48 8b 15 d2 b4 00 00 	mov    0xb4d2(%rip),%rdx        # f3f0 <_ZN6__pstl9execution2v1L5unseqE+0x3dd>
    3f1e:	66 48 0f 6e c2       	movq   %rdx,%xmm0
    3f23:	48 89 c7             	mov    %rax,%rdi
    3f26:	e8 e5 53 00 00       	call   9310 <_ZN6vectorC1Eddd>
    3f2b:	8b 85 4c fe ff ff    	mov    -0x1b4(%rbp),%eax
    3f31:	89 85 9c fe ff ff    	mov    %eax,-0x164(%rbp)
    3f37:	f2 0f 10 85 80 fe ff 	movsd  -0x180(%rbp),%xmm0
    3f3e:	ff 
    3f3f:	f3 0f 7e 0d b9 b4 00 	movq   0xb4b9(%rip),%xmm1        # f400 <_ZN6__pstl9execution2v1L5unseqE+0x3ed>
    3f46:	00 
    3f47:	66 0f 57 c8          	xorpd  %xmm0,%xmm1
    3f4b:	f2 0f 10 85 58 fe ff 	movsd  -0x1a8(%rbp),%xmm0
    3f52:	ff 
    3f53:	66 0f 2f c1          	comisd %xmm1,%xmm0
    3f57:	0f 86 c8 00 00 00    	jbe    4025 <_ZL6forceldddddddjjPPPedddd+0x195>
    3f5d:	f2 0f 10 85 58 fe ff 	movsd  -0x1a8(%rbp),%xmm0
    3f64:	ff 
    3f65:	f2 0f 5e 85 80 fe ff 	divsd  -0x180(%rbp),%xmm0
    3f6c:	ff 
    3f6d:	66 48 0f 7e c0       	movq   %xmm0,%rax
    3f72:	66 48 0f 6e c0       	movq   %rax,%xmm0
    3f77:	e8 04 e5 ff ff       	call   2480 <acos@plt>
    3f7c:	66 48 0f 7e c1       	movq   %xmm0,%rcx
    3f81:	8b 85 4c fe ff ff    	mov    -0x1b4(%rbp),%eax
    3f87:	01 c0                	add    %eax,%eax
    3f89:	89 c0                	mov    %eax,%eax
    3f8b:	48 85 c0             	test   %rax,%rax
    3f8e:	78 0b                	js     3f9b <_ZL6forceldddddddjjPPPedddd+0x10b>
    3f90:	66 0f ef c0          	pxor   %xmm0,%xmm0
    3f94:	f2 48 0f 2a c0       	cvtsi2sd %rax,%xmm0
    3f99:	eb 19                	jmp    3fb4 <_ZL6forceldddddddjjPPPedddd+0x124>
    3f9b:	48 89 c2             	mov    %rax,%rdx
    3f9e:	48 d1 ea             	shr    %rdx
    3fa1:	83 e0 01             	and    $0x1,%eax
    3fa4:	48 09 c2             	or     %rax,%rdx
    3fa7:	66 0f ef c0          	pxor   %xmm0,%xmm0
    3fab:	f2 48 0f 2a c2       	cvtsi2sd %rdx,%xmm0
    3fb0:	f2 0f 58 c0          	addsd  %xmm0,%xmm0
    3fb4:	f2 0f 10 0d 94 b4 00 	movsd  0xb494(%rip),%xmm1        # f450 <_ZN6__pstl9execution2v1L5unseqE+0x43d>
    3fbb:	00 
    3fbc:	66 0f 28 d1          	movapd %xmm1,%xmm2
    3fc0:	f2 0f 5e d0          	divsd  %xmm0,%xmm2
    3fc4:	66 48 0f 6e c9       	movq   %rcx,%xmm1
    3fc9:	f2 0f 5c ca          	subsd  %xmm2,%xmm1
    3fcd:	8b 85 4c fe ff ff    	mov    -0x1b4(%rbp),%eax
    3fd3:	48 85 c0             	test   %rax,%rax
    3fd6:	78 0b                	js     3fe3 <_ZL6forceldddddddjjPPPedddd+0x153>
    3fd8:	66 0f ef c0          	pxor   %xmm0,%xmm0
    3fdc:	f2 48 0f 2a c0       	cvtsi2sd %rax,%xmm0
    3fe1:	eb 19                	jmp    3ffc <_ZL6forceldddddddjjPPPedddd+0x16c>
    3fe3:	48 89 c2             	mov    %rax,%rdx
    3fe6:	48 d1 ea             	shr    %rdx
    3fe9:	83 e0 01             	and    $0x1,%eax
    3fec:	48 09 c2             	or     %rax,%rdx
    3fef:	66 0f ef c0          	pxor   %xmm0,%xmm0
    3ff3:	f2 48 0f 2a c2       	cvtsi2sd %rdx,%xmm0
    3ff8:	f2 0f 58 c0          	addsd  %xmm0,%xmm0
    3ffc:	f2 0f 10 15 4c b4 00 	movsd  0xb44c(%rip),%xmm2        # f450 <_ZN6__pstl9execution2v1L5unseqE+0x43d>
    4003:	00 
    4004:	f2 0f 5e d0          	divsd  %xmm0,%xmm2
    4008:	f2 0f 5e ca          	divsd  %xmm2,%xmm1
    400c:	66 48 0f 7e c8       	movq   %xmm1,%rax
    4011:	66 48 0f 6e c0       	movq   %rax,%xmm0
    4016:	e8 35 e3 ff ff       	call   2350 <ceil@plt>
    401b:	f2 0f 2c c0          	cvttsd2si %xmm0,%eax
    401f:	89 85 9c fe ff ff    	mov    %eax,-0x164(%rbp)
    4025:	c7 85 a0 fe ff ff 00 	movl   $0x0,-0x160(%rbp)
    402c:	00 00 00 
    402f:	f2 0f 10 85 80 fe ff 	movsd  -0x180(%rbp),%xmm0
    4036:	ff 
    4037:	66 0f 2f 85 50 fe ff 	comisd -0x1b0(%rbp),%xmm0
    403e:	ff 
    403f:	0f 86 c8 00 00 00    	jbe    410d <_ZL6forceldddddddjjPPPedddd+0x27d>
    4045:	f2 0f 10 85 50 fe ff 	movsd  -0x1b0(%rbp),%xmm0
    404c:	ff 
    404d:	f2 0f 5e 85 80 fe ff 	divsd  -0x180(%rbp),%xmm0
    4054:	ff 
    4055:	66 48 0f 7e c0       	movq   %xmm0,%rax
    405a:	66 48 0f 6e c0       	movq   %rax,%xmm0
    405f:	e8 1c e4 ff ff       	call   2480 <acos@plt>
    4064:	66 48 0f 7e c1       	movq   %xmm0,%rcx
    4069:	8b 85 4c fe ff ff    	mov    -0x1b4(%rbp),%eax
    406f:	01 c0                	add    %eax,%eax
    4071:	89 c0                	mov    %eax,%eax
    4073:	48 85 c0             	test   %rax,%rax
    4076:	78 0b                	js     4083 <_ZL6forceldddddddjjPPPedddd+0x1f3>
    4078:	66 0f ef c0          	pxor   %xmm0,%xmm0
    407c:	f2 48 0f 2a c0       	cvtsi2sd %rax,%xmm0
    4081:	eb 19                	jmp    409c <_ZL6forceldddddddjjPPPedddd+0x20c>
    4083:	48 89 c2             	mov    %rax,%rdx
    4086:	48 d1 ea             	shr    %rdx
    4089:	83 e0 01             	and    $0x1,%eax
    408c:	48 09 c2             	or     %rax,%rdx
    408f:	66 0f ef c0          	pxor   %xmm0,%xmm0
    4093:	f2 48 0f 2a c2       	cvtsi2sd %rdx,%xmm0
    4098:	f2 0f 58 c0          	addsd  %xmm0,%xmm0
    409c:	f2 0f 10 0d ac b3 00 	movsd  0xb3ac(%rip),%xmm1        # f450 <_ZN6__pstl9execution2v1L5unseqE+0x43d>
    40a3:	00 
    40a4:	66 0f 28 d1          	movapd %xmm1,%xmm2
    40a8:	f2 0f 5e d0          	divsd  %xmm0,%xmm2
    40ac:	66 48 0f 6e c9       	movq   %rcx,%xmm1
    40b1:	f2 0f 5c ca          	subsd  %xmm2,%xmm1
    40b5:	8b 85 4c fe ff ff    	mov    -0x1b4(%rbp),%eax
    40bb:	48 85 c0             	test   %rax,%rax
    40be:	78 0b                	js     40cb <_ZL6forceldddddddjjPPPedddd+0x23b>
    40c0:	66 0f ef c0          	pxor   %xmm0,%xmm0
    40c4:	f2 48 0f 2a c0       	cvtsi2sd %rax,%xmm0
    40c9:	eb 19                	jmp    40e4 <_ZL6forceldddddddjjPPPedddd+0x254>
    40cb:	48 89 c2             	mov    %rax,%rdx
    40ce:	48 d1 ea             	shr    %rdx
    40d1:	83 e0 01             	and    $0x1,%eax
    40d4:	48 09 c2             	or     %rax,%rdx
    40d7:	66 0f ef c0          	pxor   %xmm0,%xmm0
    40db:	f2 48 0f 2a c2       	cvtsi2sd %rdx,%xmm0
    40e0:	f2 0f 58 c0          	addsd  %xmm0,%xmm0
    40e4:	f2 0f 10 15 64 b3 00 	movsd  0xb364(%rip),%xmm2        # f450 <_ZN6__pstl9execution2v1L5unseqE+0x43d>
    40eb:	00 
    40ec:	f2 0f 5e d0          	divsd  %xmm0,%xmm2
    40f0:	f2 0f 5e ca          	divsd  %xmm2,%xmm1
    40f4:	66 48 0f 7e c8       	movq   %xmm1,%rax
    40f9:	66 48 0f 6e c0       	movq   %rax,%xmm0
    40fe:	e8 cd e4 ff ff       	call   25d0 <floor@plt>
    4103:	f2 0f 2c c0          	cvttsd2si %xmm0,%eax
    4107:	89 85 a0 fe ff ff    	mov    %eax,-0x160(%rbp)
    410d:	f2 0f 10 85 80 fe ff 	movsd  -0x180(%rbp),%xmm0
    4114:	ff 
    4115:	f3 0f 7e 0d e3 b2 00 	movq   0xb2e3(%rip),%xmm1        # f400 <_ZN6__pstl9execution2v1L5unseqE+0x3ed>
    411c:	00 
    411d:	66 0f 57 c1          	xorpd  %xmm1,%xmm0
    4121:	66 0f 2f 85 50 fe ff 	comisd -0x1b0(%rbp),%xmm0
    4128:	ff 
    4129:	0f 87 14 11 00 00    	ja     5243 <_ZL6forceldddddddjjPPPedddd+0x13b3>
    412f:	f2 0f 10 85 58 fe ff 	movsd  -0x1a8(%rbp),%xmm0
    4136:	ff 
    4137:	66 0f 2f 85 80 fe ff 	comisd -0x180(%rbp),%xmm0
    413e:	ff 
    413f:	0f 87 fe 10 00 00    	ja     5243 <_ZL6forceldddddddjjPPPedddd+0x13b3>
    4145:	c7 85 a4 fe ff ff 00 	movl   $0x0,-0x15c(%rbp)
    414c:	00 00 00 
    414f:	8b 85 48 fe ff ff    	mov    -0x1b8(%rbp),%eax
    4155:	89 85 a8 fe ff ff    	mov    %eax,-0x158(%rbp)
    415b:	f2 0f 10 85 68 fe ff 	movsd  -0x198(%rbp),%xmm0
    4162:	ff 
    4163:	48 8b 85 78 fe ff ff 	mov    -0x188(%rbp),%rax
    416a:	66 0f 28 c8          	movapd %xmm0,%xmm1
    416e:	66 48 0f 6e c0       	movq   %rax,%xmm0
    4173:	e8 c1 e6 ff ff       	call   2839 <_Z7angleofdd>
    4178:	db 7d b0             	fstpt  -0x50(%rbp)
    417b:	f2 0f 10 85 60 fe ff 	movsd  -0x1a0(%rbp),%xmm0
    4182:	ff 
    4183:	48 8b 85 78 fe ff ff 	mov    -0x188(%rbp),%rax
    418a:	66 0f 28 c8          	movapd %xmm0,%xmm1
    418e:	66 48 0f 6e c0       	movq   %rax,%xmm0
    4193:	e8 a1 e6 ff ff       	call   2839 <_Z7angleofdd>
    4198:	db 7d c0             	fstpt  -0x40(%rbp)
    419b:	f2 0f 10 85 68 fe ff 	movsd  -0x198(%rbp),%xmm0
    41a2:	ff 
    41a3:	48 8b 85 70 fe ff ff 	mov    -0x190(%rbp),%rax
    41aa:	66 0f 28 c8          	movapd %xmm0,%xmm1
    41ae:	66 48 0f 6e c0       	movq   %rax,%xmm0
    41b3:	e8 81 e6 ff ff       	call   2839 <_Z7angleofdd>
    41b8:	db 7d d0             	fstpt  -0x30(%rbp)
    41bb:	f2 0f 10 85 60 fe ff 	movsd  -0x1a0(%rbp),%xmm0
    41c2:	ff 
    41c3:	48 8b 85 70 fe ff ff 	mov    -0x190(%rbp),%rax
    41ca:	66 0f 28 c8          	movapd %xmm0,%xmm1
    41ce:	66 48 0f 6e c0       	movq   %rax,%xmm0
    41d3:	e8 61 e6 ff ff       	call   2839 <_Z7angleofdd>
    41d8:	db 7d e0             	fstpt  -0x20(%rbp)
    41db:	48 8d 45 b0          	lea    -0x50(%rbp),%rax
    41df:	48 83 c0 40          	add    $0x40,%rax
    41e3:	48 8d 55 b0          	lea    -0x50(%rbp),%rdx
    41e7:	48 89 c6             	mov    %rax,%rsi
    41ea:	48 89 d7             	mov    %rdx,%rdi
    41ed:	e8 1c 5d 00 00       	call   9f0e <_ZSt4sortIPeEvT_S1_>
    41f2:	66 0f ef c0          	pxor   %xmm0,%xmm0
    41f6:	66 0f 2f 85 78 fe ff 	comisd -0x188(%rbp),%xmm0
    41fd:	ff 
    41fe:	0f 93 c0             	setae  %al
    4201:	83 f0 01             	xor    $0x1,%eax
    4204:	84 c0                	test   %al,%al
    4206:	75 4e                	jne    4256 <_ZL6forceldddddddjjPPPedddd+0x3c6>
    4208:	66 0f ef c0          	pxor   %xmm0,%xmm0
    420c:	66 0f 2f 85 68 fe ff 	comisd -0x198(%rbp),%xmm0
    4213:	ff 
    4214:	0f 93 c0             	setae  %al
    4217:	83 f0 01             	xor    $0x1,%eax
    421a:	84 c0                	test   %al,%al
    421c:	75 38                	jne    4256 <_ZL6forceldddddddjjPPPedddd+0x3c6>
    421e:	f2 0f 10 85 70 fe ff 	movsd  -0x190(%rbp),%xmm0
    4225:	ff 
    4226:	66 0f ef c9          	pxor   %xmm1,%xmm1
    422a:	66 0f 2f c1          	comisd %xmm1,%xmm0
    422e:	0f 93 c0             	setae  %al
    4231:	83 f0 01             	xor    $0x1,%eax
    4234:	84 c0                	test   %al,%al
    4236:	75 1e                	jne    4256 <_ZL6forceldddddddjjPPPedddd+0x3c6>
    4238:	f2 0f 10 85 60 fe ff 	movsd  -0x1a0(%rbp),%xmm0
    423f:	ff 
    4240:	66 0f ef c9          	pxor   %xmm1,%xmm1
    4244:	66 0f 2f c1          	comisd %xmm1,%xmm0
    4248:	0f 93 c0             	setae  %al
    424b:	83 f0 01             	xor    $0x1,%eax
    424e:	84 c0                	test   %al,%al
    4250:	0f 84 42 01 00 00    	je     4398 <_ZL6forceldddddddjjPPPedddd+0x508>
    4256:	db 6d b0             	fldt   -0x50(%rbp)
    4259:	8b 85 48 fe ff ff    	mov    -0x1b8(%rbp),%eax
    425f:	48 85 c0             	test   %rax,%rax
    4262:	78 0b                	js     426f <_ZL6forceldddddddjjPPPedddd+0x3df>
    4264:	66 0f ef c0          	pxor   %xmm0,%xmm0
    4268:	f2 48 0f 2a c0       	cvtsi2sd %rax,%xmm0
    426d:	eb 19                	jmp    4288 <_ZL6forceldddddddjjPPPedddd+0x3f8>
    426f:	48 89 c2             	mov    %rax,%rdx
    4272:	48 d1 ea             	shr    %rdx
    4275:	83 e0 01             	and    $0x1,%eax
    4278:	48 09 c2             	or     %rax,%rdx
    427b:	66 0f ef c0          	pxor   %xmm0,%xmm0
    427f:	f2 48 0f 2a c2       	cvtsi2sd %rdx,%xmm0
    4284:	f2 0f 58 c0          	addsd  %xmm0,%xmm0
    4288:	f2 0f 10 0d d0 b1 00 	movsd  0xb1d0(%rip),%xmm1        # f460 <_ZN6__pstl9execution2v1L5unseqE+0x44d>
    428f:	00 
    4290:	f2 0f 5e c8          	divsd  %xmm0,%xmm1
    4294:	f2 0f 11 8d 28 fe ff 	movsd  %xmm1,-0x1d8(%rbp)
    429b:	ff 
    429c:	dd 85 28 fe ff ff    	fldl   -0x1d8(%rbp)
    42a2:	de f9                	fdivrp %st,%st(1)
    42a4:	48 8d 64 24 f0       	lea    -0x10(%rsp),%rsp
    42a9:	db 3c 24             	fstpt  (%rsp)
    42ac:	e8 bb 4f 00 00       	call   926c <_ZSt5floore>
    42b1:	48 83 c4 10          	add    $0x10,%rsp
    42b5:	d9 bd 36 fe ff ff    	fnstcw -0x1ca(%rbp)
    42bb:	0f b7 85 36 fe ff ff 	movzwl -0x1ca(%rbp),%eax
    42c2:	80 cc 0c             	or     $0xc,%ah
    42c5:	66 89 85 34 fe ff ff 	mov    %ax,-0x1cc(%rbp)
    42cc:	d9 ad 34 fe ff ff    	fldcw  -0x1cc(%rbp)
    42d2:	db 9d 28 fe ff ff    	fistpl -0x1d8(%rbp)
    42d8:	d9 ad 36 fe ff ff    	fldcw  -0x1ca(%rbp)
    42de:	8b 85 28 fe ff ff    	mov    -0x1d8(%rbp),%eax
    42e4:	89 85 a4 fe ff ff    	mov    %eax,-0x15c(%rbp)
    42ea:	db 6d e0             	fldt   -0x20(%rbp)
    42ed:	8b 85 48 fe ff ff    	mov    -0x1b8(%rbp),%eax
    42f3:	48 85 c0             	test   %rax,%rax
    42f6:	78 0b                	js     4303 <_ZL6forceldddddddjjPPPedddd+0x473>
    42f8:	66 0f ef c0          	pxor   %xmm0,%xmm0
    42fc:	f2 48 0f 2a c0       	cvtsi2sd %rax,%xmm0
    4301:	eb 19                	jmp    431c <_ZL6forceldddddddjjPPPedddd+0x48c>
    4303:	48 89 c2             	mov    %rax,%rdx
    4306:	48 d1 ea             	shr    %rdx
    4309:	83 e0 01             	and    $0x1,%eax
    430c:	48 09 c2             	or     %rax,%rdx
    430f:	66 0f ef c0          	pxor   %xmm0,%xmm0
    4313:	f2 48 0f 2a c2       	cvtsi2sd %rdx,%xmm0
    4318:	f2 0f 58 c0          	addsd  %xmm0,%xmm0
    431c:	f2 0f 10 0d 3c b1 00 	movsd  0xb13c(%rip),%xmm1        # f460 <_ZN6__pstl9execution2v1L5unseqE+0x44d>
    4323:	00 
    4324:	f2 0f 5e c8          	divsd  %xmm0,%xmm1
    4328:	f2 0f 11 8d 28 fe ff 	movsd  %xmm1,-0x1d8(%rbp)
    432f:	ff 
    4330:	dd 85 28 fe ff ff    	fldl   -0x1d8(%rbp)
    4336:	de f9                	fdivrp %st,%st(1)
    4338:	48 8d 64 24 f0       	lea    -0x10(%rsp),%rsp
    433d:	db 3c 24             	fstpt  (%rsp)
    4340:	e8 e8 4e 00 00       	call   922d <_ZSt4ceile>
    4345:	48 83 c4 10          	add    $0x10,%rsp
    4349:	d9 bd 36 fe ff ff    	fnstcw -0x1ca(%rbp)
    434f:	0f b7 85 36 fe ff ff 	movzwl -0x1ca(%rbp),%eax
    4356:	80 cc 0c             	or     $0xc,%ah
    4359:	66 89 85 34 fe ff ff 	mov    %ax,-0x1cc(%rbp)
    4360:	d9 ad 34 fe ff ff    	fldcw  -0x1cc(%rbp)
    4366:	db 9d 28 fe ff ff    	fistpl -0x1d8(%rbp)
    436c:	d9 ad 36 fe ff ff    	fldcw  -0x1ca(%rbp)
    4372:	8b 85 28 fe ff ff    	mov    -0x1d8(%rbp),%eax
    4378:	89 85 a8 fe ff ff    	mov    %eax,-0x158(%rbp)
    437e:	8b 85 a8 fe ff ff    	mov    -0x158(%rbp),%eax
    4384:	3b 85 48 fe ff ff    	cmp    -0x1b8(%rbp),%eax
    438a:	76 0c                	jbe    4398 <_ZL6forceldddddddjjPPPedddd+0x508>
    438c:	8b 85 48 fe ff ff    	mov    -0x1b8(%rbp),%eax
    4392:	89 85 a8 fe ff ff    	mov    %eax,-0x158(%rbp)
    4398:	f2 0f 10 85 78 fe ff 	movsd  -0x188(%rbp),%xmm0
    439f:	ff 
    43a0:	66 0f ef c9          	pxor   %xmm1,%xmm1
    43a4:	66 0f 2f c1          	comisd %xmm1,%xmm0
    43a8:	0f 97 c0             	seta   %al
    43ab:	83 f0 01             	xor    $0x1,%eax
    43ae:	84 c0                	test   %al,%al
    43b0:	75 34                	jne    43e6 <_ZL6forceldddddddjjPPPedddd+0x556>
    43b2:	66 0f ef c0          	pxor   %xmm0,%xmm0
    43b6:	66 0f 2f 85 68 fe ff 	comisd -0x198(%rbp),%xmm0
    43bd:	ff 
    43be:	0f 97 c0             	seta   %al
    43c1:	83 f0 01             	xor    $0x1,%eax
    43c4:	84 c0                	test   %al,%al
    43c6:	75 1e                	jne    43e6 <_ZL6forceldddddddjjPPPedddd+0x556>
    43c8:	f2 0f 10 85 60 fe ff 	movsd  -0x1a0(%rbp),%xmm0
    43cf:	ff 
    43d0:	66 0f ef c9          	pxor   %xmm1,%xmm1
    43d4:	66 0f 2f c1          	comisd %xmm1,%xmm0
    43d8:	0f 93 c0             	setae  %al
    43db:	83 f0 01             	xor    $0x1,%eax
    43de:	84 c0                	test   %al,%al
    43e0:	0f 84 6b 04 00 00    	je     4851 <_ZL6forceldddddddjjPPPedddd+0x9c1>
    43e6:	8b 85 a0 fe ff ff    	mov    -0x160(%rbp),%eax
    43ec:	89 85 ac fe ff ff    	mov    %eax,-0x154(%rbp)
    43f2:	e9 43 04 00 00       	jmp    483a <_ZL6forceldddddddjjPPPedddd+0x9aa>
    43f7:	8b 85 a4 fe ff ff    	mov    -0x15c(%rbp),%eax
    43fd:	89 85 b0 fe ff ff    	mov    %eax,-0x150(%rbp)
    4403:	e9 19 04 00 00       	jmp    4821 <_ZL6forceldddddddjjPPPedddd+0x991>
    4408:	8b 85 ac fe ff ff    	mov    -0x154(%rbp),%eax
    440e:	48 8d 14 c5 00 00 00 	lea    0x0(,%rax,8),%rdx
    4415:	00 
    4416:	48 8b 85 40 fe ff ff 	mov    -0x1c0(%rbp),%rax
    441d:	48 01 d0             	add    %rdx,%rax
    4420:	48 8b 10             	mov    (%rax),%rdx
    4423:	8b 85 b0 fe ff ff    	mov    -0x150(%rbp),%eax
    4429:	48 c1 e0 03          	shl    $0x3,%rax
    442d:	48 01 d0             	add    %rdx,%rax
    4430:	48 8b 00             	mov    (%rax),%rax
    4433:	dd 85 78 fe ff ff    	fldl   -0x188(%rbp)
    4439:	db 28                	fldt   (%rax)
    443b:	df f1                	fcomip %st(1),%st
    443d:	dd d8                	fstp   %st(0)
    443f:	0f 82 d5 03 00 00    	jb     481a <_ZL6forceldddddddjjPPPedddd+0x98a>
    4445:	8b 85 ac fe ff ff    	mov    -0x154(%rbp),%eax
    444b:	48 8d 14 c5 00 00 00 	lea    0x0(,%rax,8),%rdx
    4452:	00 
    4453:	48 8b 85 40 fe ff ff 	mov    -0x1c0(%rbp),%rax
    445a:	48 01 d0             	add    %rdx,%rax
    445d:	48 8b 10             	mov    (%rax),%rdx
    4460:	8b 85 b0 fe ff ff    	mov    -0x150(%rbp),%eax
    4466:	48 c1 e0 03          	shl    $0x3,%rax
    446a:	48 01 d0             	add    %rdx,%rax
    446d:	48 8b 00             	mov    (%rax),%rax
    4470:	db 28                	fldt   (%rax)
    4472:	dd 85 70 fe ff ff    	fldl   -0x190(%rbp)
    4478:	df f1                	fcomip %st(1),%st
    447a:	dd d8                	fstp   %st(0)
    447c:	0f 82 98 03 00 00    	jb     481a <_ZL6forceldddddddjjPPPedddd+0x98a>
    4482:	8b 85 ac fe ff ff    	mov    -0x154(%rbp),%eax
    4488:	48 8d 14 c5 00 00 00 	lea    0x0(,%rax,8),%rdx
    448f:	00 
    4490:	48 8b 85 40 fe ff ff 	mov    -0x1c0(%rbp),%rax
    4497:	48 01 d0             	add    %rdx,%rax
    449a:	48 8b 10             	mov    (%rax),%rdx
    449d:	8b 85 b0 fe ff ff    	mov    -0x150(%rbp),%eax
    44a3:	48 c1 e0 03          	shl    $0x3,%rax
    44a7:	48 01 d0             	add    %rdx,%rax
    44aa:	48 8b 00             	mov    (%rax),%rax
    44ad:	48 83 c0 10          	add    $0x10,%rax
    44b1:	dd 85 68 fe ff ff    	fldl   -0x198(%rbp)
    44b7:	db 28                	fldt   (%rax)
    44b9:	df f1                	fcomip %st(1),%st
    44bb:	dd d8                	fstp   %st(0)
    44bd:	0f 82 57 03 00 00    	jb     481a <_ZL6forceldddddddjjPPPedddd+0x98a>
    44c3:	8b 85 ac fe ff ff    	mov    -0x154(%rbp),%eax
    44c9:	48 8d 14 c5 00 00 00 	lea    0x0(,%rax,8),%rdx
    44d0:	00 
    44d1:	48 8b 85 40 fe ff ff 	mov    -0x1c0(%rbp),%rax
    44d8:	48 01 d0             	add    %rdx,%rax
    44db:	48 8b 10             	mov    (%rax),%rdx
    44de:	8b 85 b0 fe ff ff    	mov    -0x150(%rbp),%eax
    44e4:	48 c1 e0 03          	shl    $0x3,%rax
    44e8:	48 01 d0             	add    %rdx,%rax
    44eb:	48 8b 00             	mov    (%rax),%rax
    44ee:	48 83 c0 10          	add    $0x10,%rax
    44f2:	db 28                	fldt   (%rax)
    44f4:	dd 85 60 fe ff ff    	fldl   -0x1a0(%rbp)
    44fa:	df f1                	fcomip %st(1),%st
    44fc:	dd d8                	fstp   %st(0)
    44fe:	0f 82 16 03 00 00    	jb     481a <_ZL6forceldddddddjjPPPedddd+0x98a>
    4504:	8b 85 ac fe ff ff    	mov    -0x154(%rbp),%eax
    450a:	48 8d 14 c5 00 00 00 	lea    0x0(,%rax,8),%rdx
    4511:	00 
    4512:	48 8b 85 40 fe ff ff 	mov    -0x1c0(%rbp),%rax
    4519:	48 01 d0             	add    %rdx,%rax
    451c:	48 8b 10             	mov    (%rax),%rdx
    451f:	8b 85 b0 fe ff ff    	mov    -0x150(%rbp),%eax
    4525:	48 c1 e0 03          	shl    $0x3,%rax
    4529:	48 01 d0             	add    %rdx,%rax
    452c:	48 8b 00             	mov    (%rax),%rax
    452f:	48 83 c0 20          	add    $0x20,%rax
    4533:	dd 85 58 fe ff ff    	fldl   -0x1a8(%rbp)
    4539:	db 28                	fldt   (%rax)
    453b:	df f1                	fcomip %st(1),%st
    453d:	dd d8                	fstp   %st(0)
    453f:	0f 82 d5 02 00 00    	jb     481a <_ZL6forceldddddddjjPPPedddd+0x98a>
    4545:	8b 85 ac fe ff ff    	mov    -0x154(%rbp),%eax
    454b:	48 8d 14 c5 00 00 00 	lea    0x0(,%rax,8),%rdx
    4552:	00 
    4553:	48 8b 85 40 fe ff ff 	mov    -0x1c0(%rbp),%rax
    455a:	48 01 d0             	add    %rdx,%rax
    455d:	48 8b 10             	mov    (%rax),%rdx
    4560:	8b 85 b0 fe ff ff    	mov    -0x150(%rbp),%eax
    4566:	48 c1 e0 03          	shl    $0x3,%rax
    456a:	48 01 d0             	add    %rdx,%rax
    456d:	48 8b 00             	mov    (%rax),%rax
    4570:	48 83 c0 20          	add    $0x20,%rax
    4574:	db 28                	fldt   (%rax)
    4576:	dd 85 50 fe ff ff    	fldl   -0x1b0(%rbp)
    457c:	df f1                	fcomip %st(1),%st
    457e:	dd d8                	fstp   %st(0)
    4580:	0f 82 94 02 00 00    	jb     481a <_ZL6forceldddddddjjPPPedddd+0x98a>
    4586:	8b 85 ac fe ff ff    	mov    -0x154(%rbp),%eax
    458c:	48 8d 14 c5 00 00 00 	lea    0x0(,%rax,8),%rdx
    4593:	00 
    4594:	48 8b 85 40 fe ff ff 	mov    -0x1c0(%rbp),%rax
    459b:	48 01 d0             	add    %rdx,%rax
    459e:	48 8b 10             	mov    (%rax),%rdx
    45a1:	8b 85 b0 fe ff ff    	mov    -0x150(%rbp),%eax
    45a7:	48 c1 e0 03          	shl    $0x3,%rax
    45ab:	48 01 d0             	add    %rdx,%rax
    45ae:	48 8b 00             	mov    (%rax),%rax
    45b1:	48 83 c0 20          	add    $0x20,%rax
    45b5:	db 28                	fldt   (%rax)
    45b7:	dd 9d 28 fe ff ff    	fstpl  -0x1d8(%rbp)
    45bd:	8b 85 ac fe ff ff    	mov    -0x154(%rbp),%eax
    45c3:	48 8d 14 c5 00 00 00 	lea    0x0(,%rax,8),%rdx
    45ca:	00 
    45cb:	48 8b 85 40 fe ff ff 	mov    -0x1c0(%rbp),%rax
    45d2:	48 01 d0             	add    %rdx,%rax
    45d5:	48 8b 10             	mov    (%rax),%rdx
    45d8:	8b 85 b0 fe ff ff    	mov    -0x150(%rbp),%eax
    45de:	48 c1 e0 03          	shl    $0x3,%rax
    45e2:	48 01 d0             	add    %rdx,%rax
    45e5:	48 8b 00             	mov    (%rax),%rax
    45e8:	48 83 c0 10          	add    $0x10,%rax
    45ec:	db 28                	fldt   (%rax)
    45ee:	dd 9d 20 fe ff ff    	fstpl  -0x1e0(%rbp)
    45f4:	8b 85 ac fe ff ff    	mov    -0x154(%rbp),%eax
    45fa:	48 8d 14 c5 00 00 00 	lea    0x0(,%rax,8),%rdx
    4601:	00 
    4602:	48 8b 85 40 fe ff ff 	mov    -0x1c0(%rbp),%rax
    4609:	48 01 d0             	add    %rdx,%rax
    460c:	48 8b 10             	mov    (%rax),%rdx
    460f:	8b 85 b0 fe ff ff    	mov    -0x150(%rbp),%eax
    4615:	48 c1 e0 03          	shl    $0x3,%rax
    4619:	48 01 d0             	add    %rdx,%rax
    461c:	48 8b 00             	mov    (%rax),%rax
    461f:	db 28                	fldt   (%rax)
    4621:	dd 9d 18 fe ff ff    	fstpl  -0x1e8(%rbp)
    4627:	f2 0f 10 85 18 fe ff 	movsd  -0x1e8(%rbp),%xmm0
    462e:	ff 
    462f:	48 8d 85 c0 fe ff ff 	lea    -0x140(%rbp),%rax
    4636:	f2 0f 10 95 28 fe ff 	movsd  -0x1d8(%rbp),%xmm2
    463d:	ff 
    463e:	f2 0f 10 8d 20 fe ff 	movsd  -0x1e0(%rbp),%xmm1
    4645:	ff 
    4646:	48 89 c7             	mov    %rax,%rdi
    4649:	e8 c2 4c 00 00       	call   9310 <_ZN6vectorC1Eddd>
    464e:	8b 85 ac fe ff ff    	mov    -0x154(%rbp),%eax
    4654:	48 8d 14 c5 00 00 00 	lea    0x0(,%rax,8),%rdx
    465b:	00 
    465c:	48 8b 85 40 fe ff ff 	mov    -0x1c0(%rbp),%rax
    4663:	48 01 d0             	add    %rdx,%rax
    4666:	48 8b 10             	mov    (%rax),%rdx
    4669:	8b 85 b0 fe ff ff    	mov    -0x150(%rbp),%eax
    466f:	48 c1 e0 03          	shl    $0x3,%rax
    4673:	48 01 d0             	add    %rdx,%rax
    4676:	48 8b 00             	mov    (%rax),%rax
    4679:	48 83 c0 30          	add    $0x30,%rax
    467d:	db 28                	fldt   (%rax)
    467f:	dd 9d 28 fe ff ff    	fstpl  -0x1d8(%rbp)
    4685:	8b 85 ac fe ff ff    	mov    -0x154(%rbp),%eax
    468b:	48 8d 14 c5 00 00 00 	lea    0x0(,%rax,8),%rdx
    4692:	00 
    4693:	48 8b 85 40 fe ff ff 	mov    -0x1c0(%rbp),%rax
    469a:	48 01 d0             	add    %rdx,%rax
    469d:	48 8b 10             	mov    (%rax),%rdx
    46a0:	8b 85 b0 fe ff ff    	mov    -0x150(%rbp),%eax
    46a6:	48 c1 e0 03          	shl    $0x3,%rax
    46aa:	48 01 d0             	add    %rdx,%rax
    46ad:	48 8b 00             	mov    (%rax),%rax
    46b0:	48 83 c0 20          	add    $0x20,%rax
    46b4:	db 28                	fldt   (%rax)
    46b6:	dd 45 20             	fldl   0x20(%rbp)
    46b9:	de c1                	faddp  %st,%st(1)
    46bb:	dd 9d 20 fe ff ff    	fstpl  -0x1e0(%rbp)
    46c1:	8b 85 ac fe ff ff    	mov    -0x154(%rbp),%eax
    46c7:	48 8d 14 c5 00 00 00 	lea    0x0(,%rax,8),%rdx
    46ce:	00 
    46cf:	48 8b 85 40 fe ff ff 	mov    -0x1c0(%rbp),%rax
    46d6:	48 01 d0             	add    %rdx,%rax
    46d9:	48 8b 10             	mov    (%rax),%rdx
    46dc:	8b 85 b0 fe ff ff    	mov    -0x150(%rbp),%eax
    46e2:	48 c1 e0 03          	shl    $0x3,%rax
    46e6:	48 01 d0             	add    %rdx,%rax
    46e9:	48 8b 00             	mov    (%rax),%rax
    46ec:	48 83 c0 10          	add    $0x10,%rax
    46f0:	db 28                	fldt   (%rax)
    46f2:	dd 45 18             	fldl   0x18(%rbp)
    46f5:	de c1                	faddp  %st,%st(1)
    46f7:	dd 9d 18 fe ff ff    	fstpl  -0x1e8(%rbp)
    46fd:	8b 85 ac fe ff ff    	mov    -0x154(%rbp),%eax
    4703:	48 8d 14 c5 00 00 00 	lea    0x0(,%rax,8),%rdx
    470a:	00 
    470b:	48 8b 85 40 fe ff ff 	mov    -0x1c0(%rbp),%rax
    4712:	48 01 d0             	add    %rdx,%rax
    4715:	48 8b 10             	mov    (%rax),%rdx
    4718:	8b 85 b0 fe ff ff    	mov    -0x150(%rbp),%eax
    471e:	48 c1 e0 03          	shl    $0x3,%rax
    4722:	48 01 d0             	add    %rdx,%rax
    4725:	48 8b 00             	mov    (%rax),%rax
    4728:	db 28                	fldt   (%rax)
    472a:	dd 45 10             	fldl   0x10(%rbp)
    472d:	de c1                	faddp  %st,%st(1)
    472f:	dd 9d 10 fe ff ff    	fstpl  -0x1f0(%rbp)
    4735:	48 8d 85 60 ff ff ff 	lea    -0xa0(%rbp),%rax
    473c:	48 8b 95 38 fe ff ff 	mov    -0x1c8(%rbp),%rdx
    4743:	f2 0f 10 9d 20 fe ff 	movsd  -0x1e0(%rbp),%xmm3
    474a:	ff 
    474b:	f2 0f 10 95 18 fe ff 	movsd  -0x1e8(%rbp),%xmm2
    4752:	ff 
    4753:	f2 0f 10 8d 10 fe ff 	movsd  -0x1f0(%rbp),%xmm1
    475a:	ff 
    475b:	66 48 0f 6e c2       	movq   %rdx,%xmm0
    4760:	48 89 c7             	mov    %rax,%rdi
    4763:	e8 1a 7b 00 00       	call   c282 <_Z6stressdddd>
    4768:	48 8d 85 e0 fe ff ff 	lea    -0x120(%rbp),%rax
    476f:	48 8d 95 60 ff ff ff 	lea    -0xa0(%rbp),%rdx
    4776:	48 83 ec 08          	sub    $0x8,%rsp
    477a:	ff b5 d0 fe ff ff    	push   -0x130(%rbp)
    4780:	ff b5 c8 fe ff ff    	push   -0x138(%rbp)
    4786:	ff b5 c0 fe ff ff    	push   -0x140(%rbp)
    478c:	48 89 d6             	mov    %rdx,%rsi
    478f:	48 89 c7             	mov    %rax,%rdi
    4792:	e8 9b 54 00 00       	call   9c32 <_ZN6tensormlE6vector>
    4797:	48 83 c4 20          	add    $0x20,%rsp
    479b:	48 8d 85 00 ff ff ff 	lea    -0x100(%rbp),%rax
    47a2:	48 8d 95 e0 fe ff ff 	lea    -0x120(%rbp),%rdx
    47a9:	f2 0f 10 85 28 fe ff 	movsd  -0x1d8(%rbp),%xmm0
    47b0:	ff 
    47b1:	48 89 d6             	mov    %rdx,%rsi
    47b4:	48 89 c7             	mov    %rax,%rdi
    47b7:	e8 50 4e 00 00       	call   960c <_ZN6vectormlEd>
    47bc:	48 8d 85 20 ff ff ff 	lea    -0xe0(%rbp),%rax
    47c3:	48 8b 8d 80 fe ff ff 	mov    -0x180(%rbp),%rcx
    47ca:	48 8d 95 00 ff ff ff 	lea    -0x100(%rbp),%rdx
    47d1:	66 48 0f 6e c1       	movq   %rcx,%xmm0
    47d6:	48 89 d6             	mov    %rdx,%rsi
    47d9:	48 89 c7             	mov    %rax,%rdi
    47dc:	e8 93 4e 00 00       	call   9674 <_ZN6vectordvEd>
    47e1:	48 8d 85 40 ff ff ff 	lea    -0xc0(%rbp),%rax
    47e8:	48 8d 95 20 ff ff ff 	lea    -0xe0(%rbp),%rdx
    47ef:	48 8b 8d 88 fe ff ff 	mov    -0x178(%rbp),%rcx
    47f6:	48 89 ce             	mov    %rcx,%rsi
    47f9:	48 89 c7             	mov    %rax,%rdi
    47fc:	e8 07 4d 00 00       	call   9508 <_ZN6vectorplERKS_>
    4801:	48 8d 95 40 ff ff ff 	lea    -0xc0(%rbp),%rdx
    4808:	48 8b 85 88 fe ff ff 	mov    -0x178(%rbp),%rax
    480f:	48 89 d6             	mov    %rdx,%rsi
    4812:	48 89 c7             	mov    %rax,%rdi
    4815:	e8 c2 4e 00 00       	call   96dc <_ZN6vectoraSERKS_>
    481a:	83 85 b0 fe ff ff 01 	addl   $0x1,-0x150(%rbp)
    4821:	8b 85 b0 fe ff ff    	mov    -0x150(%rbp),%eax
    4827:	3b 85 a8 fe ff ff    	cmp    -0x158(%rbp),%eax
    482d:	0f 82 d5 fb ff ff    	jb     4408 <_ZL6forceldddddddjjPPPedddd+0x578>
    4833:	83 85 ac fe ff ff 01 	addl   $0x1,-0x154(%rbp)
    483a:	8b 85 ac fe ff ff    	mov    -0x154(%rbp),%eax
    4840:	3b 85 9c fe ff ff    	cmp    -0x164(%rbp),%eax
    4846:	0f 82 ab fb ff ff    	jb     43f7 <_ZL6forceldddddddjjPPPedddd+0x567>
    484c:	e9 f0 09 00 00       	jmp    5241 <_ZL6forceldddddddjjPPPedddd+0x13b1>
    4851:	db 6d c0             	fldt   -0x40(%rbp)
    4854:	8b 85 48 fe ff ff    	mov    -0x1b8(%rbp),%eax
    485a:	48 85 c0             	test   %rax,%rax
    485d:	78 0b                	js     486a <_ZL6forceldddddddjjPPPedddd+0x9da>
    485f:	66 0f ef c0          	pxor   %xmm0,%xmm0
    4863:	f2 48 0f 2a c0       	cvtsi2sd %rax,%xmm0
    4868:	eb 19                	jmp    4883 <_ZL6forceldddddddjjPPPedddd+0x9f3>
    486a:	48 89 c2             	mov    %rax,%rdx
    486d:	48 d1 ea             	shr    %rdx
    4870:	83 e0 01             	and    $0x1,%eax
    4873:	48 09 c2             	or     %rax,%rdx
    4876:	66 0f ef c0          	pxor   %xmm0,%xmm0
    487a:	f2 48 0f 2a c2       	cvtsi2sd %rdx,%xmm0
    487f:	f2 0f 58 c0          	addsd  %xmm0,%xmm0
    4883:	f2 0f 10 0d d5 ab 00 	movsd  0xabd5(%rip),%xmm1        # f460 <_ZN6__pstl9execution2v1L5unseqE+0x44d>
    488a:	00 
    488b:	f2 0f 5e c8          	divsd  %xmm0,%xmm1
    488f:	f2 0f 11 8d 28 fe ff 	movsd  %xmm1,-0x1d8(%rbp)
    4896:	ff 
    4897:	dd 85 28 fe ff ff    	fldl   -0x1d8(%rbp)
    489d:	de f9                	fdivrp %st,%st(1)
    489f:	48 8d 64 24 f0       	lea    -0x10(%rsp),%rsp
    48a4:	db 3c 24             	fstpt  (%rsp)
    48a7:	e8 81 49 00 00       	call   922d <_ZSt4ceile>
    48ac:	48 83 c4 10          	add    $0x10,%rsp
    48b0:	d9 bd 36 fe ff ff    	fnstcw -0x1ca(%rbp)
    48b6:	0f b7 85 36 fe ff ff 	movzwl -0x1ca(%rbp),%eax
    48bd:	80 cc 0c             	or     $0xc,%ah
    48c0:	66 89 85 34 fe ff ff 	mov    %ax,-0x1cc(%rbp)
    48c7:	d9 ad 34 fe ff ff    	fldcw  -0x1cc(%rbp)
    48cd:	db 9d 28 fe ff ff    	fistpl -0x1d8(%rbp)
    48d3:	d9 ad 36 fe ff ff    	fldcw  -0x1ca(%rbp)
    48d9:	8b 85 28 fe ff ff    	mov    -0x1d8(%rbp),%eax
    48df:	89 85 a4 fe ff ff    	mov    %eax,-0x15c(%rbp)
    48e5:	66 0f ef c0          	pxor   %xmm0,%xmm0
    48e9:	66 0f 2e 85 60 fe ff 	ucomisd -0x1a0(%rbp),%xmm0
    48f0:	ff 
    48f1:	7a 18                	jp     490b <_ZL6forceldddddddjjPPPedddd+0xa7b>
    48f3:	66 0f ef c0          	pxor   %xmm0,%xmm0
    48f7:	66 0f 2e 85 60 fe ff 	ucomisd -0x1a0(%rbp),%xmm0
    48fe:	ff 
    48ff:	75 0a                	jne    490b <_ZL6forceldddddddjjPPPedddd+0xa7b>
    4901:	c7 85 a4 fe ff ff 01 	movl   $0x1,-0x15c(%rbp)
    4908:	00 00 00 
    490b:	db 6d d0             	fldt   -0x30(%rbp)
    490e:	8b 85 48 fe ff ff    	mov    -0x1b8(%rbp),%eax
    4914:	48 85 c0             	test   %rax,%rax
    4917:	78 0b                	js     4924 <_ZL6forceldddddddjjPPPedddd+0xa94>
    4919:	66 0f ef c0          	pxor   %xmm0,%xmm0
    491d:	f2 48 0f 2a c0       	cvtsi2sd %rax,%xmm0
    4922:	eb 19                	jmp    493d <_ZL6forceldddddddjjPPPedddd+0xaad>
    4924:	48 89 c2             	mov    %rax,%rdx
    4927:	48 d1 ea             	shr    %rdx
    492a:	83 e0 01             	and    $0x1,%eax
    492d:	48 09 c2             	or     %rax,%rdx
    4930:	66 0f ef c0          	pxor   %xmm0,%xmm0
    4934:	f2 48 0f 2a c2       	cvtsi2sd %rdx,%xmm0
    4939:	f2 0f 58 c0          	addsd  %xmm0,%xmm0
    493d:	f2 0f 10 0d 1b ab 00 	movsd  0xab1b(%rip),%xmm1        # f460 <_ZN6__pstl9execution2v1L5unseqE+0x44d>
    4944:	00 
    4945:	f2 0f 5e c8          	divsd  %xmm0,%xmm1
    4949:	f2 0f 11 8d 28 fe ff 	movsd  %xmm1,-0x1d8(%rbp)
    4950:	ff 
    4951:	dd 85 28 fe ff ff    	fldl   -0x1d8(%rbp)
    4957:	de f9                	fdivrp %st,%st(1)
    4959:	48 8d 64 24 f0       	lea    -0x10(%rsp),%rsp
    495e:	db 3c 24             	fstpt  (%rsp)
    4961:	e8 06 49 00 00       	call   926c <_ZSt5floore>
    4966:	48 83 c4 10          	add    $0x10,%rsp
    496a:	d9 bd 36 fe ff ff    	fnstcw -0x1ca(%rbp)
    4970:	0f b7 85 36 fe ff ff 	movzwl -0x1ca(%rbp),%eax
    4977:	80 cc 0c             	or     $0xc,%ah
    497a:	66 89 85 34 fe ff ff 	mov    %ax,-0x1cc(%rbp)
    4981:	d9 ad 34 fe ff ff    	fldcw  -0x1cc(%rbp)
    4987:	db 9d 28 fe ff ff    	fistpl -0x1d8(%rbp)
    498d:	d9 ad 36 fe ff ff    	fldcw  -0x1ca(%rbp)
    4993:	8b 85 28 fe ff ff    	mov    -0x1d8(%rbp),%eax
    4999:	89 85 a8 fe ff ff    	mov    %eax,-0x158(%rbp)
    499f:	8b 85 a0 fe ff ff    	mov    -0x160(%rbp),%eax
    49a5:	89 85 b4 fe ff ff    	mov    %eax,-0x14c(%rbp)
    49ab:	e9 7d 08 00 00       	jmp    522d <_ZL6forceldddddddjjPPPedddd+0x139d>
    49b0:	c7 85 b8 fe ff ff 00 	movl   $0x0,-0x148(%rbp)
    49b7:	00 00 00 
    49ba:	e9 19 04 00 00       	jmp    4dd8 <_ZL6forceldddddddjjPPPedddd+0xf48>
    49bf:	8b 85 b4 fe ff ff    	mov    -0x14c(%rbp),%eax
    49c5:	48 8d 14 c5 00 00 00 	lea    0x0(,%rax,8),%rdx
    49cc:	00 
    49cd:	48 8b 85 40 fe ff ff 	mov    -0x1c0(%rbp),%rax
    49d4:	48 01 d0             	add    %rdx,%rax
    49d7:	48 8b 10             	mov    (%rax),%rdx
    49da:	8b 85 b8 fe ff ff    	mov    -0x148(%rbp),%eax
    49e0:	48 c1 e0 03          	shl    $0x3,%rax
    49e4:	48 01 d0             	add    %rdx,%rax
    49e7:	48 8b 00             	mov    (%rax),%rax
    49ea:	dd 85 78 fe ff ff    	fldl   -0x188(%rbp)
    49f0:	db 28                	fldt   (%rax)
    49f2:	df f1                	fcomip %st(1),%st
    49f4:	dd d8                	fstp   %st(0)
    49f6:	0f 82 d5 03 00 00    	jb     4dd1 <_ZL6forceldddddddjjPPPedddd+0xf41>
    49fc:	8b 85 b4 fe ff ff    	mov    -0x14c(%rbp),%eax
    4a02:	48 8d 14 c5 00 00 00 	lea    0x0(,%rax,8),%rdx
    4a09:	00 
    4a0a:	48 8b 85 40 fe ff ff 	mov    -0x1c0(%rbp),%rax
    4a11:	48 01 d0             	add    %rdx,%rax
    4a14:	48 8b 10             	mov    (%rax),%rdx
    4a17:	8b 85 b8 fe ff ff    	mov    -0x148(%rbp),%eax
    4a1d:	48 c1 e0 03          	shl    $0x3,%rax
    4a21:	48 01 d0             	add    %rdx,%rax
    4a24:	48 8b 00             	mov    (%rax),%rax
    4a27:	db 28                	fldt   (%rax)
    4a29:	dd 85 70 fe ff ff    	fldl   -0x190(%rbp)
    4a2f:	df f1                	fcomip %st(1),%st
    4a31:	dd d8                	fstp   %st(0)
    4a33:	0f 82 98 03 00 00    	jb     4dd1 <_ZL6forceldddddddjjPPPedddd+0xf41>
    4a39:	8b 85 b4 fe ff ff    	mov    -0x14c(%rbp),%eax
    4a3f:	48 8d 14 c5 00 00 00 	lea    0x0(,%rax,8),%rdx
    4a46:	00 
    4a47:	48 8b 85 40 fe ff ff 	mov    -0x1c0(%rbp),%rax
    4a4e:	48 01 d0             	add    %rdx,%rax
    4a51:	48 8b 10             	mov    (%rax),%rdx
    4a54:	8b 85 b8 fe ff ff    	mov    -0x148(%rbp),%eax
    4a5a:	48 c1 e0 03          	shl    $0x3,%rax
    4a5e:	48 01 d0             	add    %rdx,%rax
    4a61:	48 8b 00             	mov    (%rax),%rax
    4a64:	48 83 c0 10          	add    $0x10,%rax
    4a68:	dd 85 68 fe ff ff    	fldl   -0x198(%rbp)
    4a6e:	db 28                	fldt   (%rax)
    4a70:	df f1                	fcomip %st(1),%st
    4a72:	dd d8                	fstp   %st(0)
    4a74:	0f 82 57 03 00 00    	jb     4dd1 <_ZL6forceldddddddjjPPPedddd+0xf41>
    4a7a:	8b 85 b4 fe ff ff    	mov    -0x14c(%rbp),%eax
    4a80:	48 8d 14 c5 00 00 00 	lea    0x0(,%rax,8),%rdx
    4a87:	00 
    4a88:	48 8b 85 40 fe ff ff 	mov    -0x1c0(%rbp),%rax
    4a8f:	48 01 d0             	add    %rdx,%rax
    4a92:	48 8b 10             	mov    (%rax),%rdx
    4a95:	8b 85 b8 fe ff ff    	mov    -0x148(%rbp),%eax
    4a9b:	48 c1 e0 03          	shl    $0x3,%rax
    4a9f:	48 01 d0             	add    %rdx,%rax
    4aa2:	48 8b 00             	mov    (%rax),%rax
    4aa5:	48 83 c0 10          	add    $0x10,%rax
    4aa9:	db 28                	fldt   (%rax)
    4aab:	dd 85 60 fe ff ff    	fldl   -0x1a0(%rbp)
    4ab1:	df f1                	fcomip %st(1),%st
    4ab3:	dd d8                	fstp   %st(0)
    4ab5:	0f 82 16 03 00 00    	jb     4dd1 <_ZL6forceldddddddjjPPPedddd+0xf41>
    4abb:	8b 85 b4 fe ff ff    	mov    -0x14c(%rbp),%eax
    4ac1:	48 8d 14 c5 00 00 00 	lea    0x0(,%rax,8),%rdx
    4ac8:	00 
    4ac9:	48 8b 85 40 fe ff ff 	mov    -0x1c0(%rbp),%rax
    4ad0:	48 01 d0             	add    %rdx,%rax
    4ad3:	48 8b 10             	mov    (%rax),%rdx
    4ad6:	8b 85 b8 fe ff ff    	mov    -0x148(%rbp),%eax
    4adc:	48 c1 e0 03          	shl    $0x3,%rax
    4ae0:	48 01 d0             	add    %rdx,%rax
    4ae3:	48 8b 00             	mov    (%rax),%rax
    4ae6:	48 83 c0 20          	add    $0x20,%rax
    4aea:	dd 85 58 fe ff ff    	fldl   -0x1a8(%rbp)
    4af0:	db 28                	fldt   (%rax)
    4af2:	df f1                	fcomip %st(1),%st
    4af4:	dd d8                	fstp   %st(0)
    4af6:	0f 82 d5 02 00 00    	jb     4dd1 <_ZL6forceldddddddjjPPPedddd+0xf41>
    4afc:	8b 85 b4 fe ff ff    	mov    -0x14c(%rbp),%eax
    4b02:	48 8d 14 c5 00 00 00 	lea    0x0(,%rax,8),%rdx
    4b09:	00 
    4b0a:	48 8b 85 40 fe ff ff 	mov    -0x1c0(%rbp),%rax
    4b11:	48 01 d0             	add    %rdx,%rax
    4b14:	48 8b 10             	mov    (%rax),%rdx
    4b17:	8b 85 b8 fe ff ff    	mov    -0x148(%rbp),%eax
    4b1d:	48 c1 e0 03          	shl    $0x3,%rax
    4b21:	48 01 d0             	add    %rdx,%rax
    4b24:	48 8b 00             	mov    (%rax),%rax
    4b27:	48 83 c0 20          	add    $0x20,%rax
    4b2b:	db 28                	fldt   (%rax)
    4b2d:	dd 85 50 fe ff ff    	fldl   -0x1b0(%rbp)
    4b33:	df f1                	fcomip %st(1),%st
    4b35:	dd d8                	fstp   %st(0)
    4b37:	0f 82 94 02 00 00    	jb     4dd1 <_ZL6forceldddddddjjPPPedddd+0xf41>
    4b3d:	8b 85 b4 fe ff ff    	mov    -0x14c(%rbp),%eax
    4b43:	48 8d 14 c5 00 00 00 	lea    0x0(,%rax,8),%rdx
    4b4a:	00 
    4b4b:	48 8b 85 40 fe ff ff 	mov    -0x1c0(%rbp),%rax
    4b52:	48 01 d0             	add    %rdx,%rax
    4b55:	48 8b 10             	mov    (%rax),%rdx
    4b58:	8b 85 b8 fe ff ff    	mov    -0x148(%rbp),%eax
    4b5e:	48 c1 e0 03          	shl    $0x3,%rax
    4b62:	48 01 d0             	add    %rdx,%rax
    4b65:	48 8b 00             	mov    (%rax),%rax
    4b68:	48 83 c0 20          	add    $0x20,%rax
    4b6c:	db 28                	fldt   (%rax)
    4b6e:	dd 9d 28 fe ff ff    	fstpl  -0x1d8(%rbp)
    4b74:	8b 85 b4 fe ff ff    	mov    -0x14c(%rbp),%eax
    4b7a:	48 8d 14 c5 00 00 00 	lea    0x0(,%rax,8),%rdx
    4b81:	00 
    4b82:	48 8b 85 40 fe ff ff 	mov    -0x1c0(%rbp),%rax
    4b89:	48 01 d0             	add    %rdx,%rax
    4b8c:	48 8b 10             	mov    (%rax),%rdx
    4b8f:	8b 85 b8 fe ff ff    	mov    -0x148(%rbp),%eax
    4b95:	48 c1 e0 03          	shl    $0x3,%rax
    4b99:	48 01 d0             	add    %rdx,%rax
    4b9c:	48 8b 00             	mov    (%rax),%rax
    4b9f:	48 83 c0 10          	add    $0x10,%rax
    4ba3:	db 28                	fldt   (%rax)
    4ba5:	dd 9d 20 fe ff ff    	fstpl  -0x1e0(%rbp)
    4bab:	8b 85 b4 fe ff ff    	mov    -0x14c(%rbp),%eax
    4bb1:	48 8d 14 c5 00 00 00 	lea    0x0(,%rax,8),%rdx
    4bb8:	00 
    4bb9:	48 8b 85 40 fe ff ff 	mov    -0x1c0(%rbp),%rax
    4bc0:	48 01 d0             	add    %rdx,%rax
    4bc3:	48 8b 10             	mov    (%rax),%rdx
    4bc6:	8b 85 b8 fe ff ff    	mov    -0x148(%rbp),%eax
    4bcc:	48 c1 e0 03          	shl    $0x3,%rax
    4bd0:	48 01 d0             	add    %rdx,%rax
    4bd3:	48 8b 00             	mov    (%rax),%rax
    4bd6:	db 28                	fldt   (%rax)
    4bd8:	dd 9d 18 fe ff ff    	fstpl  -0x1e8(%rbp)
    4bde:	f2 0f 10 85 18 fe ff 	movsd  -0x1e8(%rbp),%xmm0
    4be5:	ff 
    4be6:	48 8d 85 c0 fe ff ff 	lea    -0x140(%rbp),%rax
    4bed:	f2 0f 10 95 28 fe ff 	movsd  -0x1d8(%rbp),%xmm2
    4bf4:	ff 
    4bf5:	f2 0f 10 8d 20 fe ff 	movsd  -0x1e0(%rbp),%xmm1
    4bfc:	ff 
    4bfd:	48 89 c7             	mov    %rax,%rdi
    4c00:	e8 0b 47 00 00       	call   9310 <_ZN6vectorC1Eddd>
    4c05:	8b 85 b4 fe ff ff    	mov    -0x14c(%rbp),%eax
    4c0b:	48 8d 14 c5 00 00 00 	lea    0x0(,%rax,8),%rdx
    4c12:	00 
    4c13:	48 8b 85 40 fe ff ff 	mov    -0x1c0(%rbp),%rax
    4c1a:	48 01 d0             	add    %rdx,%rax
    4c1d:	48 8b 10             	mov    (%rax),%rdx
    4c20:	8b 85 b8 fe ff ff    	mov    -0x148(%rbp),%eax
    4c26:	48 c1 e0 03          	shl    $0x3,%rax
    4c2a:	48 01 d0             	add    %rdx,%rax
    4c2d:	48 8b 00             	mov    (%rax),%rax
    4c30:	48 83 c0 30          	add    $0x30,%rax
    4c34:	db 28                	fldt   (%rax)
    4c36:	dd 9d 28 fe ff ff    	fstpl  -0x1d8(%rbp)
    4c3c:	8b 85 b4 fe ff ff    	mov    -0x14c(%rbp),%eax
    4c42:	48 8d 14 c5 00 00 00 	lea    0x0(,%rax,8),%rdx
    4c49:	00 
    4c4a:	48 8b 85 40 fe ff ff 	mov    -0x1c0(%rbp),%rax
    4c51:	48 01 d0             	add    %rdx,%rax
    4c54:	48 8b 10             	mov    (%rax),%rdx
    4c57:	8b 85 b8 fe ff ff    	mov    -0x148(%rbp),%eax
    4c5d:	48 c1 e0 03          	shl    $0x3,%rax
    4c61:	48 01 d0             	add    %rdx,%rax
    4c64:	48 8b 00             	mov    (%rax),%rax
    4c67:	48 83 c0 20          	add    $0x20,%rax
    4c6b:	db 28                	fldt   (%rax)
    4c6d:	dd 45 20             	fldl   0x20(%rbp)
    4c70:	de c1                	faddp  %st,%st(1)
    4c72:	dd 9d 20 fe ff ff    	fstpl  -0x1e0(%rbp)
    4c78:	8b 85 b4 fe ff ff    	mov    -0x14c(%rbp),%eax
    4c7e:	48 8d 14 c5 00 00 00 	lea    0x0(,%rax,8),%rdx
    4c85:	00 
    4c86:	48 8b 85 40 fe ff ff 	mov    -0x1c0(%rbp),%rax
    4c8d:	48 01 d0             	add    %rdx,%rax
    4c90:	48 8b 10             	mov    (%rax),%rdx
    4c93:	8b 85 b8 fe ff ff    	mov    -0x148(%rbp),%eax
    4c99:	48 c1 e0 03          	shl    $0x3,%rax
    4c9d:	48 01 d0             	add    %rdx,%rax
    4ca0:	48 8b 00             	mov    (%rax),%rax
    4ca3:	48 83 c0 10          	add    $0x10,%rax
    4ca7:	db 28                	fldt   (%rax)
    4ca9:	dd 45 18             	fldl   0x18(%rbp)
    4cac:	de c1                	faddp  %st,%st(1)
    4cae:	dd 9d 18 fe ff ff    	fstpl  -0x1e8(%rbp)
    4cb4:	8b 85 b4 fe ff ff    	mov    -0x14c(%rbp),%eax
    4cba:	48 8d 14 c5 00 00 00 	lea    0x0(,%rax,8),%rdx
    4cc1:	00 
    4cc2:	48 8b 85 40 fe ff ff 	mov    -0x1c0(%rbp),%rax
    4cc9:	48 01 d0             	add    %rdx,%rax
    4ccc:	48 8b 10             	mov    (%rax),%rdx
    4ccf:	8b 85 b8 fe ff ff    	mov    -0x148(%rbp),%eax
    4cd5:	48 c1 e0 03          	shl    $0x3,%rax
    4cd9:	48 01 d0             	add    %rdx,%rax
    4cdc:	48 8b 00             	mov    (%rax),%rax
    4cdf:	db 28                	fldt   (%rax)
    4ce1:	dd 45 10             	fldl   0x10(%rbp)
    4ce4:	de c1                	faddp  %st,%st(1)
    4ce6:	dd 9d 10 fe ff ff    	fstpl  -0x1f0(%rbp)
    4cec:	48 8d 85 60 ff ff ff 	lea    -0xa0(%rbp),%rax
    4cf3:	48 8b 95 38 fe ff ff 	mov    -0x1c8(%rbp),%rdx
    4cfa:	f2 0f 10 9d 20 fe ff 	movsd  -0x1e0(%rbp),%xmm3
    4d01:	ff 
    4d02:	f2 0f 10 95 18 fe ff 	movsd  -0x1e8(%rbp),%xmm2
    4d09:	ff 
    4d0a:	f2 0f 10 8d 10 fe ff 	movsd  -0x1f0(%rbp),%xmm1
    4d11:	ff 
    4d12:	66 48 0f 6e c2       	movq   %rdx,%xmm0
    4d17:	48 89 c7             	mov    %rax,%rdi
    4d1a:	e8 63 75 00 00       	call   c282 <_Z6stressdddd>
    4d1f:	48 8d 85 e0 fe ff ff 	lea    -0x120(%rbp),%rax
    4d26:	48 8d 95 60 ff ff ff 	lea    -0xa0(%rbp),%rdx
    4d2d:	48 83 ec 08          	sub    $0x8,%rsp
    4d31:	ff b5 d0 fe ff ff    	push   -0x130(%rbp)
    4d37:	ff b5 c8 fe ff ff    	push   -0x138(%rbp)
    4d3d:	ff b5 c0 fe ff ff    	push   -0x140(%rbp)
    4d43:	48 89 d6             	mov    %rdx,%rsi
    4d46:	48 89 c7             	mov    %rax,%rdi
    4d49:	e8 e4 4e 00 00       	call   9c32 <_ZN6tensormlE6vector>
    4d4e:	48 83 c4 20          	add    $0x20,%rsp
    4d52:	48 8d 85 00 ff ff ff 	lea    -0x100(%rbp),%rax
    4d59:	48 8d 95 e0 fe ff ff 	lea    -0x120(%rbp),%rdx
    4d60:	f2 0f 10 85 28 fe ff 	movsd  -0x1d8(%rbp),%xmm0
    4d67:	ff 
    4d68:	48 89 d6             	mov    %rdx,%rsi
    4d6b:	48 89 c7             	mov    %rax,%rdi
    4d6e:	e8 99 48 00 00       	call   960c <_ZN6vectormlEd>
    4d73:	48 8d 85 20 ff ff ff 	lea    -0xe0(%rbp),%rax
    4d7a:	48 8b 8d 80 fe ff ff 	mov    -0x180(%rbp),%rcx
    4d81:	48 8d 95 00 ff ff ff 	lea    -0x100(%rbp),%rdx
    4d88:	66 48 0f 6e c1       	movq   %rcx,%xmm0
    4d8d:	48 89 d6             	mov    %rdx,%rsi
    4d90:	48 89 c7             	mov    %rax,%rdi
    4d93:	e8 dc 48 00 00       	call   9674 <_ZN6vectordvEd>
    4d98:	48 8d 85 40 ff ff ff 	lea    -0xc0(%rbp),%rax
    4d9f:	48 8d 95 20 ff ff ff 	lea    -0xe0(%rbp),%rdx
    4da6:	48 8b 8d 88 fe ff ff 	mov    -0x178(%rbp),%rcx
    4dad:	48 89 ce             	mov    %rcx,%rsi
    4db0:	48 89 c7             	mov    %rax,%rdi
    4db3:	e8 50 47 00 00       	call   9508 <_ZN6vectorplERKS_>
    4db8:	48 8d 95 40 ff ff ff 	lea    -0xc0(%rbp),%rdx
    4dbf:	48 8b 85 88 fe ff ff 	mov    -0x178(%rbp),%rax
    4dc6:	48 89 d6             	mov    %rdx,%rsi
    4dc9:	48 89 c7             	mov    %rax,%rdi
    4dcc:	e8 0b 49 00 00       	call   96dc <_ZN6vectoraSERKS_>
    4dd1:	83 85 b8 fe ff ff 01 	addl   $0x1,-0x148(%rbp)
    4dd8:	8b 85 b8 fe ff ff    	mov    -0x148(%rbp),%eax
    4dde:	3b 85 a4 fe ff ff    	cmp    -0x15c(%rbp),%eax
    4de4:	0f 82 d5 fb ff ff    	jb     49bf <_ZL6forceldddddddjjPPPedddd+0xb2f>
    4dea:	8b 85 a8 fe ff ff    	mov    -0x158(%rbp),%eax
    4df0:	89 85 bc fe ff ff    	mov    %eax,-0x144(%rbp)
    4df6:	e9 19 04 00 00       	jmp    5214 <_ZL6forceldddddddjjPPPedddd+0x1384>
    4dfb:	8b 85 b4 fe ff ff    	mov    -0x14c(%rbp),%eax
    4e01:	48 8d 14 c5 00 00 00 	lea    0x0(,%rax,8),%rdx
    4e08:	00 
    4e09:	48 8b 85 40 fe ff ff 	mov    -0x1c0(%rbp),%rax
    4e10:	48 01 d0             	add    %rdx,%rax
    4e13:	48 8b 10             	mov    (%rax),%rdx
    4e16:	8b 85 bc fe ff ff    	mov    -0x144(%rbp),%eax
    4e1c:	48 c1 e0 03          	shl    $0x3,%rax
    4e20:	48 01 d0             	add    %rdx,%rax
    4e23:	48 8b 00             	mov    (%rax),%rax
    4e26:	dd 85 78 fe ff ff    	fldl   -0x188(%rbp)
    4e2c:	db 28                	fldt   (%rax)
    4e2e:	df f1                	fcomip %st(1),%st
    4e30:	dd d8                	fstp   %st(0)
    4e32:	0f 82 d5 03 00 00    	jb     520d <_ZL6forceldddddddjjPPPedddd+0x137d>
    4e38:	8b 85 b4 fe ff ff    	mov    -0x14c(%rbp),%eax
    4e3e:	48 8d 14 c5 00 00 00 	lea    0x0(,%rax,8),%rdx
    4e45:	00 
    4e46:	48 8b 85 40 fe ff ff 	mov    -0x1c0(%rbp),%rax
    4e4d:	48 01 d0             	add    %rdx,%rax
    4e50:	48 8b 10             	mov    (%rax),%rdx
    4e53:	8b 85 bc fe ff ff    	mov    -0x144(%rbp),%eax
    4e59:	48 c1 e0 03          	shl    $0x3,%rax
    4e5d:	48 01 d0             	add    %rdx,%rax
    4e60:	48 8b 00             	mov    (%rax),%rax
    4e63:	db 28                	fldt   (%rax)
    4e65:	dd 85 70 fe ff ff    	fldl   -0x190(%rbp)
    4e6b:	df f1                	fcomip %st(1),%st
    4e6d:	dd d8                	fstp   %st(0)
    4e6f:	0f 82 98 03 00 00    	jb     520d <_ZL6forceldddddddjjPPPedddd+0x137d>
    4e75:	8b 85 b4 fe ff ff    	mov    -0x14c(%rbp),%eax
    4e7b:	48 8d 14 c5 00 00 00 	lea    0x0(,%rax,8),%rdx
    4e82:	00 
    4e83:	48 8b 85 40 fe ff ff 	mov    -0x1c0(%rbp),%rax
    4e8a:	48 01 d0             	add    %rdx,%rax
    4e8d:	48 8b 10             	mov    (%rax),%rdx
    4e90:	8b 85 bc fe ff ff    	mov    -0x144(%rbp),%eax
    4e96:	48 c1 e0 03          	shl    $0x3,%rax
    4e9a:	48 01 d0             	add    %rdx,%rax
    4e9d:	48 8b 00             	mov    (%rax),%rax
    4ea0:	48 83 c0 10          	add    $0x10,%rax
    4ea4:	dd 85 68 fe ff ff    	fldl   -0x198(%rbp)
    4eaa:	db 28                	fldt   (%rax)
    4eac:	df f1                	fcomip %st(1),%st
    4eae:	dd d8                	fstp   %st(0)
    4eb0:	0f 82 57 03 00 00    	jb     520d <_ZL6forceldddddddjjPPPedddd+0x137d>
    4eb6:	8b 85 b4 fe ff ff    	mov    -0x14c(%rbp),%eax
    4ebc:	48 8d 14 c5 00 00 00 	lea    0x0(,%rax,8),%rdx
    4ec3:	00 
    4ec4:	48 8b 85 40 fe ff ff 	mov    -0x1c0(%rbp),%rax
    4ecb:	48 01 d0             	add    %rdx,%rax
    4ece:	48 8b 10             	mov    (%rax),%rdx
    4ed1:	8b 85 bc fe ff ff    	mov    -0x144(%rbp),%eax
    4ed7:	48 c1 e0 03          	shl    $0x3,%rax
    4edb:	48 01 d0             	add    %rdx,%rax
    4ede:	48 8b 00             	mov    (%rax),%rax
    4ee1:	48 83 c0 10          	add    $0x10,%rax
    4ee5:	db 28                	fldt   (%rax)
    4ee7:	dd 85 60 fe ff ff    	fldl   -0x1a0(%rbp)
    4eed:	df f1                	fcomip %st(1),%st
    4eef:	dd d8                	fstp   %st(0)
    4ef1:	0f 82 16 03 00 00    	jb     520d <_ZL6forceldddddddjjPPPedddd+0x137d>
    4ef7:	8b 85 b4 fe ff ff    	mov    -0x14c(%rbp),%eax
    4efd:	48 8d 14 c5 00 00 00 	lea    0x0(,%rax,8),%rdx
    4f04:	00 
    4f05:	48 8b 85 40 fe ff ff 	mov    -0x1c0(%rbp),%rax
    4f0c:	48 01 d0             	add    %rdx,%rax
    4f0f:	48 8b 10             	mov    (%rax),%rdx
    4f12:	8b 85 bc fe ff ff    	mov    -0x144(%rbp),%eax
    4f18:	48 c1 e0 03          	shl    $0x3,%rax
    4f1c:	48 01 d0             	add    %rdx,%rax
    4f1f:	48 8b 00             	mov    (%rax),%rax
    4f22:	48 83 c0 20          	add    $0x20,%rax
    4f26:	dd 85 58 fe ff ff    	fldl   -0x1a8(%rbp)
    4f2c:	db 28                	fldt   (%rax)
    4f2e:	df f1                	fcomip %st(1),%st
    4f30:	dd d8                	fstp   %st(0)
    4f32:	0f 82 d5 02 00 00    	jb     520d <_ZL6forceldddddddjjPPPedddd+0x137d>
    4f38:	8b 85 b4 fe ff ff    	mov    -0x14c(%rbp),%eax
    4f3e:	48 8d 14 c5 00 00 00 	lea    0x0(,%rax,8),%rdx
    4f45:	00 
    4f46:	48 8b 85 40 fe ff ff 	mov    -0x1c0(%rbp),%rax
    4f4d:	48 01 d0             	add    %rdx,%rax
    4f50:	48 8b 10             	mov    (%rax),%rdx
    4f53:	8b 85 bc fe ff ff    	mov    -0x144(%rbp),%eax
    4f59:	48 c1 e0 03          	shl    $0x3,%rax
    4f5d:	48 01 d0             	add    %rdx,%rax
    4f60:	48 8b 00             	mov    (%rax),%rax
    4f63:	48 83 c0 20          	add    $0x20,%rax
    4f67:	db 28                	fldt   (%rax)
    4f69:	dd 85 50 fe ff ff    	fldl   -0x1b0(%rbp)
    4f6f:	df f1                	fcomip %st(1),%st
    4f71:	dd d8                	fstp   %st(0)
    4f73:	0f 82 94 02 00 00    	jb     520d <_ZL6forceldddddddjjPPPedddd+0x137d>
    4f79:	8b 85 b4 fe ff ff    	mov    -0x14c(%rbp),%eax
    4f7f:	48 8d 14 c5 00 00 00 	lea    0x0(,%rax,8),%rdx
    4f86:	00 
    4f87:	48 8b 85 40 fe ff ff 	mov    -0x1c0(%rbp),%rax
    4f8e:	48 01 d0             	add    %rdx,%rax
    4f91:	48 8b 10             	mov    (%rax),%rdx
    4f94:	8b 85 bc fe ff ff    	mov    -0x144(%rbp),%eax
    4f9a:	48 c1 e0 03          	shl    $0x3,%rax
    4f9e:	48 01 d0             	add    %rdx,%rax
    4fa1:	48 8b 00             	mov    (%rax),%rax
    4fa4:	48 83 c0 20          	add    $0x20,%rax
    4fa8:	db 28                	fldt   (%rax)
    4faa:	dd 9d 28 fe ff ff    	fstpl  -0x1d8(%rbp)
    4fb0:	8b 85 b4 fe ff ff    	mov    -0x14c(%rbp),%eax
    4fb6:	48 8d 14 c5 00 00 00 	lea    0x0(,%rax,8),%rdx
    4fbd:	00 
    4fbe:	48 8b 85 40 fe ff ff 	mov    -0x1c0(%rbp),%rax
    4fc5:	48 01 d0             	add    %rdx,%rax
    4fc8:	48 8b 10             	mov    (%rax),%rdx
    4fcb:	8b 85 bc fe ff ff    	mov    -0x144(%rbp),%eax
    4fd1:	48 c1 e0 03          	shl    $0x3,%rax
    4fd5:	48 01 d0             	add    %rdx,%rax
    4fd8:	48 8b 00             	mov    (%rax),%rax
    4fdb:	48 83 c0 10          	add    $0x10,%rax
    4fdf:	db 28                	fldt   (%rax)
    4fe1:	dd 9d 20 fe ff ff    	fstpl  -0x1e0(%rbp)
    4fe7:	8b 85 b4 fe ff ff    	mov    -0x14c(%rbp),%eax
    4fed:	48 8d 14 c5 00 00 00 	lea    0x0(,%rax,8),%rdx
    4ff4:	00 
    4ff5:	48 8b 85 40 fe ff ff 	mov    -0x1c0(%rbp),%rax
    4ffc:	48 01 d0             	add    %rdx,%rax
    4fff:	48 8b 10             	mov    (%rax),%rdx
    5002:	8b 85 bc fe ff ff    	mov    -0x144(%rbp),%eax
    5008:	48 c1 e0 03          	shl    $0x3,%rax
    500c:	48 01 d0             	add    %rdx,%rax
    500f:	48 8b 00             	mov    (%rax),%rax
    5012:	db 28                	fldt   (%rax)
    5014:	dd 9d 18 fe ff ff    	fstpl  -0x1e8(%rbp)
    501a:	f2 0f 10 85 18 fe ff 	movsd  -0x1e8(%rbp),%xmm0
    5021:	ff 
    5022:	48 8d 85 c0 fe ff ff 	lea    -0x140(%rbp),%rax
    5029:	f2 0f 10 95 28 fe ff 	movsd  -0x1d8(%rbp),%xmm2
    5030:	ff 
    5031:	f2 0f 10 8d 20 fe ff 	movsd  -0x1e0(%rbp),%xmm1
    5038:	ff 
    5039:	48 89 c7             	mov    %rax,%rdi
    503c:	e8 cf 42 00 00       	call   9310 <_ZN6vectorC1Eddd>
    5041:	8b 85 b4 fe ff ff    	mov    -0x14c(%rbp),%eax
    5047:	48 8d 14 c5 00 00 00 	lea    0x0(,%rax,8),%rdx
    504e:	00 
    504f:	48 8b 85 40 fe ff ff 	mov    -0x1c0(%rbp),%rax
    5056:	48 01 d0             	add    %rdx,%rax
    5059:	48 8b 10             	mov    (%rax),%rdx
    505c:	8b 85 bc fe ff ff    	mov    -0x144(%rbp),%eax
    5062:	48 c1 e0 03          	shl    $0x3,%rax
    5066:	48 01 d0             	add    %rdx,%rax
    5069:	48 8b 00             	mov    (%rax),%rax
    506c:	48 83 c0 30          	add    $0x30,%rax
    5070:	db 28                	fldt   (%rax)
    5072:	dd 9d 28 fe ff ff    	fstpl  -0x1d8(%rbp)
    5078:	8b 85 b4 fe ff ff    	mov    -0x14c(%rbp),%eax
    507e:	48 8d 14 c5 00 00 00 	lea    0x0(,%rax,8),%rdx
    5085:	00 
    5086:	48 8b 85 40 fe ff ff 	mov    -0x1c0(%rbp),%rax
    508d:	48 01 d0             	add    %rdx,%rax
    5090:	48 8b 10             	mov    (%rax),%rdx
    5093:	8b 85 bc fe ff ff    	mov    -0x144(%rbp),%eax
    5099:	48 c1 e0 03          	shl    $0x3,%rax
    509d:	48 01 d0             	add    %rdx,%rax
    50a0:	48 8b 00             	mov    (%rax),%rax
    50a3:	48 83 c0 20          	add    $0x20,%rax
    50a7:	db 28                	fldt   (%rax)
    50a9:	dd 45 20             	fldl   0x20(%rbp)
    50ac:	de c1                	faddp  %st,%st(1)
    50ae:	dd 9d 20 fe ff ff    	fstpl  -0x1e0(%rbp)
    50b4:	8b 85 b4 fe ff ff    	mov    -0x14c(%rbp),%eax
    50ba:	48 8d 14 c5 00 00 00 	lea    0x0(,%rax,8),%rdx
    50c1:	00 
    50c2:	48 8b 85 40 fe ff ff 	mov    -0x1c0(%rbp),%rax
    50c9:	48 01 d0             	add    %rdx,%rax
    50cc:	48 8b 10             	mov    (%rax),%rdx
    50cf:	8b 85 bc fe ff ff    	mov    -0x144(%rbp),%eax
    50d5:	48 c1 e0 03          	shl    $0x3,%rax
    50d9:	48 01 d0             	add    %rdx,%rax
    50dc:	48 8b 00             	mov    (%rax),%rax
    50df:	48 83 c0 10          	add    $0x10,%rax
    50e3:	db 28                	fldt   (%rax)
    50e5:	dd 45 18             	fldl   0x18(%rbp)
    50e8:	de c1                	faddp  %st,%st(1)
    50ea:	dd 9d 18 fe ff ff    	fstpl  -0x1e8(%rbp)
    50f0:	8b 85 b4 fe ff ff    	mov    -0x14c(%rbp),%eax
    50f6:	48 8d 14 c5 00 00 00 	lea    0x0(,%rax,8),%rdx
    50fd:	00 
    50fe:	48 8b 85 40 fe ff ff 	mov    -0x1c0(%rbp),%rax
    5105:	48 01 d0             	add    %rdx,%rax
    5108:	48 8b 10             	mov    (%rax),%rdx
    510b:	8b 85 bc fe ff ff    	mov    -0x144(%rbp),%eax
    5111:	48 c1 e0 03          	shl    $0x3,%rax
    5115:	48 01 d0             	add    %rdx,%rax
    5118:	48 8b 00             	mov    (%rax),%rax
    511b:	db 28                	fldt   (%rax)
    511d:	dd 45 10             	fldl   0x10(%rbp)
    5120:	de c1                	faddp  %st,%st(1)
    5122:	dd 9d 10 fe ff ff    	fstpl  -0x1f0(%rbp)
    5128:	48 8d 85 60 ff ff ff 	lea    -0xa0(%rbp),%rax
    512f:	48 8b 95 38 fe ff ff 	mov    -0x1c8(%rbp),%rdx
    5136:	f2 0f 10 9d 20 fe ff 	movsd  -0x1e0(%rbp),%xmm3
    513d:	ff 
    513e:	f2 0f 10 95 18 fe ff 	movsd  -0x1e8(%rbp),%xmm2
    5145:	ff 
    5146:	f2 0f 10 8d 10 fe ff 	movsd  -0x1f0(%rbp),%xmm1
    514d:	ff 
    514e:	66 48 0f 6e c2       	movq   %rdx,%xmm0
    5153:	48 89 c7             	mov    %rax,%rdi
    5156:	e8 27 71 00 00       	call   c282 <_Z6stressdddd>
    515b:	48 8d 85 e0 fe ff ff 	lea    -0x120(%rbp),%rax
    5162:	48 8d 95 60 ff ff ff 	lea    -0xa0(%rbp),%rdx
    5169:	48 83 ec 08          	sub    $0x8,%rsp
    516d:	ff b5 d0 fe ff ff    	push   -0x130(%rbp)
    5173:	ff b5 c8 fe ff ff    	push   -0x138(%rbp)
    5179:	ff b5 c0 fe ff ff    	push   -0x140(%rbp)
    517f:	48 89 d6             	mov    %rdx,%rsi
    5182:	48 89 c7             	mov    %rax,%rdi
    5185:	e8 a8 4a 00 00       	call   9c32 <_ZN6tensormlE6vector>
    518a:	48 83 c4 20          	add    $0x20,%rsp
    518e:	48 8d 85 00 ff ff ff 	lea    -0x100(%rbp),%rax
    5195:	48 8d 95 e0 fe ff ff 	lea    -0x120(%rbp),%rdx
    519c:	f2 0f 10 85 28 fe ff 	movsd  -0x1d8(%rbp),%xmm0
    51a3:	ff 
    51a4:	48 89 d6             	mov    %rdx,%rsi
    51a7:	48 89 c7             	mov    %rax,%rdi
    51aa:	e8 5d 44 00 00       	call   960c <_ZN6vectormlEd>
    51af:	48 8d 85 20 ff ff ff 	lea    -0xe0(%rbp),%rax
    51b6:	48 8b 8d 80 fe ff ff 	mov    -0x180(%rbp),%rcx
    51bd:	48 8d 95 00 ff ff ff 	lea    -0x100(%rbp),%rdx
    51c4:	66 48 0f 6e c1       	movq   %rcx,%xmm0
    51c9:	48 89 d6             	mov    %rdx,%rsi
    51cc:	48 89 c7             	mov    %rax,%rdi
    51cf:	e8 a0 44 00 00       	call   9674 <_ZN6vectordvEd>
    51d4:	48 8d 85 40 ff ff ff 	lea    -0xc0(%rbp),%rax
    51db:	48 8d 95 20 ff ff ff 	lea    -0xe0(%rbp),%rdx
    51e2:	48 8b 8d 88 fe ff ff 	mov    -0x178(%rbp),%rcx
    51e9:	48 89 ce             	mov    %rcx,%rsi
    51ec:	48 89 c7             	mov    %rax,%rdi
    51ef:	e8 14 43 00 00       	call   9508 <_ZN6vectorplERKS_>
    51f4:	48 8d 95 40 ff ff ff 	lea    -0xc0(%rbp),%rdx
    51fb:	48 8b 85 88 fe ff ff 	mov    -0x178(%rbp),%rax
    5202:	48 89 d6             	mov    %rdx,%rsi
    5205:	48 89 c7             	mov    %rax,%rdi
    5208:	e8 cf 44 00 00       	call   96dc <_ZN6vectoraSERKS_>
    520d:	83 85 bc fe ff ff 01 	addl   $0x1,-0x144(%rbp)
    5214:	8b 85 bc fe ff ff    	mov    -0x144(%rbp),%eax
    521a:	3b 85 4c fe ff ff    	cmp    -0x1b4(%rbp),%eax
    5220:	0f 82 d5 fb ff ff    	jb     4dfb <_ZL6forceldddddddjjPPPedddd+0xf6b>
    5226:	83 85 b4 fe ff ff 01 	addl   $0x1,-0x14c(%rbp)
    522d:	8b 85 b4 fe ff ff    	mov    -0x14c(%rbp),%eax
    5233:	3b 85 9c fe ff ff    	cmp    -0x164(%rbp),%eax
    5239:	0f 82 71 f7 ff ff    	jb     49b0 <_ZL6forceldddddddjjPPPedddd+0xb20>
    523f:	eb 03                	jmp    5244 <_ZL6forceldddddddjjPPPedddd+0x13b4>
    5241:	eb 01                	jmp    5244 <_ZL6forceldddddddjjPPPedddd+0x13b4>
    5243:	90                   	nop
    5244:	48 8b 45 f8          	mov    -0x8(%rbp),%rax
    5248:	64 48 2b 04 25 28 00 	sub    %fs:0x28,%rax
    524f:	00 00 
    5251:	74 05                	je     5258 <_ZL6forceldddddddjjPPPedddd+0x13c8>
    5253:	e8 88 d2 ff ff       	call   24e0 <__stack_chk_fail@plt>
    5258:	48 8b 85 88 fe ff ff 	mov    -0x178(%rbp),%rax
    525f:	c9                   	leave  
    5260:	c3                   	ret    

0000000000005261 <_ZL7torqueldddddddjjPPPedddd>:
    5261:	f3 0f 1e fa          	endbr64 
    5265:	55                   	push   %rbp
    5266:	48 89 e5             	mov    %rsp,%rbp
    5269:	48 81 ec 10 02 00 00 	sub    $0x210,%rsp
    5270:	48 89 bd 68 fe ff ff 	mov    %rdi,-0x198(%rbp)
    5277:	f2 0f 11 85 60 fe ff 	movsd  %xmm0,-0x1a0(%rbp)
    527e:	ff 
    527f:	f2 0f 11 8d 58 fe ff 	movsd  %xmm1,-0x1a8(%rbp)
    5286:	ff 
    5287:	f2 0f 11 95 50 fe ff 	movsd  %xmm2,-0x1b0(%rbp)
    528e:	ff 
    528f:	f2 0f 11 9d 48 fe ff 	movsd  %xmm3,-0x1b8(%rbp)
    5296:	ff 
    5297:	f2 0f 11 a5 40 fe ff 	movsd  %xmm4,-0x1c0(%rbp)
    529e:	ff 
    529f:	f2 0f 11 ad 38 fe ff 	movsd  %xmm5,-0x1c8(%rbp)
    52a6:	ff 
    52a7:	f2 0f 11 b5 30 fe ff 	movsd  %xmm6,-0x1d0(%rbp)
    52ae:	ff 
    52af:	89 b5 2c fe ff ff    	mov    %esi,-0x1d4(%rbp)
    52b5:	89 95 28 fe ff ff    	mov    %edx,-0x1d8(%rbp)
    52bb:	48 89 8d 20 fe ff ff 	mov    %rcx,-0x1e0(%rbp)
    52c2:	f2 0f 11 bd 18 fe ff 	movsd  %xmm7,-0x1e8(%rbp)
    52c9:	ff 
    52ca:	64 48 8b 04 25 28 00 	mov    %fs:0x28,%rax
    52d1:	00 00 
    52d3:	48 89 45 f8          	mov    %rax,-0x8(%rbp)
    52d7:	31 c0                	xor    %eax,%eax
    52d9:	48 8b 85 68 fe ff ff 	mov    -0x198(%rbp),%rax
    52e0:	66 0f ef d2          	pxor   %xmm2,%xmm2
    52e4:	66 0f ef c9          	pxor   %xmm1,%xmm1
    52e8:	48 8b 15 01 a1 00 00 	mov    0xa101(%rip),%rdx        # f3f0 <_ZN6__pstl9execution2v1L5unseqE+0x3dd>
    52ef:	66 48 0f 6e c2       	movq   %rdx,%xmm0
    52f4:	48 89 c7             	mov    %rax,%rdi
    52f7:	e8 14 40 00 00       	call   9310 <_ZN6vectorC1Eddd>
    52fc:	8b 85 2c fe ff ff    	mov    -0x1d4(%rbp),%eax
    5302:	89 85 7c fe ff ff    	mov    %eax,-0x184(%rbp)
    5308:	f2 0f 10 85 60 fe ff 	movsd  -0x1a0(%rbp),%xmm0
    530f:	ff 
    5310:	f3 0f 7e 0d e8 a0 00 	movq   0xa0e8(%rip),%xmm1        # f400 <_ZN6__pstl9execution2v1L5unseqE+0x3ed>
    5317:	00 
    5318:	66 0f 57 c8          	xorpd  %xmm0,%xmm1
    531c:	f2 0f 10 85 38 fe ff 	movsd  -0x1c8(%rbp),%xmm0
    5323:	ff 
    5324:	66 0f 2f c1          	comisd %xmm1,%xmm0
    5328:	0f 86 c8 00 00 00    	jbe    53f6 <_ZL7torqueldddddddjjPPPedddd+0x195>
    532e:	f2 0f 10 85 38 fe ff 	movsd  -0x1c8(%rbp),%xmm0
    5335:	ff 
    5336:	f2 0f 5e 85 60 fe ff 	divsd  -0x1a0(%rbp),%xmm0
    533d:	ff 
    533e:	66 48 0f 7e c0       	movq   %xmm0,%rax
    5343:	66 48 0f 6e c0       	movq   %rax,%xmm0
    5348:	e8 33 d1 ff ff       	call   2480 <acos@plt>
    534d:	66 48 0f 7e c1       	movq   %xmm0,%rcx
    5352:	8b 85 2c fe ff ff    	mov    -0x1d4(%rbp),%eax
    5358:	01 c0                	add    %eax,%eax
    535a:	89 c0                	mov    %eax,%eax
    535c:	48 85 c0             	test   %rax,%rax
    535f:	78 0b                	js     536c <_ZL7torqueldddddddjjPPPedddd+0x10b>
    5361:	66 0f ef c0          	pxor   %xmm0,%xmm0
    5365:	f2 48 0f 2a c0       	cvtsi2sd %rax,%xmm0
    536a:	eb 19                	jmp    5385 <_ZL7torqueldddddddjjPPPedddd+0x124>
    536c:	48 89 c2             	mov    %rax,%rdx
    536f:	48 d1 ea             	shr    %rdx
    5372:	83 e0 01             	and    $0x1,%eax
    5375:	48 09 c2             	or     %rax,%rdx
    5378:	66 0f ef c0          	pxor   %xmm0,%xmm0
    537c:	f2 48 0f 2a c2       	cvtsi2sd %rdx,%xmm0
    5381:	f2 0f 58 c0          	addsd  %xmm0,%xmm0
    5385:	f2 0f 10 0d c3 a0 00 	movsd  0xa0c3(%rip),%xmm1        # f450 <_ZN6__pstl9execution2v1L5unseqE+0x43d>
    538c:	00 
    538d:	66 0f 28 d1          	movapd %xmm1,%xmm2
    5391:	f2 0f 5e d0          	divsd  %xmm0,%xmm2
    5395:	66 48 0f 6e c9       	movq   %rcx,%xmm1
    539a:	f2 0f 5c ca          	subsd  %xmm2,%xmm1
    539e:	8b 85 2c fe ff ff    	mov    -0x1d4(%rbp),%eax
    53a4:	48 85 c0             	test   %rax,%rax
    53a7:	78 0b                	js     53b4 <_ZL7torqueldddddddjjPPPedddd+0x153>
    53a9:	66 0f ef c0          	pxor   %xmm0,%xmm0
    53ad:	f2 48 0f 2a c0       	cvtsi2sd %rax,%xmm0
    53b2:	eb 19                	jmp    53cd <_ZL7torqueldddddddjjPPPedddd+0x16c>
    53b4:	48 89 c2             	mov    %rax,%rdx
    53b7:	48 d1 ea             	shr    %rdx
    53ba:	83 e0 01             	and    $0x1,%eax
    53bd:	48 09 c2             	or     %rax,%rdx
    53c0:	66 0f ef c0          	pxor   %xmm0,%xmm0
    53c4:	f2 48 0f 2a c2       	cvtsi2sd %rdx,%xmm0
    53c9:	f2 0f 58 c0          	addsd  %xmm0,%xmm0
    53cd:	f2 0f 10 15 7b a0 00 	movsd  0xa07b(%rip),%xmm2        # f450 <_ZN6__pstl9execution2v1L5unseqE+0x43d>
    53d4:	00 
    53d5:	f2 0f 5e d0          	divsd  %xmm0,%xmm2
    53d9:	f2 0f 5e ca          	divsd  %xmm2,%xmm1
    53dd:	66 48 0f 7e c8       	movq   %xmm1,%rax
    53e2:	66 48 0f 6e c0       	movq   %rax,%xmm0
    53e7:	e8 64 cf ff ff       	call   2350 <ceil@plt>
    53ec:	f2 0f 2c c0          	cvttsd2si %xmm0,%eax
    53f0:	89 85 7c fe ff ff    	mov    %eax,-0x184(%rbp)
    53f6:	c7 85 80 fe ff ff 00 	movl   $0x0,-0x180(%rbp)
    53fd:	00 00 00 
    5400:	f2 0f 10 85 60 fe ff 	movsd  -0x1a0(%rbp),%xmm0
    5407:	ff 
    5408:	66 0f 2f 85 30 fe ff 	comisd -0x1d0(%rbp),%xmm0
    540f:	ff 
    5410:	0f 86 c8 00 00 00    	jbe    54de <_ZL7torqueldddddddjjPPPedddd+0x27d>
    5416:	f2 0f 10 85 30 fe ff 	movsd  -0x1d0(%rbp),%xmm0
    541d:	ff 
    541e:	f2 0f 5e 85 60 fe ff 	divsd  -0x1a0(%rbp),%xmm0
    5425:	ff 
    5426:	66 48 0f 7e c0       	movq   %xmm0,%rax
    542b:	66 48 0f 6e c0       	movq   %rax,%xmm0
    5430:	e8 4b d0 ff ff       	call   2480 <acos@plt>
    5435:	66 48 0f 7e c1       	movq   %xmm0,%rcx
    543a:	8b 85 2c fe ff ff    	mov    -0x1d4(%rbp),%eax
    5440:	01 c0                	add    %eax,%eax
    5442:	89 c0                	mov    %eax,%eax
    5444:	48 85 c0             	test   %rax,%rax
    5447:	78 0b                	js     5454 <_ZL7torqueldddddddjjPPPedddd+0x1f3>
    5449:	66 0f ef c0          	pxor   %xmm0,%xmm0
    544d:	f2 48 0f 2a c0       	cvtsi2sd %rax,%xmm0
    5452:	eb 19                	jmp    546d <_ZL7torqueldddddddjjPPPedddd+0x20c>
    5454:	48 89 c2             	mov    %rax,%rdx
    5457:	48 d1 ea             	shr    %rdx
    545a:	83 e0 01             	and    $0x1,%eax
    545d:	48 09 c2             	or     %rax,%rdx
    5460:	66 0f ef c0          	pxor   %xmm0,%xmm0
    5464:	f2 48 0f 2a c2       	cvtsi2sd %rdx,%xmm0
    5469:	f2 0f 58 c0          	addsd  %xmm0,%xmm0
    546d:	f2 0f 10 0d db 9f 00 	movsd  0x9fdb(%rip),%xmm1        # f450 <_ZN6__pstl9execution2v1L5unseqE+0x43d>
    5474:	00 
    5475:	66 0f 28 d1          	movapd %xmm1,%xmm2
    5479:	f2 0f 5e d0          	divsd  %xmm0,%xmm2
    547d:	66 48 0f 6e c9       	movq   %rcx,%xmm1
    5482:	f2 0f 5c ca          	subsd  %xmm2,%xmm1
    5486:	8b 85 2c fe ff ff    	mov    -0x1d4(%rbp),%eax
    548c:	48 85 c0             	test   %rax,%rax
    548f:	78 0b                	js     549c <_ZL7torqueldddddddjjPPPedddd+0x23b>
    5491:	66 0f ef c0          	pxor   %xmm0,%xmm0
    5495:	f2 48 0f 2a c0       	cvtsi2sd %rax,%xmm0
    549a:	eb 19                	jmp    54b5 <_ZL7torqueldddddddjjPPPedddd+0x254>
    549c:	48 89 c2             	mov    %rax,%rdx
    549f:	48 d1 ea             	shr    %rdx
    54a2:	83 e0 01             	and    $0x1,%eax
    54a5:	48 09 c2             	or     %rax,%rdx
    54a8:	66 0f ef c0          	pxor   %xmm0,%xmm0
    54ac:	f2 48 0f 2a c2       	cvtsi2sd %rdx,%xmm0
    54b1:	f2 0f 58 c0          	addsd  %xmm0,%xmm0
    54b5:	f2 0f 10 15 93 9f 00 	movsd  0x9f93(%rip),%xmm2        # f450 <_ZN6__pstl9execution2v1L5unseqE+0x43d>
    54bc:	00 
    54bd:	f2 0f 5e d0          	divsd  %xmm0,%xmm2
    54c1:	f2 0f 5e ca          	divsd  %xmm2,%xmm1
    54c5:	66 48 0f 7e c8       	movq   %xmm1,%rax
    54ca:	66 48 0f 6e c0       	movq   %rax,%xmm0
    54cf:	e8 fc d0 ff ff       	call   25d0 <floor@plt>
    54d4:	f2 0f 2c c0          	cvttsd2si %xmm0,%eax
    54d8:	89 85 80 fe ff ff    	mov    %eax,-0x180(%rbp)
    54de:	f2 0f 10 85 60 fe ff 	movsd  -0x1a0(%rbp),%xmm0
    54e5:	ff 
    54e6:	f3 0f 7e 0d 12 9f 00 	movq   0x9f12(%rip),%xmm1        # f400 <_ZN6__pstl9execution2v1L5unseqE+0x3ed>
    54ed:	00 
    54ee:	66 0f 57 c1          	xorpd  %xmm1,%xmm0
    54f2:	66 0f 2f 85 30 fe ff 	comisd -0x1d0(%rbp),%xmm0
    54f9:	ff 
    54fa:	0f 87 44 14 00 00    	ja     6944 <_ZL7torqueldddddddjjPPPedddd+0x16e3>
    5500:	f2 0f 10 85 38 fe ff 	movsd  -0x1c8(%rbp),%xmm0
    5507:	ff 
    5508:	66 0f 2f 85 60 fe ff 	comisd -0x1a0(%rbp),%xmm0
    550f:	ff 
    5510:	0f 87 2e 14 00 00    	ja     6944 <_ZL7torqueldddddddjjPPPedddd+0x16e3>
    5516:	c7 85 84 fe ff ff 00 	movl   $0x0,-0x17c(%rbp)
    551d:	00 00 00 
    5520:	8b 85 28 fe ff ff    	mov    -0x1d8(%rbp),%eax
    5526:	89 85 88 fe ff ff    	mov    %eax,-0x178(%rbp)
    552c:	f2 0f 10 85 48 fe ff 	movsd  -0x1b8(%rbp),%xmm0
    5533:	ff 
    5534:	48 8b 85 58 fe ff ff 	mov    -0x1a8(%rbp),%rax
    553b:	66 0f 28 c8          	movapd %xmm0,%xmm1
    553f:	66 48 0f 6e c0       	movq   %rax,%xmm0
    5544:	e8 f0 d2 ff ff       	call   2839 <_Z7angleofdd>
    5549:	db 7d b0             	fstpt  -0x50(%rbp)
    554c:	f2 0f 10 85 40 fe ff 	movsd  -0x1c0(%rbp),%xmm0
    5553:	ff 
    5554:	48 8b 85 58 fe ff ff 	mov    -0x1a8(%rbp),%rax
    555b:	66 0f 28 c8          	movapd %xmm0,%xmm1
    555f:	66 48 0f 6e c0       	movq   %rax,%xmm0
    5564:	e8 d0 d2 ff ff       	call   2839 <_Z7angleofdd>
    5569:	db 7d c0             	fstpt  -0x40(%rbp)
    556c:	f2 0f 10 85 48 fe ff 	movsd  -0x1b8(%rbp),%xmm0
    5573:	ff 
    5574:	48 8b 85 50 fe ff ff 	mov    -0x1b0(%rbp),%rax
    557b:	66 0f 28 c8          	movapd %xmm0,%xmm1
    557f:	66 48 0f 6e c0       	movq   %rax,%xmm0
    5584:	e8 b0 d2 ff ff       	call   2839 <_Z7angleofdd>
    5589:	db 7d d0             	fstpt  -0x30(%rbp)
    558c:	f2 0f 10 85 40 fe ff 	movsd  -0x1c0(%rbp),%xmm0
    5593:	ff 
    5594:	48 8b 85 50 fe ff ff 	mov    -0x1b0(%rbp),%rax
    559b:	66 0f 28 c8          	movapd %xmm0,%xmm1
    559f:	66 48 0f 6e c0       	movq   %rax,%xmm0
    55a4:	e8 90 d2 ff ff       	call   2839 <_Z7angleofdd>
    55a9:	db 7d e0             	fstpt  -0x20(%rbp)
    55ac:	48 8d 45 b0          	lea    -0x50(%rbp),%rax
    55b0:	48 83 c0 40          	add    $0x40,%rax
    55b4:	48 8d 55 b0          	lea    -0x50(%rbp),%rdx
    55b8:	48 89 c6             	mov    %rax,%rsi
    55bb:	48 89 d7             	mov    %rdx,%rdi
    55be:	e8 4b 49 00 00       	call   9f0e <_ZSt4sortIPeEvT_S1_>
    55c3:	66 0f ef c0          	pxor   %xmm0,%xmm0
    55c7:	66 0f 2f 85 58 fe ff 	comisd -0x1a8(%rbp),%xmm0
    55ce:	ff 
    55cf:	0f 93 c0             	setae  %al
    55d2:	83 f0 01             	xor    $0x1,%eax
    55d5:	84 c0                	test   %al,%al
    55d7:	75 4e                	jne    5627 <_ZL7torqueldddddddjjPPPedddd+0x3c6>
    55d9:	66 0f ef c0          	pxor   %xmm0,%xmm0
    55dd:	66 0f 2f 85 48 fe ff 	comisd -0x1b8(%rbp),%xmm0
    55e4:	ff 
    55e5:	0f 93 c0             	setae  %al
    55e8:	83 f0 01             	xor    $0x1,%eax
    55eb:	84 c0                	test   %al,%al
    55ed:	75 38                	jne    5627 <_ZL7torqueldddddddjjPPPedddd+0x3c6>
    55ef:	f2 0f 10 85 50 fe ff 	movsd  -0x1b0(%rbp),%xmm0
    55f6:	ff 
    55f7:	66 0f ef c9          	pxor   %xmm1,%xmm1
    55fb:	66 0f 2f c1          	comisd %xmm1,%xmm0
    55ff:	0f 93 c0             	setae  %al
    5602:	83 f0 01             	xor    $0x1,%eax
    5605:	84 c0                	test   %al,%al
    5607:	75 1e                	jne    5627 <_ZL7torqueldddddddjjPPPedddd+0x3c6>
    5609:	f2 0f 10 85 40 fe ff 	movsd  -0x1c0(%rbp),%xmm0
    5610:	ff 
    5611:	66 0f ef c9          	pxor   %xmm1,%xmm1
    5615:	66 0f 2f c1          	comisd %xmm1,%xmm0
    5619:	0f 93 c0             	setae  %al
    561c:	83 f0 01             	xor    $0x1,%eax
    561f:	84 c0                	test   %al,%al
    5621:	0f 84 42 01 00 00    	je     5769 <_ZL7torqueldddddddjjPPPedddd+0x508>
    5627:	db 6d b0             	fldt   -0x50(%rbp)
    562a:	8b 85 28 fe ff ff    	mov    -0x1d8(%rbp),%eax
    5630:	48 85 c0             	test   %rax,%rax
    5633:	78 0b                	js     5640 <_ZL7torqueldddddddjjPPPedddd+0x3df>
    5635:	66 0f ef c0          	pxor   %xmm0,%xmm0
    5639:	f2 48 0f 2a c0       	cvtsi2sd %rax,%xmm0
    563e:	eb 19                	jmp    5659 <_ZL7torqueldddddddjjPPPedddd+0x3f8>
    5640:	48 89 c2             	mov    %rax,%rdx
    5643:	48 d1 ea             	shr    %rdx
    5646:	83 e0 01             	and    $0x1,%eax
    5649:	48 09 c2             	or     %rax,%rdx
    564c:	66 0f ef c0          	pxor   %xmm0,%xmm0
    5650:	f2 48 0f 2a c2       	cvtsi2sd %rdx,%xmm0
    5655:	f2 0f 58 c0          	addsd  %xmm0,%xmm0
    5659:	f2 0f 10 0d ff 9d 00 	movsd  0x9dff(%rip),%xmm1        # f460 <_ZN6__pstl9execution2v1L5unseqE+0x44d>
    5660:	00 
    5661:	f2 0f 5e c8          	divsd  %xmm0,%xmm1
    5665:	f2 0f 11 8d 08 fe ff 	movsd  %xmm1,-0x1f8(%rbp)
    566c:	ff 
    566d:	dd 85 08 fe ff ff    	fldl   -0x1f8(%rbp)
    5673:	de f9                	fdivrp %st,%st(1)
    5675:	48 8d 64 24 f0       	lea    -0x10(%rsp),%rsp
    567a:	db 3c 24             	fstpt  (%rsp)
    567d:	e8 ea 3b 00 00       	call   926c <_ZSt5floore>
    5682:	48 83 c4 10          	add    $0x10,%rsp
    5686:	d9 bd 16 fe ff ff    	fnstcw -0x1ea(%rbp)
    568c:	0f b7 85 16 fe ff ff 	movzwl -0x1ea(%rbp),%eax
    5693:	80 cc 0c             	or     $0xc,%ah
    5696:	66 89 85 14 fe ff ff 	mov    %ax,-0x1ec(%rbp)
    569d:	d9 ad 14 fe ff ff    	fldcw  -0x1ec(%rbp)
    56a3:	db 9d 08 fe ff ff    	fistpl -0x1f8(%rbp)
    56a9:	d9 ad 16 fe ff ff    	fldcw  -0x1ea(%rbp)
    56af:	8b 85 08 fe ff ff    	mov    -0x1f8(%rbp),%eax
    56b5:	89 85 84 fe ff ff    	mov    %eax,-0x17c(%rbp)
    56bb:	db 6d e0             	fldt   -0x20(%rbp)
    56be:	8b 85 28 fe ff ff    	mov    -0x1d8(%rbp),%eax
    56c4:	48 85 c0             	test   %rax,%rax
    56c7:	78 0b                	js     56d4 <_ZL7torqueldddddddjjPPPedddd+0x473>
    56c9:	66 0f ef c0          	pxor   %xmm0,%xmm0
    56cd:	f2 48 0f 2a c0       	cvtsi2sd %rax,%xmm0
    56d2:	eb 19                	jmp    56ed <_ZL7torqueldddddddjjPPPedddd+0x48c>
    56d4:	48 89 c2             	mov    %rax,%rdx
    56d7:	48 d1 ea             	shr    %rdx
    56da:	83 e0 01             	and    $0x1,%eax
    56dd:	48 09 c2             	or     %rax,%rdx
    56e0:	66 0f ef c0          	pxor   %xmm0,%xmm0
    56e4:	f2 48 0f 2a c2       	cvtsi2sd %rdx,%xmm0
    56e9:	f2 0f 58 c0          	addsd  %xmm0,%xmm0
    56ed:	f2 0f 10 0d 6b 9d 00 	movsd  0x9d6b(%rip),%xmm1        # f460 <_ZN6__pstl9execution2v1L5unseqE+0x44d>
    56f4:	00 
    56f5:	f2 0f 5e c8          	divsd  %xmm0,%xmm1
    56f9:	f2 0f 11 8d 08 fe ff 	movsd  %xmm1,-0x1f8(%rbp)
    5700:	ff 
    5701:	dd 85 08 fe ff ff    	fldl   -0x1f8(%rbp)
    5707:	de f9                	fdivrp %st,%st(1)
    5709:	48 8d 64 24 f0       	lea    -0x10(%rsp),%rsp
    570e:	db 3c 24             	fstpt  (%rsp)
    5711:	e8 17 3b 00 00       	call   922d <_ZSt4ceile>
    5716:	48 83 c4 10          	add    $0x10,%rsp
    571a:	d9 bd 16 fe ff ff    	fnstcw -0x1ea(%rbp)
    5720:	0f b7 85 16 fe ff ff 	movzwl -0x1ea(%rbp),%eax
    5727:	80 cc 0c             	or     $0xc,%ah
    572a:	66 89 85 14 fe ff ff 	mov    %ax,-0x1ec(%rbp)
    5731:	d9 ad 14 fe ff ff    	fldcw  -0x1ec(%rbp)
    5737:	db 9d 08 fe ff ff    	fistpl -0x1f8(%rbp)
    573d:	d9 ad 16 fe ff ff    	fldcw  -0x1ea(%rbp)
    5743:	8b 85 08 fe ff ff    	mov    -0x1f8(%rbp),%eax
    5749:	89 85 88 fe ff ff    	mov    %eax,-0x178(%rbp)
    574f:	8b 85 88 fe ff ff    	mov    -0x178(%rbp),%eax
    5755:	3b 85 28 fe ff ff    	cmp    -0x1d8(%rbp),%eax
    575b:	76 0c                	jbe    5769 <_ZL7torqueldddddddjjPPPedddd+0x508>
    575d:	8b 85 28 fe ff ff    	mov    -0x1d8(%rbp),%eax
    5763:	89 85 88 fe ff ff    	mov    %eax,-0x178(%rbp)
    5769:	f2 0f 10 85 58 fe ff 	movsd  -0x1a8(%rbp),%xmm0
    5770:	ff 
    5771:	66 0f ef c9          	pxor   %xmm1,%xmm1
    5775:	66 0f 2f c1          	comisd %xmm1,%xmm0
    5779:	0f 97 c0             	seta   %al
    577c:	83 f0 01             	xor    $0x1,%eax
    577f:	84 c0                	test   %al,%al
    5781:	75 34                	jne    57b7 <_ZL7torqueldddddddjjPPPedddd+0x556>
    5783:	66 0f ef c0          	pxor   %xmm0,%xmm0
    5787:	66 0f 2f 85 48 fe ff 	comisd -0x1b8(%rbp),%xmm0
    578e:	ff 
    578f:	0f 97 c0             	seta   %al
    5792:	83 f0 01             	xor    $0x1,%eax
    5795:	84 c0                	test   %al,%al
    5797:	75 1e                	jne    57b7 <_ZL7torqueldddddddjjPPPedddd+0x556>
    5799:	f2 0f 10 85 40 fe ff 	movsd  -0x1c0(%rbp),%xmm0
    57a0:	ff 
    57a1:	66 0f ef c9          	pxor   %xmm1,%xmm1
    57a5:	66 0f 2f c1          	comisd %xmm1,%xmm0
    57a9:	0f 93 c0             	setae  %al
    57ac:	83 f0 01             	xor    $0x1,%eax
    57af:	84 c0                	test   %al,%al
    57b1:	0f 84 7b 05 00 00    	je     5d32 <_ZL7torqueldddddddjjPPPedddd+0xad1>
    57b7:	8b 85 80 fe ff ff    	mov    -0x180(%rbp),%eax
    57bd:	89 85 8c fe ff ff    	mov    %eax,-0x174(%rbp)
    57c3:	e9 53 05 00 00       	jmp    5d1b <_ZL7torqueldddddddjjPPPedddd+0xaba>
    57c8:	8b 85 84 fe ff ff    	mov    -0x17c(%rbp),%eax
    57ce:	89 85 90 fe ff ff    	mov    %eax,-0x170(%rbp)
    57d4:	e9 29 05 00 00       	jmp    5d02 <_ZL7torqueldddddddjjPPPedddd+0xaa1>
    57d9:	8b 85 8c fe ff ff    	mov    -0x174(%rbp),%eax
    57df:	48 8d 14 c5 00 00 00 	lea    0x0(,%rax,8),%rdx
    57e6:	00 
    57e7:	48 8b 85 20 fe ff ff 	mov    -0x1e0(%rbp),%rax
    57ee:	48 01 d0             	add    %rdx,%rax
    57f1:	48 8b 10             	mov    (%rax),%rdx
    57f4:	8b 85 90 fe ff ff    	mov    -0x170(%rbp),%eax
    57fa:	48 c1 e0 03          	shl    $0x3,%rax
    57fe:	48 01 d0             	add    %rdx,%rax
    5801:	48 8b 00             	mov    (%rax),%rax
    5804:	dd 85 58 fe ff ff    	fldl   -0x1a8(%rbp)
    580a:	db 28                	fldt   (%rax)
    580c:	df f1                	fcomip %st(1),%st
    580e:	dd d8                	fstp   %st(0)
    5810:	0f 82 e5 04 00 00    	jb     5cfb <_ZL7torqueldddddddjjPPPedddd+0xa9a>
    5816:	8b 85 8c fe ff ff    	mov    -0x174(%rbp),%eax
    581c:	48 8d 14 c5 00 00 00 	lea    0x0(,%rax,8),%rdx
    5823:	00 
    5824:	48 8b 85 20 fe ff ff 	mov    -0x1e0(%rbp),%rax
    582b:	48 01 d0             	add    %rdx,%rax
    582e:	48 8b 10             	mov    (%rax),%rdx
    5831:	8b 85 90 fe ff ff    	mov    -0x170(%rbp),%eax
    5837:	48 c1 e0 03          	shl    $0x3,%rax
    583b:	48 01 d0             	add    %rdx,%rax
    583e:	48 8b 00             	mov    (%rax),%rax
    5841:	db 28                	fldt   (%rax)
    5843:	dd 85 50 fe ff ff    	fldl   -0x1b0(%rbp)
    5849:	df f1                	fcomip %st(1),%st
    584b:	dd d8                	fstp   %st(0)
    584d:	0f 82 a8 04 00 00    	jb     5cfb <_ZL7torqueldddddddjjPPPedddd+0xa9a>
    5853:	8b 85 8c fe ff ff    	mov    -0x174(%rbp),%eax
    5859:	48 8d 14 c5 00 00 00 	lea    0x0(,%rax,8),%rdx
    5860:	00 
    5861:	48 8b 85 20 fe ff ff 	mov    -0x1e0(%rbp),%rax
    5868:	48 01 d0             	add    %rdx,%rax
    586b:	48 8b 10             	mov    (%rax),%rdx
    586e:	8b 85 90 fe ff ff    	mov    -0x170(%rbp),%eax
    5874:	48 c1 e0 03          	shl    $0x3,%rax
    5878:	48 01 d0             	add    %rdx,%rax
    587b:	48 8b 00             	mov    (%rax),%rax
    587e:	48 83 c0 10          	add    $0x10,%rax
    5882:	dd 85 48 fe ff ff    	fldl   -0x1b8(%rbp)
    5888:	db 28                	fldt   (%rax)
    588a:	df f1                	fcomip %st(1),%st
    588c:	dd d8                	fstp   %st(0)
    588e:	0f 82 67 04 00 00    	jb     5cfb <_ZL7torqueldddddddjjPPPedddd+0xa9a>
    5894:	8b 85 8c fe ff ff    	mov    -0x174(%rbp),%eax
    589a:	48 8d 14 c5 00 00 00 	lea    0x0(,%rax,8),%rdx
    58a1:	00 
    58a2:	48 8b 85 20 fe ff ff 	mov    -0x1e0(%rbp),%rax
    58a9:	48 01 d0             	add    %rdx,%rax
    58ac:	48 8b 10             	mov    (%rax),%rdx
    58af:	8b 85 90 fe ff ff    	mov    -0x170(%rbp),%eax
    58b5:	48 c1 e0 03          	shl    $0x3,%rax
    58b9:	48 01 d0             	add    %rdx,%rax
    58bc:	48 8b 00             	mov    (%rax),%rax
    58bf:	48 83 c0 10          	add    $0x10,%rax
    58c3:	db 28                	fldt   (%rax)
    58c5:	dd 85 40 fe ff ff    	fldl   -0x1c0(%rbp)
    58cb:	df f1                	fcomip %st(1),%st
    58cd:	dd d8                	fstp   %st(0)
    58cf:	0f 82 26 04 00 00    	jb     5cfb <_ZL7torqueldddddddjjPPPedddd+0xa9a>
    58d5:	8b 85 8c fe ff ff    	mov    -0x174(%rbp),%eax
    58db:	48 8d 14 c5 00 00 00 	lea    0x0(,%rax,8),%rdx
    58e2:	00 
    58e3:	48 8b 85 20 fe ff ff 	mov    -0x1e0(%rbp),%rax
    58ea:	48 01 d0             	add    %rdx,%rax
    58ed:	48 8b 10             	mov    (%rax),%rdx
    58f0:	8b 85 90 fe ff ff    	mov    -0x170(%rbp),%eax
    58f6:	48 c1 e0 03          	shl    $0x3,%rax
    58fa:	48 01 d0             	add    %rdx,%rax
    58fd:	48 8b 00             	mov    (%rax),%rax
    5900:	48 83 c0 20          	add    $0x20,%rax
    5904:	dd 85 38 fe ff ff    	fldl   -0x1c8(%rbp)
    590a:	db 28                	fldt   (%rax)
    590c:	df f1                	fcomip %st(1),%st
    590e:	dd d8                	fstp   %st(0)
    5910:	0f 82 e5 03 00 00    	jb     5cfb <_ZL7torqueldddddddjjPPPedddd+0xa9a>
    5916:	8b 85 8c fe ff ff    	mov    -0x174(%rbp),%eax
    591c:	48 8d 14 c5 00 00 00 	lea    0x0(,%rax,8),%rdx
    5923:	00 
    5924:	48 8b 85 20 fe ff ff 	mov    -0x1e0(%rbp),%rax
    592b:	48 01 d0             	add    %rdx,%rax
    592e:	48 8b 10             	mov    (%rax),%rdx
    5931:	8b 85 90 fe ff ff    	mov    -0x170(%rbp),%eax
    5937:	48 c1 e0 03          	shl    $0x3,%rax
    593b:	48 01 d0             	add    %rdx,%rax
    593e:	48 8b 00             	mov    (%rax),%rax
    5941:	48 83 c0 20          	add    $0x20,%rax
    5945:	db 28                	fldt   (%rax)
    5947:	dd 85 30 fe ff ff    	fldl   -0x1d0(%rbp)
    594d:	df f1                	fcomip %st(1),%st
    594f:	dd d8                	fstp   %st(0)
    5951:	0f 82 a4 03 00 00    	jb     5cfb <_ZL7torqueldddddddjjPPPedddd+0xa9a>
    5957:	8b 85 8c fe ff ff    	mov    -0x174(%rbp),%eax
    595d:	48 8d 14 c5 00 00 00 	lea    0x0(,%rax,8),%rdx
    5964:	00 
    5965:	48 8b 85 20 fe ff ff 	mov    -0x1e0(%rbp),%rax
    596c:	48 01 d0             	add    %rdx,%rax
    596f:	48 8b 10             	mov    (%rax),%rdx
    5972:	8b 85 90 fe ff ff    	mov    -0x170(%rbp),%eax
    5978:	48 c1 e0 03          	shl    $0x3,%rax
    597c:	48 01 d0             	add    %rdx,%rax
    597f:	48 8b 00             	mov    (%rax),%rax
    5982:	48 83 c0 20          	add    $0x20,%rax
    5986:	db 28                	fldt   (%rax)
    5988:	dd 45 20             	fldl   0x20(%rbp)
    598b:	de c1                	faddp  %st,%st(1)
    598d:	dd 9d 08 fe ff ff    	fstpl  -0x1f8(%rbp)
    5993:	8b 85 8c fe ff ff    	mov    -0x174(%rbp),%eax
    5999:	48 8d 14 c5 00 00 00 	lea    0x0(,%rax,8),%rdx
    59a0:	00 
    59a1:	48 8b 85 20 fe ff ff 	mov    -0x1e0(%rbp),%rax
    59a8:	48 01 d0             	add    %rdx,%rax
    59ab:	48 8b 10             	mov    (%rax),%rdx
    59ae:	8b 85 90 fe ff ff    	mov    -0x170(%rbp),%eax
    59b4:	48 c1 e0 03          	shl    $0x3,%rax
    59b8:	48 01 d0             	add    %rdx,%rax
    59bb:	48 8b 00             	mov    (%rax),%rax
    59be:	48 83 c0 10          	add    $0x10,%rax
    59c2:	db 28                	fldt   (%rax)
    59c4:	dd 45 18             	fldl   0x18(%rbp)
    59c7:	de c1                	faddp  %st,%st(1)
    59c9:	dd 9d 00 fe ff ff    	fstpl  -0x200(%rbp)
    59cf:	8b 85 8c fe ff ff    	mov    -0x174(%rbp),%eax
    59d5:	48 8d 14 c5 00 00 00 	lea    0x0(,%rax,8),%rdx
    59dc:	00 
    59dd:	48 8b 85 20 fe ff ff 	mov    -0x1e0(%rbp),%rax
    59e4:	48 01 d0             	add    %rdx,%rax
    59e7:	48 8b 10             	mov    (%rax),%rdx
    59ea:	8b 85 90 fe ff ff    	mov    -0x170(%rbp),%eax
    59f0:	48 c1 e0 03          	shl    $0x3,%rax
    59f4:	48 01 d0             	add    %rdx,%rax
    59f7:	48 8b 00             	mov    (%rax),%rax
    59fa:	db 28                	fldt   (%rax)
    59fc:	dd 45 10             	fldl   0x10(%rbp)
    59ff:	de c1                	faddp  %st,%st(1)
    5a01:	dd 9d f8 fd ff ff    	fstpl  -0x208(%rbp)
    5a07:	f2 0f 10 85 f8 fd ff 	movsd  -0x208(%rbp),%xmm0
    5a0e:	ff 
    5a0f:	48 8d 85 a0 fe ff ff 	lea    -0x160(%rbp),%rax
    5a16:	f2 0f 10 95 08 fe ff 	movsd  -0x1f8(%rbp),%xmm2
    5a1d:	ff 
    5a1e:	f2 0f 10 8d 00 fe ff 	movsd  -0x200(%rbp),%xmm1
    5a25:	ff 
    5a26:	48 89 c7             	mov    %rax,%rdi
    5a29:	e8 e2 38 00 00       	call   9310 <_ZN6vectorC1Eddd>
    5a2e:	8b 85 8c fe ff ff    	mov    -0x174(%rbp),%eax
    5a34:	48 8d 14 c5 00 00 00 	lea    0x0(,%rax,8),%rdx
    5a3b:	00 
    5a3c:	48 8b 85 20 fe ff ff 	mov    -0x1e0(%rbp),%rax
    5a43:	48 01 d0             	add    %rdx,%rax
    5a46:	48 8b 10             	mov    (%rax),%rdx
    5a49:	8b 85 90 fe ff ff    	mov    -0x170(%rbp),%eax
    5a4f:	48 c1 e0 03          	shl    $0x3,%rax
    5a53:	48 01 d0             	add    %rdx,%rax
    5a56:	48 8b 00             	mov    (%rax),%rax
    5a59:	48 83 c0 20          	add    $0x20,%rax
    5a5d:	db 28                	fldt   (%rax)
    5a5f:	dd 9d 08 fe ff ff    	fstpl  -0x1f8(%rbp)
    5a65:	8b 85 8c fe ff ff    	mov    -0x174(%rbp),%eax
    5a6b:	48 8d 14 c5 00 00 00 	lea    0x0(,%rax,8),%rdx
    5a72:	00 
    5a73:	48 8b 85 20 fe ff ff 	mov    -0x1e0(%rbp),%rax
    5a7a:	48 01 d0             	add    %rdx,%rax
    5a7d:	48 8b 10             	mov    (%rax),%rdx
    5a80:	8b 85 90 fe ff ff    	mov    -0x170(%rbp),%eax
    5a86:	48 c1 e0 03          	shl    $0x3,%rax
    5a8a:	48 01 d0             	add    %rdx,%rax
    5a8d:	48 8b 00             	mov    (%rax),%rax
    5a90:	48 83 c0 10          	add    $0x10,%rax
    5a94:	db 28                	fldt   (%rax)
    5a96:	dd 9d 00 fe ff ff    	fstpl  -0x200(%rbp)
    5a9c:	8b 85 8c fe ff ff    	mov    -0x174(%rbp),%eax
    5aa2:	48 8d 14 c5 00 00 00 	lea    0x0(,%rax,8),%rdx
    5aa9:	00 
    5aaa:	48 8b 85 20 fe ff ff 	mov    -0x1e0(%rbp),%rax
    5ab1:	48 01 d0             	add    %rdx,%rax
    5ab4:	48 8b 10             	mov    (%rax),%rdx
    5ab7:	8b 85 90 fe ff ff    	mov    -0x170(%rbp),%eax
    5abd:	48 c1 e0 03          	shl    $0x3,%rax
    5ac1:	48 01 d0             	add    %rdx,%rax
    5ac4:	48 8b 00             	mov    (%rax),%rax
    5ac7:	db 28                	fldt   (%rax)
    5ac9:	dd 9d f8 fd ff ff    	fstpl  -0x208(%rbp)
    5acf:	f2 0f 10 85 f8 fd ff 	movsd  -0x208(%rbp),%xmm0
    5ad6:	ff 
    5ad7:	48 8d 85 c0 fe ff ff 	lea    -0x140(%rbp),%rax
    5ade:	f2 0f 10 95 08 fe ff 	movsd  -0x1f8(%rbp),%xmm2
    5ae5:	ff 
    5ae6:	f2 0f 10 8d 00 fe ff 	movsd  -0x200(%rbp),%xmm1
    5aed:	ff 
    5aee:	48 89 c7             	mov    %rax,%rdi
    5af1:	e8 1a 38 00 00       	call   9310 <_ZN6vectorC1Eddd>
    5af6:	48 8d 85 60 ff ff ff 	lea    -0xa0(%rbp),%rax
    5afd:	48 8b 8d 60 fe ff ff 	mov    -0x1a0(%rbp),%rcx
    5b04:	48 8d 95 c0 fe ff ff 	lea    -0x140(%rbp),%rdx
    5b0b:	66 48 0f 6e c1       	movq   %rcx,%xmm0
    5b10:	48 89 d6             	mov    %rdx,%rsi
    5b13:	48 89 c7             	mov    %rax,%rdi
    5b16:	e8 59 3b 00 00       	call   9674 <_ZN6vectordvEd>
    5b1b:	48 8d 95 60 ff ff ff 	lea    -0xa0(%rbp),%rdx
    5b22:	48 8d 85 c0 fe ff ff 	lea    -0x140(%rbp),%rax
    5b29:	48 89 d6             	mov    %rdx,%rsi
    5b2c:	48 89 c7             	mov    %rax,%rdi
    5b2f:	e8 a8 3b 00 00       	call   96dc <_ZN6vectoraSERKS_>
    5b34:	8b 85 8c fe ff ff    	mov    -0x174(%rbp),%eax
    5b3a:	48 8d 14 c5 00 00 00 	lea    0x0(,%rax,8),%rdx
    5b41:	00 
    5b42:	48 8b 85 20 fe ff ff 	mov    -0x1e0(%rbp),%rax
    5b49:	48 01 d0             	add    %rdx,%rax
    5b4c:	48 8b 10             	mov    (%rax),%rdx
    5b4f:	8b 85 90 fe ff ff    	mov    -0x170(%rbp),%eax
    5b55:	48 c1 e0 03          	shl    $0x3,%rax
    5b59:	48 01 d0             	add    %rdx,%rax
    5b5c:	48 8b 00             	mov    (%rax),%rax
    5b5f:	48 83 c0 30          	add    $0x30,%rax
    5b63:	db 28                	fldt   (%rax)
    5b65:	dd 9d 08 fe ff ff    	fstpl  -0x1f8(%rbp)
    5b6b:	8b 85 8c fe ff ff    	mov    -0x174(%rbp),%eax
    5b71:	48 8d 14 c5 00 00 00 	lea    0x0(,%rax,8),%rdx
    5b78:	00 
    5b79:	48 8b 85 20 fe ff ff 	mov    -0x1e0(%rbp),%rax
    5b80:	48 01 d0             	add    %rdx,%rax
    5b83:	48 8b 10             	mov    (%rax),%rdx
    5b86:	8b 85 90 fe ff ff    	mov    -0x170(%rbp),%eax
    5b8c:	48 c1 e0 03          	shl    $0x3,%rax
    5b90:	48 01 d0             	add    %rdx,%rax
    5b93:	48 8b 00             	mov    (%rax),%rax
    5b96:	48 83 c0 20          	add    $0x20,%rax
    5b9a:	db 28                	fldt   (%rax)
    5b9c:	dd 45 20             	fldl   0x20(%rbp)
    5b9f:	de c1                	faddp  %st,%st(1)
    5ba1:	dd 9d 00 fe ff ff    	fstpl  -0x200(%rbp)
    5ba7:	8b 85 8c fe ff ff    	mov    -0x174(%rbp),%eax
    5bad:	48 8d 14 c5 00 00 00 	lea    0x0(,%rax,8),%rdx
    5bb4:	00 
    5bb5:	48 8b 85 20 fe ff ff 	mov    -0x1e0(%rbp),%rax
    5bbc:	48 01 d0             	add    %rdx,%rax
    5bbf:	48 8b 10             	mov    (%rax),%rdx
    5bc2:	8b 85 90 fe ff ff    	mov    -0x170(%rbp),%eax
    5bc8:	48 c1 e0 03          	shl    $0x3,%rax
    5bcc:	48 01 d0             	add    %rdx,%rax
    5bcf:	48 8b 00             	mov    (%rax),%rax
    5bd2:	48 83 c0 10          	add    $0x10,%rax
    5bd6:	db 28                	fldt   (%rax)
    5bd8:	dd 45 18             	fldl   0x18(%rbp)
    5bdb:	de c1                	faddp  %st,%st(1)
    5bdd:	dd 9d f8 fd ff ff    	fstpl  -0x208(%rbp)
    5be3:	8b 85 8c fe ff ff    	mov    -0x174(%rbp),%eax
    5be9:	48 8d 14 c5 00 00 00 	lea    0x0(,%rax,8),%rdx
    5bf0:	00 
    5bf1:	48 8b 85 20 fe ff ff 	mov    -0x1e0(%rbp),%rax
    5bf8:	48 01 d0             	add    %rdx,%rax
    5bfb:	48 8b 10             	mov    (%rax),%rdx
    5bfe:	8b 85 90 fe ff ff    	mov    -0x170(%rbp),%eax
    5c04:	48 c1 e0 03          	shl    $0x3,%rax
    5c08:	48 01 d0             	add    %rdx,%rax
    5c0b:	48 8b 00             	mov    (%rax),%rax
    5c0e:	db 28                	fldt   (%rax)
    5c10:	dd 45 10             	fldl   0x10(%rbp)
    5c13:	de c1                	faddp  %st,%st(1)
    5c15:	dd 9d f0 fd ff ff    	fstpl  -0x210(%rbp)
    5c1b:	48 8d 85 60 ff ff ff 	lea    -0xa0(%rbp),%rax
    5c22:	48 8b 95 18 fe ff ff 	mov    -0x1e8(%rbp),%rdx
    5c29:	f2 0f 10 9d 00 fe ff 	movsd  -0x200(%rbp),%xmm3
    5c30:	ff 
    5c31:	f2 0f 10 95 f8 fd ff 	movsd  -0x208(%rbp),%xmm2
    5c38:	ff 
    5c39:	f2 0f 10 8d f0 fd ff 	movsd  -0x210(%rbp),%xmm1
    5c40:	ff 
    5c41:	66 48 0f 6e c2       	movq   %rdx,%xmm0
    5c46:	48 89 c7             	mov    %rax,%rdi
    5c49:	e8 34 66 00 00       	call   c282 <_Z6stressdddd>
    5c4e:	48 8d 85 e0 fe ff ff 	lea    -0x120(%rbp),%rax
    5c55:	48 8d 95 60 ff ff ff 	lea    -0xa0(%rbp),%rdx
    5c5c:	48 83 ec 08          	sub    $0x8,%rsp
    5c60:	ff b5 d0 fe ff ff    	push   -0x130(%rbp)
    5c66:	ff b5 c8 fe ff ff    	push   -0x138(%rbp)
    5c6c:	ff b5 c0 fe ff ff    	push   -0x140(%rbp)
    5c72:	48 89 d6             	mov    %rdx,%rsi
    5c75:	48 89 c7             	mov    %rax,%rdi
    5c78:	e8 b5 3f 00 00       	call   9c32 <_ZN6tensormlE6vector>
    5c7d:	48 83 c4 20          	add    $0x20,%rsp
    5c81:	48 8d 85 00 ff ff ff 	lea    -0x100(%rbp),%rax
    5c88:	48 8d 95 e0 fe ff ff 	lea    -0x120(%rbp),%rdx
    5c8f:	48 8d 8d a0 fe ff ff 	lea    -0x160(%rbp),%rcx
    5c96:	48 89 ce             	mov    %rcx,%rsi
    5c99:	48 89 c7             	mov    %rax,%rdi
    5c9c:	e8 89 37 00 00       	call   942a <_ZN6vectorrmERKS_>
    5ca1:	48 8d 85 20 ff ff ff 	lea    -0xe0(%rbp),%rax
    5ca8:	48 8d 95 00 ff ff ff 	lea    -0x100(%rbp),%rdx
    5caf:	f2 0f 10 85 08 fe ff 	movsd  -0x1f8(%rbp),%xmm0
    5cb6:	ff 
    5cb7:	48 89 d6             	mov    %rdx,%rsi
    5cba:	48 89 c7             	mov    %rax,%rdi
    5cbd:	e8 4a 39 00 00       	call   960c <_ZN6vectormlEd>
    5cc2:	48 8d 85 40 ff ff ff 	lea    -0xc0(%rbp),%rax
    5cc9:	48 8d 95 20 ff ff ff 	lea    -0xe0(%rbp),%rdx
    5cd0:	48 8b 8d 68 fe ff ff 	mov    -0x198(%rbp),%rcx
    5cd7:	48 89 ce             	mov    %rcx,%rsi
    5cda:	48 89 c7             	mov    %rax,%rdi
    5cdd:	e8 26 38 00 00       	call   9508 <_ZN6vectorplERKS_>
    5ce2:	48 8d 95 40 ff ff ff 	lea    -0xc0(%rbp),%rdx
    5ce9:	48 8b 85 68 fe ff ff 	mov    -0x198(%rbp),%rax
    5cf0:	48 89 d6             	mov    %rdx,%rsi
    5cf3:	48 89 c7             	mov    %rax,%rdi
    5cf6:	e8 e1 39 00 00       	call   96dc <_ZN6vectoraSERKS_>
    5cfb:	83 85 90 fe ff ff 01 	addl   $0x1,-0x170(%rbp)
    5d02:	8b 85 90 fe ff ff    	mov    -0x170(%rbp),%eax
    5d08:	3b 85 88 fe ff ff    	cmp    -0x178(%rbp),%eax
    5d0e:	0f 82 c5 fa ff ff    	jb     57d9 <_ZL7torqueldddddddjjPPPedddd+0x578>
    5d14:	83 85 8c fe ff ff 01 	addl   $0x1,-0x174(%rbp)
    5d1b:	8b 85 8c fe ff ff    	mov    -0x174(%rbp),%eax
    5d21:	3b 85 7c fe ff ff    	cmp    -0x184(%rbp),%eax
    5d27:	0f 82 9b fa ff ff    	jb     57c8 <_ZL7torqueldddddddjjPPPedddd+0x567>
    5d2d:	e9 10 0c 00 00       	jmp    6942 <_ZL7torqueldddddddjjPPPedddd+0x16e1>
    5d32:	db 6d c0             	fldt   -0x40(%rbp)
    5d35:	8b 85 28 fe ff ff    	mov    -0x1d8(%rbp),%eax
    5d3b:	48 85 c0             	test   %rax,%rax
    5d3e:	78 0b                	js     5d4b <_ZL7torqueldddddddjjPPPedddd+0xaea>
    5d40:	66 0f ef c0          	pxor   %xmm0,%xmm0
    5d44:	f2 48 0f 2a c0       	cvtsi2sd %rax,%xmm0
    5d49:	eb 19                	jmp    5d64 <_ZL7torqueldddddddjjPPPedddd+0xb03>
    5d4b:	48 89 c2             	mov    %rax,%rdx
    5d4e:	48 d1 ea             	shr    %rdx
    5d51:	83 e0 01             	and    $0x1,%eax
    5d54:	48 09 c2             	or     %rax,%rdx
    5d57:	66 0f ef c0          	pxor   %xmm0,%xmm0
    5d5b:	f2 48 0f 2a c2       	cvtsi2sd %rdx,%xmm0
    5d60:	f2 0f 58 c0          	addsd  %xmm0,%xmm0
    5d64:	f2 0f 10 0d f4 96 00 	movsd  0x96f4(%rip),%xmm1        # f460 <_ZN6__pstl9execution2v1L5unseqE+0x44d>
    5d6b:	00 
    5d6c:	f2 0f 5e c8          	divsd  %xmm0,%xmm1
    5d70:	f2 0f 11 8d 08 fe ff 	movsd  %xmm1,-0x1f8(%rbp)
    5d77:	ff 
    5d78:	dd 85 08 fe ff ff    	fldl   -0x1f8(%rbp)
    5d7e:	de f9                	fdivrp %st,%st(1)
    5d80:	48 8d 64 24 f0       	lea    -0x10(%rsp),%rsp
    5d85:	db 3c 24             	fstpt  (%rsp)
    5d88:	e8 a0 34 00 00       	call   922d <_ZSt4ceile>
    5d8d:	48 83 c4 10          	add    $0x10,%rsp
    5d91:	d9 bd 16 fe ff ff    	fnstcw -0x1ea(%rbp)
    5d97:	0f b7 85 16 fe ff ff 	movzwl -0x1ea(%rbp),%eax
    5d9e:	80 cc 0c             	or     $0xc,%ah
    5da1:	66 89 85 14 fe ff ff 	mov    %ax,-0x1ec(%rbp)
    5da8:	d9 ad 14 fe ff ff    	fldcw  -0x1ec(%rbp)
    5dae:	db 9d 08 fe ff ff    	fistpl -0x1f8(%rbp)
    5db4:	d9 ad 16 fe ff ff    	fldcw  -0x1ea(%rbp)
    5dba:	8b 85 08 fe ff ff    	mov    -0x1f8(%rbp),%eax
    5dc0:	89 85 84 fe ff ff    	mov    %eax,-0x17c(%rbp)
    5dc6:	66 0f ef c0          	pxor   %xmm0,%xmm0
    5dca:	66 0f 2e 85 40 fe ff 	ucomisd -0x1c0(%rbp),%xmm0
    5dd1:	ff 
    5dd2:	7a 18                	jp     5dec <_ZL7torqueldddddddjjPPPedddd+0xb8b>
    5dd4:	66 0f ef c0          	pxor   %xmm0,%xmm0
    5dd8:	66 0f 2e 85 40 fe ff 	ucomisd -0x1c0(%rbp),%xmm0
    5ddf:	ff 
    5de0:	75 0a                	jne    5dec <_ZL7torqueldddddddjjPPPedddd+0xb8b>
    5de2:	c7 85 84 fe ff ff 01 	movl   $0x1,-0x17c(%rbp)
    5de9:	00 00 00 
    5dec:	db 6d d0             	fldt   -0x30(%rbp)
    5def:	8b 85 28 fe ff ff    	mov    -0x1d8(%rbp),%eax
    5df5:	48 85 c0             	test   %rax,%rax
    5df8:	78 0b                	js     5e05 <_ZL7torqueldddddddjjPPPedddd+0xba4>
    5dfa:	66 0f ef c0          	pxor   %xmm0,%xmm0
    5dfe:	f2 48 0f 2a c0       	cvtsi2sd %rax,%xmm0
    5e03:	eb 19                	jmp    5e1e <_ZL7torqueldddddddjjPPPedddd+0xbbd>
    5e05:	48 89 c2             	mov    %rax,%rdx
    5e08:	48 d1 ea             	shr    %rdx
    5e0b:	83 e0 01             	and    $0x1,%eax
    5e0e:	48 09 c2             	or     %rax,%rdx
    5e11:	66 0f ef c0          	pxor   %xmm0,%xmm0
    5e15:	f2 48 0f 2a c2       	cvtsi2sd %rdx,%xmm0
    5e1a:	f2 0f 58 c0          	addsd  %xmm0,%xmm0
    5e1e:	f2 0f 10 0d 3a 96 00 	movsd  0x963a(%rip),%xmm1        # f460 <_ZN6__pstl9execution2v1L5unseqE+0x44d>
    5e25:	00 
    5e26:	f2 0f 5e c8          	divsd  %xmm0,%xmm1
    5e2a:	f2 0f 11 8d 08 fe ff 	movsd  %xmm1,-0x1f8(%rbp)
    5e31:	ff 
    5e32:	dd 85 08 fe ff ff    	fldl   -0x1f8(%rbp)
    5e38:	de f9                	fdivrp %st,%st(1)
    5e3a:	48 8d 64 24 f0       	lea    -0x10(%rsp),%rsp
    5e3f:	db 3c 24             	fstpt  (%rsp)
    5e42:	e8 25 34 00 00       	call   926c <_ZSt5floore>
    5e47:	48 83 c4 10          	add    $0x10,%rsp
    5e4b:	d9 bd 16 fe ff ff    	fnstcw -0x1ea(%rbp)
    5e51:	0f b7 85 16 fe ff ff 	movzwl -0x1ea(%rbp),%eax
    5e58:	80 cc 0c             	or     $0xc,%ah
    5e5b:	66 89 85 14 fe ff ff 	mov    %ax,-0x1ec(%rbp)
    5e62:	d9 ad 14 fe ff ff    	fldcw  -0x1ec(%rbp)
    5e68:	db 9d 08 fe ff ff    	fistpl -0x1f8(%rbp)
    5e6e:	d9 ad 16 fe ff ff    	fldcw  -0x1ea(%rbp)
    5e74:	8b 85 08 fe ff ff    	mov    -0x1f8(%rbp),%eax
    5e7a:	89 85 88 fe ff ff    	mov    %eax,-0x178(%rbp)
    5e80:	8b 85 80 fe ff ff    	mov    -0x180(%rbp),%eax
    5e86:	89 85 94 fe ff ff    	mov    %eax,-0x16c(%rbp)
    5e8c:	e9 9d 0a 00 00       	jmp    692e <_ZL7torqueldddddddjjPPPedddd+0x16cd>
    5e91:	c7 85 98 fe ff ff 00 	movl   $0x0,-0x168(%rbp)
    5e98:	00 00 00 
    5e9b:	e9 29 05 00 00       	jmp    63c9 <_ZL7torqueldddddddjjPPPedddd+0x1168>
    5ea0:	8b 85 94 fe ff ff    	mov    -0x16c(%rbp),%eax
    5ea6:	48 8d 14 c5 00 00 00 	lea    0x0(,%rax,8),%rdx
    5ead:	00 
    5eae:	48 8b 85 20 fe ff ff 	mov    -0x1e0(%rbp),%rax
    5eb5:	48 01 d0             	add    %rdx,%rax
    5eb8:	48 8b 10             	mov    (%rax),%rdx
    5ebb:	8b 85 98 fe ff ff    	mov    -0x168(%rbp),%eax
    5ec1:	48 c1 e0 03          	shl    $0x3,%rax
    5ec5:	48 01 d0             	add    %rdx,%rax
    5ec8:	48 8b 00             	mov    (%rax),%rax
    5ecb:	dd 85 58 fe ff ff    	fldl   -0x1a8(%rbp)
    5ed1:	db 28                	fldt   (%rax)
    5ed3:	df f1                	fcomip %st(1),%st
    5ed5:	dd d8                	fstp   %st(0)
    5ed7:	0f 82 e5 04 00 00    	jb     63c2 <_ZL7torqueldddddddjjPPPedddd+0x1161>
    5edd:	8b 85 94 fe ff ff    	mov    -0x16c(%rbp),%eax
    5ee3:	48 8d 14 c5 00 00 00 	lea    0x0(,%rax,8),%rdx
    5eea:	00 
    5eeb:	48 8b 85 20 fe ff ff 	mov    -0x1e0(%rbp),%rax
    5ef2:	48 01 d0             	add    %rdx,%rax
    5ef5:	48 8b 10             	mov    (%rax),%rdx
    5ef8:	8b 85 98 fe ff ff    	mov    -0x168(%rbp),%eax
    5efe:	48 c1 e0 03          	shl    $0x3,%rax
    5f02:	48 01 d0             	add    %rdx,%rax
    5f05:	48 8b 00             	mov    (%rax),%rax
    5f08:	db 28                	fldt   (%rax)
    5f0a:	dd 85 50 fe ff ff    	fldl   -0x1b0(%rbp)
    5f10:	df f1                	fcomip %st(1),%st
    5f12:	dd d8                	fstp   %st(0)
    5f14:	0f 82 a8 04 00 00    	jb     63c2 <_ZL7torqueldddddddjjPPPedddd+0x1161>
    5f1a:	8b 85 94 fe ff ff    	mov    -0x16c(%rbp),%eax
    5f20:	48 8d 14 c5 00 00 00 	lea    0x0(,%rax,8),%rdx
    5f27:	00 
    5f28:	48 8b 85 20 fe ff ff 	mov    -0x1e0(%rbp),%rax
    5f2f:	48 01 d0             	add    %rdx,%rax
    5f32:	48 8b 10             	mov    (%rax),%rdx
    5f35:	8b 85 98 fe ff ff    	mov    -0x168(%rbp),%eax
    5f3b:	48 c1 e0 03          	shl    $0x3,%rax
    5f3f:	48 01 d0             	add    %rdx,%rax
    5f42:	48 8b 00             	mov    (%rax),%rax
    5f45:	48 83 c0 10          	add    $0x10,%rax
    5f49:	dd 85 48 fe ff ff    	fldl   -0x1b8(%rbp)
    5f4f:	db 28                	fldt   (%rax)
    5f51:	df f1                	fcomip %st(1),%st
    5f53:	dd d8                	fstp   %st(0)
    5f55:	0f 82 67 04 00 00    	jb     63c2 <_ZL7torqueldddddddjjPPPedddd+0x1161>
    5f5b:	8b 85 94 fe ff ff    	mov    -0x16c(%rbp),%eax
    5f61:	48 8d 14 c5 00 00 00 	lea    0x0(,%rax,8),%rdx
    5f68:	00 
    5f69:	48 8b 85 20 fe ff ff 	mov    -0x1e0(%rbp),%rax
    5f70:	48 01 d0             	add    %rdx,%rax
    5f73:	48 8b 10             	mov    (%rax),%rdx
    5f76:	8b 85 98 fe ff ff    	mov    -0x168(%rbp),%eax
    5f7c:	48 c1 e0 03          	shl    $0x3,%rax
    5f80:	48 01 d0             	add    %rdx,%rax
    5f83:	48 8b 00             	mov    (%rax),%rax
    5f86:	48 83 c0 10          	add    $0x10,%rax
    5f8a:	db 28                	fldt   (%rax)
    5f8c:	dd 85 40 fe ff ff    	fldl   -0x1c0(%rbp)
    5f92:	df f1                	fcomip %st(1),%st
    5f94:	dd d8                	fstp   %st(0)
    5f96:	0f 82 26 04 00 00    	jb     63c2 <_ZL7torqueldddddddjjPPPedddd+0x1161>
    5f9c:	8b 85 94 fe ff ff    	mov    -0x16c(%rbp),%eax
    5fa2:	48 8d 14 c5 00 00 00 	lea    0x0(,%rax,8),%rdx
    5fa9:	00 
    5faa:	48 8b 85 20 fe ff ff 	mov    -0x1e0(%rbp),%rax
    5fb1:	48 01 d0             	add    %rdx,%rax
    5fb4:	48 8b 10             	mov    (%rax),%rdx
    5fb7:	8b 85 98 fe ff ff    	mov    -0x168(%rbp),%eax
    5fbd:	48 c1 e0 03          	shl    $0x3,%rax
    5fc1:	48 01 d0             	add    %rdx,%rax
    5fc4:	48 8b 00             	mov    (%rax),%rax
    5fc7:	48 83 c0 20          	add    $0x20,%rax
    5fcb:	dd 85 38 fe ff ff    	fldl   -0x1c8(%rbp)
    5fd1:	db 28                	fldt   (%rax)
    5fd3:	df f1                	fcomip %st(1),%st
    5fd5:	dd d8                	fstp   %st(0)
    5fd7:	0f 82 e5 03 00 00    	jb     63c2 <_ZL7torqueldddddddjjPPPedddd+0x1161>
    5fdd:	8b 85 94 fe ff ff    	mov    -0x16c(%rbp),%eax
    5fe3:	48 8d 14 c5 00 00 00 	lea    0x0(,%rax,8),%rdx
    5fea:	00 
    5feb:	48 8b 85 20 fe ff ff 	mov    -0x1e0(%rbp),%rax
    5ff2:	48 01 d0             	add    %rdx,%rax
    5ff5:	48 8b 10             	mov    (%rax),%rdx
    5ff8:	8b 85 98 fe ff ff    	mov    -0x168(%rbp),%eax
    5ffe:	48 c1 e0 03          	shl    $0x3,%rax
    6002:	48 01 d0             	add    %rdx,%rax
    6005:	48 8b 00             	mov    (%rax),%rax
    6008:	48 83 c0 20          	add    $0x20,%rax
    600c:	db 28                	fldt   (%rax)
    600e:	dd 85 30 fe ff ff    	fldl   -0x1d0(%rbp)
    6014:	df f1                	fcomip %st(1),%st
    6016:	dd d8                	fstp   %st(0)
    6018:	0f 82 a4 03 00 00    	jb     63c2 <_ZL7torqueldddddddjjPPPedddd+0x1161>
    601e:	8b 85 94 fe ff ff    	mov    -0x16c(%rbp),%eax
    6024:	48 8d 14 c5 00 00 00 	lea    0x0(,%rax,8),%rdx
    602b:	00 
    602c:	48 8b 85 20 fe ff ff 	mov    -0x1e0(%rbp),%rax
    6033:	48 01 d0             	add    %rdx,%rax
    6036:	48 8b 10             	mov    (%rax),%rdx
    6039:	8b 85 98 fe ff ff    	mov    -0x168(%rbp),%eax
    603f:	48 c1 e0 03          	shl    $0x3,%rax
    6043:	48 01 d0             	add    %rdx,%rax
    6046:	48 8b 00             	mov    (%rax),%rax
    6049:	48 83 c0 20          	add    $0x20,%rax
    604d:	db 28                	fldt   (%rax)
    604f:	dd 45 20             	fldl   0x20(%rbp)
    6052:	de c1                	faddp  %st,%st(1)
    6054:	dd 9d 08 fe ff ff    	fstpl  -0x1f8(%rbp)
    605a:	8b 85 94 fe ff ff    	mov    -0x16c(%rbp),%eax
    6060:	48 8d 14 c5 00 00 00 	lea    0x0(,%rax,8),%rdx
    6067:	00 
    6068:	48 8b 85 20 fe ff ff 	mov    -0x1e0(%rbp),%rax
    606f:	48 01 d0             	add    %rdx,%rax
    6072:	48 8b 10             	mov    (%rax),%rdx
    6075:	8b 85 98 fe ff ff    	mov    -0x168(%rbp),%eax
    607b:	48 c1 e0 03          	shl    $0x3,%rax
    607f:	48 01 d0             	add    %rdx,%rax
    6082:	48 8b 00             	mov    (%rax),%rax
    6085:	48 83 c0 10          	add    $0x10,%rax
    6089:	db 28                	fldt   (%rax)
    608b:	dd 45 18             	fldl   0x18(%rbp)
    608e:	de c1                	faddp  %st,%st(1)
    6090:	dd 9d 00 fe ff ff    	fstpl  -0x200(%rbp)
    6096:	8b 85 94 fe ff ff    	mov    -0x16c(%rbp),%eax
    609c:	48 8d 14 c5 00 00 00 	lea    0x0(,%rax,8),%rdx
    60a3:	00 
    60a4:	48 8b 85 20 fe ff ff 	mov    -0x1e0(%rbp),%rax
    60ab:	48 01 d0             	add    %rdx,%rax
    60ae:	48 8b 10             	mov    (%rax),%rdx
    60b1:	8b 85 98 fe ff ff    	mov    -0x168(%rbp),%eax
    60b7:	48 c1 e0 03          	shl    $0x3,%rax
    60bb:	48 01 d0             	add    %rdx,%rax
    60be:	48 8b 00             	mov    (%rax),%rax
    60c1:	db 28                	fldt   (%rax)
    60c3:	dd 45 10             	fldl   0x10(%rbp)
    60c6:	de c1                	faddp  %st,%st(1)
    60c8:	dd 9d f8 fd ff ff    	fstpl  -0x208(%rbp)
    60ce:	f2 0f 10 85 f8 fd ff 	movsd  -0x208(%rbp),%xmm0
    60d5:	ff 
    60d6:	48 8d 85 a0 fe ff ff 	lea    -0x160(%rbp),%rax
    60dd:	f2 0f 10 95 08 fe ff 	movsd  -0x1f8(%rbp),%xmm2
    60e4:	ff 
    60e5:	f2 0f 10 8d 00 fe ff 	movsd  -0x200(%rbp),%xmm1
    60ec:	ff 
    60ed:	48 89 c7             	mov    %rax,%rdi
    60f0:	e8 1b 32 00 00       	call   9310 <_ZN6vectorC1Eddd>
    60f5:	8b 85 94 fe ff ff    	mov    -0x16c(%rbp),%eax
    60fb:	48 8d 14 c5 00 00 00 	lea    0x0(,%rax,8),%rdx
    6102:	00 
    6103:	48 8b 85 20 fe ff ff 	mov    -0x1e0(%rbp),%rax
    610a:	48 01 d0             	add    %rdx,%rax
    610d:	48 8b 10             	mov    (%rax),%rdx
    6110:	8b 85 98 fe ff ff    	mov    -0x168(%rbp),%eax
    6116:	48 c1 e0 03          	shl    $0x3,%rax
    611a:	48 01 d0             	add    %rdx,%rax
    611d:	48 8b 00             	mov    (%rax),%rax
    6120:	48 83 c0 20          	add    $0x20,%rax
    6124:	db 28                	fldt   (%rax)
    6126:	dd 9d 08 fe ff ff    	fstpl  -0x1f8(%rbp)
    612c:	8b 85 94 fe ff ff    	mov    -0x16c(%rbp),%eax
    6132:	48 8d 14 c5 00 00 00 	lea    0x0(,%rax,8),%rdx
    6139:	00 
    613a:	48 8b 85 20 fe ff ff 	mov    -0x1e0(%rbp),%rax
    6141:	48 01 d0             	add    %rdx,%rax
    6144:	48 8b 10             	mov    (%rax),%rdx
    6147:	8b 85 98 fe ff ff    	mov    -0x168(%rbp),%eax
    614d:	48 c1 e0 03          	shl    $0x3,%rax
    6151:	48 01 d0             	add    %rdx,%rax
    6154:	48 8b 00             	mov    (%rax),%rax
    6157:	48 83 c0 10          	add    $0x10,%rax
    615b:	db 28                	fldt   (%rax)
    615d:	dd 9d 00 fe ff ff    	fstpl  -0x200(%rbp)
    6163:	8b 85 94 fe ff ff    	mov    -0x16c(%rbp),%eax
    6169:	48 8d 14 c5 00 00 00 	lea    0x0(,%rax,8),%rdx
    6170:	00 
    6171:	48 8b 85 20 fe ff ff 	mov    -0x1e0(%rbp),%rax
    6178:	48 01 d0             	add    %rdx,%rax
    617b:	48 8b 10             	mov    (%rax),%rdx
    617e:	8b 85 98 fe ff ff    	mov    -0x168(%rbp),%eax
    6184:	48 c1 e0 03          	shl    $0x3,%rax
    6188:	48 01 d0             	add    %rdx,%rax
    618b:	48 8b 00             	mov    (%rax),%rax
    618e:	db 28                	fldt   (%rax)
    6190:	dd 9d f8 fd ff ff    	fstpl  -0x208(%rbp)
    6196:	f2 0f 10 85 f8 fd ff 	movsd  -0x208(%rbp),%xmm0
    619d:	ff 
    619e:	48 8d 85 c0 fe ff ff 	lea    -0x140(%rbp),%rax
    61a5:	f2 0f 10 95 08 fe ff 	movsd  -0x1f8(%rbp),%xmm2
    61ac:	ff 
    61ad:	f2 0f 10 8d 00 fe ff 	movsd  -0x200(%rbp),%xmm1
    61b4:	ff 
    61b5:	48 89 c7             	mov    %rax,%rdi
    61b8:	e8 53 31 00 00       	call   9310 <_ZN6vectorC1Eddd>
    61bd:	48 8d 85 60 ff ff ff 	lea    -0xa0(%rbp),%rax
    61c4:	48 8b 8d 60 fe ff ff 	mov    -0x1a0(%rbp),%rcx
    61cb:	48 8d 95 c0 fe ff ff 	lea    -0x140(%rbp),%rdx
    61d2:	66 48 0f 6e c1       	movq   %rcx,%xmm0
    61d7:	48 89 d6             	mov    %rdx,%rsi
    61da:	48 89 c7             	mov    %rax,%rdi
    61dd:	e8 92 34 00 00       	call   9674 <_ZN6vectordvEd>
    61e2:	48 8d 95 60 ff ff ff 	lea    -0xa0(%rbp),%rdx
    61e9:	48 8d 85 c0 fe ff ff 	lea    -0x140(%rbp),%rax
    61f0:	48 89 d6             	mov    %rdx,%rsi
    61f3:	48 89 c7             	mov    %rax,%rdi
    61f6:	e8 e1 34 00 00       	call   96dc <_ZN6vectoraSERKS_>
    61fb:	8b 85 94 fe ff ff    	mov    -0x16c(%rbp),%eax
    6201:	48 8d 14 c5 00 00 00 	lea    0x0(,%rax,8),%rdx
    6208:	00 
    6209:	48 8b 85 20 fe ff ff 	mov    -0x1e0(%rbp),%rax
    6210:	48 01 d0             	add    %rdx,%rax
    6213:	48 8b 10             	mov    (%rax),%rdx
    6216:	8b 85 98 fe ff ff    	mov    -0x168(%rbp),%eax
    621c:	48 c1 e0 03          	shl    $0x3,%rax
    6220:	48 01 d0             	add    %rdx,%rax
    6223:	48 8b 00             	mov    (%rax),%rax
    6226:	48 83 c0 30          	add    $0x30,%rax
    622a:	db 28                	fldt   (%rax)
    622c:	dd 9d 08 fe ff ff    	fstpl  -0x1f8(%rbp)
    6232:	8b 85 94 fe ff ff    	mov    -0x16c(%rbp),%eax
    6238:	48 8d 14 c5 00 00 00 	lea    0x0(,%rax,8),%rdx
    623f:	00 
    6240:	48 8b 85 20 fe ff ff 	mov    -0x1e0(%rbp),%rax
    6247:	48 01 d0             	add    %rdx,%rax
    624a:	48 8b 10             	mov    (%rax),%rdx
    624d:	8b 85 98 fe ff ff    	mov    -0x168(%rbp),%eax
    6253:	48 c1 e0 03          	shl    $0x3,%rax
    6257:	48 01 d0             	add    %rdx,%rax
    625a:	48 8b 00             	mov    (%rax),%rax
    625d:	48 83 c0 20          	add    $0x20,%rax
    6261:	db 28                	fldt   (%rax)
    6263:	dd 45 20             	fldl   0x20(%rbp)
    6266:	de c1                	faddp  %st,%st(1)
    6268:	dd 9d 00 fe ff ff    	fstpl  -0x200(%rbp)
    626e:	8b 85 94 fe ff ff    	mov    -0x16c(%rbp),%eax
    6274:	48 8d 14 c5 00 00 00 	lea    0x0(,%rax,8),%rdx
    627b:	00 
    627c:	48 8b 85 20 fe ff ff 	mov    -0x1e0(%rbp),%rax
    6283:	48 01 d0             	add    %rdx,%rax
    6286:	48 8b 10             	mov    (%rax),%rdx
    6289:	8b 85 98 fe ff ff    	mov    -0x168(%rbp),%eax
    628f:	48 c1 e0 03          	shl    $0x3,%rax
    6293:	48 01 d0             	add    %rdx,%rax
    6296:	48 8b 00             	mov    (%rax),%rax
    6299:	48 83 c0 10          	add    $0x10,%rax
    629d:	db 28                	fldt   (%rax)
    629f:	dd 45 18             	fldl   0x18(%rbp)
    62a2:	de c1                	faddp  %st,%st(1)
    62a4:	dd 9d f8 fd ff ff    	fstpl  -0x208(%rbp)
    62aa:	8b 85 94 fe ff ff    	mov    -0x16c(%rbp),%eax
    62b0:	48 8d 14 c5 00 00 00 	lea    0x0(,%rax,8),%rdx
    62b7:	00 
    62b8:	48 8b 85 20 fe ff ff 	mov    -0x1e0(%rbp),%rax
    62bf:	48 01 d0             	add    %rdx,%rax
    62c2:	48 8b 10             	mov    (%rax),%rdx
    62c5:	8b 85 98 fe ff ff    	mov    -0x168(%rbp),%eax
    62cb:	48 c1 e0 03          	shl    $0x3,%rax
    62cf:	48 01 d0             	add    %rdx,%rax
    62d2:	48 8b 00             	mov    (%rax),%rax
    62d5:	db 28                	fldt   (%rax)
    62d7:	dd 45 10             	fldl   0x10(%rbp)
    62da:	de c1                	faddp  %st,%st(1)
    62dc:	dd 9d f0 fd ff ff    	fstpl  -0x210(%rbp)
    62e2:	48 8d 85 60 ff ff ff 	lea    -0xa0(%rbp),%rax
    62e9:	48 8b 95 18 fe ff ff 	mov    -0x1e8(%rbp),%rdx
    62f0:	f2 0f 10 9d 00 fe ff 	movsd  -0x200(%rbp),%xmm3
    62f7:	ff 
    62f8:	f2 0f 10 95 f8 fd ff 	movsd  -0x208(%rbp),%xmm2
    62ff:	ff 
    6300:	f2 0f 10 8d f0 fd ff 	movsd  -0x210(%rbp),%xmm1
    6307:	ff 
    6308:	66 48 0f 6e c2       	movq   %rdx,%xmm0
    630d:	48 89 c7             	mov    %rax,%rdi
    6310:	e8 6d 5f 00 00       	call   c282 <_Z6stressdddd>
    6315:	48 8d 85 e0 fe ff ff 	lea    -0x120(%rbp),%rax
    631c:	48 8d 95 60 ff ff ff 	lea    -0xa0(%rbp),%rdx
    6323:	48 83 ec 08          	sub    $0x8,%rsp
    6327:	ff b5 d0 fe ff ff    	push   -0x130(%rbp)
    632d:	ff b5 c8 fe ff ff    	push   -0x138(%rbp)
    6333:	ff b5 c0 fe ff ff    	push   -0x140(%rbp)
    6339:	48 89 d6             	mov    %rdx,%rsi
    633c:	48 89 c7             	mov    %rax,%rdi
    633f:	e8 ee 38 00 00       	call   9c32 <_ZN6tensormlE6vector>
    6344:	48 83 c4 20          	add    $0x20,%rsp
    6348:	48 8d 85 00 ff ff ff 	lea    -0x100(%rbp),%rax
    634f:	48 8d 95 e0 fe ff ff 	lea    -0x120(%rbp),%rdx
    6356:	48 8d 8d a0 fe ff ff 	lea    -0x160(%rbp),%rcx
    635d:	48 89 ce             	mov    %rcx,%rsi
    6360:	48 89 c7             	mov    %rax,%rdi
    6363:	e8 c2 30 00 00       	call   942a <_ZN6vectorrmERKS_>
    6368:	48 8d 85 20 ff ff ff 	lea    -0xe0(%rbp),%rax
    636f:	48 8d 95 00 ff ff ff 	lea    -0x100(%rbp),%rdx
    6376:	f2 0f 10 85 08 fe ff 	movsd  -0x1f8(%rbp),%xmm0
    637d:	ff 
    637e:	48 89 d6             	mov    %rdx,%rsi
    6381:	48 89 c7             	mov    %rax,%rdi
    6384:	e8 83 32 00 00       	call   960c <_ZN6vectormlEd>
    6389:	48 8d 85 40 ff ff ff 	lea    -0xc0(%rbp),%rax
    6390:	48 8d 95 20 ff ff ff 	lea    -0xe0(%rbp),%rdx
    6397:	48 8b 8d 68 fe ff ff 	mov    -0x198(%rbp),%rcx
    639e:	48 89 ce             	mov    %rcx,%rsi
    63a1:	48 89 c7             	mov    %rax,%rdi
    63a4:	e8 5f 31 00 00       	call   9508 <_ZN6vectorplERKS_>
    63a9:	48 8d 95 40 ff ff ff 	lea    -0xc0(%rbp),%rdx
    63b0:	48 8b 85 68 fe ff ff 	mov    -0x198(%rbp),%rax
    63b7:	48 89 d6             	mov    %rdx,%rsi
    63ba:	48 89 c7             	mov    %rax,%rdi
    63bd:	e8 1a 33 00 00       	call   96dc <_ZN6vectoraSERKS_>
    63c2:	83 85 98 fe ff ff 01 	addl   $0x1,-0x168(%rbp)
    63c9:	8b 85 98 fe ff ff    	mov    -0x168(%rbp),%eax
    63cf:	3b 85 84 fe ff ff    	cmp    -0x17c(%rbp),%eax
    63d5:	0f 82 c5 fa ff ff    	jb     5ea0 <_ZL7torqueldddddddjjPPPedddd+0xc3f>
    63db:	8b 85 88 fe ff ff    	mov    -0x178(%rbp),%eax
    63e1:	89 85 9c fe ff ff    	mov    %eax,-0x164(%rbp)
    63e7:	e9 29 05 00 00       	jmp    6915 <_ZL7torqueldddddddjjPPPedddd+0x16b4>
    63ec:	8b 85 94 fe ff ff    	mov    -0x16c(%rbp),%eax
    63f2:	48 8d 14 c5 00 00 00 	lea    0x0(,%rax,8),%rdx
    63f9:	00 
    63fa:	48 8b 85 20 fe ff ff 	mov    -0x1e0(%rbp),%rax
    6401:	48 01 d0             	add    %rdx,%rax
    6404:	48 8b 10             	mov    (%rax),%rdx
    6407:	8b 85 9c fe ff ff    	mov    -0x164(%rbp),%eax
    640d:	48 c1 e0 03          	shl    $0x3,%rax
    6411:	48 01 d0             	add    %rdx,%rax
    6414:	48 8b 00             	mov    (%rax),%rax
    6417:	dd 85 58 fe ff ff    	fldl   -0x1a8(%rbp)
    641d:	db 28                	fldt   (%rax)
    641f:	df f1                	fcomip %st(1),%st
    6421:	dd d8                	fstp   %st(0)
    6423:	0f 82 e5 04 00 00    	jb     690e <_ZL7torqueldddddddjjPPPedddd+0x16ad>
    6429:	8b 85 94 fe ff ff    	mov    -0x16c(%rbp),%eax
    642f:	48 8d 14 c5 00 00 00 	lea    0x0(,%rax,8),%rdx
    6436:	00 
    6437:	48 8b 85 20 fe ff ff 	mov    -0x1e0(%rbp),%rax
    643e:	48 01 d0             	add    %rdx,%rax
    6441:	48 8b 10             	mov    (%rax),%rdx
    6444:	8b 85 9c fe ff ff    	mov    -0x164(%rbp),%eax
    644a:	48 c1 e0 03          	shl    $0x3,%rax
    644e:	48 01 d0             	add    %rdx,%rax
    6451:	48 8b 00             	mov    (%rax),%rax
    6454:	db 28                	fldt   (%rax)
    6456:	dd 85 50 fe ff ff    	fldl   -0x1b0(%rbp)
    645c:	df f1                	fcomip %st(1),%st
    645e:	dd d8                	fstp   %st(0)
    6460:	0f 82 a8 04 00 00    	jb     690e <_ZL7torqueldddddddjjPPPedddd+0x16ad>
    6466:	8b 85 94 fe ff ff    	mov    -0x16c(%rbp),%eax
    646c:	48 8d 14 c5 00 00 00 	lea    0x0(,%rax,8),%rdx
    6473:	00 
    6474:	48 8b 85 20 fe ff ff 	mov    -0x1e0(%rbp),%rax
    647b:	48 01 d0             	add    %rdx,%rax
    647e:	48 8b 10             	mov    (%rax),%rdx
    6481:	8b 85 9c fe ff ff    	mov    -0x164(%rbp),%eax
    6487:	48 c1 e0 03          	shl    $0x3,%rax
    648b:	48 01 d0             	add    %rdx,%rax
    648e:	48 8b 00             	mov    (%rax),%rax
    6491:	48 83 c0 10          	add    $0x10,%rax
    6495:	dd 85 48 fe ff ff    	fldl   -0x1b8(%rbp)
    649b:	db 28                	fldt   (%rax)
    649d:	df f1                	fcomip %st(1),%st
    649f:	dd d8                	fstp   %st(0)
    64a1:	0f 82 67 04 00 00    	jb     690e <_ZL7torqueldddddddjjPPPedddd+0x16ad>
    64a7:	8b 85 94 fe ff ff    	mov    -0x16c(%rbp),%eax
    64ad:	48 8d 14 c5 00 00 00 	lea    0x0(,%rax,8),%rdx
    64b4:	00 
    64b5:	48 8b 85 20 fe ff ff 	mov    -0x1e0(%rbp),%rax
    64bc:	48 01 d0             	add    %rdx,%rax
    64bf:	48 8b 10             	mov    (%rax),%rdx
    64c2:	8b 85 9c fe ff ff    	mov    -0x164(%rbp),%eax
    64c8:	48 c1 e0 03          	shl    $0x3,%rax
    64cc:	48 01 d0             	add    %rdx,%rax
    64cf:	48 8b 00             	mov    (%rax),%rax
    64d2:	48 83 c0 10          	add    $0x10,%rax
    64d6:	db 28                	fldt   (%rax)
    64d8:	dd 85 40 fe ff ff    	fldl   -0x1c0(%rbp)
    64de:	df f1                	fcomip %st(1),%st
    64e0:	dd d8                	fstp   %st(0)
    64e2:	0f 82 26 04 00 00    	jb     690e <_ZL7torqueldddddddjjPPPedddd+0x16ad>
    64e8:	8b 85 94 fe ff ff    	mov    -0x16c(%rbp),%eax
    64ee:	48 8d 14 c5 00 00 00 	lea    0x0(,%rax,8),%rdx
    64f5:	00 
    64f6:	48 8b 85 20 fe ff ff 	mov    -0x1e0(%rbp),%rax
    64fd:	48 01 d0             	add    %rdx,%rax
    6500:	48 8b 10             	mov    (%rax),%rdx
    6503:	8b 85 9c fe ff ff    	mov    -0x164(%rbp),%eax
    6509:	48 c1 e0 03          	shl    $0x3,%rax
    650d:	48 01 d0             	add    %rdx,%rax
    6510:	48 8b 00             	mov    (%rax),%rax
    6513:	48 83 c0 20          	add    $0x20,%rax
    6517:	dd 85 38 fe ff ff    	fldl   -0x1c8(%rbp)
    651d:	db 28                	fldt   (%rax)
    651f:	df f1                	fcomip %st(1),%st
    6521:	dd d8                	fstp   %st(0)
    6523:	0f 82 e5 03 00 00    	jb     690e <_ZL7torqueldddddddjjPPPedddd+0x16ad>
    6529:	8b 85 94 fe ff ff    	mov    -0x16c(%rbp),%eax
    652f:	48 8d 14 c5 00 00 00 	lea    0x0(,%rax,8),%rdx
    6536:	00 
    6537:	48 8b 85 20 fe ff ff 	mov    -0x1e0(%rbp),%rax
    653e:	48 01 d0             	add    %rdx,%rax
    6541:	48 8b 10             	mov    (%rax),%rdx
    6544:	8b 85 9c fe ff ff    	mov    -0x164(%rbp),%eax
    654a:	48 c1 e0 03          	shl    $0x3,%rax
    654e:	48 01 d0             	add    %rdx,%rax
    6551:	48 8b 00             	mov    (%rax),%rax
    6554:	48 83 c0 20          	add    $0x20,%rax
    6558:	db 28                	fldt   (%rax)
    655a:	dd 85 30 fe ff ff    	fldl   -0x1d0(%rbp)
    6560:	df f1                	fcomip %st(1),%st
    6562:	dd d8                	fstp   %st(0)
    6564:	0f 82 a4 03 00 00    	jb     690e <_ZL7torqueldddddddjjPPPedddd+0x16ad>
    656a:	8b 85 94 fe ff ff    	mov    -0x16c(%rbp),%eax
    6570:	48 8d 14 c5 00 00 00 	lea    0x0(,%rax,8),%rdx
    6577:	00 
    6578:	48 8b 85 20 fe ff ff 	mov    -0x1e0(%rbp),%rax
    657f:	48 01 d0             	add    %rdx,%rax
    6582:	48 8b 10             	mov    (%rax),%rdx
    6585:	8b 85 9c fe ff ff    	mov    -0x164(%rbp),%eax
    658b:	48 c1 e0 03          	shl    $0x3,%rax
    658f:	48 01 d0             	add    %rdx,%rax
    6592:	48 8b 00             	mov    (%rax),%rax
    6595:	48 83 c0 20          	add    $0x20,%rax
    6599:	db 28                	fldt   (%rax)
    659b:	dd 45 20             	fldl   0x20(%rbp)
    659e:	de c1                	faddp  %st,%st(1)
    65a0:	dd 9d 08 fe ff ff    	fstpl  -0x1f8(%rbp)
    65a6:	8b 85 94 fe ff ff    	mov    -0x16c(%rbp),%eax
    65ac:	48 8d 14 c5 00 00 00 	lea    0x0(,%rax,8),%rdx
    65b3:	00 
    65b4:	48 8b 85 20 fe ff ff 	mov    -0x1e0(%rbp),%rax
    65bb:	48 01 d0             	add    %rdx,%rax
    65be:	48 8b 10             	mov    (%rax),%rdx
    65c1:	8b 85 9c fe ff ff    	mov    -0x164(%rbp),%eax
    65c7:	48 c1 e0 03          	shl    $0x3,%rax
    65cb:	48 01 d0             	add    %rdx,%rax
    65ce:	48 8b 00             	mov    (%rax),%rax
    65d1:	48 83 c0 10          	add    $0x10,%rax
    65d5:	db 28                	fldt   (%rax)
    65d7:	dd 45 18             	fldl   0x18(%rbp)
    65da:	de c1                	faddp  %st,%st(1)
    65dc:	dd 9d 00 fe ff ff    	fstpl  -0x200(%rbp)
    65e2:	8b 85 94 fe ff ff    	mov    -0x16c(%rbp),%eax
    65e8:	48 8d 14 c5 00 00 00 	lea    0x0(,%rax,8),%rdx
    65ef:	00 
    65f0:	48 8b 85 20 fe ff ff 	mov    -0x1e0(%rbp),%rax
    65f7:	48 01 d0             	add    %rdx,%rax
    65fa:	48 8b 10             	mov    (%rax),%rdx
    65fd:	8b 85 9c fe ff ff    	mov    -0x164(%rbp),%eax
    6603:	48 c1 e0 03          	shl    $0x3,%rax
    6607:	48 01 d0             	add    %rdx,%rax
    660a:	48 8b 00             	mov    (%rax),%rax
    660d:	db 28                	fldt   (%rax)
    660f:	dd 45 10             	fldl   0x10(%rbp)
    6612:	de c1                	faddp  %st,%st(1)
    6614:	dd 9d f8 fd ff ff    	fstpl  -0x208(%rbp)
    661a:	f2 0f 10 85 f8 fd ff 	movsd  -0x208(%rbp),%xmm0
    6621:	ff 
    6622:	48 8d 85 a0 fe ff ff 	lea    -0x160(%rbp),%rax
    6629:	f2 0f 10 95 08 fe ff 	movsd  -0x1f8(%rbp),%xmm2
    6630:	ff 
    6631:	f2 0f 10 8d 00 fe ff 	movsd  -0x200(%rbp),%xmm1
    6638:	ff 
    6639:	48 89 c7             	mov    %rax,%rdi
    663c:	e8 cf 2c 00 00       	call   9310 <_ZN6vectorC1Eddd>
    6641:	8b 85 94 fe ff ff    	mov    -0x16c(%rbp),%eax
    6647:	48 8d 14 c5 00 00 00 	lea    0x0(,%rax,8),%rdx
    664e:	00 
    664f:	48 8b 85 20 fe ff ff 	mov    -0x1e0(%rbp),%rax
    6656:	48 01 d0             	add    %rdx,%rax
    6659:	48 8b 10             	mov    (%rax),%rdx
    665c:	8b 85 9c fe ff ff    	mov    -0x164(%rbp),%eax
    6662:	48 c1 e0 03          	shl    $0x3,%rax
    6666:	48 01 d0             	add    %rdx,%rax
    6669:	48 8b 00             	mov    (%rax),%rax
    666c:	48 83 c0 20          	add    $0x20,%rax
    6670:	db 28                	fldt   (%rax)
    6672:	dd 9d 08 fe ff ff    	fstpl  -0x1f8(%rbp)
    6678:	8b 85 94 fe ff ff    	mov    -0x16c(%rbp),%eax
    667e:	48 8d 14 c5 00 00 00 	lea    0x0(,%rax,8),%rdx
    6685:	00 
    6686:	48 8b 85 20 fe ff ff 	mov    -0x1e0(%rbp),%rax
    668d:	48 01 d0             	add    %rdx,%rax
    6690:	48 8b 10             	mov    (%rax),%rdx
    6693:	8b 85 9c fe ff ff    	mov    -0x164(%rbp),%eax
    6699:	48 c1 e0 03          	shl    $0x3,%rax
    669d:	48 01 d0             	add    %rdx,%rax
    66a0:	48 8b 00             	mov    (%rax),%rax
    66a3:	48 83 c0 10          	add    $0x10,%rax
    66a7:	db 28                	fldt   (%rax)
    66a9:	dd 9d 00 fe ff ff    	fstpl  -0x200(%rbp)
    66af:	8b 85 94 fe ff ff    	mov    -0x16c(%rbp),%eax
    66b5:	48 8d 14 c5 00 00 00 	lea    0x0(,%rax,8),%rdx
    66bc:	00 
    66bd:	48 8b 85 20 fe ff ff 	mov    -0x1e0(%rbp),%rax
    66c4:	48 01 d0             	add    %rdx,%rax
    66c7:	48 8b 10             	mov    (%rax),%rdx
    66ca:	8b 85 9c fe ff ff    	mov    -0x164(%rbp),%eax
    66d0:	48 c1 e0 03          	shl    $0x3,%rax
    66d4:	48 01 d0             	add    %rdx,%rax
    66d7:	48 8b 00             	mov    (%rax),%rax
    66da:	db 28                	fldt   (%rax)
    66dc:	dd 9d f8 fd ff ff    	fstpl  -0x208(%rbp)
    66e2:	f2 0f 10 85 f8 fd ff 	movsd  -0x208(%rbp),%xmm0
    66e9:	ff 
    66ea:	48 8d 85 c0 fe ff ff 	lea    -0x140(%rbp),%rax
    66f1:	f2 0f 10 95 08 fe ff 	movsd  -0x1f8(%rbp),%xmm2
    66f8:	ff 
    66f9:	f2 0f 10 8d 00 fe ff 	movsd  -0x200(%rbp),%xmm1
    6700:	ff 
    6701:	48 89 c7             	mov    %rax,%rdi
    6704:	e8 07 2c 00 00       	call   9310 <_ZN6vectorC1Eddd>
    6709:	48 8d 85 60 ff ff ff 	lea    -0xa0(%rbp),%rax
    6710:	48 8b 8d 60 fe ff ff 	mov    -0x1a0(%rbp),%rcx
    6717:	48 8d 95 c0 fe ff ff 	lea    -0x140(%rbp),%rdx
    671e:	66 48 0f 6e c1       	movq   %rcx,%xmm0
    6723:	48 89 d6             	mov    %rdx,%rsi
    6726:	48 89 c7             	mov    %rax,%rdi
    6729:	e8 46 2f 00 00       	call   9674 <_ZN6vectordvEd>
    672e:	48 8d 95 60 ff ff ff 	lea    -0xa0(%rbp),%rdx
    6735:	48 8d 85 c0 fe ff ff 	lea    -0x140(%rbp),%rax
    673c:	48 89 d6             	mov    %rdx,%rsi
    673f:	48 89 c7             	mov    %rax,%rdi
    6742:	e8 95 2f 00 00       	call   96dc <_ZN6vectoraSERKS_>
    6747:	8b 85 94 fe ff ff    	mov    -0x16c(%rbp),%eax
    674d:	48 8d 14 c5 00 00 00 	lea    0x0(,%rax,8),%rdx
    6754:	00 
    6755:	48 8b 85 20 fe ff ff 	mov    -0x1e0(%rbp),%rax
    675c:	48 01 d0             	add    %rdx,%rax
    675f:	48 8b 10             	mov    (%rax),%rdx
    6762:	8b 85 9c fe ff ff    	mov    -0x164(%rbp),%eax
    6768:	48 c1 e0 03          	shl    $0x3,%rax
    676c:	48 01 d0             	add    %rdx,%rax
    676f:	48 8b 00             	mov    (%rax),%rax
    6772:	48 83 c0 30          	add    $0x30,%rax
    6776:	db 28                	fldt   (%rax)
    6778:	dd 9d 08 fe ff ff    	fstpl  -0x1f8(%rbp)
    677e:	8b 85 94 fe ff ff    	mov    -0x16c(%rbp),%eax
    6784:	48 8d 14 c5 00 00 00 	lea    0x0(,%rax,8),%rdx
    678b:	00 
    678c:	48 8b 85 20 fe ff ff 	mov    -0x1e0(%rbp),%rax
    6793:	48 01 d0             	add    %rdx,%rax
    6796:	48 8b 10             	mov    (%rax),%rdx
    6799:	8b 85 9c fe ff ff    	mov    -0x164(%rbp),%eax
    679f:	48 c1 e0 03          	shl    $0x3,%rax
    67a3:	48 01 d0             	add    %rdx,%rax
    67a6:	48 8b 00             	mov    (%rax),%rax
    67a9:	48 83 c0 20          	add    $0x20,%rax
    67ad:	db 28                	fldt   (%rax)
    67af:	dd 45 20             	fldl   0x20(%rbp)
    67b2:	de c1                	faddp  %st,%st(1)
    67b4:	dd 9d 00 fe ff ff    	fstpl  -0x200(%rbp)
    67ba:	8b 85 94 fe ff ff    	mov    -0x16c(%rbp),%eax
    67c0:	48 8d 14 c5 00 00 00 	lea    0x0(,%rax,8),%rdx
    67c7:	00 
    67c8:	48 8b 85 20 fe ff ff 	mov    -0x1e0(%rbp),%rax
    67cf:	48 01 d0             	add    %rdx,%rax
    67d2:	48 8b 10             	mov    (%rax),%rdx
    67d5:	8b 85 9c fe ff ff    	mov    -0x164(%rbp),%eax
    67db:	48 c1 e0 03          	shl    $0x3,%rax
    67df:	48 01 d0             	add    %rdx,%rax
    67e2:	48 8b 00             	mov    (%rax),%rax
    67e5:	48 83 c0 10          	add    $0x10,%rax
    67e9:	db 28                	fldt   (%rax)
    67eb:	dd 45 18             	fldl   0x18(%rbp)
    67ee:	de c1                	faddp  %st,%st(1)
    67f0:	dd 9d f8 fd ff ff    	fstpl  -0x208(%rbp)
    67f6:	8b 85 94 fe ff ff    	mov    -0x16c(%rbp),%eax
    67fc:	48 8d 14 c5 00 00 00 	lea    0x0(,%rax,8),%rdx
    6803:	00 
    6804:	48 8b 85 20 fe ff ff 	mov    -0x1e0(%rbp),%rax
    680b:	48 01 d0             	add    %rdx,%rax
    680e:	48 8b 10             	mov    (%rax),%rdx
    6811:	8b 85 9c fe ff ff    	mov    -0x164(%rbp),%eax
    6817:	48 c1 e0 03          	shl    $0x3,%rax
    681b:	48 01 d0             	add    %rdx,%rax
    681e:	48 8b 00             	mov    (%rax),%rax
    6821:	db 28                	fldt   (%rax)
    6823:	dd 45 10             	fldl   0x10(%rbp)
    6826:	de c1                	faddp  %st,%st(1)
    6828:	dd 9d f0 fd ff ff    	fstpl  -0x210(%rbp)
    682e:	48 8d 85 60 ff ff ff 	lea    -0xa0(%rbp),%rax
    6835:	48 8b 95 18 fe ff ff 	mov    -0x1e8(%rbp),%rdx
    683c:	f2 0f 10 9d 00 fe ff 	movsd  -0x200(%rbp),%xmm3
    6843:	ff 
    6844:	f2 0f 10 95 f8 fd ff 	movsd  -0x208(%rbp),%xmm2
    684b:	ff 
    684c:	f2 0f 10 8d f0 fd ff 	movsd  -0x210(%rbp),%xmm1
    6853:	ff 
    6854:	66 48 0f 6e c2       	movq   %rdx,%xmm0
    6859:	48 89 c7             	mov    %rax,%rdi
    685c:	e8 21 5a 00 00       	call   c282 <_Z6stressdddd>
    6861:	48 8d 85 e0 fe ff ff 	lea    -0x120(%rbp),%rax
    6868:	48 8d 95 60 ff ff ff 	lea    -0xa0(%rbp),%rdx
    686f:	48 83 ec 08          	sub    $0x8,%rsp
    6873:	ff b5 d0 fe ff ff    	push   -0x130(%rbp)
    6879:	ff b5 c8 fe ff ff    	push   -0x138(%rbp)
    687f:	ff b5 c0 fe ff ff    	push   -0x140(%rbp)
    6885:	48 89 d6             	mov    %rdx,%rsi
    6888:	48 89 c7             	mov    %rax,%rdi
    688b:	e8 a2 33 00 00       	call   9c32 <_ZN6tensormlE6vector>
    6890:	48 83 c4 20          	add    $0x20,%rsp
    6894:	48 8d 85 00 ff ff ff 	lea    -0x100(%rbp),%rax
    689b:	48 8d 95 e0 fe ff ff 	lea    -0x120(%rbp),%rdx
    68a2:	48 8d 8d a0 fe ff ff 	lea    -0x160(%rbp),%rcx
    68a9:	48 89 ce             	mov    %rcx,%rsi
    68ac:	48 89 c7             	mov    %rax,%rdi
    68af:	e8 76 2b 00 00       	call   942a <_ZN6vectorrmERKS_>
    68b4:	48 8d 85 20 ff ff ff 	lea    -0xe0(%rbp),%rax
    68bb:	48 8d 95 00 ff ff ff 	lea    -0x100(%rbp),%rdx
    68c2:	f2 0f 10 85 08 fe ff 	movsd  -0x1f8(%rbp),%xmm0
    68c9:	ff 
    68ca:	48 89 d6             	mov    %rdx,%rsi
    68cd:	48 89 c7             	mov    %rax,%rdi
    68d0:	e8 37 2d 00 00       	call   960c <_ZN6vectormlEd>
    68d5:	48 8d 85 40 ff ff ff 	lea    -0xc0(%rbp),%rax
    68dc:	48 8d 95 20 ff ff ff 	lea    -0xe0(%rbp),%rdx
    68e3:	48 8b 8d 68 fe ff ff 	mov    -0x198(%rbp),%rcx
    68ea:	48 89 ce             	mov    %rcx,%rsi
    68ed:	48 89 c7             	mov    %rax,%rdi
    68f0:	e8 13 2c 00 00       	call   9508 <_ZN6vectorplERKS_>
    68f5:	48 8d 95 40 ff ff ff 	lea    -0xc0(%rbp),%rdx
    68fc:	48 8b 85 68 fe ff ff 	mov    -0x198(%rbp),%rax
    6903:	48 89 d6             	mov    %rdx,%rsi
    6906:	48 89 c7             	mov    %rax,%rdi
    6909:	e8 ce 2d 00 00       	call   96dc <_ZN6vectoraSERKS_>
    690e:	83 85 9c fe ff ff 01 	addl   $0x1,-0x164(%rbp)
    6915:	8b 85 9c fe ff ff    	mov    -0x164(%rbp),%eax
    691b:	3b 85 2c fe ff ff    	cmp    -0x1d4(%rbp),%eax
    6921:	0f 82 c5 fa ff ff    	jb     63ec <_ZL7torqueldddddddjjPPPedddd+0x118b>
    6927:	83 85 94 fe ff ff 01 	addl   $0x1,-0x16c(%rbp)
    692e:	8b 85 94 fe ff ff    	mov    -0x16c(%rbp),%eax
    6934:	3b 85 7c fe ff ff    	cmp    -0x184(%rbp),%eax
    693a:	0f 82 51 f5 ff ff    	jb     5e91 <_ZL7torqueldddddddjjPPPedddd+0xc30>
    6940:	eb 03                	jmp    6945 <_ZL7torqueldddddddjjPPPedddd+0x16e4>
    6942:	eb 01                	jmp    6945 <_ZL7torqueldddddddjjPPPedddd+0x16e4>
    6944:	90                   	nop
    6945:	48 8b 45 f8          	mov    -0x8(%rbp),%rax
    6949:	64 48 2b 04 25 28 00 	sub    %fs:0x28,%rax
    6950:	00 00 
    6952:	74 05                	je     6959 <_ZL7torqueldddddddjjPPPedddd+0x16f8>
    6954:	e8 87 bb ff ff       	call   24e0 <__stack_chk_fail@plt>
    6959:	48 8b 85 68 fe ff ff 	mov    -0x198(%rbp),%rax
    6960:	c9                   	leave  
    6961:	c3                   	ret    

0000000000006962 <_Z9checkcubeddddd>:
    6962:	f3 0f 1e fa          	endbr64 
    6966:	55                   	push   %rbp
    6967:	48 89 e5             	mov    %rsp,%rbp
    696a:	48 83 ec 50          	sub    $0x50,%rsp
    696e:	f2 0f 11 45 d8       	movsd  %xmm0,-0x28(%rbp)
    6973:	f2 0f 11 4d d0       	movsd  %xmm1,-0x30(%rbp)
    6978:	f2 0f 11 55 c8       	movsd  %xmm2,-0x38(%rbp)
    697d:	f2 0f 11 5d c0       	movsd  %xmm3,-0x40(%rbp)
    6982:	f2 0f 11 65 b8       	movsd  %xmm4,-0x48(%rbp)
    6987:	64 48 8b 04 25 28 00 	mov    %fs:0x28,%rax
    698e:	00 00 
    6990:	48 89 45 f8          	mov    %rax,-0x8(%rbp)
    6994:	31 c0                	xor    %eax,%eax
    6996:	f2 0f 10 4d b8       	movsd  -0x48(%rbp),%xmm1
    699b:	f2 0f 10 45 c0       	movsd  -0x40(%rbp),%xmm0
    69a0:	48 8b 55 c8          	mov    -0x38(%rbp),%rdx
    69a4:	48 8d 45 e0          	lea    -0x20(%rbp),%rax
    69a8:	66 0f 28 d1          	movapd %xmm1,%xmm2
    69ac:	66 0f 28 c8          	movapd %xmm0,%xmm1
    69b0:	66 48 0f 6e c2       	movq   %rdx,%xmm0
    69b5:	48 89 c7             	mov    %rax,%rdi
    69b8:	e8 53 29 00 00       	call   9310 <_ZN6vectorC1Eddd>
    69bd:	48 8d 45 e0          	lea    -0x20(%rbp),%rax
    69c1:	48 89 c7             	mov    %rax,%rdi
    69c4:	e8 67 2d 00 00       	call   9730 <_ZN6vector6lengthEv>
    69c9:	66 48 0f 7e c0       	movq   %xmm0,%rax
    69ce:	66 48 0f 6e c8       	movq   %rax,%xmm1
    69d3:	f2 0f 58 4d d0       	addsd  -0x30(%rbp),%xmm1
    69d8:	f2 0f 10 45 d8       	movsd  -0x28(%rbp),%xmm0
    69dd:	66 0f 2f c1          	comisd %xmm1,%xmm0
    69e1:	77 22                	ja     6a05 <_Z9checkcubeddddd+0xa3>
    69e3:	48 8d 45 e0          	lea    -0x20(%rbp),%rax
    69e7:	48 89 c7             	mov    %rax,%rdi
    69ea:	e8 41 2d 00 00       	call   9730 <_ZN6vector6lengthEv>
    69ef:	66 48 0f 7e c0       	movq   %xmm0,%rax
    69f4:	66 48 0f 6e c0       	movq   %rax,%xmm0
    69f9:	f2 0f 5c 45 d0       	subsd  -0x30(%rbp),%xmm0
    69fe:	66 0f 2f 45 d8       	comisd -0x28(%rbp),%xmm0
    6a03:	76 07                	jbe    6a0c <_Z9checkcubeddddd+0xaa>
    6a05:	b8 01 00 00 00       	mov    $0x1,%eax
    6a0a:	eb 05                	jmp    6a11 <_Z9checkcubeddddd+0xaf>
    6a0c:	b8 00 00 00 00       	mov    $0x0,%eax
    6a11:	84 c0                	test   %al,%al
    6a13:	74 07                	je     6a1c <_Z9checkcubeddddd+0xba>
    6a15:	b8 ff ff ff ff       	mov    $0xffffffff,%eax
    6a1a:	eb 05                	jmp    6a21 <_Z9checkcubeddddd+0xbf>
    6a1c:	b8 00 00 00 00       	mov    $0x0,%eax
    6a21:	48 8b 55 f8          	mov    -0x8(%rbp),%rdx
    6a25:	64 48 2b 14 25 28 00 	sub    %fs:0x28,%rdx
    6a2c:	00 00 
    6a2e:	74 05                	je     6a35 <_Z9checkcubeddddd+0xd3>
    6a30:	e8 ab ba ff ff       	call   24e0 <__stack_chk_fail@plt>
    6a35:	c9                   	leave  
    6a36:	c3                   	ret    

0000000000006a37 <_Z5gradvdddidPPPPe>:
    6a37:	f3 0f 1e fa          	endbr64 
    6a3b:	55                   	push   %rbp
    6a3c:	48 89 e5             	mov    %rsp,%rbp
    6a3f:	41 54                	push   %r12
    6a41:	53                   	push   %rbx
    6a42:	48 81 ec a0 00 00 00 	sub    $0xa0,%rsp
    6a49:	48 89 7d 88          	mov    %rdi,-0x78(%rbp)
    6a4d:	f2 0f 11 45 80       	movsd  %xmm0,-0x80(%rbp)
    6a52:	f2 0f 11 8d 78 ff ff 	movsd  %xmm1,-0x88(%rbp)
    6a59:	ff 
    6a5a:	f2 0f 11 95 70 ff ff 	movsd  %xmm2,-0x90(%rbp)
    6a61:	ff 
    6a62:	89 b5 6c ff ff ff    	mov    %esi,-0x94(%rbp)
    6a68:	f2 0f 11 9d 60 ff ff 	movsd  %xmm3,-0xa0(%rbp)
    6a6f:	ff 
    6a70:	48 89 95 58 ff ff ff 	mov    %rdx,-0xa8(%rbp)
    6a77:	64 48 8b 04 25 28 00 	mov    %fs:0x28,%rax
    6a7e:	00 00 
    6a80:	48 89 45 e8          	mov    %rax,-0x18(%rbp)
    6a84:	31 c0                	xor    %eax,%eax
    6a86:	f2 0f 10 85 70 ff ff 	movsd  -0x90(%rbp),%xmm0
    6a8d:	ff 
    6a8e:	f2 0f 2c c8          	cvttsd2si %xmm0,%ecx
    6a92:	f2 0f 10 85 78 ff ff 	movsd  -0x88(%rbp),%xmm0
    6a99:	ff 
    6a9a:	f2 0f 2c d0          	cvttsd2si %xmm0,%edx
    6a9e:	f2 0f 10 45 80       	movsd  -0x80(%rbp),%xmm0
    6aa3:	f2 0f 2c f0          	cvttsd2si %xmm0,%esi
    6aa7:	48 8b bd 60 ff ff ff 	mov    -0xa0(%rbp),%rdi
    6aae:	44 8b 85 6c ff ff ff 	mov    -0x94(%rbp),%r8d
    6ab5:	48 8b 85 58 ff ff ff 	mov    -0xa8(%rbp),%rax
    6abc:	48 83 ec 08          	sub    $0x8,%rsp
    6ac0:	6a 01                	push   $0x1
    6ac2:	41 b9 03 00 00 00    	mov    $0x3,%r9d
    6ac8:	66 48 0f 6e c7       	movq   %rdi,%xmm0
    6acd:	48 89 c7             	mov    %rax,%rdi
    6ad0:	e8 4f 5d 00 00       	call   c824 <_Z7partdifPPPPeiiiidii>
    6ad5:	48 83 c4 10          	add    $0x10,%rsp
    6ad9:	66 49 0f 7e c4       	movq   %xmm0,%r12
    6ade:	f2 0f 10 85 70 ff ff 	movsd  -0x90(%rbp),%xmm0
    6ae5:	ff 
    6ae6:	f2 0f 2c c8          	cvttsd2si %xmm0,%ecx
    6aea:	f2 0f 10 85 78 ff ff 	movsd  -0x88(%rbp),%xmm0
    6af1:	ff 
    6af2:	f2 0f 2c d0          	cvttsd2si %xmm0,%edx
    6af6:	f2 0f 10 45 80       	movsd  -0x80(%rbp),%xmm0
    6afb:	f2 0f 2c f0          	cvttsd2si %xmm0,%esi
    6aff:	48 8b bd 60 ff ff ff 	mov    -0xa0(%rbp),%rdi
    6b06:	44 8b 85 6c ff ff ff 	mov    -0x94(%rbp),%r8d
    6b0d:	48 8b 85 58 ff ff ff 	mov    -0xa8(%rbp),%rax
    6b14:	48 83 ec 08          	sub    $0x8,%rsp
    6b18:	6a 01                	push   $0x1
    6b1a:	41 b9 02 00 00 00    	mov    $0x2,%r9d
    6b20:	66 48 0f 6e c7       	movq   %rdi,%xmm0
    6b25:	48 89 c7             	mov    %rax,%rdi
    6b28:	e8 f7 5c 00 00       	call   c824 <_Z7partdifPPPPeiiiidii>
    6b2d:	48 83 c4 10          	add    $0x10,%rsp
    6b31:	66 48 0f 7e c3       	movq   %xmm0,%rbx
    6b36:	f2 0f 10 85 70 ff ff 	movsd  -0x90(%rbp),%xmm0
    6b3d:	ff 
    6b3e:	f2 0f 2c c8          	cvttsd2si %xmm0,%ecx
    6b42:	f2 0f 10 85 78 ff ff 	movsd  -0x88(%rbp),%xmm0
    6b49:	ff 
    6b4a:	f2 0f 2c d0          	cvttsd2si %xmm0,%edx
    6b4e:	f2 0f 10 45 80       	movsd  -0x80(%rbp),%xmm0
    6b53:	f2 0f 2c f0          	cvttsd2si %xmm0,%esi
    6b57:	48 8b bd 60 ff ff ff 	mov    -0xa0(%rbp),%rdi
    6b5e:	44 8b 85 6c ff ff ff 	mov    -0x94(%rbp),%r8d
    6b65:	48 8b 85 58 ff ff ff 	mov    -0xa8(%rbp),%rax
    6b6c:	48 83 ec 08          	sub    $0x8,%rsp
    6b70:	6a 01                	push   $0x1
    6b72:	41 b9 01 00 00 00    	mov    $0x1,%r9d
    6b78:	66 48 0f 6e c7       	movq   %rdi,%xmm0
    6b7d:	48 89 c7             	mov    %rax,%rdi
    6b80:	e8 9f 5c 00 00       	call   c824 <_Z7partdifPPPPeiiiidii>
    6b85:	48 83 c4 10          	add    $0x10,%rsp
    6b89:	66 48 0f 7e c0       	movq   %xmm0,%rax
    6b8e:	48 8d 55 90          	lea    -0x70(%rbp),%rdx
    6b92:	66 49 0f 6e d4       	movq   %r12,%xmm2
    6b97:	66 48 0f 6e cb       	movq   %rbx,%xmm1
    6b9c:	66 48 0f 6e c0       	movq   %rax,%xmm0
    6ba1:	48 89 d7             	mov    %rdx,%rdi
    6ba4:	e8 67 27 00 00       	call   9310 <_ZN6vectorC1Eddd>
    6ba9:	f2 0f 10 85 70 ff ff 	movsd  -0x90(%rbp),%xmm0
    6bb0:	ff 
    6bb1:	f2 0f 2c c8          	cvttsd2si %xmm0,%ecx
    6bb5:	f2 0f 10 85 78 ff ff 	movsd  -0x88(%rbp),%xmm0
    6bbc:	ff 
    6bbd:	f2 0f 2c d0          	cvttsd2si %xmm0,%edx
    6bc1:	f2 0f 10 45 80       	movsd  -0x80(%rbp),%xmm0
    6bc6:	f2 0f 2c f0          	cvttsd2si %xmm0,%esi
    6bca:	48 8b bd 60 ff ff ff 	mov    -0xa0(%rbp),%rdi
    6bd1:	44 8b 85 6c ff ff ff 	mov    -0x94(%rbp),%r8d
    6bd8:	48 8b 85 58 ff ff ff 	mov    -0xa8(%rbp),%rax
    6bdf:	48 83 ec 08          	sub    $0x8,%rsp
    6be3:	6a 02                	push   $0x2
    6be5:	41 b9 03 00 00 00    	mov    $0x3,%r9d
    6beb:	66 48 0f 6e c7       	movq   %rdi,%xmm0
    6bf0:	48 89 c7             	mov    %rax,%rdi
    6bf3:	e8 2c 5c 00 00       	call   c824 <_Z7partdifPPPPeiiiidii>
    6bf8:	48 83 c4 10          	add    $0x10,%rsp
    6bfc:	66 49 0f 7e c4       	movq   %xmm0,%r12
    6c01:	f2 0f 10 85 70 ff ff 	movsd  -0x90(%rbp),%xmm0
    6c08:	ff 
    6c09:	f2 0f 2c c8          	cvttsd2si %xmm0,%ecx
    6c0d:	f2 0f 10 85 78 ff ff 	movsd  -0x88(%rbp),%xmm0
    6c14:	ff 
    6c15:	f2 0f 2c d0          	cvttsd2si %xmm0,%edx
    6c19:	f2 0f 10 45 80       	movsd  -0x80(%rbp),%xmm0
    6c1e:	f2 0f 2c f0          	cvttsd2si %xmm0,%esi
    6c22:	48 8b bd 60 ff ff ff 	mov    -0xa0(%rbp),%rdi
    6c29:	44 8b 85 6c ff ff ff 	mov    -0x94(%rbp),%r8d
    6c30:	48 8b 85 58 ff ff ff 	mov    -0xa8(%rbp),%rax
    6c37:	48 83 ec 08          	sub    $0x8,%rsp
    6c3b:	6a 02                	push   $0x2
    6c3d:	41 b9 02 00 00 00    	mov    $0x2,%r9d
    6c43:	66 48 0f 6e c7       	movq   %rdi,%xmm0
    6c48:	48 89 c7             	mov    %rax,%rdi
    6c4b:	e8 d4 5b 00 00       	call   c824 <_Z7partdifPPPPeiiiidii>
    6c50:	48 83 c4 10          	add    $0x10,%rsp
    6c54:	66 48 0f 7e c3       	movq   %xmm0,%rbx
    6c59:	f2 0f 10 85 70 ff ff 	movsd  -0x90(%rbp),%xmm0
    6c60:	ff 
    6c61:	f2 0f 2c c8          	cvttsd2si %xmm0,%ecx
    6c65:	f2 0f 10 85 78 ff ff 	movsd  -0x88(%rbp),%xmm0
    6c6c:	ff 
    6c6d:	f2 0f 2c d0          	cvttsd2si %xmm0,%edx
    6c71:	f2 0f 10 45 80       	movsd  -0x80(%rbp),%xmm0
    6c76:	f2 0f 2c f0          	cvttsd2si %xmm0,%esi
    6c7a:	48 8b bd 60 ff ff ff 	mov    -0xa0(%rbp),%rdi
    6c81:	44 8b 85 6c ff ff ff 	mov    -0x94(%rbp),%r8d
    6c88:	48 8b 85 58 ff ff ff 	mov    -0xa8(%rbp),%rax
    6c8f:	48 83 ec 08          	sub    $0x8,%rsp
    6c93:	6a 02                	push   $0x2
    6c95:	41 b9 01 00 00 00    	mov    $0x1,%r9d
    6c9b:	66 48 0f 6e c7       	movq   %rdi,%xmm0
    6ca0:	48 89 c7             	mov    %rax,%rdi
    6ca3:	e8 7c 5b 00 00       	call   c824 <_Z7partdifPPPPeiiiidii>
    6ca8:	48 83 c4 10          	add    $0x10,%rsp
    6cac:	66 48 0f 7e c0       	movq   %xmm0,%rax
    6cb1:	48 8d 55 b0          	lea    -0x50(%rbp),%rdx
    6cb5:	66 49 0f 6e d4       	movq   %r12,%xmm2
    6cba:	66 48 0f 6e cb       	movq   %rbx,%xmm1
    6cbf:	66 48 0f 6e c0       	movq   %rax,%xmm0
    6cc4:	48 89 d7             	mov    %rdx,%rdi
    6cc7:	e8 44 26 00 00       	call   9310 <_ZN6vectorC1Eddd>
    6ccc:	f2 0f 10 85 70 ff ff 	movsd  -0x90(%rbp),%xmm0
    6cd3:	ff 
    6cd4:	f2 0f 2c c8          	cvttsd2si %xmm0,%ecx
    6cd8:	f2 0f 10 85 78 ff ff 	movsd  -0x88(%rbp),%xmm0
    6cdf:	ff 
    6ce0:	f2 0f 2c d0          	cvttsd2si %xmm0,%edx
    6ce4:	f2 0f 10 45 80       	movsd  -0x80(%rbp),%xmm0
    6ce9:	f2 0f 2c f0          	cvttsd2si %xmm0,%esi
    6ced:	48 8b bd 60 ff ff ff 	mov    -0xa0(%rbp),%rdi
    6cf4:	44 8b 85 6c ff ff ff 	mov    -0x94(%rbp),%r8d
    6cfb:	48 8b 85 58 ff ff ff 	mov    -0xa8(%rbp),%rax
    6d02:	48 83 ec 08          	sub    $0x8,%rsp
    6d06:	6a 03                	push   $0x3
    6d08:	41 b9 03 00 00 00    	mov    $0x3,%r9d
    6d0e:	66 48 0f 6e c7       	movq   %rdi,%xmm0
    6d13:	48 89 c7             	mov    %rax,%rdi
    6d16:	e8 09 5b 00 00       	call   c824 <_Z7partdifPPPPeiiiidii>
    6d1b:	48 83 c4 10          	add    $0x10,%rsp
    6d1f:	66 49 0f 7e c4       	movq   %xmm0,%r12
    6d24:	f2 0f 10 85 70 ff ff 	movsd  -0x90(%rbp),%xmm0
    6d2b:	ff 
    6d2c:	f2 0f 2c c8          	cvttsd2si %xmm0,%ecx
    6d30:	f2 0f 10 85 78 ff ff 	movsd  -0x88(%rbp),%xmm0
    6d37:	ff 
    6d38:	f2 0f 2c d0          	cvttsd2si %xmm0,%edx
    6d3c:	f2 0f 10 45 80       	movsd  -0x80(%rbp),%xmm0
    6d41:	f2 0f 2c f0          	cvttsd2si %xmm0,%esi
    6d45:	48 8b bd 60 ff ff ff 	mov    -0xa0(%rbp),%rdi
    6d4c:	44 8b 85 6c ff ff ff 	mov    -0x94(%rbp),%r8d
    6d53:	48 8b 85 58 ff ff ff 	mov    -0xa8(%rbp),%rax
    6d5a:	48 83 ec 08          	sub    $0x8,%rsp
    6d5e:	6a 03                	push   $0x3
    6d60:	41 b9 02 00 00 00    	mov    $0x2,%r9d
    6d66:	66 48 0f 6e c7       	movq   %rdi,%xmm0
    6d6b:	48 89 c7             	mov    %rax,%rdi
    6d6e:	e8 b1 5a 00 00       	call   c824 <_Z7partdifPPPPeiiiidii>
    6d73:	48 83 c4 10          	add    $0x10,%rsp
    6d77:	66 48 0f 7e c3       	movq   %xmm0,%rbx
    6d7c:	f2 0f 10 85 70 ff ff 	movsd  -0x90(%rbp),%xmm0
    6d83:	ff 
    6d84:	f2 0f 2c c8          	cvttsd2si %xmm0,%ecx
    6d88:	f2 0f 10 85 78 ff ff 	movsd  -0x88(%rbp),%xmm0
    6d8f:	ff 
    6d90:	f2 0f 2c d0          	cvttsd2si %xmm0,%edx
    6d94:	f2 0f 10 45 80       	movsd  -0x80(%rbp),%xmm0
    6d99:	f2 0f 2c f0          	cvttsd2si %xmm0,%esi
    6d9d:	48 8b bd 60 ff ff ff 	mov    -0xa0(%rbp),%rdi
    6da4:	44 8b 85 6c ff ff ff 	mov    -0x94(%rbp),%r8d
    6dab:	48 8b 85 58 ff ff ff 	mov    -0xa8(%rbp),%rax
    6db2:	48 83 ec 08          	sub    $0x8,%rsp
    6db6:	6a 03                	push   $0x3
    6db8:	41 b9 01 00 00 00    	mov    $0x1,%r9d
    6dbe:	66 48 0f 6e c7       	movq   %rdi,%xmm0
    6dc3:	48 89 c7             	mov    %rax,%rdi
    6dc6:	e8 59 5a 00 00       	call   c824 <_Z7partdifPPPPeiiiidii>
    6dcb:	48 83 c4 10          	add    $0x10,%rsp
    6dcf:	66 48 0f 7e c0       	movq   %xmm0,%rax
    6dd4:	48 8d 55 d0          	lea    -0x30(%rbp),%rdx
    6dd8:	66 49 0f 6e d4       	movq   %r12,%xmm2
    6ddd:	66 48 0f 6e cb       	movq   %rbx,%xmm1
    6de2:	66 48 0f 6e c0       	movq   %rax,%xmm0
    6de7:	48 89 d7             	mov    %rdx,%rdi
    6dea:	e8 21 25 00 00       	call   9310 <_ZN6vectorC1Eddd>
    6def:	48 8b 45 88          	mov    -0x78(%rbp),%rax
    6df3:	48 83 ec 08          	sub    $0x8,%rsp
    6df7:	ff 75 e0             	push   -0x20(%rbp)
    6dfa:	ff 75 d8             	push   -0x28(%rbp)
    6dfd:	ff 75 d0             	push   -0x30(%rbp)
    6e00:	ff 75 c0             	push   -0x40(%rbp)
    6e03:	ff 75 b8             	push   -0x48(%rbp)
    6e06:	ff 75 b0             	push   -0x50(%rbp)
    6e09:	ff 75 a0             	push   -0x60(%rbp)
    6e0c:	ff 75 98             	push   -0x68(%rbp)
    6e0f:	ff 75 90             	push   -0x70(%rbp)
    6e12:	48 89 c7             	mov    %rax,%rdi
    6e15:	e8 8a 29 00 00       	call   97a4 <_ZN6tensorC1E6vectorS0_S0_>
    6e1a:	48 83 c4 50          	add    $0x50,%rsp
    6e1e:	90                   	nop
    6e1f:	48 8b 45 e8          	mov    -0x18(%rbp),%rax
    6e23:	64 48 2b 04 25 28 00 	sub    %fs:0x28,%rax
    6e2a:	00 00 
    6e2c:	74 05                	je     6e33 <_Z5gradvdddidPPPPe+0x3fc>
    6e2e:	e8 ad b6 ff ff       	call   24e0 <__stack_chk_fail@plt>
    6e33:	48 8b 45 88          	mov    -0x78(%rbp),%rax
    6e37:	48 8d 65 f0          	lea    -0x10(%rbp),%rsp
    6e3b:	5b                   	pop    %rbx
    6e3c:	41 5c                	pop    %r12
    6e3e:	5d                   	pop    %rbp
    6e3f:	c3                   	ret    

0000000000006e40 <_Z5forcedddjjeeidPPeRKSt6vectorIiSaIiEEPS0_>:
    6e40:	f3 0f 1e fa          	endbr64 
    6e44:	55                   	push   %rbp
    6e45:	48 89 e5             	mov    %rsp,%rbp
    6e48:	48 81 ec 20 01 00 00 	sub    $0x120,%rsp
    6e4f:	48 89 bd 38 ff ff ff 	mov    %rdi,-0xc8(%rbp)
    6e56:	f2 0f 11 85 30 ff ff 	movsd  %xmm0,-0xd0(%rbp)
    6e5d:	ff 
    6e5e:	f2 0f 11 8d 28 ff ff 	movsd  %xmm1,-0xd8(%rbp)
    6e65:	ff 
    6e66:	f2 0f 11 95 20 ff ff 	movsd  %xmm2,-0xe0(%rbp)
    6e6d:	ff 
    6e6e:	89 b5 1c ff ff ff    	mov    %esi,-0xe4(%rbp)
    6e74:	89 95 18 ff ff ff    	mov    %edx,-0xe8(%rbp)
    6e7a:	89 8d 14 ff ff ff    	mov    %ecx,-0xec(%rbp)
    6e80:	f2 0f 11 9d 08 ff ff 	movsd  %xmm3,-0xf8(%rbp)
    6e87:	ff 
    6e88:	4c 89 85 00 ff ff ff 	mov    %r8,-0x100(%rbp)
    6e8f:	4c 89 8d f8 fe ff ff 	mov    %r9,-0x108(%rbp)
    6e96:	48 8b 45 30          	mov    0x30(%rbp),%rax
    6e9a:	48 89 85 f0 fe ff ff 	mov    %rax,-0x110(%rbp)
    6ea1:	64 48 8b 04 25 28 00 	mov    %fs:0x28,%rax
    6ea8:	00 00 
    6eaa:	48 89 45 f8          	mov    %rax,-0x8(%rbp)
    6eae:	31 c0                	xor    %eax,%eax
    6eb0:	db 85 14 ff ff ff    	fildl  -0xec(%rbp)
    6eb6:	db 6d 20             	fldt   0x20(%rbp)
    6eb9:	de f1                	fdivp  %st,%st(1)
    6ebb:	db 7d a0             	fstpt  -0x60(%rbp)
    6ebe:	db 6d a0             	fldt   -0x60(%rbp)
    6ec1:	db 2d a9 85 00 00    	fldt   0x85a9(%rip)        # f470 <_ZN6__pstl9execution2v1L5unseqE+0x45d>
    6ec7:	de f9                	fdivrp %st,%st(1)
    6ec9:	db 7d b0             	fstpt  -0x50(%rbp)
    6ecc:	48 8b 85 38 ff ff ff 	mov    -0xc8(%rbp),%rax
    6ed3:	66 0f ef d2          	pxor   %xmm2,%xmm2
    6ed7:	66 0f ef c9          	pxor   %xmm1,%xmm1
    6edb:	48 8b 15 0e 85 00 00 	mov    0x850e(%rip),%rdx        # f3f0 <_ZN6__pstl9execution2v1L5unseqE+0x3dd>
    6ee2:	66 48 0f 6e c2       	movq   %rdx,%xmm0
    6ee7:	48 89 c7             	mov    %rax,%rdi
    6eea:	e8 21 24 00 00       	call   9310 <_ZN6vectorC1Eddd>
    6eef:	c7 85 4c ff ff ff 00 	movl   $0x0,-0xb4(%rbp)
    6ef6:	00 00 00 
    6ef9:	48 83 bd f0 fe ff ff 	cmpq   $0x0,-0x110(%rbp)
    6f00:	00 
    6f01:	75 28                	jne    6f2b <_Z5forcedddjjeeidPPeRKSt6vectorIiSaIiEEPS0_+0xeb>
    6f03:	48 8d 05 16 81 00 00 	lea    0x8116(%rip),%rax        # f020 <_ZN6__pstl9execution2v1L5unseqE+0xd>
    6f0a:	48 89 c1             	mov    %rax,%rcx
    6f0d:	ba 6a 01 00 00       	mov    $0x16a,%edx
    6f12:	48 8d 05 a7 81 00 00 	lea    0x81a7(%rip),%rax        # f0c0 <_ZN6__pstl9execution2v1L5unseqE+0xad>
    6f19:	48 89 c6             	mov    %rax,%rsi
    6f1c:	48 8d 05 aa 81 00 00 	lea    0x81aa(%rip),%rax        # f0cd <_ZN6__pstl9execution2v1L5unseqE+0xba>
    6f23:	48 89 c7             	mov    %rax,%rdi
    6f26:	e8 e5 b4 ff ff       	call   2410 <__assert_fail@plt>
    6f2b:	48 8b 85 f8 fe ff ff 	mov    -0x108(%rbp),%rax
    6f32:	48 89 85 60 ff ff ff 	mov    %rax,-0xa0(%rbp)
    6f39:	48 8b 85 60 ff ff ff 	mov    -0xa0(%rbp),%rax
    6f40:	48 89 c7             	mov    %rax,%rdi
    6f43:	e8 f6 2f 00 00       	call   9f3e <_ZNKSt6vectorIiSaIiEE5beginEv>
    6f48:	48 89 85 50 ff ff ff 	mov    %rax,-0xb0(%rbp)
    6f4f:	48 8b 85 60 ff ff ff 	mov    -0xa0(%rbp),%rax
    6f56:	48 89 c7             	mov    %rax,%rdi
    6f59:	e8 2c 30 00 00       	call   9f8a <_ZNKSt6vectorIiSaIiEE3endEv>
    6f5e:	48 89 85 58 ff ff ff 	mov    %rax,-0xa8(%rbp)
    6f65:	e9 f9 01 00 00       	jmp    7163 <_Z5forcedddjjeeidPPeRKSt6vectorIiSaIiEEPS0_+0x323>
    6f6a:	48 8d 85 50 ff ff ff 	lea    -0xb0(%rbp),%rax
    6f71:	48 89 c7             	mov    %rax,%rdi
    6f74:	e8 c5 30 00 00       	call   a03e <_ZNK9__gnu_cxx17__normal_iteratorIPKiSt6vectorIiSaIiEEEdeEv>
    6f79:	48 89 85 68 ff ff ff 	mov    %rax,-0x98(%rbp)
    6f80:	48 8b 85 68 ff ff ff 	mov    -0x98(%rbp),%rax
    6f87:	8b 00                	mov    (%rax),%eax
    6f89:	48 98                	cltq   
    6f8b:	48 8d 14 c5 00 00 00 	lea    0x0(,%rax,8),%rdx
    6f92:	00 
    6f93:	48 8b 85 00 ff ff ff 	mov    -0x100(%rbp),%rax
    6f9a:	48 01 d0             	add    %rdx,%rax
    6f9d:	48 8b 00             	mov    (%rax),%rax
    6fa0:	db 28                	fldt   (%rax)
    6fa2:	db 6d b0             	fldt   -0x50(%rbp)
    6fa5:	de e9                	fsubrp %st,%st(1)
    6fa7:	dd 9d 70 ff ff ff    	fstpl  -0x90(%rbp)
    6fad:	48 8b 85 68 ff ff ff 	mov    -0x98(%rbp),%rax
    6fb4:	8b 00                	mov    (%rax),%eax
    6fb6:	48 98                	cltq   
    6fb8:	48 8d 14 c5 00 00 00 	lea    0x0(,%rax,8),%rdx
    6fbf:	00 
    6fc0:	48 8b 85 00 ff ff ff 	mov    -0x100(%rbp),%rax
    6fc7:	48 01 d0             	add    %rdx,%rax
    6fca:	48 8b 00             	mov    (%rax),%rax
    6fcd:	db 28                	fldt   (%rax)
    6fcf:	db 6d b0             	fldt   -0x50(%rbp)
    6fd2:	de c1                	faddp  %st,%st(1)
    6fd4:	dd 9d 78 ff ff ff    	fstpl  -0x88(%rbp)
    6fda:	48 8b 85 68 ff ff ff 	mov    -0x98(%rbp),%rax
    6fe1:	8b 00                	mov    (%rax),%eax
    6fe3:	48 98                	cltq   
    6fe5:	48 8d 14 c5 00 00 00 	lea    0x0(,%rax,8),%rdx
    6fec:	00 
    6fed:	48 8b 85 00 ff ff ff 	mov    -0x100(%rbp),%rax
    6ff4:	48 01 d0             	add    %rdx,%rax
    6ff7:	48 8b 00             	mov    (%rax),%rax
    6ffa:	48 83 c0 10          	add    $0x10,%rax
    6ffe:	db 28                	fldt   (%rax)
    7000:	db 6d b0             	fldt   -0x50(%rbp)
    7003:	de e9                	fsubrp %st,%st(1)
    7005:	dd 5d 80             	fstpl  -0x80(%rbp)
    7008:	48 8b 85 68 ff ff ff 	mov    -0x98(%rbp),%rax
    700f:	8b 00                	mov    (%rax),%eax
    7011:	48 98                	cltq   
    7013:	48 8d 14 c5 00 00 00 	lea    0x0(,%rax,8),%rdx
    701a:	00 
    701b:	48 8b 85 00 ff ff ff 	mov    -0x100(%rbp),%rax
    7022:	48 01 d0             	add    %rdx,%rax
    7025:	48 8b 00             	mov    (%rax),%rax
    7028:	48 83 c0 10          	add    $0x10,%rax
    702c:	db 28                	fldt   (%rax)
    702e:	db 6d b0             	fldt   -0x50(%rbp)
    7031:	de c1                	faddp  %st,%st(1)
    7033:	dd 5d 88             	fstpl  -0x78(%rbp)
    7036:	48 8b 85 68 ff ff ff 	mov    -0x98(%rbp),%rax
    703d:	8b 00                	mov    (%rax),%eax
    703f:	48 98                	cltq   
    7041:	48 8d 14 c5 00 00 00 	lea    0x0(,%rax,8),%rdx
    7048:	00 
    7049:	48 8b 85 00 ff ff ff 	mov    -0x100(%rbp),%rax
    7050:	48 01 d0             	add    %rdx,%rax
    7053:	48 8b 00             	mov    (%rax),%rax
    7056:	48 83 c0 20          	add    $0x20,%rax
    705a:	db 28                	fldt   (%rax)
    705c:	db 6d b0             	fldt   -0x50(%rbp)
    705f:	de e9                	fsubrp %st,%st(1)
    7061:	dd 5d 90             	fstpl  -0x70(%rbp)
    7064:	48 8b 85 68 ff ff ff 	mov    -0x98(%rbp),%rax
    706b:	8b 00                	mov    (%rax),%eax
    706d:	48 98                	cltq   
    706f:	48 8d 14 c5 00 00 00 	lea    0x0(,%rax,8),%rdx
    7076:	00 
    7077:	48 8b 85 00 ff ff ff 	mov    -0x100(%rbp),%rax
    707e:	48 01 d0             	add    %rdx,%rax
    7081:	48 8b 00             	mov    (%rax),%rax
    7084:	48 83 c0 20          	add    $0x20,%rax
    7088:	db 28                	fldt   (%rax)
    708a:	db 6d b0             	fldt   -0x50(%rbp)
    708d:	de c1                	faddp  %st,%st(1)
    708f:	dd 5d 98             	fstpl  -0x68(%rbp)
    7092:	db 6d 10             	fldt   0x10(%rbp)
    7095:	dd 9d e8 fe ff ff    	fstpl  -0x118(%rbp)
    709b:	48 8d 45 c0          	lea    -0x40(%rbp),%rax
    709f:	f2 0f 10 b5 08 ff ff 	movsd  -0xf8(%rbp),%xmm6
    70a6:	ff 
    70a7:	48 8b 8d f0 fe ff ff 	mov    -0x110(%rbp),%rcx
    70ae:	8b 95 1c ff ff ff    	mov    -0xe4(%rbp),%edx
    70b4:	8b b5 18 ff ff ff    	mov    -0xe8(%rbp),%esi
    70ba:	f2 0f 10 6d 98       	movsd  -0x68(%rbp),%xmm5
    70bf:	f2 0f 10 65 90       	movsd  -0x70(%rbp),%xmm4
    70c4:	f2 0f 10 5d 88       	movsd  -0x78(%rbp),%xmm3
    70c9:	f2 0f 10 55 80       	movsd  -0x80(%rbp),%xmm2
    70ce:	f2 0f 10 8d 78 ff ff 	movsd  -0x88(%rbp),%xmm1
    70d5:	ff 
    70d6:	f2 0f 10 85 70 ff ff 	movsd  -0x90(%rbp),%xmm0
    70dd:	ff 
    70de:	48 83 ec 08          	sub    $0x8,%rsp
    70e2:	ff b5 20 ff ff ff    	push   -0xe0(%rbp)
    70e8:	ff b5 28 ff ff ff    	push   -0xd8(%rbp)
    70ee:	ff b5 30 ff ff ff    	push   -0xd0(%rbp)
    70f4:	66 0f 28 fe          	movapd %xmm6,%xmm7
    70f8:	66 0f 28 f5          	movapd %xmm5,%xmm6
    70fc:	66 0f 28 ec          	movapd %xmm4,%xmm5
    7100:	66 0f 28 e3          	movapd %xmm3,%xmm4
    7104:	66 0f 28 da          	movapd %xmm2,%xmm3
    7108:	66 0f 28 d1          	movapd %xmm1,%xmm2
    710c:	66 0f 28 c8          	movapd %xmm0,%xmm1
    7110:	f2 0f 10 85 e8 fe ff 	movsd  -0x118(%rbp),%xmm0
    7117:	ff 
    7118:	48 89 c7             	mov    %rax,%rdi
    711b:	e8 70 cd ff ff       	call   3e90 <_ZL6forceldddddddjjPPPedddd>
    7120:	48 83 c4 20          	add    $0x20,%rsp
    7124:	48 8d 45 e0          	lea    -0x20(%rbp),%rax
    7128:	48 8d 55 c0          	lea    -0x40(%rbp),%rdx
    712c:	48 8b 8d 38 ff ff ff 	mov    -0xc8(%rbp),%rcx
    7133:	48 89 ce             	mov    %rcx,%rsi
    7136:	48 89 c7             	mov    %rax,%rdi
    7139:	e8 ca 23 00 00       	call   9508 <_ZN6vectorplERKS_>
    713e:	48 8d 55 e0          	lea    -0x20(%rbp),%rdx
    7142:	48 8b 85 38 ff ff ff 	mov    -0xc8(%rbp),%rax
    7149:	48 89 d6             	mov    %rdx,%rsi
    714c:	48 89 c7             	mov    %rax,%rdi
    714f:	e8 88 25 00 00       	call   96dc <_ZN6vectoraSERKS_>
    7154:	48 8d 85 50 ff ff ff 	lea    -0xb0(%rbp),%rax
    715b:	48 89 c7             	mov    %rax,%rdi
    715e:	e8 b7 2e 00 00       	call   a01a <_ZN9__gnu_cxx17__normal_iteratorIPKiSt6vectorIiSaIiEEEppEv>
    7163:	48 8d 95 58 ff ff ff 	lea    -0xa8(%rbp),%rdx
    716a:	48 8d 85 50 ff ff ff 	lea    -0xb0(%rbp),%rax
    7171:	48 89 d6             	mov    %rdx,%rsi
    7174:	48 89 c7             	mov    %rax,%rdi
    7177:	e8 5e 2e 00 00       	call   9fda <_ZN9__gnu_cxxneIPKiSt6vectorIiSaIiEEEEbRKNS_17__normal_iteratorIT_T0_EESB_>
    717c:	84 c0                	test   %al,%al
    717e:	0f 85 e6 fd ff ff    	jne    6f6a <_Z5forcedddjjeeidPPeRKSt6vectorIiSaIiEEPS0_+0x12a>
    7184:	90                   	nop
    7185:	48 8b 45 f8          	mov    -0x8(%rbp),%rax
    7189:	64 48 2b 04 25 28 00 	sub    %fs:0x28,%rax
    7190:	00 00 
    7192:	74 05                	je     7199 <_Z5forcedddjjeeidPPeRKSt6vectorIiSaIiEEPS0_+0x359>
    7194:	e8 47 b3 ff ff       	call   24e0 <__stack_chk_fail@plt>
    7199:	48 8b 85 38 ff ff ff 	mov    -0xc8(%rbp),%rax
    71a0:	c9                   	leave  
    71a1:	c3                   	ret    

00000000000071a2 <_Z6torquedddjjeeidPPeRKSt6vectorIiSaIiEEPS0_>:
    71a2:	f3 0f 1e fa          	endbr64 
    71a6:	55                   	push   %rbp
    71a7:	48 89 e5             	mov    %rsp,%rbp
    71aa:	48 81 ec 20 01 00 00 	sub    $0x120,%rsp
    71b1:	48 89 bd 38 ff ff ff 	mov    %rdi,-0xc8(%rbp)
    71b8:	f2 0f 11 85 30 ff ff 	movsd  %xmm0,-0xd0(%rbp)
    71bf:	ff 
    71c0:	f2 0f 11 8d 28 ff ff 	movsd  %xmm1,-0xd8(%rbp)
    71c7:	ff 
    71c8:	f2 0f 11 95 20 ff ff 	movsd  %xmm2,-0xe0(%rbp)
    71cf:	ff 
    71d0:	89 b5 1c ff ff ff    	mov    %esi,-0xe4(%rbp)
    71d6:	89 95 18 ff ff ff    	mov    %edx,-0xe8(%rbp)
    71dc:	89 8d 14 ff ff ff    	mov    %ecx,-0xec(%rbp)
    71e2:	f2 0f 11 9d 08 ff ff 	movsd  %xmm3,-0xf8(%rbp)
    71e9:	ff 
    71ea:	4c 89 85 00 ff ff ff 	mov    %r8,-0x100(%rbp)
    71f1:	4c 89 8d f8 fe ff ff 	mov    %r9,-0x108(%rbp)
    71f8:	48 8b 45 30          	mov    0x30(%rbp),%rax
    71fc:	48 89 85 f0 fe ff ff 	mov    %rax,-0x110(%rbp)
    7203:	64 48 8b 04 25 28 00 	mov    %fs:0x28,%rax
    720a:	00 00 
    720c:	48 89 45 f8          	mov    %rax,-0x8(%rbp)
    7210:	31 c0                	xor    %eax,%eax
    7212:	db 85 14 ff ff ff    	fildl  -0xec(%rbp)
    7218:	db 6d 20             	fldt   0x20(%rbp)
    721b:	de f1                	fdivp  %st,%st(1)
    721d:	db 7d a0             	fstpt  -0x60(%rbp)
    7220:	db 6d a0             	fldt   -0x60(%rbp)
    7223:	db 2d 47 82 00 00    	fldt   0x8247(%rip)        # f470 <_ZN6__pstl9execution2v1L5unseqE+0x45d>
    7229:	de f9                	fdivrp %st,%st(1)
    722b:	db 7d b0             	fstpt  -0x50(%rbp)
    722e:	48 8b 85 38 ff ff ff 	mov    -0xc8(%rbp),%rax
    7235:	66 0f ef d2          	pxor   %xmm2,%xmm2
    7239:	66 0f ef c9          	pxor   %xmm1,%xmm1
    723d:	48 8b 15 ac 81 00 00 	mov    0x81ac(%rip),%rdx        # f3f0 <_ZN6__pstl9execution2v1L5unseqE+0x3dd>
    7244:	66 48 0f 6e c2       	movq   %rdx,%xmm0
    7249:	48 89 c7             	mov    %rax,%rdi
    724c:	e8 bf 20 00 00       	call   9310 <_ZN6vectorC1Eddd>
    7251:	c7 85 4c ff ff ff 00 	movl   $0x0,-0xb4(%rbp)
    7258:	00 00 00 
    725b:	48 83 bd f0 fe ff ff 	cmpq   $0x0,-0x110(%rbp)
    7262:	00 
    7263:	75 28                	jne    728d <_Z6torquedddjjeeidPPeRKSt6vectorIiSaIiEEPS0_+0xeb>
    7265:	48 8d 05 7c 7e 00 00 	lea    0x7e7c(%rip),%rax        # f0e8 <_ZN6__pstl9execution2v1L5unseqE+0xd5>
    726c:	48 89 c1             	mov    %rax,%rcx
    726f:	ba 82 01 00 00       	mov    $0x182,%edx
    7274:	48 8d 05 45 7e 00 00 	lea    0x7e45(%rip),%rax        # f0c0 <_ZN6__pstl9execution2v1L5unseqE+0xad>
    727b:	48 89 c6             	mov    %rax,%rsi
    727e:	48 8d 05 48 7e 00 00 	lea    0x7e48(%rip),%rax        # f0cd <_ZN6__pstl9execution2v1L5unseqE+0xba>
    7285:	48 89 c7             	mov    %rax,%rdi
    7288:	e8 83 b1 ff ff       	call   2410 <__assert_fail@plt>
    728d:	48 8b 85 f8 fe ff ff 	mov    -0x108(%rbp),%rax
    7294:	48 89 85 60 ff ff ff 	mov    %rax,-0xa0(%rbp)
    729b:	48 8b 85 60 ff ff ff 	mov    -0xa0(%rbp),%rax
    72a2:	48 89 c7             	mov    %rax,%rdi
    72a5:	e8 94 2c 00 00       	call   9f3e <_ZNKSt6vectorIiSaIiEE5beginEv>
    72aa:	48 89 85 50 ff ff ff 	mov    %rax,-0xb0(%rbp)
    72b1:	48 8b 85 60 ff ff ff 	mov    -0xa0(%rbp),%rax
    72b8:	48 89 c7             	mov    %rax,%rdi
    72bb:	e8 ca 2c 00 00       	call   9f8a <_ZNKSt6vectorIiSaIiEE3endEv>
    72c0:	48 89 85 58 ff ff ff 	mov    %rax,-0xa8(%rbp)
    72c7:	e9 f9 01 00 00       	jmp    74c5 <_Z6torquedddjjeeidPPeRKSt6vectorIiSaIiEEPS0_+0x323>
    72cc:	48 8d 85 50 ff ff ff 	lea    -0xb0(%rbp),%rax
    72d3:	48 89 c7             	mov    %rax,%rdi
    72d6:	e8 63 2d 00 00       	call   a03e <_ZNK9__gnu_cxx17__normal_iteratorIPKiSt6vectorIiSaIiEEEdeEv>
    72db:	48 89 85 68 ff ff ff 	mov    %rax,-0x98(%rbp)
    72e2:	48 8b 85 68 ff ff ff 	mov    -0x98(%rbp),%rax
    72e9:	8b 00                	mov    (%rax),%eax
    72eb:	48 98                	cltq   
    72ed:	48 8d 14 c5 00 00 00 	lea    0x0(,%rax,8),%rdx
    72f4:	00 
    72f5:	48 8b 85 00 ff ff ff 	mov    -0x100(%rbp),%rax
    72fc:	48 01 d0             	add    %rdx,%rax
    72ff:	48 8b 00             	mov    (%rax),%rax
    7302:	db 28                	fldt   (%rax)
    7304:	db 6d b0             	fldt   -0x50(%rbp)
    7307:	de e9                	fsubrp %st,%st(1)
    7309:	dd 9d 70 ff ff ff    	fstpl  -0x90(%rbp)
    730f:	48 8b 85 68 ff ff ff 	mov    -0x98(%rbp),%rax
    7316:	8b 00                	mov    (%rax),%eax
    7318:	48 98                	cltq   
    731a:	48 8d 14 c5 00 00 00 	lea    0x0(,%rax,8),%rdx
    7321:	00 
    7322:	48 8b 85 00 ff ff ff 	mov    -0x100(%rbp),%rax
    7329:	48 01 d0             	add    %rdx,%rax
    732c:	48 8b 00             	mov    (%rax),%rax
    732f:	db 28                	fldt   (%rax)
    7331:	db 6d b0             	fldt   -0x50(%rbp)
    7334:	de c1                	faddp  %st,%st(1)
    7336:	dd 9d 78 ff ff ff    	fstpl  -0x88(%rbp)
    733c:	48 8b 85 68 ff ff ff 	mov    -0x98(%rbp),%rax
    7343:	8b 00                	mov    (%rax),%eax
    7345:	48 98                	cltq   
    7347:	48 8d 14 c5 00 00 00 	lea    0x0(,%rax,8),%rdx
    734e:	00 
    734f:	48 8b 85 00 ff ff ff 	mov    -0x100(%rbp),%rax
    7356:	48 01 d0             	add    %rdx,%rax
    7359:	48 8b 00             	mov    (%rax),%rax
    735c:	48 83 c0 10          	add    $0x10,%rax
    7360:	db 28                	fldt   (%rax)
    7362:	db 6d b0             	fldt   -0x50(%rbp)
    7365:	de e9                	fsubrp %st,%st(1)
    7367:	dd 5d 80             	fstpl  -0x80(%rbp)
    736a:	48 8b 85 68 ff ff ff 	mov    -0x98(%rbp),%rax
    7371:	8b 00                	mov    (%rax),%eax
    7373:	48 98                	cltq   
    7375:	48 8d 14 c5 00 00 00 	lea    0x0(,%rax,8),%rdx
    737c:	00 
    737d:	48 8b 85 00 ff ff ff 	mov    -0x100(%rbp),%rax
    7384:	48 01 d0             	add    %rdx,%rax
    7387:	48 8b 00             	mov    (%rax),%rax
    738a:	48 83 c0 10          	add    $0x10,%rax
    738e:	db 28                	fldt   (%rax)
    7390:	db 6d b0             	fldt   -0x50(%rbp)
    7393:	de c1                	faddp  %st,%st(1)
    7395:	dd 5d 88             	fstpl  -0x78(%rbp)
    7398:	48 8b 85 68 ff ff ff 	mov    -0x98(%rbp),%rax
    739f:	8b 00                	mov    (%rax),%eax
    73a1:	48 98                	cltq   
    73a3:	48 8d 14 c5 00 00 00 	lea    0x0(,%rax,8),%rdx
    73aa:	00 
    73ab:	48 8b 85 00 ff ff ff 	mov    -0x100(%rbp),%rax
    73b2:	48 01 d0             	add    %rdx,%rax
    73b5:	48 8b 00             	mov    (%rax),%rax
    73b8:	48 83 c0 20          	add    $0x20,%rax
    73bc:	db 28                	fldt   (%rax)
    73be:	db 6d b0             	fldt   -0x50(%rbp)
    73c1:	de e9                	fsubrp %st,%st(1)
    73c3:	dd 5d 90             	fstpl  -0x70(%rbp)
    73c6:	48 8b 85 68 ff ff ff 	mov    -0x98(%rbp),%rax
    73cd:	8b 00                	mov    (%rax),%eax
    73cf:	48 98                	cltq   
    73d1:	48 8d 14 c5 00 00 00 	lea    0x0(,%rax,8),%rdx
    73d8:	00 
    73d9:	48 8b 85 00 ff ff ff 	mov    -0x100(%rbp),%rax
    73e0:	48 01 d0             	add    %rdx,%rax
    73e3:	48 8b 00             	mov    (%rax),%rax
    73e6:	48 83 c0 20          	add    $0x20,%rax
    73ea:	db 28                	fldt   (%rax)
    73ec:	db 6d b0             	fldt   -0x50(%rbp)
    73ef:	de c1                	faddp  %st,%st(1)
    73f1:	dd 5d 98             	fstpl  -0x68(%rbp)
    73f4:	db 6d 10             	fldt   0x10(%rbp)
    73f7:	dd 9d e8 fe ff ff    	fstpl  -0x118(%rbp)
    73fd:	48 8d 45 c0          	lea    -0x40(%rbp),%rax
    7401:	f2 0f 10 b5 08 ff ff 	movsd  -0xf8(%rbp),%xmm6
    7408:	ff 
    7409:	48 8b 8d f0 fe ff ff 	mov    -0x110(%rbp),%rcx
    7410:	8b 95 1c ff ff ff    	mov    -0xe4(%rbp),%edx
    7416:	8b b5 18 ff ff ff    	mov    -0xe8(%rbp),%esi
    741c:	f2 0f 10 6d 98       	movsd  -0x68(%rbp),%xmm5
    7421:	f2 0f 10 65 90       	movsd  -0x70(%rbp),%xmm4
    7426:	f2 0f 10 5d 88       	movsd  -0x78(%rbp),%xmm3
    742b:	f2 0f 10 55 80       	movsd  -0x80(%rbp),%xmm2
    7430:	f2 0f 10 8d 78 ff ff 	movsd  -0x88(%rbp),%xmm1
    7437:	ff 
    7438:	f2 0f 10 85 70 ff ff 	movsd  -0x90(%rbp),%xmm0
    743f:	ff 
    7440:	48 83 ec 08          	sub    $0x8,%rsp
    7444:	ff b5 20 ff ff ff    	push   -0xe0(%rbp)
    744a:	ff b5 28 ff ff ff    	push   -0xd8(%rbp)
    7450:	ff b5 30 ff ff ff    	push   -0xd0(%rbp)
    7456:	66 0f 28 fe          	movapd %xmm6,%xmm7
    745a:	66 0f 28 f5          	movapd %xmm5,%xmm6
    745e:	66 0f 28 ec          	movapd %xmm4,%xmm5
    7462:	66 0f 28 e3          	movapd %xmm3,%xmm4
    7466:	66 0f 28 da          	movapd %xmm2,%xmm3
    746a:	66 0f 28 d1          	movapd %xmm1,%xmm2
    746e:	66 0f 28 c8          	movapd %xmm0,%xmm1
    7472:	f2 0f 10 85 e8 fe ff 	movsd  -0x118(%rbp),%xmm0
    7479:	ff 
    747a:	48 89 c7             	mov    %rax,%rdi
    747d:	e8 df dd ff ff       	call   5261 <_ZL7torqueldddddddjjPPPedddd>
    7482:	48 83 c4 20          	add    $0x20,%rsp
    7486:	48 8d 45 e0          	lea    -0x20(%rbp),%rax
    748a:	48 8d 55 c0          	lea    -0x40(%rbp),%rdx
    748e:	48 8b 8d 38 ff ff ff 	mov    -0xc8(%rbp),%rcx
    7495:	48 89 ce             	mov    %rcx,%rsi
    7498:	48 89 c7             	mov    %rax,%rdi
    749b:	e8 68 20 00 00       	call   9508 <_ZN6vectorplERKS_>
    74a0:	48 8d 55 e0          	lea    -0x20(%rbp),%rdx
    74a4:	48 8b 85 38 ff ff ff 	mov    -0xc8(%rbp),%rax
    74ab:	48 89 d6             	mov    %rdx,%rsi
    74ae:	48 89 c7             	mov    %rax,%rdi
    74b1:	e8 26 22 00 00       	call   96dc <_ZN6vectoraSERKS_>
    74b6:	48 8d 85 50 ff ff ff 	lea    -0xb0(%rbp),%rax
    74bd:	48 89 c7             	mov    %rax,%rdi
    74c0:	e8 55 2b 00 00       	call   a01a <_ZN9__gnu_cxx17__normal_iteratorIPKiSt6vectorIiSaIiEEEppEv>
    74c5:	48 8d 95 58 ff ff ff 	lea    -0xa8(%rbp),%rdx
    74cc:	48 8d 85 50 ff ff ff 	lea    -0xb0(%rbp),%rax
    74d3:	48 89 d6             	mov    %rdx,%rsi
    74d6:	48 89 c7             	mov    %rax,%rdi
    74d9:	e8 fc 2a 00 00       	call   9fda <_ZN9__gnu_cxxneIPKiSt6vectorIiSaIiEEEEbRKNS_17__normal_iteratorIT_T0_EESB_>
    74de:	84 c0                	test   %al,%al
    74e0:	0f 85 e6 fd ff ff    	jne    72cc <_Z6torquedddjjeeidPPeRKSt6vectorIiSaIiEEPS0_+0x12a>
    74e6:	90                   	nop
    74e7:	48 8b 45 f8          	mov    -0x8(%rbp),%rax
    74eb:	64 48 2b 04 25 28 00 	sub    %fs:0x28,%rax
    74f2:	00 00 
    74f4:	74 05                	je     74fb <_Z6torquedddjjeeidPPeRKSt6vectorIiSaIiEEPS0_+0x359>
    74f6:	e8 e5 af ff ff       	call   24e0 <__stack_chk_fail@plt>
    74fb:	48 8b 85 38 ff ff ff 	mov    -0xc8(%rbp),%rax
    7502:	c9                   	leave  
    7503:	c3                   	ret    

0000000000007504 <_Z7blearghv>:
    7504:	f3 0f 1e fa          	endbr64 
    7508:	55                   	push   %rbp
    7509:	48 89 e5             	mov    %rsp,%rbp
    750c:	41 57                	push   %r15
    750e:	41 56                	push   %r14
    7510:	41 55                	push   %r13
    7512:	41 54                	push   %r12
    7514:	53                   	push   %rbx
    7515:	48 81 ec 98 03 00 00 	sub    $0x398,%rsp
    751c:	64 48 8b 04 25 28 00 	mov    %fs:0x28,%rax
    7523:	00 00 
    7525:	48 89 45 c8          	mov    %rax,-0x38(%rbp)
    7529:	31 c0                	xor    %eax,%eax
    752b:	48 8d 05 5e 7c 00 00 	lea    0x7c5e(%rip),%rax        # f190 <_ZN6__pstl9execution2v1L5unseqE+0x17d>
    7532:	48 89 c6             	mov    %rax,%rsi
    7535:	48 8d 05 04 bb 00 00 	lea    0xbb04(%rip),%rax        # 13040 <_ZSt4cout@GLIBCXX_3.4>
    753c:	48 89 c7             	mov    %rax,%rdi
    753f:	e8 4c af ff ff       	call   2490 <_ZStlsISt11char_traitsIcEERSt13basic_ostreamIcT_ES5_PKc@plt>
    7544:	48 8d 85 c8 fc ff ff 	lea    -0x338(%rbp),%rax
    754b:	48 89 c6             	mov    %rax,%rsi
    754e:	48 8d 05 0b bc 00 00 	lea    0xbc0b(%rip),%rax        # 13160 <_ZSt3cin@GLIBCXX_3.4>
    7555:	48 89 c7             	mov    %rax,%rdi
    7558:	e8 e3 ae ff ff       	call   2440 <_ZNSirsERd@plt>
    755d:	48 89 c2             	mov    %rax,%rdx
    7560:	48 8d 85 d0 fc ff ff 	lea    -0x330(%rbp),%rax
    7567:	48 89 c6             	mov    %rax,%rsi
    756a:	48 89 d7             	mov    %rdx,%rdi
    756d:	e8 ce ae ff ff       	call   2440 <_ZNSirsERd@plt>
    7572:	48 89 c2             	mov    %rax,%rdx
    7575:	48 8d 85 d8 fc ff ff 	lea    -0x328(%rbp),%rax
    757c:	48 89 c6             	mov    %rax,%rsi
    757f:	48 89 d7             	mov    %rdx,%rdi
    7582:	e8 b9 ae ff ff       	call   2440 <_ZNSirsERd@plt>
    7587:	48 8d 05 62 7c 00 00 	lea    0x7c62(%rip),%rax        # f1f0 <_ZN6__pstl9execution2v1L5unseqE+0x1dd>
    758e:	48 89 c6             	mov    %rax,%rsi
    7591:	48 8d 05 a8 ba 00 00 	lea    0xbaa8(%rip),%rax        # 13040 <_ZSt4cout@GLIBCXX_3.4>
    7598:	48 89 c7             	mov    %rax,%rdi
    759b:	e8 f0 ae ff ff       	call   2490 <_ZStlsISt11char_traitsIcEERSt13basic_ostreamIcT_ES5_PKc@plt>
    75a0:	48 8d 85 84 fc ff ff 	lea    -0x37c(%rbp),%rax
    75a7:	48 89 c6             	mov    %rax,%rsi
    75aa:	48 8d 05 af bb 00 00 	lea    0xbbaf(%rip),%rax        # 13160 <_ZSt3cin@GLIBCXX_3.4>
    75b1:	48 89 c7             	mov    %rax,%rdi
    75b4:	e8 47 ae ff ff       	call   2400 <_ZNSirsERi@plt>
    75b9:	48 8d 05 78 7c 00 00 	lea    0x7c78(%rip),%rax        # f238 <_ZN6__pstl9execution2v1L5unseqE+0x225>
    75c0:	48 89 c6             	mov    %rax,%rsi
    75c3:	48 8d 05 76 ba 00 00 	lea    0xba76(%rip),%rax        # 13040 <_ZSt4cout@GLIBCXX_3.4>
    75ca:	48 89 c7             	mov    %rax,%rdi
    75cd:	e8 be ae ff ff       	call   2490 <_ZStlsISt11char_traitsIcEERSt13basic_ostreamIcT_ES5_PKc@plt>
    75d2:	48 8d 85 88 fc ff ff 	lea    -0x378(%rbp),%rax
    75d9:	48 89 c6             	mov    %rax,%rsi
    75dc:	48 8d 05 7d bb 00 00 	lea    0xbb7d(%rip),%rax        # 13160 <_ZSt3cin@GLIBCXX_3.4>
    75e3:	48 89 c7             	mov    %rax,%rdi
    75e6:	e8 15 ae ff ff       	call   2400 <_ZNSirsERi@plt>
    75eb:	48 8d 05 8e 7c 00 00 	lea    0x7c8e(%rip),%rax        # f280 <_ZN6__pstl9execution2v1L5unseqE+0x26d>
    75f2:	48 89 c6             	mov    %rax,%rsi
    75f5:	48 8d 05 44 ba 00 00 	lea    0xba44(%rip),%rax        # 13040 <_ZSt4cout@GLIBCXX_3.4>
    75fc:	48 89 c7             	mov    %rax,%rdi
    75ff:	e8 8c ae ff ff       	call   2490 <_ZStlsISt11char_traitsIcEERSt13basic_ostreamIcT_ES5_PKc@plt>
    7604:	48 8d 85 30 fd ff ff 	lea    -0x2d0(%rbp),%rax
    760b:	48 89 c6             	mov    %rax,%rsi
    760e:	48 8d 05 4b bb 00 00 	lea    0xbb4b(%rip),%rax        # 13160 <_ZSt3cin@GLIBCXX_3.4>
    7615:	48 89 c7             	mov    %rax,%rdi
    7618:	e8 63 ad ff ff       	call   2380 <_ZNSirsERe@plt>
    761d:	48 8d 05 84 7c 00 00 	lea    0x7c84(%rip),%rax        # f2a8 <_ZN6__pstl9execution2v1L5unseqE+0x295>
    7624:	48 89 c6             	mov    %rax,%rsi
    7627:	48 8d 05 12 ba 00 00 	lea    0xba12(%rip),%rax        # 13040 <_ZSt4cout@GLIBCXX_3.4>
    762e:	48 89 c7             	mov    %rax,%rdi
    7631:	e8 5a ae ff ff       	call   2490 <_ZStlsISt11char_traitsIcEERSt13basic_ostreamIcT_ES5_PKc@plt>
    7636:	48 8d 85 8c fc ff ff 	lea    -0x374(%rbp),%rax
    763d:	48 89 c6             	mov    %rax,%rsi
    7640:	48 8d 05 19 bb 00 00 	lea    0xbb19(%rip),%rax        # 13160 <_ZSt3cin@GLIBCXX_3.4>
    7647:	48 89 c7             	mov    %rax,%rdi
    764a:	e8 b1 ad ff ff       	call   2400 <_ZNSirsERi@plt>
    764f:	48 8d 05 fa 7c 00 00 	lea    0x7cfa(%rip),%rax        # f350 <_ZN6__pstl9execution2v1L5unseqE+0x33d>
    7656:	48 89 c6             	mov    %rax,%rsi
    7659:	48 8d 05 e0 b9 00 00 	lea    0xb9e0(%rip),%rax        # 13040 <_ZSt4cout@GLIBCXX_3.4>
    7660:	48 89 c7             	mov    %rax,%rdi
    7663:	e8 28 ae ff ff       	call   2490 <_ZStlsISt11char_traitsIcEERSt13basic_ostreamIcT_ES5_PKc@plt>
    7668:	48 8d 85 e0 fc ff ff 	lea    -0x320(%rbp),%rax
    766f:	48 89 c6             	mov    %rax,%rsi
    7672:	48 8d 05 e7 ba 00 00 	lea    0xbae7(%rip),%rax        # 13160 <_ZSt3cin@GLIBCXX_3.4>
    7679:	48 89 c7             	mov    %rax,%rdi
    767c:	e8 bf ad ff ff       	call   2440 <_ZNSirsERd@plt>
    7681:	48 8d 05 de 7c 00 00 	lea    0x7cde(%rip),%rax        # f366 <_ZN6__pstl9execution2v1L5unseqE+0x353>
    7688:	48 89 c6             	mov    %rax,%rsi
    768b:	48 8d 05 ae b9 00 00 	lea    0xb9ae(%rip),%rax        # 13040 <_ZSt4cout@GLIBCXX_3.4>
    7692:	48 89 c7             	mov    %rax,%rdi
    7695:	e8 f6 ad ff ff       	call   2490 <_ZStlsISt11char_traitsIcEERSt13basic_ostreamIcT_ES5_PKc@plt>
    769a:	48 8d 85 e8 fc ff ff 	lea    -0x318(%rbp),%rax
    76a1:	48 89 c6             	mov    %rax,%rsi
    76a4:	48 8d 05 b5 ba 00 00 	lea    0xbab5(%rip),%rax        # 13160 <_ZSt3cin@GLIBCXX_3.4>
    76ab:	48 89 c7             	mov    %rax,%rdi
    76ae:	e8 8d ad ff ff       	call   2440 <_ZNSirsERd@plt>
    76b3:	48 8d 05 be 7c 00 00 	lea    0x7cbe(%rip),%rax        # f378 <_ZN6__pstl9execution2v1L5unseqE+0x365>
    76ba:	48 89 c6             	mov    %rax,%rsi
    76bd:	48 8d 05 7c b9 00 00 	lea    0xb97c(%rip),%rax        # 13040 <_ZSt4cout@GLIBCXX_3.4>
    76c4:	48 89 c7             	mov    %rax,%rdi
    76c7:	e8 c4 ad ff ff       	call   2490 <_ZStlsISt11char_traitsIcEERSt13basic_ostreamIcT_ES5_PKc@plt>
    76cc:	48 8d 85 f0 fc ff ff 	lea    -0x310(%rbp),%rax
    76d3:	48 89 c6             	mov    %rax,%rsi
    76d6:	48 8d 05 83 ba 00 00 	lea    0xba83(%rip),%rax        # 13160 <_ZSt3cin@GLIBCXX_3.4>
    76dd:	48 89 c7             	mov    %rax,%rdi
    76e0:	e8 5b ad ff ff       	call   2440 <_ZNSirsERd@plt>
    76e5:	f2 0f 10 85 f0 fc ff 	movsd  -0x310(%rbp),%xmm0
    76ec:	ff 
    76ed:	f2 0f 10 0d 93 7d 00 	movsd  0x7d93(%rip),%xmm1        # f488 <_ZN6__pstl9execution2v1L5unseqE+0x475>
    76f4:	00 
    76f5:	f2 0f 5e c1          	divsd  %xmm1,%xmm0
    76f9:	f2 0f 11 85 00 fd ff 	movsd  %xmm0,-0x300(%rbp)
    7700:	ff 
    7701:	48 c7 85 08 fd ff ff 	movq   $0x0,-0x2f8(%rbp)
    7708:	00 00 00 00 
    770c:	8b 85 8c fc ff ff    	mov    -0x374(%rbp),%eax
    7712:	89 c2                	mov    %eax,%edx
    7714:	db ad 30 fd ff ff    	fldt   -0x2d0(%rbp)
    771a:	dd 9d 78 fc ff ff    	fstpl  -0x388(%rbp)
    7720:	f2 0f 10 85 78 fc ff 	movsd  -0x388(%rbp),%xmm0
    7727:	ff 
    7728:	48 8b 85 08 fd ff ff 	mov    -0x2f8(%rbp),%rax
    772f:	48 89 c6             	mov    %rax,%rsi
    7732:	89 d7                	mov    %edx,%edi
    7734:	e8 17 b6 ff ff       	call   2d50 <_Z13compute_cubesdjPPe>
    7739:	48 89 85 08 fd ff ff 	mov    %rax,-0x2f8(%rbp)
    7740:	8b 85 84 fc ff ff    	mov    -0x37c(%rbp),%eax
    7746:	89 c2                	mov    %eax,%edx
    7748:	8b 85 88 fc ff ff    	mov    -0x378(%rbp),%eax
    774e:	db ad 30 fd ff ff    	fldt   -0x2d0(%rbp)
    7754:	dd 9d 78 fc ff ff    	fstpl  -0x388(%rbp)
    775a:	f2 0f 10 85 78 fc ff 	movsd  -0x388(%rbp),%xmm0
    7761:	ff 
    7762:	89 d6                	mov    %edx,%esi
    7764:	89 c7                	mov    %eax,%edi
    7766:	e8 e7 b1 ff ff       	call   2952 <_Z18compute_spheremeshdjj>
    776b:	48 89 85 10 fd ff ff 	mov    %rax,-0x2f0(%rbp)
    7772:	8b 85 8c fc ff ff    	mov    -0x374(%rbp),%eax
    7778:	01 c0                	add    %eax,%eax
    777a:	89 c1                	mov    %eax,%ecx
    777c:	8b 85 8c fc ff ff    	mov    -0x374(%rbp),%eax
    7782:	01 c0                	add    %eax,%eax
    7784:	89 c2                	mov    %eax,%edx
    7786:	8b 85 8c fc ff ff    	mov    -0x374(%rbp),%eax
    778c:	01 c0                	add    %eax,%eax
    778e:	89 c6                	mov    %eax,%esi
    7790:	bf 04 00 00 00       	mov    $0x4,%edi
    7795:	e8 80 45 00 00       	call   bd1a <_Z10allocate4djjjj>
    779a:	48 89 85 18 fd ff ff 	mov    %rax,-0x2e8(%rbp)
    77a1:	c7 85 b8 fc ff ff 08 	movl   $0x8,-0x348(%rbp)
    77a8:	00 00 00 
    77ab:	c7 85 90 fc ff ff 00 	movl   $0x0,-0x370(%rbp)
    77b2:	00 00 00 
    77b5:	e9 e6 03 00 00       	jmp    7ba0 <_Z7blearghv+0x69c>
    77ba:	c7 85 94 fc ff ff 00 	movl   $0x0,-0x36c(%rbp)
    77c1:	00 00 00 
    77c4:	e9 bc 03 00 00       	jmp    7b85 <_Z7blearghv+0x681>
    77c9:	c7 85 98 fc ff ff 00 	movl   $0x0,-0x368(%rbp)
    77d0:	00 00 00 
    77d3:	e9 92 03 00 00       	jmp    7b6a <_Z7blearghv+0x666>
    77d8:	8b 85 8c fc ff ff    	mov    -0x374(%rbp),%eax
    77de:	0f af 85 94 fc ff ff 	imul   -0x36c(%rbp),%eax
    77e5:	8d 14 00             	lea    (%rax,%rax,1),%edx
    77e8:	8b 85 90 fc ff ff    	mov    -0x370(%rbp),%eax
    77ee:	8d 0c 02             	lea    (%rdx,%rax,1),%ecx
    77f1:	8b 85 8c fc ff ff    	mov    -0x374(%rbp),%eax
    77f7:	0f af 85 98 fc ff ff 	imul   -0x368(%rbp),%eax
    77fe:	89 c2                	mov    %eax,%edx
    7800:	8b 85 8c fc ff ff    	mov    -0x374(%rbp),%eax
    7806:	0f af c2             	imul   %edx,%eax
    7809:	c1 e0 02             	shl    $0x2,%eax
    780c:	01 c8                	add    %ecx,%eax
    780e:	89 85 c4 fc ff ff    	mov    %eax,-0x33c(%rbp)
    7814:	8b 85 c4 fc ff ff    	mov    -0x33c(%rbp),%eax
    781a:	48 98                	cltq   
    781c:	48 8d 14 c5 00 00 00 	lea    0x0(,%rax,8),%rdx
    7823:	00 
    7824:	48 8b 85 08 fd ff ff 	mov    -0x2f8(%rbp),%rax
    782b:	48 01 d0             	add    %rdx,%rax
    782e:	48 8b 00             	mov    (%rax),%rax
    7831:	48 83 c0 20          	add    $0x20,%rax
    7835:	db 28                	fldt   (%rax)
    7837:	dd 9d 78 fc ff ff    	fstpl  -0x388(%rbp)
    783d:	8b 85 c4 fc ff ff    	mov    -0x33c(%rbp),%eax
    7843:	48 98                	cltq   
    7845:	48 8d 14 c5 00 00 00 	lea    0x0(,%rax,8),%rdx
    784c:	00 
    784d:	48 8b 85 08 fd ff ff 	mov    -0x2f8(%rbp),%rax
    7854:	48 01 d0             	add    %rdx,%rax
    7857:	48 8b 00             	mov    (%rax),%rax
    785a:	48 83 c0 10          	add    $0x10,%rax
    785e:	db 28                	fldt   (%rax)
    7860:	dd 9d 60 fc ff ff    	fstpl  -0x3a0(%rbp)
    7866:	8b 85 c4 fc ff ff    	mov    -0x33c(%rbp),%eax
    786c:	48 98                	cltq   
    786e:	48 8d 14 c5 00 00 00 	lea    0x0(,%rax,8),%rdx
    7875:	00 
    7876:	48 8b 85 08 fd ff ff 	mov    -0x2f8(%rbp),%rax
    787d:	48 01 d0             	add    %rdx,%rax
    7880:	48 8b 00             	mov    (%rax),%rax
    7883:	db 28                	fldt   (%rax)
    7885:	dd 9d 50 fc ff ff    	fstpl  -0x3b0(%rbp)
    788b:	f2 0f 10 85 50 fc ff 	movsd  -0x3b0(%rbp),%xmm0
    7892:	ff 
    7893:	48 8d 85 30 ff ff ff 	lea    -0xd0(%rbp),%rax
    789a:	f2 0f 10 95 78 fc ff 	movsd  -0x388(%rbp),%xmm2
    78a1:	ff 
    78a2:	f2 0f 10 8d 60 fc ff 	movsd  -0x3a0(%rbp),%xmm1
    78a9:	ff 
    78aa:	48 89 c7             	mov    %rax,%rdi
    78ad:	e8 45 5b 00 00       	call   d3f7 <_Z8velocityddd>
    78b2:	48 8d 85 30 ff ff ff 	lea    -0xd0(%rbp),%rax
    78b9:	48 89 c7             	mov    %rax,%rdi
    78bc:	e8 97 1a 00 00       	call   9358 <_ZN6vector1XEv>
    78c1:	f2 0f 11 85 78 fc ff 	movsd  %xmm0,-0x388(%rbp)
    78c8:	ff 
    78c9:	48 8b 85 18 fd ff ff 	mov    -0x2e8(%rbp),%rax
    78d0:	48 8b 10             	mov    (%rax),%rdx
    78d3:	8b 85 90 fc ff ff    	mov    -0x370(%rbp),%eax
    78d9:	48 98                	cltq   
    78db:	48 c1 e0 03          	shl    $0x3,%rax
    78df:	48 01 d0             	add    %rdx,%rax
    78e2:	48 8b 10             	mov    (%rax),%rdx
    78e5:	8b 85 94 fc ff ff    	mov    -0x36c(%rbp),%eax
    78eb:	48 98                	cltq   
    78ed:	48 c1 e0 03          	shl    $0x3,%rax
    78f1:	48 01 d0             	add    %rdx,%rax
    78f4:	48 8b 10             	mov    (%rax),%rdx
    78f7:	8b 85 98 fc ff ff    	mov    -0x368(%rbp),%eax
    78fd:	48 98                	cltq   
    78ff:	48 c1 e0 04          	shl    $0x4,%rax
    7903:	48 01 d0             	add    %rdx,%rax
    7906:	dd 85 78 fc ff ff    	fldl   -0x388(%rbp)
    790c:	db 38                	fstpt  (%rax)
    790e:	8b 85 c4 fc ff ff    	mov    -0x33c(%rbp),%eax
    7914:	48 98                	cltq   
    7916:	48 8d 14 c5 00 00 00 	lea    0x0(,%rax,8),%rdx
    791d:	00 
    791e:	48 8b 85 08 fd ff ff 	mov    -0x2f8(%rbp),%rax
    7925:	48 01 d0             	add    %rdx,%rax
    7928:	48 8b 00             	mov    (%rax),%rax
    792b:	48 83 c0 20          	add    $0x20,%rax
    792f:	db 28                	fldt   (%rax)
    7931:	dd 9d 78 fc ff ff    	fstpl  -0x388(%rbp)
    7937:	8b 85 c4 fc ff ff    	mov    -0x33c(%rbp),%eax
    793d:	48 98                	cltq   
    793f:	48 8d 14 c5 00 00 00 	lea    0x0(,%rax,8),%rdx
    7946:	00 
    7947:	48 8b 85 08 fd ff ff 	mov    -0x2f8(%rbp),%rax
    794e:	48 01 d0             	add    %rdx,%rax
    7951:	48 8b 00             	mov    (%rax),%rax
    7954:	48 83 c0 10          	add    $0x10,%rax
    7958:	db 28                	fldt   (%rax)
    795a:	dd 9d 60 fc ff ff    	fstpl  -0x3a0(%rbp)
    7960:	8b 85 c4 fc ff ff    	mov    -0x33c(%rbp),%eax
    7966:	48 98                	cltq   
    7968:	48 8d 14 c5 00 00 00 	lea    0x0(,%rax,8),%rdx
    796f:	00 
    7970:	48 8b 85 08 fd ff ff 	mov    -0x2f8(%rbp),%rax
    7977:	48 01 d0             	add    %rdx,%rax
    797a:	48 8b 00             	mov    (%rax),%rax
    797d:	db 28                	fldt   (%rax)
    797f:	dd 9d 50 fc ff ff    	fstpl  -0x3b0(%rbp)
    7985:	f2 0f 10 85 50 fc ff 	movsd  -0x3b0(%rbp),%xmm0
    798c:	ff 
    798d:	48 8d 85 30 ff ff ff 	lea    -0xd0(%rbp),%rax
    7994:	f2 0f 10 95 78 fc ff 	movsd  -0x388(%rbp),%xmm2
    799b:	ff 
    799c:	f2 0f 10 8d 60 fc ff 	movsd  -0x3a0(%rbp),%xmm1
    79a3:	ff 
    79a4:	48 89 c7             	mov    %rax,%rdi
    79a7:	e8 4b 5a 00 00       	call   d3f7 <_Z8velocityddd>
    79ac:	48 8d 85 30 ff ff ff 	lea    -0xd0(%rbp),%rax
    79b3:	48 89 c7             	mov    %rax,%rdi
    79b6:	e8 bd 19 00 00       	call   9378 <_ZN6vector1YEv>
    79bb:	f2 0f 11 85 78 fc ff 	movsd  %xmm0,-0x388(%rbp)
    79c2:	ff 
    79c3:	48 8b 85 18 fd ff ff 	mov    -0x2e8(%rbp),%rax
    79ca:	48 83 c0 08          	add    $0x8,%rax
    79ce:	48 8b 10             	mov    (%rax),%rdx
    79d1:	8b 85 90 fc ff ff    	mov    -0x370(%rbp),%eax
    79d7:	48 98                	cltq   
    79d9:	48 c1 e0 03          	shl    $0x3,%rax
    79dd:	48 01 d0             	add    %rdx,%rax
    79e0:	48 8b 10             	mov    (%rax),%rdx
    79e3:	8b 85 94 fc ff ff    	mov    -0x36c(%rbp),%eax
    79e9:	48 98                	cltq   
    79eb:	48 c1 e0 03          	shl    $0x3,%rax
    79ef:	48 01 d0             	add    %rdx,%rax
    79f2:	48 8b 10             	mov    (%rax),%rdx
    79f5:	8b 85 98 fc ff ff    	mov    -0x368(%rbp),%eax
    79fb:	48 98                	cltq   
    79fd:	48 c1 e0 04          	shl    $0x4,%rax
    7a01:	48 01 d0             	add    %rdx,%rax
    7a04:	dd 85 78 fc ff ff    	fldl   -0x388(%rbp)
    7a0a:	db 38                	fstpt  (%rax)
    7a0c:	8b 85 c4 fc ff ff    	mov    -0x33c(%rbp),%eax
    7a12:	48 98                	cltq   
    7a14:	48 8d 14 c5 00 00 00 	lea    0x0(,%rax,8),%rdx
    7a1b:	00 
    7a1c:	48 8b 85 08 fd ff ff 	mov    -0x2f8(%rbp),%rax
    7a23:	48 01 d0             	add    %rdx,%rax
    7a26:	48 8b 00             	mov    (%rax),%rax
    7a29:	48 83 c0 20          	add    $0x20,%rax
    7a2d:	db 28                	fldt   (%rax)
    7a2f:	dd 9d 78 fc ff ff    	fstpl  -0x388(%rbp)
    7a35:	8b 85 c4 fc ff ff    	mov    -0x33c(%rbp),%eax
    7a3b:	48 98                	cltq   
    7a3d:	48 8d 14 c5 00 00 00 	lea    0x0(,%rax,8),%rdx
    7a44:	00 
    7a45:	48 8b 85 08 fd ff ff 	mov    -0x2f8(%rbp),%rax
    7a4c:	48 01 d0             	add    %rdx,%rax
    7a4f:	48 8b 00             	mov    (%rax),%rax
    7a52:	48 83 c0 10          	add    $0x10,%rax
    7a56:	db 28                	fldt   (%rax)
    7a58:	dd 9d 60 fc ff ff    	fstpl  -0x3a0(%rbp)
    7a5e:	8b 85 c4 fc ff ff    	mov    -0x33c(%rbp),%eax
    7a64:	48 98                	cltq   
    7a66:	48 8d 14 c5 00 00 00 	lea    0x0(,%rax,8),%rdx
    7a6d:	00 
    7a6e:	48 8b 85 08 fd ff ff 	mov    -0x2f8(%rbp),%rax
    7a75:	48 01 d0             	add    %rdx,%rax
    7a78:	48 8b 00             	mov    (%rax),%rax
    7a7b:	db 28                	fldt   (%rax)
    7a7d:	dd 9d 50 fc ff ff    	fstpl  -0x3b0(%rbp)
    7a83:	f2 0f 10 85 50 fc ff 	movsd  -0x3b0(%rbp),%xmm0
    7a8a:	ff 
    7a8b:	48 8d 85 30 ff ff ff 	lea    -0xd0(%rbp),%rax
    7a92:	f2 0f 10 95 78 fc ff 	movsd  -0x388(%rbp),%xmm2
    7a99:	ff 
    7a9a:	f2 0f 10 8d 60 fc ff 	movsd  -0x3a0(%rbp),%xmm1
    7aa1:	ff 
    7aa2:	48 89 c7             	mov    %rax,%rdi
    7aa5:	e8 4d 59 00 00       	call   d3f7 <_Z8velocityddd>
    7aaa:	48 8d 85 30 ff ff ff 	lea    -0xd0(%rbp),%rax
    7ab1:	48 89 c7             	mov    %rax,%rdi
    7ab4:	e8 e1 18 00 00       	call   939a <_ZN6vector1ZEv>
    7ab9:	f2 0f 11 85 78 fc ff 	movsd  %xmm0,-0x388(%rbp)
    7ac0:	ff 
    7ac1:	48 8b 85 18 fd ff ff 	mov    -0x2e8(%rbp),%rax
    7ac8:	48 83 c0 10          	add    $0x10,%rax
    7acc:	48 8b 10             	mov    (%rax),%rdx
    7acf:	8b 85 90 fc ff ff    	mov    -0x370(%rbp),%eax
    7ad5:	48 98                	cltq   
    7ad7:	48 c1 e0 03          	shl    $0x3,%rax
    7adb:	48 01 d0             	add    %rdx,%rax
    7ade:	48 8b 10             	mov    (%rax),%rdx
    7ae1:	8b 85 94 fc ff ff    	mov    -0x36c(%rbp),%eax
    7ae7:	48 98                	cltq   
    7ae9:	48 c1 e0 03          	shl    $0x3,%rax
    7aed:	48 01 d0             	add    %rdx,%rax
    7af0:	48 8b 10             	mov    (%rax),%rdx
    7af3:	8b 85 98 fc ff ff    	mov    -0x368(%rbp),%eax
    7af9:	48 98                	cltq   
    7afb:	48 c1 e0 04          	shl    $0x4,%rax
    7aff:	48 01 d0             	add    %rdx,%rax
    7b02:	dd 85 78 fc ff ff    	fldl   -0x388(%rbp)
    7b08:	db 38                	fstpt  (%rax)
    7b0a:	f2 0f 10 a5 e0 fc ff 	movsd  -0x320(%rbp),%xmm4
    7b11:	ff 
    7b12:	f2 0f 11 a5 78 fc ff 	movsd  %xmm4,-0x388(%rbp)
    7b19:	ff 
    7b1a:	48 8b 85 18 fd ff ff 	mov    -0x2e8(%rbp),%rax
    7b21:	48 83 c0 18          	add    $0x18,%rax
    7b25:	48 8b 10             	mov    (%rax),%rdx
    7b28:	8b 85 90 fc ff ff    	mov    -0x370(%rbp),%eax
    7b2e:	48 98                	cltq   
    7b30:	48 c1 e0 03          	shl    $0x3,%rax
    7b34:	48 01 d0             	add    %rdx,%rax
    7b37:	48 8b 10             	mov    (%rax),%rdx
    7b3a:	8b 85 94 fc ff ff    	mov    -0x36c(%rbp),%eax
    7b40:	48 98                	cltq   
    7b42:	48 c1 e0 03          	shl    $0x3,%rax
    7b46:	48 01 d0             	add    %rdx,%rax
    7b49:	48 8b 10             	mov    (%rax),%rdx
    7b4c:	8b 85 98 fc ff ff    	mov    -0x368(%rbp),%eax
    7b52:	48 98                	cltq   
    7b54:	48 c1 e0 04          	shl    $0x4,%rax
    7b58:	48 01 d0             	add    %rdx,%rax
    7b5b:	dd 85 78 fc ff ff    	fldl   -0x388(%rbp)
    7b61:	db 38                	fstpt  (%rax)
    7b63:	83 85 98 fc ff ff 01 	addl   $0x1,-0x368(%rbp)
    7b6a:	8b 85 8c fc ff ff    	mov    -0x374(%rbp),%eax
    7b70:	01 c0                	add    %eax,%eax
    7b72:	39 85 98 fc ff ff    	cmp    %eax,-0x368(%rbp)
    7b78:	0f 8c 5a fc ff ff    	jl     77d8 <_Z7blearghv+0x2d4>
    7b7e:	83 85 94 fc ff ff 01 	addl   $0x1,-0x36c(%rbp)
    7b85:	8b 85 8c fc ff ff    	mov    -0x374(%rbp),%eax
    7b8b:	01 c0                	add    %eax,%eax
    7b8d:	39 85 94 fc ff ff    	cmp    %eax,-0x36c(%rbp)
    7b93:	0f 8c 30 fc ff ff    	jl     77c9 <_Z7blearghv+0x2c5>
    7b99:	83 85 90 fc ff ff 01 	addl   $0x1,-0x370(%rbp)
    7ba0:	8b 85 8c fc ff ff    	mov    -0x374(%rbp),%eax
    7ba6:	01 c0                	add    %eax,%eax
    7ba8:	39 85 90 fc ff ff    	cmp    %eax,-0x370(%rbp)
    7bae:	0f 8c 06 fc ff ff    	jl     77ba <_Z7blearghv+0x2b6>
    7bb4:	db ad 30 fd ff ff    	fldt   -0x2d0(%rbp)
    7bba:	8b 85 8c fc ff ff    	mov    -0x374(%rbp),%eax
    7bc0:	89 85 78 fc ff ff    	mov    %eax,-0x388(%rbp)
    7bc6:	db 85 78 fc ff ff    	fildl  -0x388(%rbp)
    7bcc:	de f9                	fdivrp %st,%st(1)
    7bce:	db ad 30 fd ff ff    	fldt   -0x2d0(%rbp)
    7bd4:	8b 85 8c fc ff ff    	mov    -0x374(%rbp),%eax
    7bda:	89 85 78 fc ff ff    	mov    %eax,-0x388(%rbp)
    7be0:	db 85 78 fc ff ff    	fildl  -0x388(%rbp)
    7be6:	de f9                	fdivrp %st,%st(1)
    7be8:	db ad 30 fd ff ff    	fldt   -0x2d0(%rbp)
    7bee:	8b 85 8c fc ff ff    	mov    -0x374(%rbp),%eax
    7bf4:	89 85 78 fc ff ff    	mov    %eax,-0x388(%rbp)
    7bfa:	db 85 78 fc ff ff    	fildl  -0x388(%rbp)
    7c00:	de f9                	fdivrp %st,%st(1)
    7c02:	d9 ca                	fxch   %st(2)
    7c04:	8b 85 8c fc ff ff    	mov    -0x374(%rbp),%eax
    7c0a:	8d 34 00             	lea    (%rax,%rax,1),%esi
    7c0d:	8b 85 8c fc ff ff    	mov    -0x374(%rbp),%eax
    7c13:	8d 0c 00             	lea    (%rax,%rax,1),%ecx
    7c16:	8b 85 8c fc ff ff    	mov    -0x374(%rbp),%eax
    7c1c:	8d 14 00             	lea    (%rax,%rax,1),%edx
    7c1f:	48 8b 85 18 fd ff ff 	mov    -0x2e8(%rbp),%rax
    7c26:	48 8d 64 24 f0       	lea    -0x10(%rsp),%rsp
    7c2b:	db 3c 24             	fstpt  (%rsp)
    7c2e:	48 8d 64 24 f0       	lea    -0x10(%rsp),%rsp
    7c33:	db 3c 24             	fstpt  (%rsp)
    7c36:	48 8d 64 24 f0       	lea    -0x10(%rsp),%rsp
    7c3b:	db 3c 24             	fstpt  (%rsp)
    7c3e:	41 89 f0             	mov    %esi,%r8d
    7c41:	48 89 c6             	mov    %rax,%rsi
    7c44:	bf 00 00 00 00       	mov    $0x0,%edi
    7c49:	e8 d2 5c 00 00       	call   d920 <_Z12writeVTKFileiPPPPeiiieee>
    7c4e:	48 83 c4 30          	add    $0x30,%rsp
    7c52:	8b 85 8c fc ff ff    	mov    -0x374(%rbp),%eax
    7c58:	01 c0                	add    %eax,%eax
    7c5a:	89 c2                	mov    %eax,%edx
    7c5c:	8b 85 8c fc ff ff    	mov    -0x374(%rbp),%eax
    7c62:	01 c0                	add    %eax,%eax
    7c64:	89 c1                	mov    %eax,%ecx
    7c66:	8b 85 8c fc ff ff    	mov    -0x374(%rbp),%eax
    7c6c:	01 c0                	add    %eax,%eax
    7c6e:	89 ce                	mov    %ecx,%esi
    7c70:	89 c7                	mov    %eax,%edi
    7c72:	e8 d8 3e 00 00       	call   bb4f <_Z11allocate3dtjjj>
    7c77:	48 89 85 20 fd ff ff 	mov    %rax,-0x2e0(%rbp)
    7c7e:	c7 85 9c fc ff ff 00 	movl   $0x0,-0x364(%rbp)
    7c85:	00 00 00 
    7c88:	e9 9d 01 00 00       	jmp    7e2a <_Z7blearghv+0x926>
    7c8d:	c7 85 a0 fc ff ff 00 	movl   $0x0,-0x360(%rbp)
    7c94:	00 00 00 
    7c97:	e9 73 01 00 00       	jmp    7e0f <_Z7blearghv+0x90b>
    7c9c:	c7 85 a4 fc ff ff 00 	movl   $0x0,-0x35c(%rbp)
    7ca3:	00 00 00 
    7ca6:	e9 49 01 00 00       	jmp    7df4 <_Z7blearghv+0x8f0>
    7cab:	8b 85 8c fc ff ff    	mov    -0x374(%rbp),%eax
    7cb1:	0f af 85 a0 fc ff ff 	imul   -0x360(%rbp),%eax
    7cb8:	8d 14 00             	lea    (%rax,%rax,1),%edx
    7cbb:	8b 85 9c fc ff ff    	mov    -0x364(%rbp),%eax
    7cc1:	8d 0c 02             	lea    (%rdx,%rax,1),%ecx
    7cc4:	8b 85 8c fc ff ff    	mov    -0x374(%rbp),%eax
    7cca:	0f af 85 a4 fc ff ff 	imul   -0x35c(%rbp),%eax
    7cd1:	89 c2                	mov    %eax,%edx
    7cd3:	8b 85 8c fc ff ff    	mov    -0x374(%rbp),%eax
    7cd9:	0f af c2             	imul   %edx,%eax
    7cdc:	c1 e0 02             	shl    $0x2,%eax
    7cdf:	01 c8                	add    %ecx,%eax
    7ce1:	89 85 c0 fc ff ff    	mov    %eax,-0x340(%rbp)
    7ce7:	8b 85 c0 fc ff ff    	mov    -0x340(%rbp),%eax
    7ced:	48 98                	cltq   
    7cef:	48 8d 14 c5 00 00 00 	lea    0x0(,%rax,8),%rdx
    7cf6:	00 
    7cf7:	48 8b 85 08 fd ff ff 	mov    -0x2f8(%rbp),%rax
    7cfe:	48 01 d0             	add    %rdx,%rax
    7d01:	48 8b 00             	mov    (%rax),%rax
    7d04:	48 83 c0 20          	add    $0x20,%rax
    7d08:	db 28                	fldt   (%rax)
    7d0a:	dd 9d 78 fc ff ff    	fstpl  -0x388(%rbp)
    7d10:	8b 85 c0 fc ff ff    	mov    -0x340(%rbp),%eax
    7d16:	48 98                	cltq   
    7d18:	48 8d 14 c5 00 00 00 	lea    0x0(,%rax,8),%rdx
    7d1f:	00 
    7d20:	48 8b 85 08 fd ff ff 	mov    -0x2f8(%rbp),%rax
    7d27:	48 01 d0             	add    %rdx,%rax
    7d2a:	48 8b 00             	mov    (%rax),%rax
    7d2d:	48 83 c0 10          	add    $0x10,%rax
    7d31:	db 28                	fldt   (%rax)
    7d33:	dd 9d 60 fc ff ff    	fstpl  -0x3a0(%rbp)
    7d39:	8b 85 c0 fc ff ff    	mov    -0x340(%rbp),%eax
    7d3f:	48 98                	cltq   
    7d41:	48 8d 14 c5 00 00 00 	lea    0x0(,%rax,8),%rdx
    7d48:	00 
    7d49:	48 8b 85 08 fd ff ff 	mov    -0x2f8(%rbp),%rax
    7d50:	48 01 d0             	add    %rdx,%rax
    7d53:	48 8b 00             	mov    (%rax),%rax
    7d56:	db 28                	fldt   (%rax)
    7d58:	dd 9d 50 fc ff ff    	fstpl  -0x3b0(%rbp)
    7d5e:	48 8b 95 e0 fc ff ff 	mov    -0x320(%rbp),%rdx
    7d65:	48 8d 85 30 ff ff ff 	lea    -0xd0(%rbp),%rax
    7d6c:	f2 0f 10 9d 78 fc ff 	movsd  -0x388(%rbp),%xmm3
    7d73:	ff 
    7d74:	f2 0f 10 95 60 fc ff 	movsd  -0x3a0(%rbp),%xmm2
    7d7b:	ff 
    7d7c:	f2 0f 10 8d 50 fc ff 	movsd  -0x3b0(%rbp),%xmm1
    7d83:	ff 
    7d84:	66 48 0f 6e c2       	movq   %rdx,%xmm0
    7d89:	48 89 c7             	mov    %rax,%rdi
    7d8c:	e8 f1 44 00 00       	call   c282 <_Z6stressdddd>
    7d91:	8b 85 9c fc ff ff    	mov    -0x364(%rbp),%eax
    7d97:	48 98                	cltq   
    7d99:	48 8d 14 c5 00 00 00 	lea    0x0(,%rax,8),%rdx
    7da0:	00 
    7da1:	48 8b 85 20 fd ff ff 	mov    -0x2e0(%rbp),%rax
    7da8:	48 01 d0             	add    %rdx,%rax
    7dab:	48 8b 10             	mov    (%rax),%rdx
    7dae:	8b 85 a0 fc ff ff    	mov    -0x360(%rbp),%eax
    7db4:	48 98                	cltq   
    7db6:	48 c1 e0 03          	shl    $0x3,%rax
    7dba:	48 01 d0             	add    %rdx,%rax
    7dbd:	48 8b 08             	mov    (%rax),%rcx
    7dc0:	8b 85 a4 fc ff ff    	mov    -0x35c(%rbp),%eax
    7dc6:	48 63 d0             	movslq %eax,%rdx
    7dc9:	48 89 d0             	mov    %rdx,%rax
    7dcc:	48 c1 e0 03          	shl    $0x3,%rax
    7dd0:	48 01 d0             	add    %rdx,%rax
    7dd3:	48 c1 e0 03          	shl    $0x3,%rax
    7dd7:	48 8d 14 01          	lea    (%rcx,%rax,1),%rdx
    7ddb:	48 8d 85 30 ff ff ff 	lea    -0xd0(%rbp),%rax
    7de2:	48 89 c6             	mov    %rax,%rsi
    7de5:	48 89 d7             	mov    %rdx,%rdi
    7de8:	e8 8d 1b 00 00       	call   997a <_ZN6tensoraSERKS_>
    7ded:	83 85 a4 fc ff ff 01 	addl   $0x1,-0x35c(%rbp)
    7df4:	8b 85 8c fc ff ff    	mov    -0x374(%rbp),%eax
    7dfa:	01 c0                	add    %eax,%eax
    7dfc:	39 85 a4 fc ff ff    	cmp    %eax,-0x35c(%rbp)
    7e02:	0f 8c a3 fe ff ff    	jl     7cab <_Z7blearghv+0x7a7>
    7e08:	83 85 a0 fc ff ff 01 	addl   $0x1,-0x360(%rbp)
    7e0f:	8b 85 8c fc ff ff    	mov    -0x374(%rbp),%eax
    7e15:	01 c0                	add    %eax,%eax
    7e17:	39 85 a0 fc ff ff    	cmp    %eax,-0x360(%rbp)
    7e1d:	0f 8c 79 fe ff ff    	jl     7c9c <_Z7blearghv+0x798>
    7e23:	83 85 9c fc ff ff 01 	addl   $0x1,-0x364(%rbp)
    7e2a:	8b 85 8c fc ff ff    	mov    -0x374(%rbp),%eax
    7e30:	01 c0                	add    %eax,%eax
    7e32:	39 85 9c fc ff ff    	cmp    %eax,-0x364(%rbp)
    7e38:	0f 8c 4f fe ff ff    	jl     7c8d <_Z7blearghv+0x789>
    7e3e:	48 83 bd 08 fd ff ff 	cmpq   $0x0,-0x2f8(%rbp)
    7e45:	00 
    7e46:	75 28                	jne    7e70 <_Z7blearghv+0x96c>
    7e48:	48 8d 05 42 75 00 00 	lea    0x7542(%rip),%rax        # f391 <_ZN6__pstl9execution2v1L5unseqE+0x37e>
    7e4f:	48 89 c1             	mov    %rax,%rcx
    7e52:	ba c4 01 00 00       	mov    $0x1c4,%edx
    7e57:	48 8d 05 62 72 00 00 	lea    0x7262(%rip),%rax        # f0c0 <_ZN6__pstl9execution2v1L5unseqE+0xad>
    7e5e:	48 89 c6             	mov    %rax,%rsi
    7e61:	48 8d 05 37 75 00 00 	lea    0x7537(%rip),%rax        # f39f <_ZN6__pstl9execution2v1L5unseqE+0x38c>
    7e68:	48 89 c7             	mov    %rax,%rdi
    7e6b:	e8 a0 a5 ff ff       	call   2410 <__assert_fail@plt>
    7e70:	48 8d 85 40 fd ff ff 	lea    -0x2c0(%rbp),%rax
    7e77:	66 0f ef d2          	pxor   %xmm2,%xmm2
    7e7b:	66 0f ef c9          	pxor   %xmm1,%xmm1
    7e7f:	48 8b 15 6a 75 00 00 	mov    0x756a(%rip),%rdx        # f3f0 <_ZN6__pstl9execution2v1L5unseqE+0x3dd>
    7e86:	66 48 0f 6e c2       	movq   %rdx,%xmm0
    7e8b:	48 89 c7             	mov    %rax,%rdi
    7e8e:	e8 7d 14 00 00       	call   9310 <_ZN6vectorC1Eddd>
    7e93:	f2 0f 10 8d d8 fc ff 	movsd  -0x328(%rbp),%xmm1
    7e9a:	ff 
    7e9b:	f2 0f 10 85 d0 fc ff 	movsd  -0x330(%rbp),%xmm0
    7ea2:	ff 
    7ea3:	48 8b 95 c8 fc ff ff 	mov    -0x338(%rbp),%rdx
    7eaa:	48 8d 85 60 fd ff ff 	lea    -0x2a0(%rbp),%rax
    7eb1:	66 0f 28 d1          	movapd %xmm1,%xmm2
    7eb5:	66 0f 28 c8          	movapd %xmm0,%xmm1
    7eb9:	66 48 0f 6e c2       	movq   %rdx,%xmm0
    7ebe:	48 89 c7             	mov    %rax,%rdi
    7ec1:	e8 4a 14 00 00       	call   9310 <_ZN6vectorC1Eddd>
    7ec6:	48 8d 85 80 fd ff ff 	lea    -0x280(%rbp),%rax
    7ecd:	66 0f ef d2          	pxor   %xmm2,%xmm2
    7ed1:	66 0f ef c9          	pxor   %xmm1,%xmm1
    7ed5:	48 8b 15 14 75 00 00 	mov    0x7514(%rip),%rdx        # f3f0 <_ZN6__pstl9execution2v1L5unseqE+0x3dd>
    7edc:	66 48 0f 6e c2       	movq   %rdx,%xmm0
    7ee1:	48 89 c7             	mov    %rax,%rdi
    7ee4:	e8 27 14 00 00       	call   9310 <_ZN6vectorC1Eddd>
    7ee9:	48 8d 85 a0 fd ff ff 	lea    -0x260(%rbp),%rax
    7ef0:	48 89 c7             	mov    %rax,%rdi
    7ef3:	e8 b6 1f 00 00       	call   9eae <_ZNSt6vectorIiSaIiEEC1Ev>
    7ef8:	48 c7 85 f8 fc ff ff 	movq   $0x0,-0x308(%rbp)
    7eff:	00 00 00 00 
    7f03:	e9 04 01 00 00       	jmp    800c <_Z7blearghv+0xb08>
    7f08:	48 8b 85 f8 fc ff ff 	mov    -0x308(%rbp),%rax
    7f0f:	48 8d 14 c5 00 00 00 	lea    0x0(,%rax,8),%rdx
    7f16:	00 
    7f17:	48 8b 85 08 fd ff ff 	mov    -0x2f8(%rbp),%rax
    7f1e:	48 01 d0             	add    %rdx,%rax
    7f21:	48 8b 00             	mov    (%rax),%rax
    7f24:	48 83 c0 20          	add    $0x20,%rax
    7f28:	db 28                	fldt   (%rax)
    7f2a:	dd 9d 78 fc ff ff    	fstpl  -0x388(%rbp)
    7f30:	48 8b 85 f8 fc ff ff 	mov    -0x308(%rbp),%rax
    7f37:	48 8d 14 c5 00 00 00 	lea    0x0(,%rax,8),%rdx
    7f3e:	00 
    7f3f:	48 8b 85 08 fd ff ff 	mov    -0x2f8(%rbp),%rax
    7f46:	48 01 d0             	add    %rdx,%rax
    7f49:	48 8b 00             	mov    (%rax),%rax
    7f4c:	48 83 c0 10          	add    $0x10,%rax
    7f50:	db 28                	fldt   (%rax)
    7f52:	dd 9d 60 fc ff ff    	fstpl  -0x3a0(%rbp)
    7f58:	48 8b 85 f8 fc ff ff 	mov    -0x308(%rbp),%rax
    7f5f:	48 8d 14 c5 00 00 00 	lea    0x0(,%rax,8),%rdx
    7f66:	00 
    7f67:	48 8b 85 08 fd ff ff 	mov    -0x2f8(%rbp),%rax
    7f6e:	48 01 d0             	add    %rdx,%rax
    7f71:	48 8b 00             	mov    (%rax),%rax
    7f74:	db 28                	fldt   (%rax)
    7f76:	dd 9d 50 fc ff ff    	fstpl  -0x3b0(%rbp)
    7f7c:	db ad 30 fd ff ff    	fldt   -0x2d0(%rbp)
    7f82:	8b 85 8c fc ff ff    	mov    -0x374(%rbp),%eax
    7f88:	89 85 40 fc ff ff    	mov    %eax,-0x3c0(%rbp)
    7f8e:	db 85 40 fc ff ff    	fildl  -0x3c0(%rbp)
    7f94:	de f9                	fdivrp %st,%st(1)
    7f96:	dd 9d 40 fc ff ff    	fstpl  -0x3c0(%rbp)
    7f9c:	db ad 30 fd ff ff    	fldt   -0x2d0(%rbp)
    7fa2:	dd 9d 70 fc ff ff    	fstpl  -0x390(%rbp)
    7fa8:	f2 0f 10 85 70 fc ff 	movsd  -0x390(%rbp),%xmm0
    7faf:	ff 
    7fb0:	f2 0f 10 a5 78 fc ff 	movsd  -0x388(%rbp),%xmm4
    7fb7:	ff 
    7fb8:	f2 0f 10 9d 60 fc ff 	movsd  -0x3a0(%rbp),%xmm3
    7fbf:	ff 
    7fc0:	f2 0f 10 95 50 fc ff 	movsd  -0x3b0(%rbp),%xmm2
    7fc7:	ff 
    7fc8:	f2 0f 10 8d 40 fc ff 	movsd  -0x3c0(%rbp),%xmm1
    7fcf:	ff 
    7fd0:	e8 8d e9 ff ff       	call   6962 <_Z9checkcubeddddd>
    7fd5:	85 c0                	test   %eax,%eax
    7fd7:	0f 94 c0             	sete   %al
    7fda:	84 c0                	test   %al,%al
    7fdc:	74 26                	je     8004 <_Z7blearghv+0xb00>
    7fde:	48 8b 85 f8 fc ff ff 	mov    -0x308(%rbp),%rax
    7fe5:	89 85 30 ff ff ff    	mov    %eax,-0xd0(%rbp)
    7feb:	48 8d 95 30 ff ff ff 	lea    -0xd0(%rbp),%rdx
    7ff2:	48 8d 85 a0 fd ff ff 	lea    -0x260(%rbp),%rax
    7ff9:	48 89 d6             	mov    %rdx,%rsi
    7ffc:	48 89 c7             	mov    %rax,%rdi
    7fff:	e8 36 21 00 00       	call   a13a <_ZNSt6vectorIiSaIiEE9push_backEOi>
    8004:	48 83 85 f8 fc ff ff 	addq   $0x1,-0x308(%rbp)
    800b:	01 
    800c:	8b 95 8c fc ff ff    	mov    -0x374(%rbp),%edx
    8012:	8b 85 8c fc ff ff    	mov    -0x374(%rbp),%eax
    8018:	0f af d0             	imul   %eax,%edx
    801b:	8b 85 8c fc ff ff    	mov    -0x374(%rbp),%eax
    8021:	0f af c2             	imul   %edx,%eax
    8024:	c1 e0 03             	shl    $0x3,%eax
    8027:	48 98                	cltq   
    8029:	48 39 85 f8 fc ff ff 	cmp    %rax,-0x308(%rbp)
    8030:	0f 82 d2 fe ff ff    	jb     7f08 <_Z7blearghv+0xa04>
    8036:	c7 85 a8 fc ff ff 00 	movl   $0x0,-0x358(%rbp)
    803d:	00 00 00 
    8040:	e9 10 0a 00 00       	jmp    8a55 <_Z7blearghv+0x1551>
    8045:	f2 0f 10 a5 e0 fc ff 	movsd  -0x320(%rbp),%xmm4
    804c:	ff 
    804d:	f2 0f 11 a5 78 fc ff 	movsd  %xmm4,-0x388(%rbp)
    8054:	ff 
    8055:	8b 9d 8c fc ff ff    	mov    -0x374(%rbp),%ebx
    805b:	db ad 30 fd ff ff    	fldt   -0x2d0(%rbp)
    8061:	db bd 60 fc ff ff    	fstpt  -0x3a0(%rbp)
    8067:	db ad 30 fd ff ff    	fldt   -0x2d0(%rbp)
    806d:	db bd 50 fc ff ff    	fstpt  -0x3b0(%rbp)
    8073:	8b 85 88 fc ff ff    	mov    -0x378(%rbp),%eax
    8079:	41 89 c7             	mov    %eax,%r15d
    807c:	8b 85 84 fc ff ff    	mov    -0x37c(%rbp),%eax
    8082:	41 89 c6             	mov    %eax,%r14d
    8085:	48 8d 85 60 fd ff ff 	lea    -0x2a0(%rbp),%rax
    808c:	48 89 c7             	mov    %rax,%rdi
    808f:	e8 06 13 00 00       	call   939a <_ZN6vector1ZEv>
    8094:	66 49 0f 7e c5       	movq   %xmm0,%r13
    8099:	48 8d 85 60 fd ff ff 	lea    -0x2a0(%rbp),%rax
    80a0:	48 89 c7             	mov    %rax,%rdi
    80a3:	e8 d0 12 00 00       	call   9378 <_ZN6vector1YEv>
    80a8:	66 49 0f 7e c4       	movq   %xmm0,%r12
    80ad:	48 8d 85 60 fd ff ff 	lea    -0x2a0(%rbp),%rax
    80b4:	48 89 c7             	mov    %rax,%rdi
    80b7:	e8 9c 12 00 00       	call   9358 <_ZN6vector1XEv>
    80bc:	66 48 0f 7e c0       	movq   %xmm0,%rax
    80c1:	48 8d bd c0 fd ff ff 	lea    -0x240(%rbp),%rdi
    80c8:	48 8d 8d a0 fd ff ff 	lea    -0x260(%rbp),%rcx
    80cf:	48 8b 95 08 fd ff ff 	mov    -0x2f8(%rbp),%rdx
    80d6:	48 83 ec 08          	sub    $0x8,%rsp
    80da:	ff b5 10 fd ff ff    	push   -0x2f0(%rbp)
    80e0:	ff b5 68 fc ff ff    	push   -0x398(%rbp)
    80e6:	ff b5 60 fc ff ff    	push   -0x3a0(%rbp)
    80ec:	ff b5 58 fc ff ff    	push   -0x3a8(%rbp)
    80f2:	ff b5 50 fc ff ff    	push   -0x3b0(%rbp)
    80f8:	49 89 c9             	mov    %rcx,%r9
    80fb:	49 89 d0             	mov    %rdx,%r8
    80fe:	f2 0f 10 9d 78 fc ff 	movsd  -0x388(%rbp),%xmm3
    8105:	ff 
    8106:	89 d9                	mov    %ebx,%ecx
    8108:	44 89 fa             	mov    %r15d,%edx
    810b:	44 89 f6             	mov    %r14d,%esi
    810e:	66 49 0f 6e d5       	movq   %r13,%xmm2
    8113:	66 49 0f 6e cc       	movq   %r12,%xmm1
    8118:	66 48 0f 6e c0       	movq   %rax,%xmm0
    811d:	e8 1e ed ff ff       	call   6e40 <_Z5forcedddjjeeidPPeRKSt6vectorIiSaIiEEPS0_>
    8122:	48 83 c4 30          	add    $0x30,%rsp
    8126:	f2 0f 10 85 e8 fc ff 	movsd  -0x318(%rbp),%xmm0
    812d:	ff 
    812e:	f2 0f 58 c0          	addsd  %xmm0,%xmm0
    8132:	f2 0f 11 85 78 fc ff 	movsd  %xmm0,-0x388(%rbp)
    8139:	ff 
    813a:	dd 85 78 fc ff ff    	fldl   -0x388(%rbp)
    8140:	db ad 30 fd ff ff    	fldt   -0x2d0(%rbp)
    8146:	de c9                	fmulp  %st,%st(1)
    8148:	db ad 30 fd ff ff    	fldt   -0x2d0(%rbp)
    814e:	de c9                	fmulp  %st,%st(1)
    8150:	db 2d 3a 73 00 00    	fldt   0x733a(%rip)        # f490 <_ZN6__pstl9execution2v1L5unseqE+0x47d>
    8156:	de f9                	fdivrp %st,%st(1)
    8158:	dd 9d 78 fc ff ff    	fstpl  -0x388(%rbp)
    815e:	f2 0f 10 ad e0 fc ff 	movsd  -0x320(%rbp),%xmm5
    8165:	ff 
    8166:	f2 0f 11 ad 60 fc ff 	movsd  %xmm5,-0x3a0(%rbp)
    816d:	ff 
    816e:	8b 9d 8c fc ff ff    	mov    -0x374(%rbp),%ebx
    8174:	db ad 30 fd ff ff    	fldt   -0x2d0(%rbp)
    817a:	db bd 50 fc ff ff    	fstpt  -0x3b0(%rbp)
    8180:	db ad 30 fd ff ff    	fldt   -0x2d0(%rbp)
    8186:	db bd 40 fc ff ff    	fstpt  -0x3c0(%rbp)
    818c:	8b 85 88 fc ff ff    	mov    -0x378(%rbp),%eax
    8192:	41 89 c7             	mov    %eax,%r15d
    8195:	8b 85 84 fc ff ff    	mov    -0x37c(%rbp),%eax
    819b:	41 89 c6             	mov    %eax,%r14d
    819e:	48 8d 85 60 fd ff ff 	lea    -0x2a0(%rbp),%rax
    81a5:	48 89 c7             	mov    %rax,%rdi
    81a8:	e8 ed 11 00 00       	call   939a <_ZN6vector1ZEv>
    81ad:	66 49 0f 7e c5       	movq   %xmm0,%r13
    81b2:	48 8d 85 60 fd ff ff 	lea    -0x2a0(%rbp),%rax
    81b9:	48 89 c7             	mov    %rax,%rdi
    81bc:	e8 b7 11 00 00       	call   9378 <_ZN6vector1YEv>
    81c1:	66 49 0f 7e c4       	movq   %xmm0,%r12
    81c6:	48 8d 85 60 fd ff ff 	lea    -0x2a0(%rbp),%rax
    81cd:	48 89 c7             	mov    %rax,%rdi
    81d0:	e8 83 11 00 00       	call   9358 <_ZN6vector1XEv>
    81d5:	66 48 0f 7e c0       	movq   %xmm0,%rax
    81da:	48 8d bd 40 fe ff ff 	lea    -0x1c0(%rbp),%rdi
    81e1:	48 8d 8d a0 fd ff ff 	lea    -0x260(%rbp),%rcx
    81e8:	48 8b 95 08 fd ff ff 	mov    -0x2f8(%rbp),%rdx
    81ef:	48 83 ec 08          	sub    $0x8,%rsp
    81f3:	ff b5 10 fd ff ff    	push   -0x2f0(%rbp)
    81f9:	ff b5 58 fc ff ff    	push   -0x3a8(%rbp)
    81ff:	ff b5 50 fc ff ff    	push   -0x3b0(%rbp)
    8205:	ff b5 48 fc ff ff    	push   -0x3b8(%rbp)
    820b:	ff b5 40 fc ff ff    	push   -0x3c0(%rbp)
    8211:	49 89 c9             	mov    %rcx,%r9
    8214:	49 89 d0             	mov    %rdx,%r8
    8217:	f2 0f 10 9d 60 fc ff 	movsd  -0x3a0(%rbp),%xmm3
    821e:	ff 
    821f:	89 d9                	mov    %ebx,%ecx
    8221:	44 89 fa             	mov    %r15d,%edx
    8224:	44 89 f6             	mov    %r14d,%esi
    8227:	66 49 0f 6e d5       	movq   %r13,%xmm2
    822c:	66 49 0f 6e cc       	movq   %r12,%xmm1
    8231:	66 48 0f 6e c0       	movq   %rax,%xmm0
    8236:	e8 67 ef ff ff       	call   71a2 <_Z6torquedddjjeeidPPeRKSt6vectorIiSaIiEEPS0_>
    823b:	48 83 c4 30          	add    $0x30,%rsp
    823f:	48 8d 85 90 fe ff ff 	lea    -0x170(%rbp),%rax
    8246:	48 8b 8d 00 fd ff ff 	mov    -0x300(%rbp),%rcx
    824d:	48 8d 95 40 fe ff ff 	lea    -0x1c0(%rbp),%rdx
    8254:	66 48 0f 6e c1       	movq   %rcx,%xmm0
    8259:	48 89 d6             	mov    %rdx,%rsi
    825c:	48 89 c7             	mov    %rax,%rdi
    825f:	e8 a8 13 00 00       	call   960c <_ZN6vectormlEd>
    8264:	48 8d 85 e0 fe ff ff 	lea    -0x120(%rbp),%rax
    826b:	48 8d 95 90 fe ff ff 	lea    -0x170(%rbp),%rdx
    8272:	f2 0f 10 85 78 fc ff 	movsd  -0x388(%rbp),%xmm0
    8279:	ff 
    827a:	48 89 d6             	mov    %rdx,%rsi
    827d:	48 89 c7             	mov    %rax,%rdi
    8280:	e8 ef 13 00 00       	call   9674 <_ZN6vectordvEd>
    8285:	48 8d 85 30 ff ff ff 	lea    -0xd0(%rbp),%rax
    828c:	48 8d 95 e0 fe ff ff 	lea    -0x120(%rbp),%rdx
    8293:	48 8d 8d 80 fd ff ff 	lea    -0x280(%rbp),%rcx
    829a:	48 89 ce             	mov    %rcx,%rsi
    829d:	48 89 c7             	mov    %rax,%rdi
    82a0:	e8 63 12 00 00       	call   9508 <_ZN6vectorplERKS_>
    82a5:	48 8d 95 30 ff ff ff 	lea    -0xd0(%rbp),%rdx
    82ac:	48 8d 85 80 fd ff ff 	lea    -0x280(%rbp),%rax
    82b3:	48 89 d6             	mov    %rdx,%rsi
    82b6:	48 89 c7             	mov    %rax,%rdi
    82b9:	e8 1e 14 00 00       	call   96dc <_ZN6vectoraSERKS_>
    82be:	f2 0f 10 85 e8 fc ff 	movsd  -0x318(%rbp),%xmm0
    82c5:	ff 
    82c6:	f2 0f 58 c0          	addsd  %xmm0,%xmm0
    82ca:	66 48 0f 7e c3       	movq   %xmm0,%rbx
    82cf:	48 8d 85 40 fe ff ff 	lea    -0x1c0(%rbp),%rax
    82d6:	48 8b 8d 00 fd ff ff 	mov    -0x300(%rbp),%rcx
    82dd:	48 8d 95 c0 fd ff ff 	lea    -0x240(%rbp),%rdx
    82e4:	66 48 0f 6e c1       	movq   %rcx,%xmm0
    82e9:	48 89 d6             	mov    %rdx,%rsi
    82ec:	48 89 c7             	mov    %rax,%rdi
    82ef:	e8 18 13 00 00       	call   960c <_ZN6vectormlEd>
    82f4:	48 8d 85 90 fe ff ff 	lea    -0x170(%rbp),%rax
    82fb:	48 8b 8d 00 fd ff ff 	mov    -0x300(%rbp),%rcx
    8302:	48 8d 95 40 fe ff ff 	lea    -0x1c0(%rbp),%rdx
    8309:	66 48 0f 6e c1       	movq   %rcx,%xmm0
    830e:	48 89 d6             	mov    %rdx,%rsi
    8311:	48 89 c7             	mov    %rax,%rdi
    8314:	e8 f3 12 00 00       	call   960c <_ZN6vectormlEd>
    8319:	48 8d 85 e0 fe ff ff 	lea    -0x120(%rbp),%rax
    8320:	48 8d 95 90 fe ff ff 	lea    -0x170(%rbp),%rdx
    8327:	66 48 0f 6e c3       	movq   %rbx,%xmm0
    832c:	48 89 d6             	mov    %rdx,%rsi
    832f:	48 89 c7             	mov    %rax,%rdi
    8332:	e8 3d 13 00 00       	call   9674 <_ZN6vectordvEd>
    8337:	48 8d 85 00 fe ff ff 	lea    -0x200(%rbp),%rax
    833e:	48 8b 8d 00 fd ff ff 	mov    -0x300(%rbp),%rcx
    8345:	48 8d 95 40 fd ff ff 	lea    -0x2c0(%rbp),%rdx
    834c:	66 48 0f 6e c1       	movq   %rcx,%xmm0
    8351:	48 89 d6             	mov    %rdx,%rsi
    8354:	48 89 c7             	mov    %rax,%rdi
    8357:	e8 b0 12 00 00       	call   960c <_ZN6vectormlEd>
    835c:	48 8d 85 20 fe ff ff 	lea    -0x1e0(%rbp),%rax
    8363:	48 8d 95 00 fe ff ff 	lea    -0x200(%rbp),%rdx
    836a:	48 8d 8d 60 fd ff ff 	lea    -0x2a0(%rbp),%rcx
    8371:	48 89 ce             	mov    %rcx,%rsi
    8374:	48 89 c7             	mov    %rax,%rdi
    8377:	e8 8c 11 00 00       	call   9508 <_ZN6vectorplERKS_>
    837c:	48 8d 85 30 ff ff ff 	lea    -0xd0(%rbp),%rax
    8383:	48 8d 95 e0 fe ff ff 	lea    -0x120(%rbp),%rdx
    838a:	48 8d 8d 20 fe ff ff 	lea    -0x1e0(%rbp),%rcx
    8391:	48 89 ce             	mov    %rcx,%rsi
    8394:	48 89 c7             	mov    %rax,%rdi
    8397:	e8 6c 11 00 00       	call   9508 <_ZN6vectorplERKS_>
    839c:	48 8d 95 30 ff ff ff 	lea    -0xd0(%rbp),%rdx
    83a3:	48 8d 85 60 fd ff ff 	lea    -0x2a0(%rbp),%rax
    83aa:	48 89 d6             	mov    %rdx,%rsi
    83ad:	48 89 c7             	mov    %rax,%rdi
    83b0:	e8 27 13 00 00       	call   96dc <_ZN6vectoraSERKS_>
    83b5:	db ad 30 fd ff ff    	fldt   -0x2d0(%rbp)
    83bb:	8b 85 8c fc ff ff    	mov    -0x374(%rbp),%eax
    83c1:	89 85 78 fc ff ff    	mov    %eax,-0x388(%rbp)
    83c7:	db 85 78 fc ff ff    	fildl  -0x388(%rbp)
    83cd:	de f9                	fdivrp %st,%st(1)
    83cf:	dd 9d 78 fc ff ff    	fstpl  -0x388(%rbp)
    83d5:	f2 0f 10 85 78 fc ff 	movsd  -0x388(%rbp),%xmm0
    83dc:	ff 
    83dd:	8b 85 8c fc ff ff    	mov    -0x374(%rbp),%eax
    83e3:	8d 14 00             	lea    (%rax,%rax,1),%edx
    83e6:	48 8b 85 20 fd ff ff 	mov    -0x2e0(%rbp),%rax
    83ed:	89 d6                	mov    %edx,%esi
    83ef:	48 89 c7             	mov    %rax,%rdi
    83f2:	e8 99 4c 00 00       	call   d090 <_Z9divtenallPPP6tensorid>
    83f7:	48 89 85 28 fd ff ff 	mov    %rax,-0x2d8(%rbp)
    83fe:	c7 85 ac fc ff ff 00 	movl   $0x0,-0x354(%rbp)
    8405:	00 00 00 
    8408:	e9 2d 06 00 00       	jmp    8a3a <_Z7blearghv+0x1536>
    840d:	c7 85 b0 fc ff ff 00 	movl   $0x0,-0x350(%rbp)
    8414:	00 00 00 
    8417:	e9 03 06 00 00       	jmp    8a1f <_Z7blearghv+0x151b>
    841c:	c7 85 b4 fc ff ff 00 	movl   $0x0,-0x34c(%rbp)
    8423:	00 00 00 
    8426:	e9 d9 05 00 00       	jmp    8a04 <_Z7blearghv+0x1500>
    842b:	8b 85 8c fc ff ff    	mov    -0x374(%rbp),%eax
    8431:	0f af 85 b0 fc ff ff 	imul   -0x350(%rbp),%eax
    8438:	8d 14 00             	lea    (%rax,%rax,1),%edx
    843b:	8b 85 ac fc ff ff    	mov    -0x354(%rbp),%eax
    8441:	8d 0c 02             	lea    (%rdx,%rax,1),%ecx
    8444:	8b 85 8c fc ff ff    	mov    -0x374(%rbp),%eax
    844a:	0f af 85 b4 fc ff ff 	imul   -0x34c(%rbp),%eax
    8451:	89 c2                	mov    %eax,%edx
    8453:	8b 85 8c fc ff ff    	mov    -0x374(%rbp),%eax
    8459:	0f af c2             	imul   %edx,%eax
    845c:	c1 e0 02             	shl    $0x2,%eax
    845f:	01 c8                	add    %ecx,%eax
    8461:	89 85 bc fc ff ff    	mov    %eax,-0x344(%rbp)
    8467:	48 8b 85 18 fd ff ff 	mov    -0x2e8(%rbp),%rax
    846e:	48 83 c0 10          	add    $0x10,%rax
    8472:	48 8b 10             	mov    (%rax),%rdx
    8475:	8b 85 ac fc ff ff    	mov    -0x354(%rbp),%eax
    847b:	48 98                	cltq   
    847d:	48 c1 e0 03          	shl    $0x3,%rax
    8481:	48 01 d0             	add    %rdx,%rax
    8484:	48 8b 10             	mov    (%rax),%rdx
    8487:	8b 85 b0 fc ff ff    	mov    -0x350(%rbp),%eax
    848d:	48 98                	cltq   
    848f:	48 c1 e0 03          	shl    $0x3,%rax
    8493:	48 01 d0             	add    %rdx,%rax
    8496:	48 8b 10             	mov    (%rax),%rdx
    8499:	8b 85 b4 fc ff ff    	mov    -0x34c(%rbp),%eax
    849f:	48 98                	cltq   
    84a1:	48 c1 e0 04          	shl    $0x4,%rax
    84a5:	48 01 d0             	add    %rdx,%rax
    84a8:	db 28                	fldt   (%rax)
    84aa:	dd 9d 78 fc ff ff    	fstpl  -0x388(%rbp)
    84b0:	48 8b 85 18 fd ff ff 	mov    -0x2e8(%rbp),%rax
    84b7:	48 83 c0 08          	add    $0x8,%rax
    84bb:	48 8b 10             	mov    (%rax),%rdx
    84be:	8b 85 ac fc ff ff    	mov    -0x354(%rbp),%eax
    84c4:	48 98                	cltq   
    84c6:	48 c1 e0 03          	shl    $0x3,%rax
    84ca:	48 01 d0             	add    %rdx,%rax
    84cd:	48 8b 10             	mov    (%rax),%rdx
    84d0:	8b 85 b0 fc ff ff    	mov    -0x350(%rbp),%eax
    84d6:	48 98                	cltq   
    84d8:	48 c1 e0 03          	shl    $0x3,%rax
    84dc:	48 01 d0             	add    %rdx,%rax
    84df:	48 8b 10             	mov    (%rax),%rdx
    84e2:	8b 85 b4 fc ff ff    	mov    -0x34c(%rbp),%eax
    84e8:	48 98                	cltq   
    84ea:	48 c1 e0 04          	shl    $0x4,%rax
    84ee:	48 01 d0             	add    %rdx,%rax
    84f1:	db 28                	fldt   (%rax)
    84f3:	dd 9d 60 fc ff ff    	fstpl  -0x3a0(%rbp)
    84f9:	48 8b 85 18 fd ff ff 	mov    -0x2e8(%rbp),%rax
    8500:	48 8b 10             	mov    (%rax),%rdx
    8503:	8b 85 ac fc ff ff    	mov    -0x354(%rbp),%eax
    8509:	48 98                	cltq   
    850b:	48 c1 e0 03          	shl    $0x3,%rax
    850f:	48 01 d0             	add    %rdx,%rax
    8512:	48 8b 10             	mov    (%rax),%rdx
    8515:	8b 85 b0 fc ff ff    	mov    -0x350(%rbp),%eax
    851b:	48 98                	cltq   
    851d:	48 c1 e0 03          	shl    $0x3,%rax
    8521:	48 01 d0             	add    %rdx,%rax
    8524:	48 8b 10             	mov    (%rax),%rdx
    8527:	8b 85 b4 fc ff ff    	mov    -0x34c(%rbp),%eax
    852d:	48 98                	cltq   
    852f:	48 c1 e0 04          	shl    $0x4,%rax
    8533:	48 01 d0             	add    %rdx,%rax
    8536:	db 28                	fldt   (%rax)
    8538:	dd 9d 50 fc ff ff    	fstpl  -0x3b0(%rbp)
    853e:	f2 0f 10 85 50 fc ff 	movsd  -0x3b0(%rbp),%xmm0
    8545:	ff 
    8546:	48 8d 85 e0 fd ff ff 	lea    -0x220(%rbp),%rax
    854d:	f2 0f 10 95 78 fc ff 	movsd  -0x388(%rbp),%xmm2
    8554:	ff 
    8555:	f2 0f 10 8d 60 fc ff 	movsd  -0x3a0(%rbp),%xmm1
    855c:	ff 
    855d:	48 89 c7             	mov    %rax,%rdi
    8560:	e8 ab 0d 00 00       	call   9310 <_ZN6vectorC1Eddd>
    8565:	db ad 30 fd ff ff    	fldt   -0x2d0(%rbp)
    856b:	8b 85 8c fc ff ff    	mov    -0x374(%rbp),%eax
    8571:	89 85 78 fc ff ff    	mov    %eax,-0x388(%rbp)
    8577:	db 85 78 fc ff ff    	fildl  -0x388(%rbp)
    857d:	de f9                	fdivrp %st,%st(1)
    857f:	dd 9d 78 fc ff ff    	fstpl  -0x388(%rbp)
    8585:	8b 85 8c fc ff ff    	mov    -0x374(%rbp),%eax
    858b:	8d 34 00             	lea    (%rax,%rax,1),%esi
    858e:	66 0f ef c9          	pxor   %xmm1,%xmm1
    8592:	f2 0f 2a 8d b4 fc ff 	cvtsi2sdl -0x34c(%rbp),%xmm1
    8599:	ff 
    859a:	66 0f ef c0          	pxor   %xmm0,%xmm0
    859e:	f2 0f 2a 85 b0 fc ff 	cvtsi2sdl -0x350(%rbp),%xmm0
    85a5:	ff 
    85a6:	66 0f ef f6          	pxor   %xmm6,%xmm6
    85aa:	f2 0f 2a b5 ac fc ff 	cvtsi2sdl -0x354(%rbp),%xmm6
    85b1:	ff 
    85b2:	66 48 0f 7e f1       	movq   %xmm6,%rcx
    85b7:	48 8d 85 40 fe ff ff 	lea    -0x1c0(%rbp),%rax
    85be:	48 8b 95 18 fd ff ff 	mov    -0x2e8(%rbp),%rdx
    85c5:	f2 0f 10 9d 78 fc ff 	movsd  -0x388(%rbp),%xmm3
    85cc:	ff 
    85cd:	66 0f 28 d1          	movapd %xmm1,%xmm2
    85d1:	66 0f 28 c8          	movapd %xmm0,%xmm1
    85d5:	66 48 0f 6e c1       	movq   %rcx,%xmm0
    85da:	48 89 c7             	mov    %rax,%rdi
    85dd:	e8 55 e4 ff ff       	call   6a37 <_Z5gradvdddidPPPPe>
    85e2:	48 8d 85 30 ff ff ff 	lea    -0xd0(%rbp),%rax
    85e9:	48 8d 95 40 fe ff ff 	lea    -0x1c0(%rbp),%rdx
    85f0:	48 89 d6             	mov    %rdx,%rsi
    85f3:	48 89 c7             	mov    %rax,%rdi
    85f6:	e8 ed 13 00 00       	call   99e8 <_ZN6tensor9transposeEv>
    85fb:	48 8d 85 00 fe ff ff 	lea    -0x200(%rbp),%rax
    8602:	48 8d 95 30 ff ff ff 	lea    -0xd0(%rbp),%rdx
    8609:	48 83 ec 08          	sub    $0x8,%rsp
    860d:	ff b5 f0 fd ff ff    	push   -0x210(%rbp)
    8613:	ff b5 e8 fd ff ff    	push   -0x218(%rbp)
    8619:	ff b5 e0 fd ff ff    	push   -0x220(%rbp)
    861f:	48 89 d6             	mov    %rdx,%rsi
    8622:	48 89 c7             	mov    %rax,%rdi
    8625:	e8 08 16 00 00       	call   9c32 <_ZN6tensormlE6vector>
    862a:	48 83 c4 20          	add    $0x20,%rsp
    862e:	8b 85 ac fc ff ff    	mov    -0x354(%rbp),%eax
    8634:	48 98                	cltq   
    8636:	48 8d 14 c5 00 00 00 	lea    0x0(,%rax,8),%rdx
    863d:	00 
    863e:	48 8b 85 28 fd ff ff 	mov    -0x2d8(%rbp),%rax
    8645:	48 01 d0             	add    %rdx,%rax
    8648:	48 8b 10             	mov    (%rax),%rdx
    864b:	8b 85 b0 fc ff ff    	mov    -0x350(%rbp),%eax
    8651:	48 98                	cltq   
    8653:	48 c1 e0 03          	shl    $0x3,%rax
    8657:	48 01 d0             	add    %rdx,%rax
    865a:	48 8b 08             	mov    (%rax),%rcx
    865d:	8b 85 b4 fc ff ff    	mov    -0x34c(%rbp),%eax
    8663:	48 63 d0             	movslq %eax,%rdx
    8666:	48 89 d0             	mov    %rdx,%rax
    8669:	48 01 c0             	add    %rax,%rax
    866c:	48 01 d0             	add    %rdx,%rax
    866f:	48 c1 e0 03          	shl    $0x3,%rax
    8673:	48 01 c1             	add    %rax,%rcx
    8676:	48 8d 85 20 fe ff ff 	lea    -0x1e0(%rbp),%rax
    867d:	48 8d 95 00 fe ff ff 	lea    -0x200(%rbp),%rdx
    8684:	48 89 ce             	mov    %rcx,%rsi
    8687:	48 89 c7             	mov    %rax,%rdi
    868a:	e8 fb 0e 00 00       	call   958a <_ZN6vectormiERKS_>
    868f:	48 8d 85 20 fe ff ff 	lea    -0x1e0(%rbp),%rax
    8696:	48 89 c7             	mov    %rax,%rdi
    8699:	e8 ba 0c 00 00       	call   9358 <_ZN6vector1XEv>
    869e:	66 48 0f 7e c0       	movq   %xmm0,%rax
    86a3:	66 48 0f 6e e8       	movq   %rax,%xmm5
    86a8:	f2 0f 59 ad 00 fd ff 	mulsd  -0x300(%rbp),%xmm5
    86af:	ff 
    86b0:	f2 0f 11 ad 78 fc ff 	movsd  %xmm5,-0x388(%rbp)
    86b7:	ff 
    86b8:	48 8b 85 18 fd ff ff 	mov    -0x2e8(%rbp),%rax
    86bf:	48 8b 10             	mov    (%rax),%rdx
    86c2:	8b 85 ac fc ff ff    	mov    -0x354(%rbp),%eax
    86c8:	48 98                	cltq   
    86ca:	48 c1 e0 03          	shl    $0x3,%rax
    86ce:	48 01 d0             	add    %rdx,%rax
    86d1:	48 8b 10             	mov    (%rax),%rdx
    86d4:	8b 85 b0 fc ff ff    	mov    -0x350(%rbp),%eax
    86da:	48 98                	cltq   
    86dc:	48 c1 e0 03          	shl    $0x3,%rax
    86e0:	48 01 d0             	add    %rdx,%rax
    86e3:	48 8b 10             	mov    (%rax),%rdx
    86e6:	8b 85 b4 fc ff ff    	mov    -0x34c(%rbp),%eax
    86ec:	48 98                	cltq   
    86ee:	48 c1 e0 04          	shl    $0x4,%rax
    86f2:	48 01 d0             	add    %rdx,%rax
    86f5:	db 28                	fldt   (%rax)
    86f7:	dd 85 78 fc ff ff    	fldl   -0x388(%rbp)
    86fd:	48 8b 85 18 fd ff ff 	mov    -0x2e8(%rbp),%rax
    8704:	48 8b 10             	mov    (%rax),%rdx
    8707:	8b 85 ac fc ff ff    	mov    -0x354(%rbp),%eax
    870d:	48 98                	cltq   
    870f:	48 c1 e0 03          	shl    $0x3,%rax
    8713:	48 01 d0             	add    %rdx,%rax
    8716:	48 8b 10             	mov    (%rax),%rdx
    8719:	8b 85 b0 fc ff ff    	mov    -0x350(%rbp),%eax
    871f:	48 98                	cltq   
    8721:	48 c1 e0 03          	shl    $0x3,%rax
    8725:	48 01 d0             	add    %rdx,%rax
    8728:	48 8b 10             	mov    (%rax),%rdx
    872b:	8b 85 b4 fc ff ff    	mov    -0x34c(%rbp),%eax
    8731:	48 98                	cltq   
    8733:	48 c1 e0 04          	shl    $0x4,%rax
    8737:	48 01 d0             	add    %rdx,%rax
    873a:	de c1                	faddp  %st,%st(1)
    873c:	db 38                	fstpt  (%rax)
    873e:	48 8d 85 20 fe ff ff 	lea    -0x1e0(%rbp),%rax
    8745:	48 89 c7             	mov    %rax,%rdi
    8748:	e8 2b 0c 00 00       	call   9378 <_ZN6vector1YEv>
    874d:	66 48 0f 7e c0       	movq   %xmm0,%rax
    8752:	66 48 0f 6e f0       	movq   %rax,%xmm6
    8757:	f2 0f 59 b5 00 fd ff 	mulsd  -0x300(%rbp),%xmm6
    875e:	ff 
    875f:	f2 0f 11 b5 78 fc ff 	movsd  %xmm6,-0x388(%rbp)
    8766:	ff 
    8767:	48 8b 85 18 fd ff ff 	mov    -0x2e8(%rbp),%rax
    876e:	48 83 c0 08          	add    $0x8,%rax
    8772:	48 8b 10             	mov    (%rax),%rdx
    8775:	8b 85 ac fc ff ff    	mov    -0x354(%rbp),%eax
    877b:	48 98                	cltq   
    877d:	48 c1 e0 03          	shl    $0x3,%rax
    8781:	48 01 d0             	add    %rdx,%rax
    8784:	48 8b 10             	mov    (%rax),%rdx
    8787:	8b 85 b0 fc ff ff    	mov    -0x350(%rbp),%eax
    878d:	48 98                	cltq   
    878f:	48 c1 e0 03          	shl    $0x3,%rax
    8793:	48 01 d0             	add    %rdx,%rax
    8796:	48 8b 10             	mov    (%rax),%rdx
    8799:	8b 85 b4 fc ff ff    	mov    -0x34c(%rbp),%eax
    879f:	48 98                	cltq   
    87a1:	48 c1 e0 04          	shl    $0x4,%rax
    87a5:	48 01 d0             	add    %rdx,%rax
    87a8:	db 28                	fldt   (%rax)
    87aa:	dd 85 78 fc ff ff    	fldl   -0x388(%rbp)
    87b0:	48 8b 85 18 fd ff ff 	mov    -0x2e8(%rbp),%rax
    87b7:	48 83 c0 08          	add    $0x8,%rax
    87bb:	48 8b 10             	mov    (%rax),%rdx
    87be:	8b 85 ac fc ff ff    	mov    -0x354(%rbp),%eax
    87c4:	48 98                	cltq   
    87c6:	48 c1 e0 03          	shl    $0x3,%rax
    87ca:	48 01 d0             	add    %rdx,%rax
    87cd:	48 8b 10             	mov    (%rax),%rdx
    87d0:	8b 85 b0 fc ff ff    	mov    -0x350(%rbp),%eax
    87d6:	48 98                	cltq   
    87d8:	48 c1 e0 03          	shl    $0x3,%rax
    87dc:	48 01 d0             	add    %rdx,%rax
    87df:	48 8b 10             	mov    (%rax),%rdx
    87e2:	8b 85 b4 fc ff ff    	mov    -0x34c(%rbp),%eax
    87e8:	48 98                	cltq   
    87ea:	48 c1 e0 04          	shl    $0x4,%rax
    87ee:	48 01 d0             	add    %rdx,%rax
    87f1:	de c1                	faddp  %st,%st(1)
    87f3:	db 38                	fstpt  (%rax)
    87f5:	48 8d 85 20 fe ff ff 	lea    -0x1e0(%rbp),%rax
    87fc:	48 89 c7             	mov    %rax,%rdi
    87ff:	e8 96 0b 00 00       	call   939a <_ZN6vector1ZEv>
    8804:	66 48 0f 7e c0       	movq   %xmm0,%rax
    8809:	66 48 0f 6e f8       	movq   %rax,%xmm7
    880e:	f2 0f 59 bd 00 fd ff 	mulsd  -0x300(%rbp),%xmm7
    8815:	ff 
    8816:	f2 0f 11 bd 78 fc ff 	movsd  %xmm7,-0x388(%rbp)
    881d:	ff 
    881e:	48 8b 85 18 fd ff ff 	mov    -0x2e8(%rbp),%rax
    8825:	48 83 c0 10          	add    $0x10,%rax
    8829:	48 8b 10             	mov    (%rax),%rdx
    882c:	8b 85 ac fc ff ff    	mov    -0x354(%rbp),%eax
    8832:	48 98                	cltq   
    8834:	48 c1 e0 03          	shl    $0x3,%rax
    8838:	48 01 d0             	add    %rdx,%rax
    883b:	48 8b 10             	mov    (%rax),%rdx
    883e:	8b 85 b0 fc ff ff    	mov    -0x350(%rbp),%eax
    8844:	48 98                	cltq   
    8846:	48 c1 e0 03          	shl    $0x3,%rax
    884a:	48 01 d0             	add    %rdx,%rax
    884d:	48 8b 10             	mov    (%rax),%rdx
    8850:	8b 85 b4 fc ff ff    	mov    -0x34c(%rbp),%eax
    8856:	48 98                	cltq   
    8858:	48 c1 e0 04          	shl    $0x4,%rax
    885c:	48 01 d0             	add    %rdx,%rax
    885f:	db 28                	fldt   (%rax)
    8861:	dd 85 78 fc ff ff    	fldl   -0x388(%rbp)
    8867:	48 8b 85 18 fd ff ff 	mov    -0x2e8(%rbp),%rax
    886e:	48 83 c0 10          	add    $0x10,%rax
    8872:	48 8b 10             	mov    (%rax),%rdx
    8875:	8b 85 ac fc ff ff    	mov    -0x354(%rbp),%eax
    887b:	48 98                	cltq   
    887d:	48 c1 e0 03          	shl    $0x3,%rax
    8881:	48 01 d0             	add    %rdx,%rax
    8884:	48 8b 10             	mov    (%rax),%rdx
    8887:	8b 85 b0 fc ff ff    	mov    -0x350(%rbp),%eax
    888d:	48 98                	cltq   
    888f:	48 c1 e0 03          	shl    $0x3,%rax
    8893:	48 01 d0             	add    %rdx,%rax
    8896:	48 8b 10             	mov    (%rax),%rdx
    8899:	8b 85 b4 fc ff ff    	mov    -0x34c(%rbp),%eax
    889f:	48 98                	cltq   
    88a1:	48 c1 e0 04          	shl    $0x4,%rax
    88a5:	48 01 d0             	add    %rdx,%rax
    88a8:	de c1                	faddp  %st,%st(1)
    88aa:	db 38                	fstpt  (%rax)
    88ac:	48 c7 45 80 00 00 00 	movq   $0x0,-0x80(%rbp)
    88b3:	00 
    88b4:	48 c7 45 88 00 00 00 	movq   $0x0,-0x78(%rbp)
    88bb:	00 
    88bc:	48 c7 45 90 00 00 00 	movq   $0x0,-0x70(%rbp)
    88c3:	00 
    88c4:	48 c7 45 98 00 00 00 	movq   $0x0,-0x68(%rbp)
    88cb:	00 
    88cc:	48 c7 45 a0 00 00 00 	movq   $0x0,-0x60(%rbp)
    88d3:	00 
    88d4:	48 c7 45 a8 00 00 00 	movq   $0x0,-0x58(%rbp)
    88db:	00 
    88dc:	48 c7 45 b0 00 00 00 	movq   $0x0,-0x50(%rbp)
    88e3:	00 
    88e4:	48 c7 45 b8 00 00 00 	movq   $0x0,-0x48(%rbp)
    88eb:	00 
    88ec:	48 c7 45 c0 00 00 00 	movq   $0x0,-0x40(%rbp)
    88f3:	00 
    88f4:	f2 0f 10 85 e0 fc ff 	movsd  -0x320(%rbp),%xmm0
    88fb:	ff 
    88fc:	f2 0f 11 45 80       	movsd  %xmm0,-0x80(%rbp)
    8901:	f2 0f 10 85 e0 fc ff 	movsd  -0x320(%rbp),%xmm0
    8908:	ff 
    8909:	f2 0f 11 45 a0       	movsd  %xmm0,-0x60(%rbp)
    890e:	f2 0f 10 85 e0 fc ff 	movsd  -0x320(%rbp),%xmm0
    8915:	ff 
    8916:	f2 0f 11 45 c0       	movsd  %xmm0,-0x40(%rbp)
    891b:	48 8d 55 80          	lea    -0x80(%rbp),%rdx
    891f:	48 8d 85 90 fe ff ff 	lea    -0x170(%rbp),%rax
    8926:	48 89 d6             	mov    %rdx,%rsi
    8929:	48 89 c7             	mov    %rax,%rdi
    892c:	e8 f1 0e 00 00       	call   9822 <_ZN6tensorC1EPd>
    8931:	48 8d 85 e0 fe ff ff 	lea    -0x120(%rbp),%rax
    8938:	48 8d 95 40 fe ff ff 	lea    -0x1c0(%rbp),%rdx
    893f:	48 89 d6             	mov    %rdx,%rsi
    8942:	48 89 c7             	mov    %rax,%rdi
    8945:	e8 9e 10 00 00       	call   99e8 <_ZN6tensor9transposeEv>
    894a:	48 8d 85 30 ff ff ff 	lea    -0xd0(%rbp),%rax
    8951:	48 8d 95 e0 fe ff ff 	lea    -0x120(%rbp),%rdx
    8958:	48 83 ec 08          	sub    $0x8,%rsp
    895c:	ff b5 80 fe ff ff    	push   -0x180(%rbp)
    8962:	ff b5 78 fe ff ff    	push   -0x188(%rbp)
    8968:	ff b5 70 fe ff ff    	push   -0x190(%rbp)
    896e:	ff b5 68 fe ff ff    	push   -0x198(%rbp)
    8974:	ff b5 60 fe ff ff    	push   -0x1a0(%rbp)
    897a:	ff b5 58 fe ff ff    	push   -0x1a8(%rbp)
    8980:	ff b5 50 fe ff ff    	push   -0x1b0(%rbp)
    8986:	ff b5 48 fe ff ff    	push   -0x1b8(%rbp)
    898c:	ff b5 40 fe ff ff    	push   -0x1c0(%rbp)
    8992:	48 89 d6             	mov    %rdx,%rsi
    8995:	48 89 c7             	mov    %rax,%rdi
    8998:	e8 b3 13 00 00       	call   9d50 <_ZN6tensorplES_>
    899d:	48 83 c4 50          	add    $0x50,%rsp
    89a1:	8b 85 ac fc ff ff    	mov    -0x354(%rbp),%eax
    89a7:	48 98                	cltq   
    89a9:	48 8d 14 c5 00 00 00 	lea    0x0(,%rax,8),%rdx
    89b0:	00 
    89b1:	48 8b 85 20 fd ff ff 	mov    -0x2e0(%rbp),%rax
    89b8:	48 01 d0             	add    %rdx,%rax
    89bb:	48 8b 10             	mov    (%rax),%rdx
    89be:	8b 85 b0 fc ff ff    	mov    -0x350(%rbp),%eax
    89c4:	48 98                	cltq   
    89c6:	48 c1 e0 03          	shl    $0x3,%rax
    89ca:	48 01 d0             	add    %rdx,%rax
    89cd:	48 8b 08             	mov    (%rax),%rcx
    89d0:	8b 85 b4 fc ff ff    	mov    -0x34c(%rbp),%eax
    89d6:	48 63 d0             	movslq %eax,%rdx
    89d9:	48 89 d0             	mov    %rdx,%rax
    89dc:	48 c1 e0 03          	shl    $0x3,%rax
    89e0:	48 01 d0             	add    %rdx,%rax
    89e3:	48 c1 e0 03          	shl    $0x3,%rax
    89e7:	48 8d 14 01          	lea    (%rcx,%rax,1),%rdx
    89eb:	48 8d 85 30 ff ff ff 	lea    -0xd0(%rbp),%rax
    89f2:	48 89 c6             	mov    %rax,%rsi
    89f5:	48 89 d7             	mov    %rdx,%rdi
    89f8:	e8 7d 0f 00 00       	call   997a <_ZN6tensoraSERKS_>
    89fd:	83 85 b4 fc ff ff 01 	addl   $0x1,-0x34c(%rbp)
    8a04:	8b 85 8c fc ff ff    	mov    -0x374(%rbp),%eax
    8a0a:	01 c0                	add    %eax,%eax
    8a0c:	39 85 b4 fc ff ff    	cmp    %eax,-0x34c(%rbp)
    8a12:	0f 8c 13 fa ff ff    	jl     842b <_Z7blearghv+0xf27>
    8a18:	83 85 b0 fc ff ff 01 	addl   $0x1,-0x350(%rbp)
    8a1f:	8b 85 8c fc ff ff    	mov    -0x374(%rbp),%eax
    8a25:	01 c0                	add    %eax,%eax
    8a27:	39 85 b0 fc ff ff    	cmp    %eax,-0x350(%rbp)
    8a2d:	0f 8c e9 f9 ff ff    	jl     841c <_Z7blearghv+0xf18>
    8a33:	83 85 ac fc ff ff 01 	addl   $0x1,-0x354(%rbp)
    8a3a:	8b 85 8c fc ff ff    	mov    -0x374(%rbp),%eax
    8a40:	01 c0                	add    %eax,%eax
    8a42:	39 85 ac fc ff ff    	cmp    %eax,-0x354(%rbp)
    8a48:	0f 8c bf f9 ff ff    	jl     840d <_Z7blearghv+0xf09>
    8a4e:	83 85 a8 fc ff ff 01 	addl   $0x1,-0x358(%rbp)
    8a55:	83 bd a8 fc ff ff 63 	cmpl   $0x63,-0x358(%rbp)
    8a5c:	0f 8e e3 f5 ff ff    	jle    8045 <_Z7blearghv+0xb41>
    8a62:	db ad 30 fd ff ff    	fldt   -0x2d0(%rbp)
    8a68:	8b 85 8c fc ff ff    	mov    -0x374(%rbp),%eax
    8a6e:	89 85 78 fc ff ff    	mov    %eax,-0x388(%rbp)
    8a74:	db 85 78 fc ff ff    	fildl  -0x388(%rbp)
    8a7a:	de f9                	fdivrp %st,%st(1)
    8a7c:	db ad 30 fd ff ff    	fldt   -0x2d0(%rbp)
    8a82:	8b 85 8c fc ff ff    	mov    -0x374(%rbp),%eax
    8a88:	89 85 78 fc ff ff    	mov    %eax,-0x388(%rbp)
    8a8e:	db 85 78 fc ff ff    	fildl  -0x388(%rbp)
    8a94:	de f9                	fdivrp %st,%st(1)
    8a96:	db ad 30 fd ff ff    	fldt   -0x2d0(%rbp)
    8a9c:	8b 85 8c fc ff ff    	mov    -0x374(%rbp),%eax
    8aa2:	89 85 78 fc ff ff    	mov    %eax,-0x388(%rbp)
    8aa8:	db 85 78 fc ff ff    	fildl  -0x388(%rbp)
    8aae:	de f9                	fdivrp %st,%st(1)
    8ab0:	d9 ca                	fxch   %st(2)
    8ab2:	8b 85 8c fc ff ff    	mov    -0x374(%rbp),%eax
    8ab8:	8d 34 00             	lea    (%rax,%rax,1),%esi
    8abb:	8b 85 8c fc ff ff    	mov    -0x374(%rbp),%eax
    8ac1:	8d 0c 00             	lea    (%rax,%rax,1),%ecx
    8ac4:	8b 85 8c fc ff ff    	mov    -0x374(%rbp),%eax
    8aca:	8d 14 00             	lea    (%rax,%rax,1),%edx
    8acd:	48 8b 85 18 fd ff ff 	mov    -0x2e8(%rbp),%rax
    8ad4:	48 8d 64 24 f0       	lea    -0x10(%rsp),%rsp
    8ad9:	db 3c 24             	fstpt  (%rsp)
    8adc:	48 8d 64 24 f0       	lea    -0x10(%rsp),%rsp
    8ae1:	db 3c 24             	fstpt  (%rsp)
    8ae4:	48 8d 64 24 f0       	lea    -0x10(%rsp),%rsp
    8ae9:	db 3c 24             	fstpt  (%rsp)
    8aec:	41 89 f0             	mov    %esi,%r8d
    8aef:	48 89 c6             	mov    %rax,%rsi
    8af2:	bf 01 00 00 00       	mov    $0x1,%edi
    8af7:	e8 24 4e 00 00       	call   d920 <_Z12writeVTKFileiPPPPeiiieee>
    8afc:	48 83 c4 30          	add    $0x30,%rsp
    8b00:	48 8d 85 60 fd ff ff 	lea    -0x2a0(%rbp),%rax
    8b07:	48 89 c7             	mov    %rax,%rdi
    8b0a:	e8 49 08 00 00       	call   9358 <_ZN6vector1XEv>
    8b0f:	66 48 0f 7e c0       	movq   %xmm0,%rax
    8b14:	66 48 0f 6e c0       	movq   %rax,%xmm0
    8b19:	48 8d 05 20 a5 00 00 	lea    0xa520(%rip),%rax        # 13040 <_ZSt4cout@GLIBCXX_3.4>
    8b20:	48 89 c7             	mov    %rax,%rdi
    8b23:	e8 08 9b ff ff       	call   2630 <_ZNSolsEd@plt>
    8b28:	48 89 c2             	mov    %rax,%rdx
    8b2b:	48 8d 05 7e 68 00 00 	lea    0x687e(%rip),%rax        # f3b0 <_ZN6__pstl9execution2v1L5unseqE+0x39d>
    8b32:	48 89 c6             	mov    %rax,%rsi
    8b35:	48 89 d7             	mov    %rdx,%rdi
    8b38:	e8 53 99 ff ff       	call   2490 <_ZStlsISt11char_traitsIcEERSt13basic_ostreamIcT_ES5_PKc@plt>
    8b3d:	48 89 c3             	mov    %rax,%rbx
    8b40:	48 8d 85 60 fd ff ff 	lea    -0x2a0(%rbp),%rax
    8b47:	48 89 c7             	mov    %rax,%rdi
    8b4a:	e8 29 08 00 00       	call   9378 <_ZN6vector1YEv>
    8b4f:	66 48 0f 7e c0       	movq   %xmm0,%rax
    8b54:	66 48 0f 6e c0       	movq   %rax,%xmm0
    8b59:	48 89 df             	mov    %rbx,%rdi
    8b5c:	e8 cf 9a ff ff       	call   2630 <_ZNSolsEd@plt>
    8b61:	48 89 c2             	mov    %rax,%rdx
    8b64:	48 8d 05 45 68 00 00 	lea    0x6845(%rip),%rax        # f3b0 <_ZN6__pstl9execution2v1L5unseqE+0x39d>
    8b6b:	48 89 c6             	mov    %rax,%rsi
    8b6e:	48 89 d7             	mov    %rdx,%rdi
    8b71:	e8 1a 99 ff ff       	call   2490 <_ZStlsISt11char_traitsIcEERSt13basic_ostreamIcT_ES5_PKc@plt>
    8b76:	48 89 c3             	mov    %rax,%rbx
    8b79:	48 8d 85 60 fd ff ff 	lea    -0x2a0(%rbp),%rax
    8b80:	48 89 c7             	mov    %rax,%rdi
    8b83:	e8 12 08 00 00       	call   939a <_ZN6vector1ZEv>
    8b88:	66 48 0f 7e c0       	movq   %xmm0,%rax
    8b8d:	66 48 0f 6e c0       	movq   %rax,%xmm0
    8b92:	48 89 df             	mov    %rbx,%rdi
    8b95:	e8 96 9a ff ff       	call   2630 <_ZNSolsEd@plt>
    8b9a:	bb 00 00 00 00       	mov    $0x0,%ebx
    8b9f:	48 8d 85 a0 fd ff ff 	lea    -0x260(%rbp),%rax
    8ba6:	48 89 c7             	mov    %rax,%rdi
    8ba9:	e8 44 15 00 00       	call   a0f2 <_ZNSt6vectorIiSaIiEED1Ev>
    8bae:	89 d8                	mov    %ebx,%eax
    8bb0:	48 8b 55 c8          	mov    -0x38(%rbp),%rdx
    8bb4:	64 48 2b 14 25 28 00 	sub    %fs:0x28,%rdx
    8bbb:	00 00 
    8bbd:	74 28                	je     8be7 <_Z7blearghv+0x16e3>
    8bbf:	eb 21                	jmp    8be2 <_Z7blearghv+0x16de>
    8bc1:	f3 0f 1e fa          	endbr64 
    8bc5:	48 89 c3             	mov    %rax,%rbx
    8bc8:	48 8d 85 a0 fd ff ff 	lea    -0x260(%rbp),%rax
    8bcf:	48 89 c7             	mov    %rax,%rdi
    8bd2:	e8 1b 15 00 00       	call   a0f2 <_ZNSt6vectorIiSaIiEED1Ev>
    8bd7:	48 89 d8             	mov    %rbx,%rax
    8bda:	48 89 c7             	mov    %rax,%rdi
    8bdd:	e8 1e 9a ff ff       	call   2600 <_Unwind_Resume@plt>
    8be2:	e8 f9 98 ff ff       	call   24e0 <__stack_chk_fail@plt>
    8be7:	48 8d 65 d8          	lea    -0x28(%rbp),%rsp
    8beb:	5b                   	pop    %rbx
    8bec:	41 5c                	pop    %r12
    8bee:	41 5d                	pop    %r13
    8bf0:	41 5e                	pop    %r14
    8bf2:	41 5f                	pop    %r15
    8bf4:	5d                   	pop    %rbp
    8bf5:	c3                   	ret    

0000000000008bf6 <main>:
    8bf6:	f3 0f 1e fa          	endbr64 
    8bfa:	55                   	push   %rbp
    8bfb:	48 89 e5             	mov    %rsp,%rbp
    8bfe:	53                   	push   %rbx
    8bff:	48 81 ec a8 00 00 00 	sub    $0xa8,%rsp
    8c06:	64 48 8b 04 25 28 00 	mov    %fs:0x28,%rax
    8c0d:	00 00 
    8c0f:	48 89 45 e8          	mov    %rax,-0x18(%rbp)
    8c13:	31 c0                	xor    %eax,%eax
    8c15:	c7 45 8c 05 00 00 00 	movl   $0x5,-0x74(%rbp)
    8c1c:	c7 45 90 05 00 00 00 	movl   $0x5,-0x70(%rbp)
    8c23:	f2 0f 10 05 75 68 00 	movsd  0x6875(%rip),%xmm0        # f4a0 <_ZN6__pstl9execution2v1L5unseqE+0x48d>
    8c2a:	00 
    8c2b:	f2 0f 11 45 b0       	movsd  %xmm0,-0x50(%rbp)
    8c30:	48 c7 45 b8 00 00 00 	movq   $0x0,-0x48(%rbp)
    8c37:	00 
    8c38:	f2 0f 10 45 b0       	movsd  -0x50(%rbp),%xmm0
    8c3d:	f2 48 0f 2c c0       	cvttsd2si %xmm0,%rax
    8c42:	89 c1                	mov    %eax,%ecx
    8c44:	48 8b 55 b8          	mov    -0x48(%rbp),%rdx
    8c48:	48 8b 05 59 68 00 00 	mov    0x6859(%rip),%rax        # f4a8 <_ZN6__pstl9execution2v1L5unseqE+0x495>
    8c4f:	48 89 d6             	mov    %rdx,%rsi
    8c52:	89 cf                	mov    %ecx,%edi
    8c54:	66 48 0f 6e c0       	movq   %rax,%xmm0
    8c59:	e8 f2 a0 ff ff       	call   2d50 <_Z13compute_cubesdjPPe>
    8c5e:	48 89 45 b8          	mov    %rax,-0x48(%rbp)
    8c62:	f2 0f 10 05 3e 68 00 	movsd  0x683e(%rip),%xmm0        # f4a8 <_ZN6__pstl9execution2v1L5unseqE+0x495>
    8c69:	00 
    8c6a:	f2 0f 11 45 c0       	movsd  %xmm0,-0x40(%rbp)
    8c6f:	f2 0f 10 05 31 68 00 	movsd  0x6831(%rip),%xmm0        # f4a8 <_ZN6__pstl9execution2v1L5unseqE+0x495>
    8c76:	00 
    8c77:	f2 0f 11 45 c8       	movsd  %xmm0,-0x38(%rbp)
    8c7c:	48 8d 45 d0          	lea    -0x30(%rbp),%rax
    8c80:	48 89 c7             	mov    %rax,%rdi
    8c83:	e8 26 12 00 00       	call   9eae <_ZNSt6vectorIiSaIiEEC1Ev>
    8c88:	8b 4d 90             	mov    -0x70(%rbp),%ecx
    8c8b:	8b 55 8c             	mov    -0x74(%rbp),%edx
    8c8e:	48 8b 45 c0          	mov    -0x40(%rbp),%rax
    8c92:	89 ce                	mov    %ecx,%esi
    8c94:	89 d7                	mov    %edx,%edi
    8c96:	66 48 0f 6e c0       	movq   %rax,%xmm0
    8c9b:	e8 b2 9c ff ff       	call   2952 <_Z18compute_spheremeshdjj>
    8ca0:	48 89 45 98          	mov    %rax,-0x68(%rbp)
    8ca4:	48 8d 05 07 67 00 00 	lea    0x6707(%rip),%rax        # f3b2 <_ZN6__pstl9execution2v1L5unseqE+0x39f>
    8cab:	48 89 c6             	mov    %rax,%rsi
    8cae:	48 8d 05 8b a3 00 00 	lea    0xa38b(%rip),%rax        # 13040 <_ZSt4cout@GLIBCXX_3.4>
    8cb5:	48 89 c7             	mov    %rax,%rdi
    8cb8:	e8 d3 97 ff ff       	call   2490 <_ZStlsISt11char_traitsIcEERSt13basic_ostreamIcT_ES5_PKc@plt>
    8cbd:	c7 45 94 01 00 00 00 	movl   $0x1,-0x6c(%rbp)
    8cc4:	e9 13 04 00 00       	jmp    90dc <main+0x4e6>
    8cc9:	66 0f ef c0          	pxor   %xmm0,%xmm0
    8ccd:	f2 0f 11 45 a0       	movsd  %xmm0,-0x60(%rbp)
    8cd2:	48 c7 45 a8 00 00 00 	movq   $0x0,-0x58(%rbp)
    8cd9:	00 
    8cda:	e9 bd 02 00 00       	jmp    8f9c <main+0x3a6>
    8cdf:	48 8b 45 a8          	mov    -0x58(%rbp),%rax
    8ce3:	48 8d 14 c5 00 00 00 	lea    0x0(,%rax,8),%rdx
    8cea:	00 
    8ceb:	48 8b 45 b8          	mov    -0x48(%rbp),%rax
    8cef:	48 01 d0             	add    %rdx,%rax
    8cf2:	48 8b 00             	mov    (%rax),%rax
    8cf5:	48 83 c0 20          	add    $0x20,%rax
    8cf9:	db 28                	fldt   (%rax)
    8cfb:	dd 9d 78 ff ff ff    	fstpl  -0x88(%rbp)
    8d01:	48 8b 45 a8          	mov    -0x58(%rbp),%rax
    8d05:	48 8d 14 c5 00 00 00 	lea    0x0(,%rax,8),%rdx
    8d0c:	00 
    8d0d:	48 8b 45 b8          	mov    -0x48(%rbp),%rax
    8d11:	48 01 d0             	add    %rdx,%rax
    8d14:	48 8b 00             	mov    (%rax),%rax
    8d17:	48 83 c0 10          	add    $0x10,%rax
    8d1b:	db 28                	fldt   (%rax)
    8d1d:	dd 9d 70 ff ff ff    	fstpl  -0x90(%rbp)
    8d23:	48 8b 45 a8          	mov    -0x58(%rbp),%rax
    8d27:	48 8d 14 c5 00 00 00 	lea    0x0(,%rax,8),%rdx
    8d2e:	00 
    8d2f:	48 8b 45 b8          	mov    -0x48(%rbp),%rax
    8d33:	48 01 d0             	add    %rdx,%rax
    8d36:	48 8b 00             	mov    (%rax),%rax
    8d39:	db 28                	fldt   (%rax)
    8d3b:	dd 9d 68 ff ff ff    	fstpl  -0x98(%rbp)
    8d41:	f2 0f 10 05 5f 67 00 	movsd  0x675f(%rip),%xmm0        # f4a8 <_ZN6__pstl9execution2v1L5unseqE+0x495>
    8d48:	00 
    8d49:	f2 0f 5e 45 b0       	divsd  -0x50(%rbp),%xmm0
    8d4e:	48 8b 05 53 67 00 00 	mov    0x6753(%rip),%rax        # f4a8 <_ZN6__pstl9execution2v1L5unseqE+0x495>
    8d55:	f2 0f 10 a5 78 ff ff 	movsd  -0x88(%rbp),%xmm4
    8d5c:	ff 
    8d5d:	f2 0f 10 9d 70 ff ff 	movsd  -0x90(%rbp),%xmm3
    8d64:	ff 
    8d65:	f2 0f 10 95 68 ff ff 	movsd  -0x98(%rbp),%xmm2
    8d6c:	ff 
    8d6d:	66 0f 28 c8          	movapd %xmm0,%xmm1
    8d71:	66 48 0f 6e c0       	movq   %rax,%xmm0
    8d76:	e8 e7 db ff ff       	call   6962 <_Z9checkcubeddddd>
    8d7b:	85 c0                	test   %eax,%eax
    8d7d:	0f 94 c0             	sete   %al
    8d80:	84 c0                	test   %al,%al
    8d82:	0f 84 0f 02 00 00    	je     8f97 <main+0x3a1>
    8d88:	8b 75 90             	mov    -0x70(%rbp),%esi
    8d8b:	8b 4d 8c             	mov    -0x74(%rbp),%ecx
    8d8e:	48 8b 45 a8          	mov    -0x58(%rbp),%rax
    8d92:	48 8d 14 c5 00 00 00 	lea    0x0(,%rax,8),%rdx
    8d99:	00 
    8d9a:	48 8b 45 b8          	mov    -0x48(%rbp),%rax
    8d9e:	48 01 d0             	add    %rdx,%rax
    8da1:	48 8b 00             	mov    (%rax),%rax
    8da4:	48 83 c0 20          	add    $0x20,%rax
    8da8:	db 28                	fldt   (%rax)
    8daa:	f2 0f 10 05 f6 66 00 	movsd  0x66f6(%rip),%xmm0        # f4a8 <_ZN6__pstl9execution2v1L5unseqE+0x495>
    8db1:	00 
    8db2:	f2 0f 5e 45 b0       	divsd  -0x50(%rbp),%xmm0
    8db7:	f2 0f 10 0d f1 66 00 	movsd  0x66f1(%rip),%xmm1        # f4b0 <_ZN6__pstl9execution2v1L5unseqE+0x49d>
    8dbe:	00 
    8dbf:	f2 0f 5e c1          	divsd  %xmm1,%xmm0
    8dc3:	f2 0f 11 85 78 ff ff 	movsd  %xmm0,-0x88(%rbp)
    8dca:	ff 
    8dcb:	dd 85 78 ff ff ff    	fldl   -0x88(%rbp)
    8dd1:	de c1                	faddp  %st,%st(1)
    8dd3:	dd 9d 78 ff ff ff    	fstpl  -0x88(%rbp)
    8dd9:	48 8b 45 a8          	mov    -0x58(%rbp),%rax
    8ddd:	48 8d 14 c5 00 00 00 	lea    0x0(,%rax,8),%rdx
    8de4:	00 
    8de5:	48 8b 45 b8          	mov    -0x48(%rbp),%rax
    8de9:	48 01 d0             	add    %rdx,%rax
    8dec:	48 8b 00             	mov    (%rax),%rax
    8def:	48 83 c0 20          	add    $0x20,%rax
    8df3:	db 28                	fldt   (%rax)
    8df5:	f2 0f 10 05 ab 66 00 	movsd  0x66ab(%rip),%xmm0        # f4a8 <_ZN6__pstl9execution2v1L5unseqE+0x495>
    8dfc:	00 
    8dfd:	f2 0f 5e 45 b0       	divsd  -0x50(%rbp),%xmm0
    8e02:	f2 0f 10 0d a6 66 00 	movsd  0x66a6(%rip),%xmm1        # f4b0 <_ZN6__pstl9execution2v1L5unseqE+0x49d>
    8e09:	00 
    8e0a:	f2 0f 5e c1          	divsd  %xmm1,%xmm0
    8e0e:	f2 0f 11 85 70 ff ff 	movsd  %xmm0,-0x90(%rbp)
    8e15:	ff 
    8e16:	dd 85 70 ff ff ff    	fldl   -0x90(%rbp)
    8e1c:	de e9                	fsubrp %st,%st(1)
    8e1e:	dd 9d 70 ff ff ff    	fstpl  -0x90(%rbp)
    8e24:	48 8b 45 a8          	mov    -0x58(%rbp),%rax
    8e28:	48 8d 14 c5 00 00 00 	lea    0x0(,%rax,8),%rdx
    8e2f:	00 
    8e30:	48 8b 45 b8          	mov    -0x48(%rbp),%rax
    8e34:	48 01 d0             	add    %rdx,%rax
    8e37:	48 8b 00             	mov    (%rax),%rax
    8e3a:	48 83 c0 10          	add    $0x10,%rax
    8e3e:	db 28                	fldt   (%rax)
    8e40:	f2 0f 10 05 60 66 00 	movsd  0x6660(%rip),%xmm0        # f4a8 <_ZN6__pstl9execution2v1L5unseqE+0x495>
    8e47:	00 
    8e48:	f2 0f 5e 45 b0       	divsd  -0x50(%rbp),%xmm0
    8e4d:	f2 0f 10 0d 5b 66 00 	movsd  0x665b(%rip),%xmm1        # f4b0 <_ZN6__pstl9execution2v1L5unseqE+0x49d>
    8e54:	00 
    8e55:	f2 0f 5e c1          	divsd  %xmm1,%xmm0
    8e59:	f2 0f 11 85 68 ff ff 	movsd  %xmm0,-0x98(%rbp)
    8e60:	ff 
    8e61:	dd 85 68 ff ff ff    	fldl   -0x98(%rbp)
    8e67:	de c1                	faddp  %st,%st(1)
    8e69:	dd 9d 68 ff ff ff    	fstpl  -0x98(%rbp)
    8e6f:	48 8b 45 a8          	mov    -0x58(%rbp),%rax
    8e73:	48 8d 14 c5 00 00 00 	lea    0x0(,%rax,8),%rdx
    8e7a:	00 
    8e7b:	48 8b 45 b8          	mov    -0x48(%rbp),%rax
    8e7f:	48 01 d0             	add    %rdx,%rax
    8e82:	48 8b 00             	mov    (%rax),%rax
    8e85:	48 83 c0 10          	add    $0x10,%rax
    8e89:	db 28                	fldt   (%rax)
    8e8b:	f2 0f 10 05 15 66 00 	movsd  0x6615(%rip),%xmm0        # f4a8 <_ZN6__pstl9execution2v1L5unseqE+0x495>
    8e92:	00 
    8e93:	f2 0f 5e 45 b0       	divsd  -0x50(%rbp),%xmm0
    8e98:	f2 0f 10 0d 10 66 00 	movsd  0x6610(%rip),%xmm1        # f4b0 <_ZN6__pstl9execution2v1L5unseqE+0x49d>
    8e9f:	00 
    8ea0:	f2 0f 5e c1          	divsd  %xmm1,%xmm0
    8ea4:	f2 0f 11 85 60 ff ff 	movsd  %xmm0,-0xa0(%rbp)
    8eab:	ff 
    8eac:	dd 85 60 ff ff ff    	fldl   -0xa0(%rbp)
    8eb2:	de e9                	fsubrp %st,%st(1)
    8eb4:	dd 9d 60 ff ff ff    	fstpl  -0xa0(%rbp)
    8eba:	48 8b 45 a8          	mov    -0x58(%rbp),%rax
    8ebe:	48 8d 14 c5 00 00 00 	lea    0x0(,%rax,8),%rdx
    8ec5:	00 
    8ec6:	48 8b 45 b8          	mov    -0x48(%rbp),%rax
    8eca:	48 01 d0             	add    %rdx,%rax
    8ecd:	48 8b 00             	mov    (%rax),%rax
    8ed0:	db 28                	fldt   (%rax)
    8ed2:	f2 0f 10 05 ce 65 00 	movsd  0x65ce(%rip),%xmm0        # f4a8 <_ZN6__pstl9execution2v1L5unseqE+0x495>
    8ed9:	00 
    8eda:	f2 0f 5e 45 b0       	divsd  -0x50(%rbp),%xmm0
    8edf:	f2 0f 10 0d c9 65 00 	movsd  0x65c9(%rip),%xmm1        # f4b0 <_ZN6__pstl9execution2v1L5unseqE+0x49d>
    8ee6:	00 
    8ee7:	f2 0f 5e c1          	divsd  %xmm1,%xmm0
    8eeb:	f2 0f 11 85 58 ff ff 	movsd  %xmm0,-0xa8(%rbp)
    8ef2:	ff 
    8ef3:	dd 85 58 ff ff ff    	fldl   -0xa8(%rbp)
    8ef9:	de c1                	faddp  %st,%st(1)
    8efb:	dd 9d 58 ff ff ff    	fstpl  -0xa8(%rbp)
    8f01:	48 8b 45 a8          	mov    -0x58(%rbp),%rax
    8f05:	48 8d 14 c5 00 00 00 	lea    0x0(,%rax,8),%rdx
    8f0c:	00 
    8f0d:	48 8b 45 b8          	mov    -0x48(%rbp),%rax
    8f11:	48 01 d0             	add    %rdx,%rax
    8f14:	48 8b 00             	mov    (%rax),%rax
    8f17:	db 28                	fldt   (%rax)
    8f19:	f2 0f 10 05 87 65 00 	movsd  0x6587(%rip),%xmm0        # f4a8 <_ZN6__pstl9execution2v1L5unseqE+0x495>
    8f20:	00 
    8f21:	f2 0f 5e 45 b0       	divsd  -0x50(%rbp),%xmm0
    8f26:	f2 0f 10 0d 82 65 00 	movsd  0x6582(%rip),%xmm1        # f4b0 <_ZN6__pstl9execution2v1L5unseqE+0x49d>
    8f2d:	00 
    8f2e:	f2 0f 5e c1          	divsd  %xmm1,%xmm0
    8f32:	f2 0f 11 85 50 ff ff 	movsd  %xmm0,-0xb0(%rbp)
    8f39:	ff 
    8f3a:	dd 85 50 ff ff ff    	fldl   -0xb0(%rbp)
    8f40:	de e9                	fsubrp %st,%st(1)
    8f42:	dd 9d 50 ff ff ff    	fstpl  -0xb0(%rbp)
    8f48:	48 8b 55 98          	mov    -0x68(%rbp),%rdx
    8f4c:	48 8b 05 55 65 00 00 	mov    0x6555(%rip),%rax        # f4a8 <_ZN6__pstl9execution2v1L5unseqE+0x495>
    8f53:	89 cf                	mov    %ecx,%edi
    8f55:	f2 0f 10 b5 78 ff ff 	movsd  -0x88(%rbp),%xmm6
    8f5c:	ff 
    8f5d:	f2 0f 10 ad 70 ff ff 	movsd  -0x90(%rbp),%xmm5
    8f64:	ff 
    8f65:	f2 0f 10 a5 68 ff ff 	movsd  -0x98(%rbp),%xmm4
    8f6c:	ff 
    8f6d:	f2 0f 10 9d 60 ff ff 	movsd  -0xa0(%rbp),%xmm3
    8f74:	ff 
    8f75:	f2 0f 10 95 58 ff ff 	movsd  -0xa8(%rbp),%xmm2
    8f7c:	ff 
    8f7d:	f2 0f 10 8d 50 ff ff 	movsd  -0xb0(%rbp),%xmm1
    8f84:	ff 
    8f85:	66 48 0f 6e c0       	movq   %rax,%xmm0
    8f8a:	e8 b2 9f ff ff       	call   2f41 <_ZL5arealdddddddjjPPPe>
    8f8f:	dd 45 a0             	fldl   -0x60(%rbp)
    8f92:	de c1                	faddp  %st,%st(1)
    8f94:	dd 5d a0             	fstpl  -0x60(%rbp)
    8f97:	48 83 45 a8 01       	addq   $0x1,-0x58(%rbp)
    8f9c:	48 8b 45 a8          	mov    -0x58(%rbp),%rax
    8fa0:	48 85 c0             	test   %rax,%rax
    8fa3:	78 0b                	js     8fb0 <main+0x3ba>
    8fa5:	66 0f ef c0          	pxor   %xmm0,%xmm0
    8fa9:	f2 48 0f 2a c0       	cvtsi2sd %rax,%xmm0
    8fae:	eb 19                	jmp    8fc9 <main+0x3d3>
    8fb0:	48 89 c2             	mov    %rax,%rdx
    8fb3:	48 d1 ea             	shr    %rdx
    8fb6:	83 e0 01             	and    $0x1,%eax
    8fb9:	48 09 c2             	or     %rax,%rdx
    8fbc:	66 0f ef c0          	pxor   %xmm0,%xmm0
    8fc0:	f2 48 0f 2a c2       	cvtsi2sd %rdx,%xmm0
    8fc5:	f2 0f 58 c0          	addsd  %xmm0,%xmm0
    8fc9:	f2 0f 10 55 b0       	movsd  -0x50(%rbp),%xmm2
    8fce:	f2 0f 10 0d e2 64 00 	movsd  0x64e2(%rip),%xmm1        # f4b8 <_ZN6__pstl9execution2v1L5unseqE+0x4a5>
    8fd5:	00 
    8fd6:	f2 0f 59 ca          	mulsd  %xmm2,%xmm1
    8fda:	f2 0f 59 4d b0       	mulsd  -0x50(%rbp),%xmm1
    8fdf:	f2 0f 59 4d b0       	mulsd  -0x50(%rbp),%xmm1
    8fe4:	66 0f 2f c8          	comisd %xmm0,%xmm1
    8fe8:	0f 87 f1 fc ff ff    	ja     8cdf <main+0xe9>
    8fee:	8b 45 8c             	mov    -0x74(%rbp),%eax
    8ff1:	89 c6                	mov    %eax,%esi
    8ff3:	48 8d 05 46 a0 00 00 	lea    0xa046(%rip),%rax        # 13040 <_ZSt4cout@GLIBCXX_3.4>
    8ffa:	48 89 c7             	mov    %rax,%rdi
    8ffd:	e8 ee 95 ff ff       	call   25f0 <_ZNSolsEi@plt>
    9002:	48 89 c2             	mov    %rax,%rdx
    9005:	48 8d 05 a4 63 00 00 	lea    0x63a4(%rip),%rax        # f3b0 <_ZN6__pstl9execution2v1L5unseqE+0x39d>
    900c:	48 89 c6             	mov    %rax,%rsi
    900f:	48 89 d7             	mov    %rdx,%rdi
    9012:	e8 79 94 ff ff       	call   2490 <_ZStlsISt11char_traitsIcEERSt13basic_ostreamIcT_ES5_PKc@plt>
    9017:	48 89 c2             	mov    %rax,%rdx
    901a:	48 8b 45 a0          	mov    -0x60(%rbp),%rax
    901e:	66 48 0f 6e c0       	movq   %rax,%xmm0
    9023:	48 89 d7             	mov    %rdx,%rdi
    9026:	e8 05 96 ff ff       	call   2630 <_ZNSolsEd@plt>
    902b:	48 89 c2             	mov    %rax,%rdx
    902e:	48 8d 05 7b 63 00 00 	lea    0x637b(%rip),%rax        # f3b0 <_ZN6__pstl9execution2v1L5unseqE+0x39d>
    9035:	48 89 c6             	mov    %rax,%rsi
    9038:	48 89 d7             	mov    %rdx,%rdi
    903b:	e8 50 94 ff ff       	call   2490 <_ZStlsISt11char_traitsIcEERSt13basic_ostreamIcT_ES5_PKc@plt>
    9040:	48 89 c3             	mov    %rax,%rbx
    9043:	f2 0f 10 05 75 64 00 	movsd  0x6475(%rip),%xmm0        # f4c0 <_ZN6__pstl9execution2v1L5unseqE+0x4ad>
    904a:	00 
    904b:	f2 0f 5c 45 a0       	subsd  -0x60(%rbp),%xmm0
    9050:	66 48 0f 7e c0       	movq   %xmm0,%rax
    9055:	66 48 0f 6e c0       	movq   %rax,%xmm0
    905a:	e8 a4 01 00 00       	call   9203 <_ZSt3absd>
    905f:	f2 0f 10 0d 21 64 00 	movsd  0x6421(%rip),%xmm1        # f488 <_ZN6__pstl9execution2v1L5unseqE+0x475>
    9066:	00 
    9067:	f2 0f 59 c1          	mulsd  %xmm1,%xmm0
    906b:	f2 0f 10 0d 55 64 00 	movsd  0x6455(%rip),%xmm1        # f4c8 <_ZN6__pstl9execution2v1L5unseqE+0x4b5>
    9072:	00 
    9073:	f2 0f 5e c1          	divsd  %xmm1,%xmm0
    9077:	f2 0f 10 0d d1 63 00 	movsd  0x63d1(%rip),%xmm1        # f450 <_ZN6__pstl9execution2v1L5unseqE+0x43d>
    907e:	00 
    907f:	f2 0f 5e c1          	divsd  %xmm1,%xmm0
    9083:	66 48 0f 7e c0       	movq   %xmm0,%rax
    9088:	66 48 0f 6e c0       	movq   %rax,%xmm0
    908d:	48 89 df             	mov    %rbx,%rdi
    9090:	e8 9b 95 ff ff       	call   2630 <_ZNSolsEd@plt>
    9095:	48 89 c2             	mov    %rax,%rdx
    9098:	48 8d 05 21 63 00 00 	lea    0x6321(%rip),%rax        # f3c0 <_ZN6__pstl9execution2v1L5unseqE+0x3ad>
    909f:	48 89 c6             	mov    %rax,%rsi
    90a2:	48 89 d7             	mov    %rdx,%rdi
    90a5:	e8 e6 93 ff ff       	call   2490 <_ZStlsISt11char_traitsIcEERSt13basic_ostreamIcT_ES5_PKc@plt>
    90aa:	48 c7 45 98 00 00 00 	movq   $0x0,-0x68(%rbp)
    90b1:	00 
    90b2:	83 45 8c 05          	addl   $0x5,-0x74(%rbp)
    90b6:	8b 45 8c             	mov    -0x74(%rbp),%eax
    90b9:	89 45 90             	mov    %eax,-0x70(%rbp)
    90bc:	8b 4d 90             	mov    -0x70(%rbp),%ecx
    90bf:	8b 55 8c             	mov    -0x74(%rbp),%edx
    90c2:	48 8b 45 c0          	mov    -0x40(%rbp),%rax
    90c6:	89 ce                	mov    %ecx,%esi
    90c8:	89 d7                	mov    %edx,%edi
    90ca:	66 48 0f 6e c0       	movq   %rax,%xmm0
    90cf:	e8 7e 98 ff ff       	call   2952 <_Z18compute_spheremeshdjj>
    90d4:	48 89 45 98          	mov    %rax,-0x68(%rbp)
    90d8:	83 45 94 01          	addl   $0x1,-0x6c(%rbp)
    90dc:	81 7d 94 c8 00 00 00 	cmpl   $0xc8,-0x6c(%rbp)
    90e3:	0f 8e e0 fb ff ff    	jle    8cc9 <main+0xd3>
    90e9:	48 8d 45 d0          	lea    -0x30(%rbp),%rax
    90ed:	48 89 c7             	mov    %rax,%rdi
    90f0:	e8 fd 0f 00 00       	call   a0f2 <_ZNSt6vectorIiSaIiEED1Ev>
    90f5:	b8 00 00 00 00       	mov    $0x0,%eax
    90fa:	48 8b 55 e8          	mov    -0x18(%rbp),%rdx
    90fe:	64 48 2b 14 25 28 00 	sub    %fs:0x28,%rdx
    9105:	00 00 
    9107:	74 25                	je     912e <main+0x538>
    9109:	eb 1e                	jmp    9129 <main+0x533>
    910b:	f3 0f 1e fa          	endbr64 
    910f:	48 89 c3             	mov    %rax,%rbx
    9112:	48 8d 45 d0          	lea    -0x30(%rbp),%rax
    9116:	48 89 c7             	mov    %rax,%rdi
    9119:	e8 d4 0f 00 00       	call   a0f2 <_ZNSt6vectorIiSaIiEED1Ev>
    911e:	48 89 d8             	mov    %rbx,%rax
    9121:	48 89 c7             	mov    %rax,%rdi
    9124:	e8 d7 94 ff ff       	call   2600 <_Unwind_Resume@plt>
    9129:	e8 b2 93 ff ff       	call   24e0 <__stack_chk_fail@plt>
    912e:	48 8b 5d f8          	mov    -0x8(%rbp),%rbx
    9132:	c9                   	leave  
    9133:	c3                   	ret    

0000000000009134 <_Z41__static_initialization_and_destruction_0ii>:
    9134:	f3 0f 1e fa          	endbr64 
    9138:	55                   	push   %rbp
    9139:	48 89 e5             	mov    %rsp,%rbp
    913c:	48 83 ec 10          	sub    $0x10,%rsp
    9140:	89 7d fc             	mov    %edi,-0x4(%rbp)
    9143:	89 75 f8             	mov    %esi,-0x8(%rbp)
    9146:	83 7d fc 01          	cmpl   $0x1,-0x4(%rbp)
    914a:	75 3b                	jne    9187 <_Z41__static_initialization_and_destruction_0ii+0x53>
    914c:	81 7d f8 ff ff 00 00 	cmpl   $0xffff,-0x8(%rbp)
    9153:	75 32                	jne    9187 <_Z41__static_initialization_and_destruction_0ii+0x53>
    9155:	48 8d 05 1d a1 00 00 	lea    0xa11d(%rip),%rax        # 13279 <_ZStL8__ioinit>
    915c:	48 89 c7             	mov    %rax,%rdi
    915f:	e8 1c 94 ff ff       	call   2580 <_ZNSt8ios_base4InitC1Ev@plt>
    9164:	48 8d 05 9d 9e 00 00 	lea    0x9e9d(%rip),%rax        # 13008 <__dso_handle>
    916b:	48 89 c2             	mov    %rax,%rdx
    916e:	48 8d 05 04 a1 00 00 	lea    0xa104(%rip),%rax        # 13279 <_ZStL8__ioinit>
    9175:	48 89 c6             	mov    %rax,%rsi
    9178:	48 8b 05 79 9e 00 00 	mov    0x9e79(%rip),%rax        # 12ff8 <_ZNSt8ios_base4InitD1Ev@GLIBCXX_3.4>
    917f:	48 89 c7             	mov    %rax,%rdi
    9182:	e8 d9 92 ff ff       	call   2460 <__cxa_atexit@plt>
    9187:	90                   	nop
    9188:	c9                   	leave  
    9189:	c3                   	ret    

000000000000918a <_GLOBAL__sub_I__Z7angleofdd>:
    918a:	f3 0f 1e fa          	endbr64 
    918e:	55                   	push   %rbp
    918f:	48 89 e5             	mov    %rsp,%rbp
    9192:	be ff ff 00 00       	mov    $0xffff,%esi
    9197:	bf 01 00 00 00       	mov    $0x1,%edi
    919c:	e8 93 ff ff ff       	call   9134 <_Z41__static_initialization_and_destruction_0ii>
    91a1:	5d                   	pop    %rbp
    91a2:	c3                   	ret    

00000000000091a3 <_ZnwmPv>:
    91a3:	f3 0f 1e fa          	endbr64 
    91a7:	55                   	push   %rbp
    91a8:	48 89 e5             	mov    %rsp,%rbp
    91ab:	48 89 7d f8          	mov    %rdi,-0x8(%rbp)
    91af:	48 89 75 f0          	mov    %rsi,-0x10(%rbp)
    91b3:	48 8b 45 f0          	mov    -0x10(%rbp),%rax
    91b7:	5d                   	pop    %rbp
    91b8:	c3                   	ret    

00000000000091b9 <_ZN9__gnu_cxx5__ops16__iter_less_iterEv>:
    91b9:	f3 0f 1e fa          	endbr64 
    91bd:	55                   	push   %rbp
    91be:	48 89 e5             	mov    %rsp,%rbp
    91c1:	90                   	nop
    91c2:	5d                   	pop    %rbp
    91c3:	c3                   	ret    

00000000000091c4 <_ZN9__gnu_cxx5__ops14_Iter_less_valC1ENS0_15_Iter_less_iterE>:
    91c4:	f3 0f 1e fa          	endbr64 
    91c8:	55                   	push   %rbp
    91c9:	48 89 e5             	mov    %rsp,%rbp
    91cc:	48 89 7d f8          	mov    %rdi,-0x8(%rbp)
    91d0:	90                   	nop
    91d1:	5d                   	pop    %rbp
    91d2:	c3                   	ret    

00000000000091d3 <_ZN9__gnu_cxx5__ops15__val_comp_iterENS0_15_Iter_less_iterE>:
    91d3:	f3 0f 1e fa          	endbr64 
    91d7:	55                   	push   %rbp
    91d8:	48 89 e5             	mov    %rsp,%rbp
    91db:	90                   	nop
    91dc:	5d                   	pop    %rbp
    91dd:	c3                   	ret    

00000000000091de <_ZSt4__lgl>:
    91de:	f3 0f 1e fa          	endbr64 
    91e2:	55                   	push   %rbp
    91e3:	48 89 e5             	mov    %rsp,%rbp
    91e6:	48 89 7d f8          	mov    %rdi,-0x8(%rbp)
    91ea:	48 8b 45 f8          	mov    -0x8(%rbp),%rax
    91ee:	48 0f bd c0          	bsr    %rax,%rax
    91f2:	48 83 f0 3f          	xor    $0x3f,%rax
    91f6:	89 c2                	mov    %eax,%edx
    91f8:	b8 3f 00 00 00       	mov    $0x3f,%eax
    91fd:	29 d0                	sub    %edx,%eax
    91ff:	48 98                	cltq   
    9201:	5d                   	pop    %rbp
    9202:	c3                   	ret    

0000000000009203 <_ZSt3absd>:
    9203:	f3 0f 1e fa          	endbr64 
    9207:	55                   	push   %rbp
    9208:	48 89 e5             	mov    %rsp,%rbp
    920b:	f2 0f 11 45 f8       	movsd  %xmm0,-0x8(%rbp)
    9210:	f2 0f 10 45 f8       	movsd  -0x8(%rbp),%xmm0
    9215:	f3 0f 7e 0d c3 61 00 	movq   0x61c3(%rip),%xmm1        # f3e0 <_ZN6__pstl9execution2v1L5unseqE+0x3cd>
    921c:	00 
    921d:	66 0f 54 c1          	andpd  %xmm1,%xmm0
    9221:	66 48 0f 7e c0       	movq   %xmm0,%rax
    9226:	66 48 0f 6e c0       	movq   %rax,%xmm0
    922b:	5d                   	pop    %rbp
    922c:	c3                   	ret    

000000000000922d <_ZSt4ceile>:
    922d:	f3 0f 1e fa          	endbr64 
    9231:	55                   	push   %rbp
    9232:	48 89 e5             	mov    %rsp,%rbp
    9235:	db 6d 10             	fldt   0x10(%rbp)
    9238:	d9 7d fe             	fnstcw -0x2(%rbp)
    923b:	0f b7 45 fe          	movzwl -0x2(%rbp),%eax
    923f:	80 e4 f3             	and    $0xf3,%ah
    9242:	80 cc 08             	or     $0x8,%ah
    9245:	66 89 45 fc          	mov    %ax,-0x4(%rbp)
    9249:	d9 6d fc             	fldcw  -0x4(%rbp)
    924c:	d9 fc                	frndint 
    924e:	d9 6d fe             	fldcw  -0x2(%rbp)
    9251:	5d                   	pop    %rbp
    9252:	c3                   	ret    

0000000000009253 <_ZSt3cose>:
    9253:	f3 0f 1e fa          	endbr64 
    9257:	55                   	push   %rbp
    9258:	48 89 e5             	mov    %rsp,%rbp
    925b:	ff 75 18             	push   0x18(%rbp)
    925e:	ff 75 10             	push   0x10(%rbp)
    9261:	e8 aa 92 ff ff       	call   2510 <cosl@plt>
    9266:	48 83 c4 10          	add    $0x10,%rsp
    926a:	c9                   	leave  
    926b:	c3                   	ret    

000000000000926c <_ZSt5floore>:
    926c:	f3 0f 1e fa          	endbr64 
    9270:	55                   	push   %rbp
    9271:	48 89 e5             	mov    %rsp,%rbp
    9274:	db 6d 10             	fldt   0x10(%rbp)
    9277:	d9 7d fe             	fnstcw -0x2(%rbp)
    927a:	0f b7 45 fe          	movzwl -0x2(%rbp),%eax
    927e:	80 e4 f3             	and    $0xf3,%ah
    9281:	80 cc 04             	or     $0x4,%ah
    9284:	66 89 45 fc          	mov    %ax,-0x4(%rbp)
    9288:	d9 6d fc             	fldcw  -0x4(%rbp)
    928b:	d9 fc                	frndint 
    928d:	d9 6d fe             	fldcw  -0x2(%rbp)
    9290:	5d                   	pop    %rbp
    9291:	c3                   	ret    

0000000000009292 <_ZSt3sine>:
    9292:	f3 0f 1e fa          	endbr64 
    9296:	55                   	push   %rbp
    9297:	48 89 e5             	mov    %rsp,%rbp
    929a:	ff 75 18             	push   0x18(%rbp)
    929d:	ff 75 10             	push   0x10(%rbp)
    92a0:	e8 cb 92 ff ff       	call   2570 <sinl@plt>
    92a5:	48 83 c4 10          	add    $0x10,%rsp
    92a9:	c9                   	leave  
    92aa:	c3                   	ret    

00000000000092ab <_ZSt3minImERKT_S2_S2_>:
    92ab:	f3 0f 1e fa          	endbr64 
    92af:	55                   	push   %rbp
    92b0:	48 89 e5             	mov    %rsp,%rbp
    92b3:	48 89 7d f8          	mov    %rdi,-0x8(%rbp)
    92b7:	48 89 75 f0          	mov    %rsi,-0x10(%rbp)
    92bb:	48 8b 45 f0          	mov    -0x10(%rbp),%rax
    92bf:	48 8b 10             	mov    (%rax),%rdx
    92c2:	48 8b 45 f8          	mov    -0x8(%rbp),%rax
    92c6:	48 8b 00             	mov    (%rax),%rax
    92c9:	48 39 c2             	cmp    %rax,%rdx
    92cc:	73 06                	jae    92d4 <_ZSt3minImERKT_S2_S2_+0x29>
    92ce:	48 8b 45 f0          	mov    -0x10(%rbp),%rax
    92d2:	eb 04                	jmp    92d8 <_ZSt3minImERKT_S2_S2_+0x2d>
    92d4:	48 8b 45 f8          	mov    -0x8(%rbp),%rax
    92d8:	5d                   	pop    %rbp
    92d9:	c3                   	ret    

00000000000092da <_ZN6vectorC1Ev>:
    92da:	f3 0f 1e fa          	endbr64 
    92de:	55                   	push   %rbp
    92df:	48 89 e5             	mov    %rsp,%rbp
    92e2:	48 89 7d f8          	mov    %rdi,-0x8(%rbp)
    92e6:	48 8b 45 f8          	mov    -0x8(%rbp),%rax
    92ea:	66 0f ef c0          	pxor   %xmm0,%xmm0
    92ee:	f2 0f 11 00          	movsd  %xmm0,(%rax)
    92f2:	48 8b 45 f8          	mov    -0x8(%rbp),%rax
    92f6:	66 0f ef c0          	pxor   %xmm0,%xmm0
    92fa:	f2 0f 11 40 08       	movsd  %xmm0,0x8(%rax)
    92ff:	48 8b 45 f8          	mov    -0x8(%rbp),%rax
    9303:	66 0f ef c0          	pxor   %xmm0,%xmm0
    9307:	f2 0f 11 40 10       	movsd  %xmm0,0x10(%rax)
    930c:	90                   	nop
    930d:	5d                   	pop    %rbp
    930e:	c3                   	ret    
    930f:	90                   	nop

0000000000009310 <_ZN6vectorC1Eddd>:
    9310:	f3 0f 1e fa          	endbr64 
    9314:	55                   	push   %rbp
    9315:	48 89 e5             	mov    %rsp,%rbp
    9318:	48 89 7d f8          	mov    %rdi,-0x8(%rbp)
    931c:	f2 0f 11 45 f0       	movsd  %xmm0,-0x10(%rbp)
    9321:	f2 0f 11 4d e8       	movsd  %xmm1,-0x18(%rbp)
    9326:	f2 0f 11 55 e0       	movsd  %xmm2,-0x20(%rbp)
    932b:	48 8b 45 f8          	mov    -0x8(%rbp),%rax
    932f:	f2 0f 10 45 f0       	movsd  -0x10(%rbp),%xmm0
    9334:	f2 0f 11 00          	movsd  %xmm0,(%rax)
    9338:	48 8b 45 f8          	mov    -0x8(%rbp),%rax
    933c:	f2 0f 10 45 e8       	movsd  -0x18(%rbp),%xmm0
    9341:	f2 0f 11 40 08       	movsd  %xmm0,0x8(%rax)
    9346:	48 8b 45 f8          	mov    -0x8(%rbp),%rax
    934a:	f2 0f 10 45 e0       	movsd  -0x20(%rbp),%xmm0
    934f:	f2 0f 11 40 10       	movsd  %xmm0,0x10(%rax)
    9354:	90                   	nop
    9355:	5d                   	pop    %rbp
    9356:	c3                   	ret    
    9357:	90                   	nop

0000000000009358 <_ZN6vector1XEv>:
    9358:	f3 0f 1e fa          	endbr64 
    935c:	55                   	push   %rbp
    935d:	48 89 e5             	mov    %rsp,%rbp
    9360:	48 89 7d f8          	mov    %rdi,-0x8(%rbp)
    9364:	48 8b 45 f8          	mov    -0x8(%rbp),%rax
    9368:	f2 0f 10 00          	movsd  (%rax),%xmm0
    936c:	66 48 0f 7e c0       	movq   %xmm0,%rax
    9371:	66 48 0f 6e c0       	movq   %rax,%xmm0
    9376:	5d                   	pop    %rbp
    9377:	c3                   	ret    

0000000000009378 <_ZN6vector1YEv>:
    9378:	f3 0f 1e fa          	endbr64 
    937c:	55                   	push   %rbp
    937d:	48 89 e5             	mov    %rsp,%rbp
    9380:	48 89 7d f8          	mov    %rdi,-0x8(%rbp)
    9384:	48 8b 45 f8          	mov    -0x8(%rbp),%rax
    9388:	f2 0f 10 40 08       	movsd  0x8(%rax),%xmm0
    938d:	66 48 0f 7e c0       	movq   %xmm0,%rax
    9392:	66 48 0f 6e c0       	movq   %rax,%xmm0
    9397:	5d                   	pop    %rbp
    9398:	c3                   	ret    
    9399:	90                   	nop

000000000000939a <_ZN6vector1ZEv>:
    939a:	f3 0f 1e fa          	endbr64 
    939e:	55                   	push   %rbp
    939f:	48 89 e5             	mov    %rsp,%rbp
    93a2:	48 89 7d f8          	mov    %rdi,-0x8(%rbp)
    93a6:	48 8b 45 f8          	mov    -0x8(%rbp),%rax
    93aa:	f2 0f 10 40 10       	movsd  0x10(%rax),%xmm0
    93af:	66 48 0f 7e c0       	movq   %xmm0,%rax
    93b4:	66 48 0f 6e c0       	movq   %rax,%xmm0
    93b9:	5d                   	pop    %rbp
    93ba:	c3                   	ret    
    93bb:	90                   	nop

00000000000093bc <_ZN6vectormlERKS_>:
    93bc:	f3 0f 1e fa          	endbr64 
    93c0:	55                   	push   %rbp
    93c1:	48 89 e5             	mov    %rsp,%rbp
    93c4:	48 89 7d e8          	mov    %rdi,-0x18(%rbp)
    93c8:	48 89 75 e0          	mov    %rsi,-0x20(%rbp)
    93cc:	48 8b 45 e8          	mov    -0x18(%rbp),%rax
    93d0:	f2 0f 10 08          	movsd  (%rax),%xmm1
    93d4:	48 8b 45 e0          	mov    -0x20(%rbp),%rax
    93d8:	f2 0f 10 00          	movsd  (%rax),%xmm0
    93dc:	f2 0f 59 c8          	mulsd  %xmm0,%xmm1
    93e0:	48 8b 45 e8          	mov    -0x18(%rbp),%rax
    93e4:	f2 0f 10 50 08       	movsd  0x8(%rax),%xmm2
    93e9:	48 8b 45 e0          	mov    -0x20(%rbp),%rax
    93ed:	f2 0f 10 40 08       	movsd  0x8(%rax),%xmm0
    93f2:	f2 0f 59 c2          	mulsd  %xmm2,%xmm0
    93f6:	f2 0f 58 c8          	addsd  %xmm0,%xmm1
    93fa:	48 8b 45 e8          	mov    -0x18(%rbp),%rax
    93fe:	f2 0f 10 50 10       	movsd  0x10(%rax),%xmm2
    9403:	48 8b 45 e0          	mov    -0x20(%rbp),%rax
    9407:	f2 0f 10 40 10       	movsd  0x10(%rax),%xmm0
    940c:	f2 0f 59 c2          	mulsd  %xmm2,%xmm0
    9410:	f2 0f 58 c1          	addsd  %xmm1,%xmm0
    9414:	f2 0f 11 45 f8       	movsd  %xmm0,-0x8(%rbp)
    9419:	f2 0f 10 45 f8       	movsd  -0x8(%rbp),%xmm0
    941e:	66 48 0f 7e c0       	movq   %xmm0,%rax
    9423:	66 48 0f 6e c0       	movq   %rax,%xmm0
    9428:	5d                   	pop    %rbp
    9429:	c3                   	ret    

000000000000942a <_ZN6vectorrmERKS_>:
    942a:	f3 0f 1e fa          	endbr64 
    942e:	55                   	push   %rbp
    942f:	48 89 e5             	mov    %rsp,%rbp
    9432:	48 83 ec 20          	sub    $0x20,%rsp
    9436:	48 89 7d f8          	mov    %rdi,-0x8(%rbp)
    943a:	48 89 75 f0          	mov    %rsi,-0x10(%rbp)
    943e:	48 89 55 e8          	mov    %rdx,-0x18(%rbp)
    9442:	48 8b 45 f0          	mov    -0x10(%rbp),%rax
    9446:	f2 0f 10 08          	movsd  (%rax),%xmm1
    944a:	48 8b 45 e8          	mov    -0x18(%rbp),%rax
    944e:	f2 0f 10 40 08       	movsd  0x8(%rax),%xmm0
    9453:	f2 0f 59 c1          	mulsd  %xmm1,%xmm0
    9457:	48 8b 45 f0          	mov    -0x10(%rbp),%rax
    945b:	f2 0f 10 50 08       	movsd  0x8(%rax),%xmm2
    9460:	48 8b 45 e8          	mov    -0x18(%rbp),%rax
    9464:	f2 0f 10 08          	movsd  (%rax),%xmm1
    9468:	f2 0f 59 ca          	mulsd  %xmm2,%xmm1
    946c:	66 0f 28 e0          	movapd %xmm0,%xmm4
    9470:	f2 0f 5c e1          	subsd  %xmm1,%xmm4
    9474:	48 8b 45 f0          	mov    -0x10(%rbp),%rax
    9478:	f2 0f 10 08          	movsd  (%rax),%xmm1
    947c:	48 8b 45 e8          	mov    -0x18(%rbp),%rax
    9480:	f2 0f 10 40 10       	movsd  0x10(%rax),%xmm0
    9485:	f2 0f 59 c1          	mulsd  %xmm1,%xmm0
    9489:	48 8b 45 f0          	mov    -0x10(%rbp),%rax
    948d:	f2 0f 10 50 10       	movsd  0x10(%rax),%xmm2
    9492:	48 8b 45 e8          	mov    -0x18(%rbp),%rax
    9496:	f2 0f 10 08          	movsd  (%rax),%xmm1
    949a:	f2 0f 59 ca          	mulsd  %xmm2,%xmm1
    949e:	f2 0f 5c c1          	subsd  %xmm1,%xmm0
    94a2:	f3 0f 7e 0d 56 5f 00 	movq   0x5f56(%rip),%xmm1        # f400 <_ZN6__pstl9execution2v1L5unseqE+0x3ed>
    94a9:	00 
    94aa:	66 0f 28 d8          	movapd %xmm0,%xmm3
    94ae:	66 0f 57 d9          	xorpd  %xmm1,%xmm3
    94b2:	48 8b 45 f0          	mov    -0x10(%rbp),%rax
    94b6:	f2 0f 10 48 08       	movsd  0x8(%rax),%xmm1
    94bb:	48 8b 45 e8          	mov    -0x18(%rbp),%rax
    94bf:	f2 0f 10 40 10       	movsd  0x10(%rax),%xmm0
    94c4:	f2 0f 59 c1          	mulsd  %xmm1,%xmm0
    94c8:	48 8b 45 f0          	mov    -0x10(%rbp),%rax
    94cc:	f2 0f 10 50 10       	movsd  0x10(%rax),%xmm2
    94d1:	48 8b 45 e8          	mov    -0x18(%rbp),%rax
    94d5:	f2 0f 10 48 08       	movsd  0x8(%rax),%xmm1
    94da:	f2 0f 59 ca          	mulsd  %xmm2,%xmm1
    94de:	f2 0f 5c c1          	subsd  %xmm1,%xmm0
    94e2:	66 48 0f 7e c2       	movq   %xmm0,%rdx
    94e7:	48 8b 45 f8          	mov    -0x8(%rbp),%rax
    94eb:	66 0f 28 d4          	movapd %xmm4,%xmm2
    94ef:	66 0f 28 cb          	movapd %xmm3,%xmm1
    94f3:	66 48 0f 6e c2       	movq   %rdx,%xmm0
    94f8:	48 89 c7             	mov    %rax,%rdi
    94fb:	e8 10 fe ff ff       	call   9310 <_ZN6vectorC1Eddd>
    9500:	90                   	nop
    9501:	48 8b 45 f8          	mov    -0x8(%rbp),%rax
    9505:	c9                   	leave  
    9506:	c3                   	ret    
    9507:	90                   	nop

0000000000009508 <_ZN6vectorplERKS_>:
    9508:	f3 0f 1e fa          	endbr64 
    950c:	55                   	push   %rbp
    950d:	48 89 e5             	mov    %rsp,%rbp
    9510:	48 83 ec 20          	sub    $0x20,%rsp
    9514:	48 89 7d f8          	mov    %rdi,-0x8(%rbp)
    9518:	48 89 75 f0          	mov    %rsi,-0x10(%rbp)
    951c:	48 89 55 e8          	mov    %rdx,-0x18(%rbp)
    9520:	48 8b 45 e8          	mov    -0x18(%rbp),%rax
    9524:	f2 0f 10 48 10       	movsd  0x10(%rax),%xmm1
    9529:	48 8b 45 f0          	mov    -0x10(%rbp),%rax
    952d:	f2 0f 10 40 10       	movsd  0x10(%rax),%xmm0
    9532:	66 0f 28 d1          	movapd %xmm1,%xmm2
    9536:	f2 0f 58 d0          	addsd  %xmm0,%xmm2
    953a:	48 8b 45 e8          	mov    -0x18(%rbp),%rax
    953e:	f2 0f 10 48 08       	movsd  0x8(%rax),%xmm1
    9543:	48 8b 45 f0          	mov    -0x10(%rbp),%rax
    9547:	f2 0f 10 40 08       	movsd  0x8(%rax),%xmm0
    954c:	66 0f 28 d9          	movapd %xmm1,%xmm3
    9550:	f2 0f 58 d8          	addsd  %xmm0,%xmm3
    9554:	48 8b 45 e8          	mov    -0x18(%rbp),%rax
    9558:	f2 0f 10 08          	movsd  (%rax),%xmm1
    955c:	48 8b 45 f0          	mov    -0x10(%rbp),%rax
    9560:	f2 0f 10 00          	movsd  (%rax),%xmm0
    9564:	f2 0f 58 c8          	addsd  %xmm0,%xmm1
    9568:	66 48 0f 7e ca       	movq   %xmm1,%rdx
    956d:	48 8b 45 f8          	mov    -0x8(%rbp),%rax
    9571:	66 0f 28 cb          	movapd %xmm3,%xmm1
    9575:	66 48 0f 6e c2       	movq   %rdx,%xmm0
    957a:	48 89 c7             	mov    %rax,%rdi
    957d:	e8 8e fd ff ff       	call   9310 <_ZN6vectorC1Eddd>
    9582:	90                   	nop
    9583:	48 8b 45 f8          	mov    -0x8(%rbp),%rax
    9587:	c9                   	leave  
    9588:	c3                   	ret    
    9589:	90                   	nop

000000000000958a <_ZN6vectormiERKS_>:
    958a:	f3 0f 1e fa          	endbr64 
    958e:	55                   	push   %rbp
    958f:	48 89 e5             	mov    %rsp,%rbp
    9592:	48 83 ec 20          	sub    $0x20,%rsp
    9596:	48 89 7d f8          	mov    %rdi,-0x8(%rbp)
    959a:	48 89 75 f0          	mov    %rsi,-0x10(%rbp)
    959e:	48 89 55 e8          	mov    %rdx,-0x18(%rbp)
    95a2:	48 8b 45 f0          	mov    -0x10(%rbp),%rax
    95a6:	f2 0f 10 40 10       	movsd  0x10(%rax),%xmm0
    95ab:	48 8b 45 e8          	mov    -0x18(%rbp),%rax
    95af:	f2 0f 10 48 10       	movsd  0x10(%rax),%xmm1
    95b4:	66 0f 28 d0          	movapd %xmm0,%xmm2
    95b8:	f2 0f 5c d1          	subsd  %xmm1,%xmm2
    95bc:	48 8b 45 f0          	mov    -0x10(%rbp),%rax
    95c0:	f2 0f 10 40 08       	movsd  0x8(%rax),%xmm0
    95c5:	48 8b 45 e8          	mov    -0x18(%rbp),%rax
    95c9:	f2 0f 10 48 08       	movsd  0x8(%rax),%xmm1
    95ce:	66 0f 28 d8          	movapd %xmm0,%xmm3
    95d2:	f2 0f 5c d9          	subsd  %xmm1,%xmm3
    95d6:	48 8b 45 f0          	mov    -0x10(%rbp),%rax
    95da:	f2 0f 10 00          	movsd  (%rax),%xmm0
    95de:	48 8b 45 e8          	mov    -0x18(%rbp),%rax
    95e2:	f2 0f 10 08          	movsd  (%rax),%xmm1
    95e6:	f2 0f 5c c1          	subsd  %xmm1,%xmm0
    95ea:	66 48 0f 7e c2       	movq   %xmm0,%rdx
    95ef:	48 8b 45 f8          	mov    -0x8(%rbp),%rax
    95f3:	66 0f 28 cb          	movapd %xmm3,%xmm1
    95f7:	66 48 0f 6e c2       	movq   %rdx,%xmm0
    95fc:	48 89 c7             	mov    %rax,%rdi
    95ff:	e8 0c fd ff ff       	call   9310 <_ZN6vectorC1Eddd>
    9604:	90                   	nop
    9605:	48 8b 45 f8          	mov    -0x8(%rbp),%rax
    9609:	c9                   	leave  
    960a:	c3                   	ret    
    960b:	90                   	nop

000000000000960c <_ZN6vectormlEd>:
    960c:	f3 0f 1e fa          	endbr64 
    9610:	55                   	push   %rbp
    9611:	48 89 e5             	mov    %rsp,%rbp
    9614:	48 83 ec 20          	sub    $0x20,%rsp
    9618:	48 89 7d f8          	mov    %rdi,-0x8(%rbp)
    961c:	48 89 75 f0          	mov    %rsi,-0x10(%rbp)
    9620:	f2 0f 11 45 e8       	movsd  %xmm0,-0x18(%rbp)
    9625:	48 8b 45 f0          	mov    -0x10(%rbp),%rax
    9629:	f2 0f 10 40 10       	movsd  0x10(%rax),%xmm0
    962e:	66 0f 28 d0          	movapd %xmm0,%xmm2
    9632:	f2 0f 59 55 e8       	mulsd  -0x18(%rbp),%xmm2
    9637:	48 8b 45 f0          	mov    -0x10(%rbp),%rax
    963b:	f2 0f 10 40 08       	movsd  0x8(%rax),%xmm0
    9640:	66 0f 28 c8          	movapd %xmm0,%xmm1
    9644:	f2 0f 59 4d e8       	mulsd  -0x18(%rbp),%xmm1
    9649:	48 8b 45 f0          	mov    -0x10(%rbp),%rax
    964d:	f2 0f 10 00          	movsd  (%rax),%xmm0
    9651:	f2 0f 59 45 e8       	mulsd  -0x18(%rbp),%xmm0
    9656:	66 48 0f 7e c2       	movq   %xmm0,%rdx
    965b:	48 8b 45 f8          	mov    -0x8(%rbp),%rax
    965f:	66 48 0f 6e c2       	movq   %rdx,%xmm0
    9664:	48 89 c7             	mov    %rax,%rdi
    9667:	e8 a4 fc ff ff       	call   9310 <_ZN6vectorC1Eddd>
    966c:	90                   	nop
    966d:	48 8b 45 f8          	mov    -0x8(%rbp),%rax
    9671:	c9                   	leave  
    9672:	c3                   	ret    
    9673:	90                   	nop

0000000000009674 <_ZN6vectordvEd>:
    9674:	f3 0f 1e fa          	endbr64 
    9678:	55                   	push   %rbp
    9679:	48 89 e5             	mov    %rsp,%rbp
    967c:	48 83 ec 20          	sub    $0x20,%rsp
    9680:	48 89 7d f8          	mov    %rdi,-0x8(%rbp)
    9684:	48 89 75 f0          	mov    %rsi,-0x10(%rbp)
    9688:	f2 0f 11 45 e8       	movsd  %xmm0,-0x18(%rbp)
    968d:	48 8b 45 f0          	mov    -0x10(%rbp),%rax
    9691:	f2 0f 10 40 10       	movsd  0x10(%rax),%xmm0
    9696:	66 0f 28 d0          	movapd %xmm0,%xmm2
    969a:	f2 0f 5e 55 e8       	divsd  -0x18(%rbp),%xmm2
    969f:	48 8b 45 f0          	mov    -0x10(%rbp),%rax
    96a3:	f2 0f 10 40 08       	movsd  0x8(%rax),%xmm0
    96a8:	66 0f 28 c8          	movapd %xmm0,%xmm1
    96ac:	f2 0f 5e 4d e8       	divsd  -0x18(%rbp),%xmm1
    96b1:	48 8b 45 f0          	mov    -0x10(%rbp),%rax
    96b5:	f2 0f 10 00          	movsd  (%rax),%xmm0
    96b9:	f2 0f 5e 45 e8       	divsd  -0x18(%rbp),%xmm0
    96be:	66 48 0f 7e c2       	movq   %xmm0,%rdx
    96c3:	48 8b 45 f8          	mov    -0x8(%rbp),%rax
    96c7:	66 48 0f 6e c2       	movq   %rdx,%xmm0
    96cc:	48 89 c7             	mov    %rax,%rdi
    96cf:	e8 3c fc ff ff       	call   9310 <_ZN6vectorC1Eddd>
    96d4:	90                   	nop
    96d5:	48 8b 45 f8          	mov    -0x8(%rbp),%rax
    96d9:	c9                   	leave  
    96da:	c3                   	ret    
    96db:	90                   	nop

00000000000096dc <_ZN6vectoraSERKS_>:
    96dc:	f3 0f 1e fa          	endbr64 
    96e0:	55                   	push   %rbp
    96e1:	48 89 e5             	mov    %rsp,%rbp
    96e4:	48 89 7d f8          	mov    %rdi,-0x8(%rbp)
    96e8:	48 89 75 f0          	mov    %rsi,-0x10(%rbp)
    96ec:	48 8b 45 f8          	mov    -0x8(%rbp),%rax
    96f0:	48 3b 45 f0          	cmp    -0x10(%rbp),%rax
    96f4:	74 34                	je     972a <_ZN6vectoraSERKS_+0x4e>
    96f6:	48 8b 45 f0          	mov    -0x10(%rbp),%rax
    96fa:	f2 0f 10 00          	movsd  (%rax),%xmm0
    96fe:	48 8b 45 f8          	mov    -0x8(%rbp),%rax
    9702:	f2 0f 11 00          	movsd  %xmm0,(%rax)
    9706:	48 8b 45 f0          	mov    -0x10(%rbp),%rax
    970a:	f2 0f 10 40 08       	movsd  0x8(%rax),%xmm0
    970f:	48 8b 45 f8          	mov    -0x8(%rbp),%rax
    9713:	f2 0f 11 40 08       	movsd  %xmm0,0x8(%rax)
    9718:	48 8b 45 f0          	mov    -0x10(%rbp),%rax
    971c:	f2 0f 10 40 10       	movsd  0x10(%rax),%xmm0
    9721:	48 8b 45 f8          	mov    -0x8(%rbp),%rax
    9725:	f2 0f 11 40 10       	movsd  %xmm0,0x10(%rax)
    972a:	48 8b 45 f8          	mov    -0x8(%rbp),%rax
    972e:	5d                   	pop    %rbp
    972f:	c3                   	ret    

0000000000009730 <_ZN6vector6lengthEv>:
    9730:	f3 0f 1e fa          	endbr64 
    9734:	55                   	push   %rbp
    9735:	48 89 e5             	mov    %rsp,%rbp
    9738:	48 83 ec 10          	sub    $0x10,%rsp
    973c:	48 89 7d f8          	mov    %rdi,-0x8(%rbp)
    9740:	48 8b 45 f8          	mov    -0x8(%rbp),%rax
    9744:	f2 0f 10 08          	movsd  (%rax),%xmm1
    9748:	48 8b 45 f8          	mov    -0x8(%rbp),%rax
    974c:	f2 0f 10 00          	movsd  (%rax),%xmm0
    9750:	f2 0f 59 c8          	mulsd  %xmm0,%xmm1
    9754:	48 8b 45 f8          	mov    -0x8(%rbp),%rax
    9758:	f2 0f 10 50 08       	movsd  0x8(%rax),%xmm2
    975d:	48 8b 45 f8          	mov    -0x8(%rbp),%rax
    9761:	f2 0f 10 40 08       	movsd  0x8(%rax),%xmm0
    9766:	f2 0f 59 c2          	mulsd  %xmm2,%xmm0
    976a:	f2 0f 58 c8          	addsd  %xmm0,%xmm1
    976e:	48 8b 45 f8          	mov    -0x8(%rbp),%rax
    9772:	f2 0f 10 50 10       	movsd  0x10(%rax),%xmm2
    9777:	48 8b 45 f8          	mov    -0x8(%rbp),%rax
    977b:	f2 0f 10 40 10       	movsd  0x10(%rax),%xmm0
    9780:	f2 0f 59 c2          	mulsd  %xmm2,%xmm0
    9784:	f2 0f 58 c8          	addsd  %xmm0,%xmm1
    9788:	66 48 0f 7e c8       	movq   %xmm1,%rax
    978d:	66 48 0f 6e c0       	movq   %rax,%xmm0
    9792:	e8 99 8c ff ff       	call   2430 <sqrt@plt>
    9797:	66 48 0f 7e c0       	movq   %xmm0,%rax
    979c:	66 48 0f 6e c0       	movq   %rax,%xmm0
    97a1:	c9                   	leave  
    97a2:	c3                   	ret    
    97a3:	90                   	nop

00000000000097a4 <_ZN6tensorC1E6vectorS0_S0_>:
    97a4:	f3 0f 1e fa          	endbr64 
    97a8:	55                   	push   %rbp
    97a9:	48 89 e5             	mov    %rsp,%rbp
    97ac:	48 83 ec 10          	sub    $0x10,%rsp
    97b0:	48 89 7d f8          	mov    %rdi,-0x8(%rbp)
    97b4:	48 8b 45 f8          	mov    -0x8(%rbp),%rax
    97b8:	48 89 c7             	mov    %rax,%rdi
    97bb:	e8 1a fb ff ff       	call   92da <_ZN6vectorC1Ev>
    97c0:	48 8b 45 f8          	mov    -0x8(%rbp),%rax
    97c4:	48 83 c0 18          	add    $0x18,%rax
    97c8:	48 89 c7             	mov    %rax,%rdi
    97cb:	e8 0a fb ff ff       	call   92da <_ZN6vectorC1Ev>
    97d0:	48 8b 45 f8          	mov    -0x8(%rbp),%rax
    97d4:	48 83 c0 30          	add    $0x30,%rax
    97d8:	48 89 c7             	mov    %rax,%rdi
    97db:	e8 fa fa ff ff       	call   92da <_ZN6vectorC1Ev>
    97e0:	48 8b 45 f8          	mov    -0x8(%rbp),%rax
    97e4:	48 8d 75 10          	lea    0x10(%rbp),%rsi
    97e8:	48 89 c7             	mov    %rax,%rdi
    97eb:	e8 ec fe ff ff       	call   96dc <_ZN6vectoraSERKS_>
    97f0:	48 8b 45 f8          	mov    -0x8(%rbp),%rax
    97f4:	48 8d 50 18          	lea    0x18(%rax),%rdx
    97f8:	48 8d 45 28          	lea    0x28(%rbp),%rax
    97fc:	48 89 c6             	mov    %rax,%rsi
    97ff:	48 89 d7             	mov    %rdx,%rdi
    9802:	e8 d5 fe ff ff       	call   96dc <_ZN6vectoraSERKS_>
    9807:	48 8b 45 f8          	mov    -0x8(%rbp),%rax
    980b:	48 8d 50 30          	lea    0x30(%rax),%rdx
    980f:	48 8d 45 40          	lea    0x40(%rbp),%rax
    9813:	48 89 c6             	mov    %rax,%rsi
    9816:	48 89 d7             	mov    %rdx,%rdi
    9819:	e8 be fe ff ff       	call   96dc <_ZN6vectoraSERKS_>
    981e:	90                   	nop
    981f:	c9                   	leave  
    9820:	c3                   	ret    
    9821:	90                   	nop

0000000000009822 <_ZN6tensorC1EPd>:
    9822:	f3 0f 1e fa          	endbr64 
    9826:	55                   	push   %rbp
    9827:	48 89 e5             	mov    %rsp,%rbp
    982a:	48 83 ec 70          	sub    $0x70,%rsp
    982e:	48 89 7d 98          	mov    %rdi,-0x68(%rbp)
    9832:	48 89 75 90          	mov    %rsi,-0x70(%rbp)
    9836:	64 48 8b 04 25 28 00 	mov    %fs:0x28,%rax
    983d:	00 00 
    983f:	48 89 45 f8          	mov    %rax,-0x8(%rbp)
    9843:	31 c0                	xor    %eax,%eax
    9845:	48 8b 45 98          	mov    -0x68(%rbp),%rax
    9849:	48 89 c7             	mov    %rax,%rdi
    984c:	e8 89 fa ff ff       	call   92da <_ZN6vectorC1Ev>
    9851:	48 8b 45 98          	mov    -0x68(%rbp),%rax
    9855:	48 83 c0 18          	add    $0x18,%rax
    9859:	48 89 c7             	mov    %rax,%rdi
    985c:	e8 79 fa ff ff       	call   92da <_ZN6vectorC1Ev>
    9861:	48 8b 45 98          	mov    -0x68(%rbp),%rax
    9865:	48 83 c0 30          	add    $0x30,%rax
    9869:	48 89 c7             	mov    %rax,%rdi
    986c:	e8 69 fa ff ff       	call   92da <_ZN6vectorC1Ev>
    9871:	48 8b 45 90          	mov    -0x70(%rbp),%rax
    9875:	48 83 c0 10          	add    $0x10,%rax
    9879:	f2 0f 10 08          	movsd  (%rax),%xmm1
    987d:	48 8b 45 90          	mov    -0x70(%rbp),%rax
    9881:	48 83 c0 08          	add    $0x8,%rax
    9885:	f2 0f 10 00          	movsd  (%rax),%xmm0
    9889:	48 8b 45 90          	mov    -0x70(%rbp),%rax
    988d:	48 8b 10             	mov    (%rax),%rdx
    9890:	48 8d 45 a0          	lea    -0x60(%rbp),%rax
    9894:	66 0f 28 d1          	movapd %xmm1,%xmm2
    9898:	66 0f 28 c8          	movapd %xmm0,%xmm1
    989c:	66 48 0f 6e c2       	movq   %rdx,%xmm0
    98a1:	48 89 c7             	mov    %rax,%rdi
    98a4:	e8 67 fa ff ff       	call   9310 <_ZN6vectorC1Eddd>
    98a9:	48 8b 45 90          	mov    -0x70(%rbp),%rax
    98ad:	48 83 c0 28          	add    $0x28,%rax
    98b1:	f2 0f 10 08          	movsd  (%rax),%xmm1
    98b5:	48 8b 45 90          	mov    -0x70(%rbp),%rax
    98b9:	48 83 c0 20          	add    $0x20,%rax
    98bd:	f2 0f 10 00          	movsd  (%rax),%xmm0
    98c1:	48 8b 45 90          	mov    -0x70(%rbp),%rax
    98c5:	48 83 c0 18          	add    $0x18,%rax
    98c9:	48 8b 10             	mov    (%rax),%rdx
    98cc:	48 8d 45 c0          	lea    -0x40(%rbp),%rax
    98d0:	66 0f 28 d1          	movapd %xmm1,%xmm2
    98d4:	66 0f 28 c8          	movapd %xmm0,%xmm1
    98d8:	66 48 0f 6e c2       	movq   %rdx,%xmm0
    98dd:	48 89 c7             	mov    %rax,%rdi
    98e0:	e8 2b fa ff ff       	call   9310 <_ZN6vectorC1Eddd>
    98e5:	48 8b 45 90          	mov    -0x70(%rbp),%rax
    98e9:	48 83 c0 40          	add    $0x40,%rax
    98ed:	f2 0f 10 08          	movsd  (%rax),%xmm1
    98f1:	48 8b 45 90          	mov    -0x70(%rbp),%rax
    98f5:	48 83 c0 38          	add    $0x38,%rax
    98f9:	f2 0f 10 00          	movsd  (%rax),%xmm0
    98fd:	48 8b 45 90          	mov    -0x70(%rbp),%rax
    9901:	48 83 c0 30          	add    $0x30,%rax
    9905:	48 8b 10             	mov    (%rax),%rdx
    9908:	48 8d 45 e0          	lea    -0x20(%rbp),%rax
    990c:	66 0f 28 d1          	movapd %xmm1,%xmm2
    9910:	66 0f 28 c8          	movapd %xmm0,%xmm1
    9914:	66 48 0f 6e c2       	movq   %rdx,%xmm0
    9919:	48 89 c7             	mov    %rax,%rdi
    991c:	e8 ef f9 ff ff       	call   9310 <_ZN6vectorC1Eddd>
    9921:	48 8b 45 98          	mov    -0x68(%rbp),%rax
    9925:	48 8d 55 a0          	lea    -0x60(%rbp),%rdx
    9929:	48 89 d6             	mov    %rdx,%rsi
    992c:	48 89 c7             	mov    %rax,%rdi
    992f:	e8 a8 fd ff ff       	call   96dc <_ZN6vectoraSERKS_>
    9934:	48 8b 45 98          	mov    -0x68(%rbp),%rax
    9938:	48 8d 50 18          	lea    0x18(%rax),%rdx
    993c:	48 8d 45 c0          	lea    -0x40(%rbp),%rax
    9940:	48 89 c6             	mov    %rax,%rsi
    9943:	48 89 d7             	mov    %rdx,%rdi
    9946:	e8 91 fd ff ff       	call   96dc <_ZN6vectoraSERKS_>
    994b:	48 8b 45 98          	mov    -0x68(%rbp),%rax
    994f:	48 8d 50 30          	lea    0x30(%rax),%rdx
    9953:	48 8d 45 e0          	lea    -0x20(%rbp),%rax
    9957:	48 89 c6             	mov    %rax,%rsi
    995a:	48 89 d7             	mov    %rdx,%rdi
    995d:	e8 7a fd ff ff       	call   96dc <_ZN6vectoraSERKS_>
    9962:	90                   	nop
    9963:	48 8b 45 f8          	mov    -0x8(%rbp),%rax
    9967:	64 48 2b 04 25 28 00 	sub    %fs:0x28,%rax
    996e:	00 00 
    9970:	74 05                	je     9977 <_ZN6tensorC1EPd+0x155>
    9972:	e8 69 8b ff ff       	call   24e0 <__stack_chk_fail@plt>
    9977:	c9                   	leave  
    9978:	c3                   	ret    
    9979:	90                   	nop

000000000000997a <_ZN6tensoraSERKS_>:
    997a:	f3 0f 1e fa          	endbr64 
    997e:	55                   	push   %rbp
    997f:	48 89 e5             	mov    %rsp,%rbp
    9982:	48 83 ec 10          	sub    $0x10,%rsp
    9986:	48 89 7d f8          	mov    %rdi,-0x8(%rbp)
    998a:	48 89 75 f0          	mov    %rsi,-0x10(%rbp)
    998e:	48 8b 45 f8          	mov    -0x8(%rbp),%rax
    9992:	48 3b 45 f0          	cmp    -0x10(%rbp),%rax
    9996:	74 49                	je     99e1 <_ZN6tensoraSERKS_+0x67>
    9998:	48 8b 55 f0          	mov    -0x10(%rbp),%rdx
    999c:	48 8b 45 f8          	mov    -0x8(%rbp),%rax
    99a0:	48 89 d6             	mov    %rdx,%rsi
    99a3:	48 89 c7             	mov    %rax,%rdi
    99a6:	e8 31 fd ff ff       	call   96dc <_ZN6vectoraSERKS_>
    99ab:	48 8b 45 f0          	mov    -0x10(%rbp),%rax
    99af:	48 8d 50 18          	lea    0x18(%rax),%rdx
    99b3:	48 8b 45 f8          	mov    -0x8(%rbp),%rax
    99b7:	48 83 c0 18          	add    $0x18,%rax
    99bb:	48 89 d6             	mov    %rdx,%rsi
    99be:	48 89 c7             	mov    %rax,%rdi
    99c1:	e8 16 fd ff ff       	call   96dc <_ZN6vectoraSERKS_>
    99c6:	48 8b 45 f0          	mov    -0x10(%rbp),%rax
    99ca:	48 8d 50 30          	lea    0x30(%rax),%rdx
    99ce:	48 8b 45 f8          	mov    -0x8(%rbp),%rax
    99d2:	48 83 c0 30          	add    $0x30,%rax
    99d6:	48 89 d6             	mov    %rdx,%rsi
    99d9:	48 89 c7             	mov    %rax,%rdi
    99dc:	e8 fb fc ff ff       	call   96dc <_ZN6vectoraSERKS_>
    99e1:	48 8b 45 f8          	mov    -0x8(%rbp),%rax
    99e5:	c9                   	leave  
    99e6:	c3                   	ret    
    99e7:	90                   	nop

00000000000099e8 <_ZN6tensor9transposeEv>:
    99e8:	f3 0f 1e fa          	endbr64 
    99ec:	55                   	push   %rbp
    99ed:	48 89 e5             	mov    %rsp,%rbp
    99f0:	41 54                	push   %r12
    99f2:	53                   	push   %rbx
    99f3:	48 83 ec 70          	sub    $0x70,%rsp
    99f7:	48 89 7d 88          	mov    %rdi,-0x78(%rbp)
    99fb:	48 89 75 80          	mov    %rsi,-0x80(%rbp)
    99ff:	64 48 8b 04 25 28 00 	mov    %fs:0x28,%rax
    9a06:	00 00 
    9a08:	48 89 45 e8          	mov    %rax,-0x18(%rbp)
    9a0c:	31 c0                	xor    %eax,%eax
    9a0e:	48 8b 45 80          	mov    -0x80(%rbp),%rax
    9a12:	48 83 c0 30          	add    $0x30,%rax
    9a16:	48 89 c7             	mov    %rax,%rdi
    9a19:	e8 3a f9 ff ff       	call   9358 <_ZN6vector1XEv>
    9a1e:	66 49 0f 7e c4       	movq   %xmm0,%r12
    9a23:	48 8b 45 80          	mov    -0x80(%rbp),%rax
    9a27:	48 83 c0 18          	add    $0x18,%rax
    9a2b:	48 89 c7             	mov    %rax,%rdi
    9a2e:	e8 25 f9 ff ff       	call   9358 <_ZN6vector1XEv>
    9a33:	66 48 0f 7e c3       	movq   %xmm0,%rbx
    9a38:	48 8b 45 80          	mov    -0x80(%rbp),%rax
    9a3c:	48 89 c7             	mov    %rax,%rdi
    9a3f:	e8 14 f9 ff ff       	call   9358 <_ZN6vector1XEv>
    9a44:	66 48 0f 7e c0       	movq   %xmm0,%rax
    9a49:	48 8d 55 90          	lea    -0x70(%rbp),%rdx
    9a4d:	66 49 0f 6e d4       	movq   %r12,%xmm2
    9a52:	66 48 0f 6e cb       	movq   %rbx,%xmm1
    9a57:	66 48 0f 6e c0       	movq   %rax,%xmm0
    9a5c:	48 89 d7             	mov    %rdx,%rdi
    9a5f:	e8 ac f8 ff ff       	call   9310 <_ZN6vectorC1Eddd>
    9a64:	48 8b 45 80          	mov    -0x80(%rbp),%rax
    9a68:	48 83 c0 30          	add    $0x30,%rax
    9a6c:	48 89 c7             	mov    %rax,%rdi
    9a6f:	e8 04 f9 ff ff       	call   9378 <_ZN6vector1YEv>
    9a74:	66 49 0f 7e c4       	movq   %xmm0,%r12
    9a79:	48 8b 45 80          	mov    -0x80(%rbp),%rax
    9a7d:	48 83 c0 18          	add    $0x18,%rax
    9a81:	48 89 c7             	mov    %rax,%rdi
    9a84:	e8 ef f8 ff ff       	call   9378 <_ZN6vector1YEv>
    9a89:	66 48 0f 7e c3       	movq   %xmm0,%rbx
    9a8e:	48 8b 45 80          	mov    -0x80(%rbp),%rax
    9a92:	48 89 c7             	mov    %rax,%rdi
    9a95:	e8 de f8 ff ff       	call   9378 <_ZN6vector1YEv>
    9a9a:	66 48 0f 7e c0       	movq   %xmm0,%rax
    9a9f:	48 8d 55 b0          	lea    -0x50(%rbp),%rdx
    9aa3:	66 49 0f 6e d4       	movq   %r12,%xmm2
    9aa8:	66 48 0f 6e cb       	movq   %rbx,%xmm1
    9aad:	66 48 0f 6e c0       	movq   %rax,%xmm0
    9ab2:	48 89 d7             	mov    %rdx,%rdi
    9ab5:	e8 56 f8 ff ff       	call   9310 <_ZN6vectorC1Eddd>
    9aba:	48 8b 45 80          	mov    -0x80(%rbp),%rax
    9abe:	48 83 c0 30          	add    $0x30,%rax
    9ac2:	48 89 c7             	mov    %rax,%rdi
    9ac5:	e8 d0 f8 ff ff       	call   939a <_ZN6vector1ZEv>
    9aca:	66 49 0f 7e c4       	movq   %xmm0,%r12
    9acf:	48 8b 45 80          	mov    -0x80(%rbp),%rax
    9ad3:	48 83 c0 18          	add    $0x18,%rax
    9ad7:	48 89 c7             	mov    %rax,%rdi
    9ada:	e8 bb f8 ff ff       	call   939a <_ZN6vector1ZEv>
    9adf:	66 48 0f 7e c3       	movq   %xmm0,%rbx
    9ae4:	48 8b 45 80          	mov    -0x80(%rbp),%rax
    9ae8:	48 89 c7             	mov    %rax,%rdi
    9aeb:	e8 aa f8 ff ff       	call   939a <_ZN6vector1ZEv>
    9af0:	66 48 0f 7e c0       	movq   %xmm0,%rax
    9af5:	48 8d 55 d0          	lea    -0x30(%rbp),%rdx
    9af9:	66 49 0f 6e d4       	movq   %r12,%xmm2
    9afe:	66 48 0f 6e cb       	movq   %rbx,%xmm1
    9b03:	66 48 0f 6e c0       	movq   %rax,%xmm0
    9b08:	48 89 d7             	mov    %rdx,%rdi
    9b0b:	e8 00 f8 ff ff       	call   9310 <_ZN6vectorC1Eddd>
    9b10:	48 8b 45 88          	mov    -0x78(%rbp),%rax
    9b14:	48 83 ec 08          	sub    $0x8,%rsp
    9b18:	ff 75 e0             	push   -0x20(%rbp)
    9b1b:	ff 75 d8             	push   -0x28(%rbp)
    9b1e:	ff 75 d0             	push   -0x30(%rbp)
    9b21:	ff 75 c0             	push   -0x40(%rbp)
    9b24:	ff 75 b8             	push   -0x48(%rbp)
    9b27:	ff 75 b0             	push   -0x50(%rbp)
    9b2a:	ff 75 a0             	push   -0x60(%rbp)
    9b2d:	ff 75 98             	push   -0x68(%rbp)
    9b30:	ff 75 90             	push   -0x70(%rbp)
    9b33:	48 89 c7             	mov    %rax,%rdi
    9b36:	e8 69 fc ff ff       	call   97a4 <_ZN6tensorC1E6vectorS0_S0_>
    9b3b:	48 83 c4 50          	add    $0x50,%rsp
    9b3f:	90                   	nop
    9b40:	48 8b 45 e8          	mov    -0x18(%rbp),%rax
    9b44:	64 48 2b 04 25 28 00 	sub    %fs:0x28,%rax
    9b4b:	00 00 
    9b4d:	74 05                	je     9b54 <_ZN6tensor9transposeEv+0x16c>
    9b4f:	e8 8c 89 ff ff       	call   24e0 <__stack_chk_fail@plt>
    9b54:	48 8b 45 88          	mov    -0x78(%rbp),%rax
    9b58:	48 8d 65 f0          	lea    -0x10(%rbp),%rsp
    9b5c:	5b                   	pop    %rbx
    9b5d:	41 5c                	pop    %r12
    9b5f:	5d                   	pop    %rbp
    9b60:	c3                   	ret    
    9b61:	90                   	nop

0000000000009b62 <_ZN6tensor9getColumnEi>:
    9b62:	f3 0f 1e fa          	endbr64 
    9b66:	55                   	push   %rbp
    9b67:	48 89 e5             	mov    %rsp,%rbp
    9b6a:	48 83 ec 20          	sub    $0x20,%rsp
    9b6e:	48 89 7d f8          	mov    %rdi,-0x8(%rbp)
    9b72:	48 89 75 f0          	mov    %rsi,-0x10(%rbp)
    9b76:	89 55 ec             	mov    %edx,-0x14(%rbp)
    9b79:	83 7d ec 03          	cmpl   $0x3,-0x14(%rbp)
    9b7d:	74 55                	je     9bd4 <_ZN6tensor9getColumnEi+0x72>
    9b7f:	83 7d ec 03          	cmpl   $0x3,-0x14(%rbp)
    9b83:	7f 70                	jg     9bf5 <_ZN6tensor9getColumnEi+0x93>
    9b85:	83 7d ec 01          	cmpl   $0x1,-0x14(%rbp)
    9b89:	74 08                	je     9b93 <_ZN6tensor9getColumnEi+0x31>
    9b8b:	83 7d ec 02          	cmpl   $0x2,-0x14(%rbp)
    9b8f:	74 22                	je     9bb3 <_ZN6tensor9getColumnEi+0x51>
    9b91:	eb 62                	jmp    9bf5 <_ZN6tensor9getColumnEi+0x93>
    9b93:	48 8b 4d f8          	mov    -0x8(%rbp),%rcx
    9b97:	48 8b 75 f0          	mov    -0x10(%rbp),%rsi
    9b9b:	48 8b 06             	mov    (%rsi),%rax
    9b9e:	48 8b 56 08          	mov    0x8(%rsi),%rdx
    9ba2:	48 89 01             	mov    %rax,(%rcx)
    9ba5:	48 89 51 08          	mov    %rdx,0x8(%rcx)
    9ba9:	48 8b 46 10          	mov    0x10(%rsi),%rax
    9bad:	48 89 41 10          	mov    %rax,0x10(%rcx)
    9bb1:	eb 79                	jmp    9c2c <_ZN6tensor9getColumnEi+0xca>
    9bb3:	48 8b 4d f8          	mov    -0x8(%rbp),%rcx
    9bb7:	48 8b 75 f0          	mov    -0x10(%rbp),%rsi
    9bbb:	48 8b 46 18          	mov    0x18(%rsi),%rax
    9bbf:	48 8b 56 20          	mov    0x20(%rsi),%rdx
    9bc3:	48 89 01             	mov    %rax,(%rcx)
    9bc6:	48 89 51 08          	mov    %rdx,0x8(%rcx)
    9bca:	48 8b 46 28          	mov    0x28(%rsi),%rax
    9bce:	48 89 41 10          	mov    %rax,0x10(%rcx)
    9bd2:	eb 58                	jmp    9c2c <_ZN6tensor9getColumnEi+0xca>
    9bd4:	48 8b 4d f8          	mov    -0x8(%rbp),%rcx
    9bd8:	48 8b 75 f0          	mov    -0x10(%rbp),%rsi
    9bdc:	48 8b 46 30          	mov    0x30(%rsi),%rax
    9be0:	48 8b 56 38          	mov    0x38(%rsi),%rdx
    9be4:	48 89 01             	mov    %rax,(%rcx)
    9be7:	48 89 51 08          	mov    %rdx,0x8(%rcx)
    9beb:	48 8b 46 40          	mov    0x40(%rsi),%rax
    9bef:	48 89 41 10          	mov    %rax,0x10(%rcx)
    9bf3:	eb 37                	jmp    9c2c <_ZN6tensor9getColumnEi+0xca>
    9bf5:	48 8d 05 18 54 00 00 	lea    0x5418(%rip),%rax        # f014 <_ZN6__pstl9execution2v1L5unseqE+0x1>
    9bfc:	48 89 c6             	mov    %rax,%rsi
    9bff:	48 8d 05 3a 94 00 00 	lea    0x943a(%rip),%rax        # 13040 <_ZSt4cout@GLIBCXX_3.4>
    9c06:	48 89 c7             	mov    %rax,%rdi
    9c09:	e8 82 88 ff ff       	call   2490 <_ZStlsISt11char_traitsIcEERSt13basic_ostreamIcT_ES5_PKc@plt>
    9c0e:	48 8b 4d f8          	mov    -0x8(%rbp),%rcx
    9c12:	48 8b 75 f0          	mov    -0x10(%rbp),%rsi
    9c16:	48 8b 06             	mov    (%rsi),%rax
    9c19:	48 8b 56 08          	mov    0x8(%rsi),%rdx
    9c1d:	48 89 01             	mov    %rax,(%rcx)
    9c20:	48 89 51 08          	mov    %rdx,0x8(%rcx)
    9c24:	48 8b 46 10          	mov    0x10(%rsi),%rax
    9c28:	48 89 41 10          	mov    %rax,0x10(%rcx)
    9c2c:	48 8b 45 f8          	mov    -0x8(%rbp),%rax
    9c30:	c9                   	leave  
    9c31:	c3                   	ret    

0000000000009c32 <_ZN6tensormlE6vector>:
    9c32:	f3 0f 1e fa          	endbr64 
    9c36:	55                   	push   %rbp
    9c37:	48 89 e5             	mov    %rsp,%rbp
    9c3a:	41 54                	push   %r12
    9c3c:	53                   	push   %rbx
    9c3d:	48 81 ec c0 00 00 00 	sub    $0xc0,%rsp
    9c44:	48 89 bd 38 ff ff ff 	mov    %rdi,-0xc8(%rbp)
    9c4b:	48 89 b5 30 ff ff ff 	mov    %rsi,-0xd0(%rbp)
    9c52:	64 48 8b 04 25 28 00 	mov    %fs:0x28,%rax
    9c59:	00 00 
    9c5b:	48 89 45 e8          	mov    %rax,-0x18(%rbp)
    9c5f:	31 c0                	xor    %eax,%eax
    9c61:	48 8d 45 a0          	lea    -0x60(%rbp),%rax
    9c65:	48 8b 95 30 ff ff ff 	mov    -0xd0(%rbp),%rdx
    9c6c:	48 89 d6             	mov    %rdx,%rsi
    9c6f:	48 89 c7             	mov    %rax,%rdi
    9c72:	e8 71 fd ff ff       	call   99e8 <_ZN6tensor9transposeEv>
    9c77:	48 8d 45 80          	lea    -0x80(%rbp),%rax
    9c7b:	48 8d 4d a0          	lea    -0x60(%rbp),%rcx
    9c7f:	ba 03 00 00 00       	mov    $0x3,%edx
    9c84:	48 89 ce             	mov    %rcx,%rsi
    9c87:	48 89 c7             	mov    %rax,%rdi
    9c8a:	e8 d3 fe ff ff       	call   9b62 <_ZN6tensor9getColumnEi>
    9c8f:	48 8d 45 80          	lea    -0x80(%rbp),%rax
    9c93:	48 8d 75 10          	lea    0x10(%rbp),%rsi
    9c97:	48 89 c7             	mov    %rax,%rdi
    9c9a:	e8 1d f7 ff ff       	call   93bc <_ZN6vectormlERKS_>
    9c9f:	66 49 0f 7e c4       	movq   %xmm0,%r12
    9ca4:	48 8d 85 60 ff ff ff 	lea    -0xa0(%rbp),%rax
    9cab:	48 8d 4d a0          	lea    -0x60(%rbp),%rcx
    9caf:	ba 02 00 00 00       	mov    $0x2,%edx
    9cb4:	48 89 ce             	mov    %rcx,%rsi
    9cb7:	48 89 c7             	mov    %rax,%rdi
    9cba:	e8 a3 fe ff ff       	call   9b62 <_ZN6tensor9getColumnEi>
    9cbf:	48 8d 85 60 ff ff ff 	lea    -0xa0(%rbp),%rax
    9cc6:	48 8d 75 10          	lea    0x10(%rbp),%rsi
    9cca:	48 89 c7             	mov    %rax,%rdi
    9ccd:	e8 ea f6 ff ff       	call   93bc <_ZN6vectormlERKS_>
    9cd2:	66 48 0f 7e c3       	movq   %xmm0,%rbx
    9cd7:	48 8d 85 40 ff ff ff 	lea    -0xc0(%rbp),%rax
    9cde:	48 8d 4d a0          	lea    -0x60(%rbp),%rcx
    9ce2:	ba 01 00 00 00       	mov    $0x1,%edx
    9ce7:	48 89 ce             	mov    %rcx,%rsi
    9cea:	48 89 c7             	mov    %rax,%rdi
    9ced:	e8 70 fe ff ff       	call   9b62 <_ZN6tensor9getColumnEi>
    9cf2:	48 8d 85 40 ff ff ff 	lea    -0xc0(%rbp),%rax
    9cf9:	48 8d 75 10          	lea    0x10(%rbp),%rsi
    9cfd:	48 89 c7             	mov    %rax,%rdi
    9d00:	e8 b7 f6 ff ff       	call   93bc <_ZN6vectormlERKS_>
    9d05:	66 48 0f 7e c0       	movq   %xmm0,%rax
    9d0a:	48 8b 95 38 ff ff ff 	mov    -0xc8(%rbp),%rdx
    9d11:	66 49 0f 6e d4       	movq   %r12,%xmm2
    9d16:	66 48 0f 6e cb       	movq   %rbx,%xmm1
    9d1b:	66 48 0f 6e c0       	movq   %rax,%xmm0
    9d20:	48 89 d7             	mov    %rdx,%rdi
    9d23:	e8 e8 f5 ff ff       	call   9310 <_ZN6vectorC1Eddd>
    9d28:	90                   	nop
    9d29:	48 8b 45 e8          	mov    -0x18(%rbp),%rax
    9d2d:	64 48 2b 04 25 28 00 	sub    %fs:0x28,%rax
    9d34:	00 00 
    9d36:	74 05                	je     9d3d <_ZN6tensormlE6vector+0x10b>
    9d38:	e8 a3 87 ff ff       	call   24e0 <__stack_chk_fail@plt>
    9d3d:	48 8b 85 38 ff ff ff 	mov    -0xc8(%rbp),%rax
    9d44:	48 81 c4 c0 00 00 00 	add    $0xc0,%rsp
    9d4b:	5b                   	pop    %rbx
    9d4c:	41 5c                	pop    %r12
    9d4e:	5d                   	pop    %rbp
    9d4f:	c3                   	ret    

0000000000009d50 <_ZN6tensorplES_>:
    9d50:	f3 0f 1e fa          	endbr64 
    9d54:	55                   	push   %rbp
    9d55:	48 89 e5             	mov    %rsp,%rbp
    9d58:	48 81 ec d0 00 00 00 	sub    $0xd0,%rsp
    9d5f:	48 89 bd 38 ff ff ff 	mov    %rdi,-0xc8(%rbp)
    9d66:	48 89 b5 30 ff ff ff 	mov    %rsi,-0xd0(%rbp)
    9d6d:	64 48 8b 04 25 28 00 	mov    %fs:0x28,%rax
    9d74:	00 00 
    9d76:	48 89 45 f8          	mov    %rax,-0x8(%rbp)
    9d7a:	31 c0                	xor    %eax,%eax
    9d7c:	48 8d 45 80          	lea    -0x80(%rbp),%rax
    9d80:	ba 03 00 00 00       	mov    $0x3,%edx
    9d85:	48 8d 75 10          	lea    0x10(%rbp),%rsi
    9d89:	48 89 c7             	mov    %rax,%rdi
    9d8c:	e8 d1 fd ff ff       	call   9b62 <_ZN6tensor9getColumnEi>
    9d91:	48 8b 85 30 ff ff ff 	mov    -0xd0(%rbp),%rax
    9d98:	48 8d 48 30          	lea    0x30(%rax),%rcx
    9d9c:	48 8d 45 a0          	lea    -0x60(%rbp),%rax
    9da0:	48 8d 55 80          	lea    -0x80(%rbp),%rdx
    9da4:	48 89 ce             	mov    %rcx,%rsi
    9da7:	48 89 c7             	mov    %rax,%rdi
    9daa:	e8 59 f7 ff ff       	call   9508 <_ZN6vectorplERKS_>
    9daf:	48 8d 85 60 ff ff ff 	lea    -0xa0(%rbp),%rax
    9db6:	ba 02 00 00 00       	mov    $0x2,%edx
    9dbb:	48 8d 75 10          	lea    0x10(%rbp),%rsi
    9dbf:	48 89 c7             	mov    %rax,%rdi
    9dc2:	e8 9b fd ff ff       	call   9b62 <_ZN6tensor9getColumnEi>
    9dc7:	48 8b 85 30 ff ff ff 	mov    -0xd0(%rbp),%rax
    9dce:	48 8d 48 18          	lea    0x18(%rax),%rcx
    9dd2:	48 8d 45 c0          	lea    -0x40(%rbp),%rax
    9dd6:	48 8d 95 60 ff ff ff 	lea    -0xa0(%rbp),%rdx
    9ddd:	48 89 ce             	mov    %rcx,%rsi
    9de0:	48 89 c7             	mov    %rax,%rdi
    9de3:	e8 20 f7 ff ff       	call   9508 <_ZN6vectorplERKS_>
    9de8:	48 8d 85 40 ff ff ff 	lea    -0xc0(%rbp),%rax
    9def:	ba 01 00 00 00       	mov    $0x1,%edx
    9df4:	48 8d 75 10          	lea    0x10(%rbp),%rsi
    9df8:	48 89 c7             	mov    %rax,%rdi
    9dfb:	e8 62 fd ff ff       	call   9b62 <_ZN6tensor9getColumnEi>
    9e00:	48 8b 8d 30 ff ff ff 	mov    -0xd0(%rbp),%rcx
    9e07:	48 8d 45 e0          	lea    -0x20(%rbp),%rax
    9e0b:	48 8d 95 40 ff ff ff 	lea    -0xc0(%rbp),%rdx
    9e12:	48 89 ce             	mov    %rcx,%rsi
    9e15:	48 89 c7             	mov    %rax,%rdi
    9e18:	e8 eb f6 ff ff       	call   9508 <_ZN6vectorplERKS_>
    9e1d:	48 8b 85 38 ff ff ff 	mov    -0xc8(%rbp),%rax
    9e24:	48 83 ec 08          	sub    $0x8,%rsp
    9e28:	ff 75 b0             	push   -0x50(%rbp)
    9e2b:	ff 75 a8             	push   -0x58(%rbp)
    9e2e:	ff 75 a0             	push   -0x60(%rbp)
    9e31:	ff 75 d0             	push   -0x30(%rbp)
    9e34:	ff 75 c8             	push   -0x38(%rbp)
    9e37:	ff 75 c0             	push   -0x40(%rbp)
    9e3a:	ff 75 f0             	push   -0x10(%rbp)
    9e3d:	ff 75 e8             	push   -0x18(%rbp)
    9e40:	ff 75 e0             	push   -0x20(%rbp)
    9e43:	48 89 c7             	mov    %rax,%rdi
    9e46:	e8 59 f9 ff ff       	call   97a4 <_ZN6tensorC1E6vectorS0_S0_>
    9e4b:	48 83 c4 50          	add    $0x50,%rsp
    9e4f:	90                   	nop
    9e50:	48 8b 45 f8          	mov    -0x8(%rbp),%rax
    9e54:	64 48 2b 04 25 28 00 	sub    %fs:0x28,%rax
    9e5b:	00 00 
    9e5d:	74 05                	je     9e64 <_ZN6tensorplES_+0x114>
    9e5f:	e8 7c 86 ff ff       	call   24e0 <__stack_chk_fail@plt>
    9e64:	48 8b 85 38 ff ff ff 	mov    -0xc8(%rbp),%rax
    9e6b:	c9                   	leave  
    9e6c:	c3                   	ret    
    9e6d:	90                   	nop

0000000000009e6e <_ZNSt12_Vector_baseIiSaIiEE12_Vector_implD1Ev>:
    9e6e:	f3 0f 1e fa          	endbr64 
    9e72:	55                   	push   %rbp
    9e73:	48 89 e5             	mov    %rsp,%rbp
    9e76:	48 83 ec 10          	sub    $0x10,%rsp
    9e7a:	48 89 7d f8          	mov    %rdi,-0x8(%rbp)
    9e7e:	48 8b 45 f8          	mov    -0x8(%rbp),%rax
    9e82:	48 89 c7             	mov    %rax,%rdi
    9e85:	e8 f6 01 00 00       	call   a080 <_ZNSaIiED1Ev>
    9e8a:	90                   	nop
    9e8b:	c9                   	leave  
    9e8c:	c3                   	ret    
    9e8d:	90                   	nop

0000000000009e8e <_ZNSt12_Vector_baseIiSaIiEEC1Ev>:
    9e8e:	f3 0f 1e fa          	endbr64 
    9e92:	55                   	push   %rbp
    9e93:	48 89 e5             	mov    %rsp,%rbp
    9e96:	48 83 ec 10          	sub    $0x10,%rsp
    9e9a:	48 89 7d f8          	mov    %rdi,-0x8(%rbp)
    9e9e:	48 8b 45 f8          	mov    -0x8(%rbp),%rax
    9ea2:	48 89 c7             	mov    %rax,%rdi
    9ea5:	e8 aa 01 00 00       	call   a054 <_ZNSt12_Vector_baseIiSaIiEE12_Vector_implC1Ev>
    9eaa:	90                   	nop
    9eab:	c9                   	leave  
    9eac:	c3                   	ret    
    9ead:	90                   	nop

0000000000009eae <_ZNSt6vectorIiSaIiEEC1Ev>:
    9eae:	f3 0f 1e fa          	endbr64 
    9eb2:	55                   	push   %rbp
    9eb3:	48 89 e5             	mov    %rsp,%rbp
    9eb6:	48 83 ec 10          	sub    $0x10,%rsp
    9eba:	48 89 7d f8          	mov    %rdi,-0x8(%rbp)
    9ebe:	48 8b 45 f8          	mov    -0x8(%rbp),%rax
    9ec2:	48 89 c7             	mov    %rax,%rdi
    9ec5:	e8 c4 ff ff ff       	call   9e8e <_ZNSt12_Vector_baseIiSaIiEEC1Ev>
    9eca:	90                   	nop
    9ecb:	c9                   	leave  
    9ecc:	c3                   	ret    

0000000000009ecd <_ZSt3maxImERKT_S2_S2_>:
    9ecd:	f3 0f 1e fa          	endbr64 
    9ed1:	55                   	push   %rbp
    9ed2:	48 89 e5             	mov    %rsp,%rbp
    9ed5:	48 89 7d f8          	mov    %rdi,-0x8(%rbp)
    9ed9:	48 89 75 f0          	mov    %rsi,-0x10(%rbp)
    9edd:	48 8b 45 f8          	mov    -0x8(%rbp),%rax
    9ee1:	48 8b 10             	mov    (%rax),%rdx
    9ee4:	48 8b 45 f0          	mov    -0x10(%rbp),%rax
    9ee8:	48 8b 00             	mov    (%rax),%rax
    9eeb:	48 39 c2             	cmp    %rax,%rdx
    9eee:	73 06                	jae    9ef6 <_ZSt3maxImERKT_S2_S2_+0x29>
    9ef0:	48 8b 45 f0          	mov    -0x10(%rbp),%rax
    9ef4:	eb 04                	jmp    9efa <_ZSt3maxImERKT_S2_S2_+0x2d>
    9ef6:	48 8b 45 f8          	mov    -0x8(%rbp),%rax
    9efa:	5d                   	pop    %rbp
    9efb:	c3                   	ret    

0000000000009efc <_ZSt7forwardIiEOT_RNSt16remove_referenceIS0_E4typeE>:
    9efc:	f3 0f 1e fa          	endbr64 
    9f00:	55                   	push   %rbp
    9f01:	48 89 e5             	mov    %rsp,%rbp
    9f04:	48 89 7d f8          	mov    %rdi,-0x8(%rbp)
    9f08:	48 8b 45 f8          	mov    -0x8(%rbp),%rax
    9f0c:	5d                   	pop    %rbp
    9f0d:	c3                   	ret    

0000000000009f0e <_ZSt4sortIPeEvT_S1_>:
    9f0e:	f3 0f 1e fa          	endbr64 
    9f12:	55                   	push   %rbp
    9f13:	48 89 e5             	mov    %rsp,%rbp
    9f16:	48 83 ec 10          	sub    $0x10,%rsp
    9f1a:	48 89 7d f8          	mov    %rdi,-0x8(%rbp)
    9f1e:	48 89 75 f0          	mov    %rsi,-0x10(%rbp)
    9f22:	e8 92 f2 ff ff       	call   91b9 <_ZN9__gnu_cxx5__ops16__iter_less_iterEv>
    9f27:	48 8b 55 f0          	mov    -0x10(%rbp),%rdx
    9f2b:	48 8b 45 f8          	mov    -0x8(%rbp),%rax
    9f2f:	48 89 d6             	mov    %rdx,%rsi
    9f32:	48 89 c7             	mov    %rax,%rdi
    9f35:	e8 35 02 00 00       	call   a16f <_ZSt6__sortIPeN9__gnu_cxx5__ops15_Iter_less_iterEEvT_S4_T0_>
    9f3a:	90                   	nop
    9f3b:	c9                   	leave  
    9f3c:	c3                   	ret    
    9f3d:	90                   	nop

0000000000009f3e <_ZNKSt6vectorIiSaIiEE5beginEv>:
    9f3e:	f3 0f 1e fa          	endbr64 
    9f42:	55                   	push   %rbp
    9f43:	48 89 e5             	mov    %rsp,%rbp
    9f46:	48 83 ec 20          	sub    $0x20,%rsp
    9f4a:	48 89 7d e8          	mov    %rdi,-0x18(%rbp)
    9f4e:	64 48 8b 04 25 28 00 	mov    %fs:0x28,%rax
    9f55:	00 00 
    9f57:	48 89 45 f8          	mov    %rax,-0x8(%rbp)
    9f5b:	31 c0                	xor    %eax,%eax
    9f5d:	48 8b 55 e8          	mov    -0x18(%rbp),%rdx
    9f61:	48 8d 45 f0          	lea    -0x10(%rbp),%rax
    9f65:	48 89 d6             	mov    %rdx,%rsi
    9f68:	48 89 c7             	mov    %rax,%rdi
    9f6b:	e8 5e 02 00 00       	call   a1ce <_ZN9__gnu_cxx17__normal_iteratorIPKiSt6vectorIiSaIiEEEC1ERKS2_>
    9f70:	48 8b 45 f0          	mov    -0x10(%rbp),%rax
    9f74:	48 8b 55 f8          	mov    -0x8(%rbp),%rdx
    9f78:	64 48 2b 14 25 28 00 	sub    %fs:0x28,%rdx
    9f7f:	00 00 
    9f81:	74 05                	je     9f88 <_ZNKSt6vectorIiSaIiEE5beginEv+0x4a>
    9f83:	e8 58 85 ff ff       	call   24e0 <__stack_chk_fail@plt>
    9f88:	c9                   	leave  
    9f89:	c3                   	ret    

0000000000009f8a <_ZNKSt6vectorIiSaIiEE3endEv>:
    9f8a:	f3 0f 1e fa          	endbr64 
    9f8e:	55                   	push   %rbp
    9f8f:	48 89 e5             	mov    %rsp,%rbp
    9f92:	48 83 ec 20          	sub    $0x20,%rsp
    9f96:	48 89 7d e8          	mov    %rdi,-0x18(%rbp)
    9f9a:	64 48 8b 04 25 28 00 	mov    %fs:0x28,%rax
    9fa1:	00 00 
    9fa3:	48 89 45 f8          	mov    %rax,-0x8(%rbp)
    9fa7:	31 c0                	xor    %eax,%eax
    9fa9:	48 8b 45 e8          	mov    -0x18(%rbp),%rax
    9fad:	48 8d 50 08          	lea    0x8(%rax),%rdx
    9fb1:	48 8d 45 f0          	lea    -0x10(%rbp),%rax
    9fb5:	48 89 d6             	mov    %rdx,%rsi
    9fb8:	48 89 c7             	mov    %rax,%rdi
    9fbb:	e8 0e 02 00 00       	call   a1ce <_ZN9__gnu_cxx17__normal_iteratorIPKiSt6vectorIiSaIiEEEC1ERKS2_>
    9fc0:	48 8b 45 f0          	mov    -0x10(%rbp),%rax
    9fc4:	48 8b 55 f8          	mov    -0x8(%rbp),%rdx
    9fc8:	64 48 2b 14 25 28 00 	sub    %fs:0x28,%rdx
    9fcf:	00 00 
    9fd1:	74 05                	je     9fd8 <_ZNKSt6vectorIiSaIiEE3endEv+0x4e>
    9fd3:	e8 08 85 ff ff       	call   24e0 <__stack_chk_fail@plt>
    9fd8:	c9                   	leave  
    9fd9:	c3                   	ret    

0000000000009fda <_ZN9__gnu_cxxneIPKiSt6vectorIiSaIiEEEEbRKNS_17__normal_iteratorIT_T0_EESB_>:
    9fda:	f3 0f 1e fa          	endbr64 
    9fde:	55                   	push   %rbp
    9fdf:	48 89 e5             	mov    %rsp,%rbp
    9fe2:	53                   	push   %rbx
    9fe3:	48 83 ec 18          	sub    $0x18,%rsp
    9fe7:	48 89 7d e8          	mov    %rdi,-0x18(%rbp)
    9feb:	48 89 75 e0          	mov    %rsi,-0x20(%rbp)
    9fef:	48 8b 45 e8          	mov    -0x18(%rbp),%rax
    9ff3:	48 89 c7             	mov    %rax,%rdi
    9ff6:	e8 f5 01 00 00       	call   a1f0 <_ZNK9__gnu_cxx17__normal_iteratorIPKiSt6vectorIiSaIiEEE4baseEv>
    9ffb:	48 8b 18             	mov    (%rax),%rbx
    9ffe:	48 8b 45 e0          	mov    -0x20(%rbp),%rax
    a002:	48 89 c7             	mov    %rax,%rdi
    a005:	e8 e6 01 00 00       	call   a1f0 <_ZNK9__gnu_cxx17__normal_iteratorIPKiSt6vectorIiSaIiEEE4baseEv>
    a00a:	48 8b 00             	mov    (%rax),%rax
    a00d:	48 39 c3             	cmp    %rax,%rbx
    a010:	0f 95 c0             	setne  %al
    a013:	48 8b 5d f8          	mov    -0x8(%rbp),%rbx
    a017:	c9                   	leave  
    a018:	c3                   	ret    
    a019:	90                   	nop

000000000000a01a <_ZN9__gnu_cxx17__normal_iteratorIPKiSt6vectorIiSaIiEEEppEv>:
    a01a:	f3 0f 1e fa          	endbr64 
    a01e:	55                   	push   %rbp
    a01f:	48 89 e5             	mov    %rsp,%rbp
    a022:	48 89 7d f8          	mov    %rdi,-0x8(%rbp)
    a026:	48 8b 45 f8          	mov    -0x8(%rbp),%rax
    a02a:	48 8b 00             	mov    (%rax),%rax
    a02d:	48 8d 50 04          	lea    0x4(%rax),%rdx
    a031:	48 8b 45 f8          	mov    -0x8(%rbp),%rax
    a035:	48 89 10             	mov    %rdx,(%rax)
    a038:	48 8b 45 f8          	mov    -0x8(%rbp),%rax
    a03c:	5d                   	pop    %rbp
    a03d:	c3                   	ret    

000000000000a03e <_ZNK9__gnu_cxx17__normal_iteratorIPKiSt6vectorIiSaIiEEEdeEv>:
    a03e:	f3 0f 1e fa          	endbr64 
    a042:	55                   	push   %rbp
    a043:	48 89 e5             	mov    %rsp,%rbp
    a046:	48 89 7d f8          	mov    %rdi,-0x8(%rbp)
    a04a:	48 8b 45 f8          	mov    -0x8(%rbp),%rax
    a04e:	48 8b 00             	mov    (%rax),%rax
    a051:	5d                   	pop    %rbp
    a052:	c3                   	ret    
    a053:	90                   	nop

000000000000a054 <_ZNSt12_Vector_baseIiSaIiEE12_Vector_implC1Ev>:
    a054:	f3 0f 1e fa          	endbr64 
    a058:	55                   	push   %rbp
    a059:	48 89 e5             	mov    %rsp,%rbp
    a05c:	48 83 ec 10          	sub    $0x10,%rsp
    a060:	48 89 7d f8          	mov    %rdi,-0x8(%rbp)
    a064:	48 8b 45 f8          	mov    -0x8(%rbp),%rax
    a068:	48 89 c7             	mov    %rax,%rdi
    a06b:	e8 92 01 00 00       	call   a202 <_ZNSaIiEC1Ev>
    a070:	48 8b 45 f8          	mov    -0x8(%rbp),%rax
    a074:	48 89 c7             	mov    %rax,%rdi
    a077:	e8 a6 01 00 00       	call   a222 <_ZNSt12_Vector_baseIiSaIiEE17_Vector_impl_dataC1Ev>
    a07c:	90                   	nop
    a07d:	c9                   	leave  
    a07e:	c3                   	ret    
    a07f:	90                   	nop

000000000000a080 <_ZNSaIiED1Ev>:
    a080:	f3 0f 1e fa          	endbr64 
    a084:	55                   	push   %rbp
    a085:	48 89 e5             	mov    %rsp,%rbp
    a088:	48 83 ec 10          	sub    $0x10,%rsp
    a08c:	48 89 7d f8          	mov    %rdi,-0x8(%rbp)
    a090:	48 8b 45 f8          	mov    -0x8(%rbp),%rax
    a094:	48 89 c7             	mov    %rax,%rdi
    a097:	e8 b8 01 00 00       	call   a254 <_ZN9__gnu_cxx13new_allocatorIiED1Ev>
    a09c:	90                   	nop
    a09d:	c9                   	leave  
    a09e:	c3                   	ret    
    a09f:	90                   	nop

000000000000a0a0 <_ZNSt12_Vector_baseIiSaIiEED1Ev>:
    a0a0:	f3 0f 1e fa          	endbr64 
    a0a4:	55                   	push   %rbp
    a0a5:	48 89 e5             	mov    %rsp,%rbp
    a0a8:	48 83 ec 10          	sub    $0x10,%rsp
    a0ac:	48 89 7d f8          	mov    %rdi,-0x8(%rbp)
    a0b0:	48 8b 45 f8          	mov    -0x8(%rbp),%rax
    a0b4:	48 8b 50 10          	mov    0x10(%rax),%rdx
    a0b8:	48 8b 45 f8          	mov    -0x8(%rbp),%rax
    a0bc:	48 8b 08             	mov    (%rax),%rcx
    a0bf:	48 89 d0             	mov    %rdx,%rax
    a0c2:	48 29 c8             	sub    %rcx,%rax
    a0c5:	48 c1 f8 02          	sar    $0x2,%rax
    a0c9:	48 89 c2             	mov    %rax,%rdx
    a0cc:	48 8b 45 f8          	mov    -0x8(%rbp),%rax
    a0d0:	48 8b 08             	mov    (%rax),%rcx
    a0d3:	48 8b 45 f8          	mov    -0x8(%rbp),%rax
    a0d7:	48 89 ce             	mov    %rcx,%rsi
    a0da:	48 89 c7             	mov    %rax,%rdi
    a0dd:	e8 82 01 00 00       	call   a264 <_ZNSt12_Vector_baseIiSaIiEE13_M_deallocateEPim>
    a0e2:	48 8b 45 f8          	mov    -0x8(%rbp),%rax
    a0e6:	48 89 c7             	mov    %rax,%rdi
    a0e9:	e8 80 fd ff ff       	call   9e6e <_ZNSt12_Vector_baseIiSaIiEE12_Vector_implD1Ev>
    a0ee:	90                   	nop
    a0ef:	c9                   	leave  
    a0f0:	c3                   	ret    
    a0f1:	90                   	nop

000000000000a0f2 <_ZNSt6vectorIiSaIiEED1Ev>:
    a0f2:	f3 0f 1e fa          	endbr64 
    a0f6:	55                   	push   %rbp
    a0f7:	48 89 e5             	mov    %rsp,%rbp
    a0fa:	48 83 ec 10          	sub    $0x10,%rsp
    a0fe:	48 89 7d f8          	mov    %rdi,-0x8(%rbp)
    a102:	48 8b 45 f8          	mov    -0x8(%rbp),%rax
    a106:	48 89 c7             	mov    %rax,%rdi
    a109:	e8 90 01 00 00       	call   a29e <_ZNSt12_Vector_baseIiSaIiEE19_M_get_Tp_allocatorEv>
    a10e:	48 89 c2             	mov    %rax,%rdx
    a111:	48 8b 45 f8          	mov    -0x8(%rbp),%rax
    a115:	48 8b 48 08          	mov    0x8(%rax),%rcx
    a119:	48 8b 45 f8          	mov    -0x8(%rbp),%rax
    a11d:	48 8b 00             	mov    (%rax),%rax
    a120:	48 89 ce             	mov    %rcx,%rsi
    a123:	48 89 c7             	mov    %rax,%rdi
    a126:	e8 85 01 00 00       	call   a2b0 <_ZSt8_DestroyIPiiEvT_S1_RSaIT0_E>
    a12b:	48 8b 45 f8          	mov    -0x8(%rbp),%rax
    a12f:	48 89 c7             	mov    %rax,%rdi
    a132:	e8 69 ff ff ff       	call   a0a0 <_ZNSt12_Vector_baseIiSaIiEED1Ev>
    a137:	90                   	nop
    a138:	c9                   	leave  
    a139:	c3                   	ret    

000000000000a13a <_ZNSt6vectorIiSaIiEE9push_backEOi>:
    a13a:	f3 0f 1e fa          	endbr64 
    a13e:	55                   	push   %rbp
    a13f:	48 89 e5             	mov    %rsp,%rbp
    a142:	48 83 ec 10          	sub    $0x10,%rsp
    a146:	48 89 7d f8          	mov    %rdi,-0x8(%rbp)
    a14a:	48 89 75 f0          	mov    %rsi,-0x10(%rbp)
    a14e:	48 8b 45 f0          	mov    -0x10(%rbp),%rax
    a152:	48 89 c7             	mov    %rax,%rdi
    a155:	e8 84 01 00 00       	call   a2de <_ZSt4moveIRiEONSt16remove_referenceIT_E4typeEOS2_>
    a15a:	48 89 c2             	mov    %rax,%rdx
    a15d:	48 8b 45 f8          	mov    -0x8(%rbp),%rax
    a161:	48 89 d6             	mov    %rdx,%rsi
    a164:	48 89 c7             	mov    %rax,%rdi
    a167:	e8 84 01 00 00       	call   a2f0 <_ZNSt6vectorIiSaIiEE12emplace_backIJiEEERiDpOT_>
    a16c:	90                   	nop
    a16d:	c9                   	leave  
    a16e:	c3                   	ret    

000000000000a16f <_ZSt6__sortIPeN9__gnu_cxx5__ops15_Iter_less_iterEEvT_S4_T0_>:
    a16f:	f3 0f 1e fa          	endbr64 
    a173:	55                   	push   %rbp
    a174:	48 89 e5             	mov    %rsp,%rbp
    a177:	48 83 ec 20          	sub    $0x20,%rsp
    a17b:	48 89 7d f8          	mov    %rdi,-0x8(%rbp)
    a17f:	48 89 75 f0          	mov    %rsi,-0x10(%rbp)
    a183:	48 8b 45 f8          	mov    -0x8(%rbp),%rax
    a187:	48 3b 45 f0          	cmp    -0x10(%rbp),%rax
    a18b:	74 3e                	je     a1cb <_ZSt6__sortIPeN9__gnu_cxx5__ops15_Iter_less_iterEEvT_S4_T0_+0x5c>
    a18d:	48 8b 45 f0          	mov    -0x10(%rbp),%rax
    a191:	48 2b 45 f8          	sub    -0x8(%rbp),%rax
    a195:	48 c1 f8 04          	sar    $0x4,%rax
    a199:	48 89 c7             	mov    %rax,%rdi
    a19c:	e8 3d f0 ff ff       	call   91de <_ZSt4__lgl>
    a1a1:	48 8d 14 00          	lea    (%rax,%rax,1),%rdx
    a1a5:	48 8b 4d f0          	mov    -0x10(%rbp),%rcx
    a1a9:	48 8b 45 f8          	mov    -0x8(%rbp),%rax
    a1ad:	48 89 ce             	mov    %rcx,%rsi
    a1b0:	48 89 c7             	mov    %rax,%rdi
    a1b3:	e8 e0 01 00 00       	call   a398 <_ZSt16__introsort_loopIPelN9__gnu_cxx5__ops15_Iter_less_iterEEvT_S4_T0_T1_>
    a1b8:	48 8b 55 f0          	mov    -0x10(%rbp),%rdx
    a1bc:	48 8b 45 f8          	mov    -0x8(%rbp),%rax
    a1c0:	48 89 d6             	mov    %rdx,%rsi
    a1c3:	48 89 c7             	mov    %rax,%rdi
    a1c6:	e8 54 02 00 00       	call   a41f <_ZSt22__final_insertion_sortIPeN9__gnu_cxx5__ops15_Iter_less_iterEEvT_S4_T0_>
    a1cb:	90                   	nop
    a1cc:	c9                   	leave  
    a1cd:	c3                   	ret    

000000000000a1ce <_ZN9__gnu_cxx17__normal_iteratorIPKiSt6vectorIiSaIiEEEC1ERKS2_>:
    a1ce:	f3 0f 1e fa          	endbr64 
    a1d2:	55                   	push   %rbp
    a1d3:	48 89 e5             	mov    %rsp,%rbp
    a1d6:	48 89 7d f8          	mov    %rdi,-0x8(%rbp)
    a1da:	48 89 75 f0          	mov    %rsi,-0x10(%rbp)
    a1de:	48 8b 45 f0          	mov    -0x10(%rbp),%rax
    a1e2:	48 8b 10             	mov    (%rax),%rdx
    a1e5:	48 8b 45 f8          	mov    -0x8(%rbp),%rax
    a1e9:	48 89 10             	mov    %rdx,(%rax)
    a1ec:	90                   	nop
    a1ed:	5d                   	pop    %rbp
    a1ee:	c3                   	ret    
    a1ef:	90                   	nop

000000000000a1f0 <_ZNK9__gnu_cxx17__normal_iteratorIPKiSt6vectorIiSaIiEEE4baseEv>:
    a1f0:	f3 0f 1e fa          	endbr64 
    a1f4:	55                   	push   %rbp
    a1f5:	48 89 e5             	mov    %rsp,%rbp
    a1f8:	48 89 7d f8          	mov    %rdi,-0x8(%rbp)
    a1fc:	48 8b 45 f8          	mov    -0x8(%rbp),%rax
    a200:	5d                   	pop    %rbp
    a201:	c3                   	ret    

000000000000a202 <_ZNSaIiEC1Ev>:
    a202:	f3 0f 1e fa          	endbr64 
    a206:	55                   	push   %rbp
    a207:	48 89 e5             	mov    %rsp,%rbp
    a20a:	48 83 ec 10          	sub    $0x10,%rsp
    a20e:	48 89 7d f8          	mov    %rdi,-0x8(%rbp)
    a212:	48 8b 45 f8          	mov    -0x8(%rbp),%rax
    a216:	48 89 c7             	mov    %rax,%rdi
    a219:	e8 72 02 00 00       	call   a490 <_ZN9__gnu_cxx13new_allocatorIiEC1Ev>
    a21e:	90                   	nop
    a21f:	c9                   	leave  
    a220:	c3                   	ret    
    a221:	90                   	nop

000000000000a222 <_ZNSt12_Vector_baseIiSaIiEE17_Vector_impl_dataC1Ev>:
    a222:	f3 0f 1e fa          	endbr64 
    a226:	55                   	push   %rbp
    a227:	48 89 e5             	mov    %rsp,%rbp
    a22a:	48 89 7d f8          	mov    %rdi,-0x8(%rbp)
    a22e:	48 8b 45 f8          	mov    -0x8(%rbp),%rax
    a232:	48 c7 00 00 00 00 00 	movq   $0x0,(%rax)
    a239:	48 8b 45 f8          	mov    -0x8(%rbp),%rax
    a23d:	48 c7 40 08 00 00 00 	movq   $0x0,0x8(%rax)
    a244:	00 
    a245:	48 8b 45 f8          	mov    -0x8(%rbp),%rax
    a249:	48 c7 40 10 00 00 00 	movq   $0x0,0x10(%rax)
    a250:	00 
    a251:	90                   	nop
    a252:	5d                   	pop    %rbp
    a253:	c3                   	ret    

000000000000a254 <_ZN9__gnu_cxx13new_allocatorIiED1Ev>:
    a254:	f3 0f 1e fa          	endbr64 
    a258:	55                   	push   %rbp
    a259:	48 89 e5             	mov    %rsp,%rbp
    a25c:	48 89 7d f8          	mov    %rdi,-0x8(%rbp)
    a260:	90                   	nop
    a261:	5d                   	pop    %rbp
    a262:	c3                   	ret    
    a263:	90                   	nop

000000000000a264 <_ZNSt12_Vector_baseIiSaIiEE13_M_deallocateEPim>:
    a264:	f3 0f 1e fa          	endbr64 
    a268:	55                   	push   %rbp
    a269:	48 89 e5             	mov    %rsp,%rbp
    a26c:	48 83 ec 20          	sub    $0x20,%rsp
    a270:	48 89 7d f8          	mov    %rdi,-0x8(%rbp)
    a274:	48 89 75 f0          	mov    %rsi,-0x10(%rbp)
    a278:	48 89 55 e8          	mov    %rdx,-0x18(%rbp)
    a27c:	48 83 7d f0 00       	cmpq   $0x0,-0x10(%rbp)
    a281:	74 17                	je     a29a <_ZNSt12_Vector_baseIiSaIiEE13_M_deallocateEPim+0x36>
    a283:	48 8b 45 f8          	mov    -0x8(%rbp),%rax
    a287:	48 8b 55 e8          	mov    -0x18(%rbp),%rdx
    a28b:	48 8b 4d f0          	mov    -0x10(%rbp),%rcx
    a28f:	48 89 ce             	mov    %rcx,%rsi
    a292:	48 89 c7             	mov    %rax,%rdi
    a295:	e8 05 02 00 00       	call   a49f <_ZNSt16allocator_traitsISaIiEE10deallocateERS0_Pim>
    a29a:	90                   	nop
    a29b:	c9                   	leave  
    a29c:	c3                   	ret    
    a29d:	90                   	nop

000000000000a29e <_ZNSt12_Vector_baseIiSaIiEE19_M_get_Tp_allocatorEv>:
    a29e:	f3 0f 1e fa          	endbr64 
    a2a2:	55                   	push   %rbp
    a2a3:	48 89 e5             	mov    %rsp,%rbp
    a2a6:	48 89 7d f8          	mov    %rdi,-0x8(%rbp)
    a2aa:	48 8b 45 f8          	mov    -0x8(%rbp),%rax
    a2ae:	5d                   	pop    %rbp
    a2af:	c3                   	ret    

000000000000a2b0 <_ZSt8_DestroyIPiiEvT_S1_RSaIT0_E>:
    a2b0:	f3 0f 1e fa          	endbr64 
    a2b4:	55                   	push   %rbp
    a2b5:	48 89 e5             	mov    %rsp,%rbp
    a2b8:	48 83 ec 20          	sub    $0x20,%rsp
    a2bc:	48 89 7d f8          	mov    %rdi,-0x8(%rbp)
    a2c0:	48 89 75 f0          	mov    %rsi,-0x10(%rbp)
    a2c4:	48 89 55 e8          	mov    %rdx,-0x18(%rbp)
    a2c8:	48 8b 55 f0          	mov    -0x10(%rbp),%rdx
    a2cc:	48 8b 45 f8          	mov    -0x8(%rbp),%rax
    a2d0:	48 89 d6             	mov    %rdx,%rsi
    a2d3:	48 89 c7             	mov    %rax,%rdi
    a2d6:	e8 f6 01 00 00       	call   a4d1 <_ZSt8_DestroyIPiEvT_S1_>
    a2db:	90                   	nop
    a2dc:	c9                   	leave  
    a2dd:	c3                   	ret    

000000000000a2de <_ZSt4moveIRiEONSt16remove_referenceIT_E4typeEOS2_>:
    a2de:	f3 0f 1e fa          	endbr64 
    a2e2:	55                   	push   %rbp
    a2e3:	48 89 e5             	mov    %rsp,%rbp
    a2e6:	48 89 7d f8          	mov    %rdi,-0x8(%rbp)
    a2ea:	48 8b 45 f8          	mov    -0x8(%rbp),%rax
    a2ee:	5d                   	pop    %rbp
    a2ef:	c3                   	ret    

000000000000a2f0 <_ZNSt6vectorIiSaIiEE12emplace_backIJiEEERiDpOT_>:
    a2f0:	f3 0f 1e fa          	endbr64 
    a2f4:	55                   	push   %rbp
    a2f5:	48 89 e5             	mov    %rsp,%rbp
    a2f8:	53                   	push   %rbx
    a2f9:	48 83 ec 18          	sub    $0x18,%rsp
    a2fd:	48 89 7d e8          	mov    %rdi,-0x18(%rbp)
    a301:	48 89 75 e0          	mov    %rsi,-0x20(%rbp)
    a305:	48 8b 45 e8          	mov    -0x18(%rbp),%rax
    a309:	48 8b 50 08          	mov    0x8(%rax),%rdx
    a30d:	48 8b 45 e8          	mov    -0x18(%rbp),%rax
    a311:	48 8b 40 10          	mov    0x10(%rax),%rax
    a315:	48 39 c2             	cmp    %rax,%rdx
    a318:	74 3c                	je     a356 <_ZNSt6vectorIiSaIiEE12emplace_backIJiEEERiDpOT_+0x66>
    a31a:	48 8b 45 e0          	mov    -0x20(%rbp),%rax
    a31e:	48 89 c7             	mov    %rax,%rdi
    a321:	e8 d6 fb ff ff       	call   9efc <_ZSt7forwardIiEOT_RNSt16remove_referenceIS0_E4typeE>
    a326:	48 89 c2             	mov    %rax,%rdx
    a329:	48 8b 45 e8          	mov    -0x18(%rbp),%rax
    a32d:	48 8b 48 08          	mov    0x8(%rax),%rcx
    a331:	48 8b 45 e8          	mov    -0x18(%rbp),%rax
    a335:	48 89 ce             	mov    %rcx,%rsi
    a338:	48 89 c7             	mov    %rax,%rdi
    a33b:	e8 bb 01 00 00       	call   a4fb <_ZNSt16allocator_traitsISaIiEE9constructIiJiEEEvRS0_PT_DpOT0_>
    a340:	48 8b 45 e8          	mov    -0x18(%rbp),%rax
    a344:	48 8b 40 08          	mov    0x8(%rax),%rax
    a348:	48 8d 50 04          	lea    0x4(%rax),%rdx
    a34c:	48 8b 45 e8          	mov    -0x18(%rbp),%rax
    a350:	48 89 50 08          	mov    %rdx,0x8(%rax)
    a354:	eb 30                	jmp    a386 <_ZNSt6vectorIiSaIiEE12emplace_backIJiEEERiDpOT_+0x96>
    a356:	48 8b 45 e0          	mov    -0x20(%rbp),%rax
    a35a:	48 89 c7             	mov    %rax,%rdi
    a35d:	e8 9a fb ff ff       	call   9efc <_ZSt7forwardIiEOT_RNSt16remove_referenceIS0_E4typeE>
    a362:	48 89 c3             	mov    %rax,%rbx
    a365:	48 8b 45 e8          	mov    -0x18(%rbp),%rax
    a369:	48 89 c7             	mov    %rax,%rdi
    a36c:	e8 c7 01 00 00       	call   a538 <_ZNSt6vectorIiSaIiEE3endEv>
    a371:	48 89 c1             	mov    %rax,%rcx
    a374:	48 8b 45 e8          	mov    -0x18(%rbp),%rax
    a378:	48 89 da             	mov    %rbx,%rdx
    a37b:	48 89 ce             	mov    %rcx,%rsi
    a37e:	48 89 c7             	mov    %rax,%rdi
    a381:	e8 02 02 00 00       	call   a588 <_ZNSt6vectorIiSaIiEE17_M_realloc_insertIJiEEEvN9__gnu_cxx17__normal_iteratorIPiS1_EEDpOT_>
    a386:	48 8b 45 e8          	mov    -0x18(%rbp),%rax
    a38a:	48 89 c7             	mov    %rax,%rdi
    a38d:	e8 b0 03 00 00       	call   a742 <_ZNSt6vectorIiSaIiEE4backEv>
    a392:	48 8b 5d f8          	mov    -0x8(%rbp),%rbx
    a396:	c9                   	leave  
    a397:	c3                   	ret    

000000000000a398 <_ZSt16__introsort_loopIPelN9__gnu_cxx5__ops15_Iter_less_iterEEvT_S4_T0_T1_>:
    a398:	f3 0f 1e fa          	endbr64 
    a39c:	55                   	push   %rbp
    a39d:	48 89 e5             	mov    %rsp,%rbp
    a3a0:	48 83 ec 30          	sub    $0x30,%rsp
    a3a4:	48 89 7d e8          	mov    %rdi,-0x18(%rbp)
    a3a8:	48 89 75 e0          	mov    %rsi,-0x20(%rbp)
    a3ac:	48 89 55 d8          	mov    %rdx,-0x28(%rbp)
    a3b0:	eb 5b                	jmp    a40d <_ZSt16__introsort_loopIPelN9__gnu_cxx5__ops15_Iter_less_iterEEvT_S4_T0_T1_+0x75>
    a3b2:	48 83 7d d8 00       	cmpq   $0x0,-0x28(%rbp)
    a3b7:	75 19                	jne    a3d2 <_ZSt16__introsort_loopIPelN9__gnu_cxx5__ops15_Iter_less_iterEEvT_S4_T0_T1_+0x3a>
    a3b9:	48 8b 55 e0          	mov    -0x20(%rbp),%rdx
    a3bd:	48 8b 4d e0          	mov    -0x20(%rbp),%rcx
    a3c1:	48 8b 45 e8          	mov    -0x18(%rbp),%rax
    a3c5:	48 89 ce             	mov    %rcx,%rsi
    a3c8:	48 89 c7             	mov    %rax,%rdi
    a3cb:	e8 d8 03 00 00       	call   a7a8 <_ZSt14__partial_sortIPeN9__gnu_cxx5__ops15_Iter_less_iterEEvT_S4_S4_T0_>
    a3d0:	eb 4b                	jmp    a41d <_ZSt16__introsort_loopIPelN9__gnu_cxx5__ops15_Iter_less_iterEEvT_S4_T0_T1_+0x85>
    a3d2:	48 83 6d d8 01       	subq   $0x1,-0x28(%rbp)
    a3d7:	48 8b 55 e0          	mov    -0x20(%rbp),%rdx
    a3db:	48 8b 45 e8          	mov    -0x18(%rbp),%rax
    a3df:	48 89 d6             	mov    %rdx,%rsi
    a3e2:	48 89 c7             	mov    %rax,%rdi
    a3e5:	e8 07 04 00 00       	call   a7f1 <_ZSt27__unguarded_partition_pivotIPeN9__gnu_cxx5__ops15_Iter_less_iterEET_S4_S4_T0_>
    a3ea:	48 89 45 f8          	mov    %rax,-0x8(%rbp)
    a3ee:	48 8b 55 d8          	mov    -0x28(%rbp),%rdx
    a3f2:	48 8b 4d e0          	mov    -0x20(%rbp),%rcx
    a3f6:	48 8b 45 f8          	mov    -0x8(%rbp),%rax
    a3fa:	48 89 ce             	mov    %rcx,%rsi
    a3fd:	48 89 c7             	mov    %rax,%rdi
    a400:	e8 93 ff ff ff       	call   a398 <_ZSt16__introsort_loopIPelN9__gnu_cxx5__ops15_Iter_less_iterEEvT_S4_T0_T1_>
    a405:	48 8b 45 f8          	mov    -0x8(%rbp),%rax
    a409:	48 89 45 e0          	mov    %rax,-0x20(%rbp)
    a40d:	48 8b 45 e0          	mov    -0x20(%rbp),%rax
    a411:	48 2b 45 e8          	sub    -0x18(%rbp),%rax
    a415:	48 3d 00 01 00 00    	cmp    $0x100,%rax
    a41b:	7f 95                	jg     a3b2 <_ZSt16__introsort_loopIPelN9__gnu_cxx5__ops15_Iter_less_iterEEvT_S4_T0_T1_+0x1a>
    a41d:	c9                   	leave  
    a41e:	c3                   	ret    

000000000000a41f <_ZSt22__final_insertion_sortIPeN9__gnu_cxx5__ops15_Iter_less_iterEEvT_S4_T0_>:
    a41f:	f3 0f 1e fa          	endbr64 
    a423:	55                   	push   %rbp
    a424:	48 89 e5             	mov    %rsp,%rbp
    a427:	48 83 ec 20          	sub    $0x20,%rsp
    a42b:	48 89 7d f8          	mov    %rdi,-0x8(%rbp)
    a42f:	48 89 75 f0          	mov    %rsi,-0x10(%rbp)
    a433:	48 8b 45 f0          	mov    -0x10(%rbp),%rax
    a437:	48 2b 45 f8          	sub    -0x8(%rbp),%rax
    a43b:	48 3d 00 01 00 00    	cmp    $0x100,%rax
    a441:	7e 36                	jle    a479 <_ZSt22__final_insertion_sortIPeN9__gnu_cxx5__ops15_Iter_less_iterEEvT_S4_T0_+0x5a>
    a443:	48 8b 45 f8          	mov    -0x8(%rbp),%rax
    a447:	48 8d 90 00 01 00 00 	lea    0x100(%rax),%rdx
    a44e:	48 8b 45 f8          	mov    -0x8(%rbp),%rax
    a452:	48 89 d6             	mov    %rdx,%rsi
    a455:	48 89 c7             	mov    %rax,%rdi
    a458:	e8 10 04 00 00       	call   a86d <_ZSt16__insertion_sortIPeN9__gnu_cxx5__ops15_Iter_less_iterEEvT_S4_T0_>
    a45d:	48 8b 45 f8          	mov    -0x8(%rbp),%rax
    a461:	48 8d 90 00 01 00 00 	lea    0x100(%rax),%rdx
    a468:	48 8b 45 f0          	mov    -0x10(%rbp),%rax
    a46c:	48 89 c6             	mov    %rax,%rsi
    a46f:	48 89 d7             	mov    %rdx,%rdi
    a472:	e8 cb 04 00 00       	call   a942 <_ZSt26__unguarded_insertion_sortIPeN9__gnu_cxx5__ops15_Iter_less_iterEEvT_S4_T0_>
    a477:	eb 13                	jmp    a48c <_ZSt22__final_insertion_sortIPeN9__gnu_cxx5__ops15_Iter_less_iterEEvT_S4_T0_+0x6d>
    a479:	48 8b 55 f0          	mov    -0x10(%rbp),%rdx
    a47d:	48 8b 45 f8          	mov    -0x8(%rbp),%rax
    a481:	48 89 d6             	mov    %rdx,%rsi
    a484:	48 89 c7             	mov    %rax,%rdi
    a487:	e8 e1 03 00 00       	call   a86d <_ZSt16__insertion_sortIPeN9__gnu_cxx5__ops15_Iter_less_iterEEvT_S4_T0_>
    a48c:	90                   	nop
    a48d:	c9                   	leave  
    a48e:	c3                   	ret    
    a48f:	90                   	nop

000000000000a490 <_ZN9__gnu_cxx13new_allocatorIiEC1Ev>:
    a490:	f3 0f 1e fa          	endbr64 
    a494:	55                   	push   %rbp
    a495:	48 89 e5             	mov    %rsp,%rbp
    a498:	48 89 7d f8          	mov    %rdi,-0x8(%rbp)
    a49c:	90                   	nop
    a49d:	5d                   	pop    %rbp
    a49e:	c3                   	ret    

000000000000a49f <_ZNSt16allocator_traitsISaIiEE10deallocateERS0_Pim>:
    a49f:	f3 0f 1e fa          	endbr64 
    a4a3:	55                   	push   %rbp
    a4a4:	48 89 e5             	mov    %rsp,%rbp
    a4a7:	48 83 ec 20          	sub    $0x20,%rsp
    a4ab:	48 89 7d f8          	mov    %rdi,-0x8(%rbp)
    a4af:	48 89 75 f0          	mov    %rsi,-0x10(%rbp)
    a4b3:	48 89 55 e8          	mov    %rdx,-0x18(%rbp)
    a4b7:	48 8b 55 e8          	mov    -0x18(%rbp),%rdx
    a4bb:	48 8b 4d f0          	mov    -0x10(%rbp),%rcx
    a4bf:	48 8b 45 f8          	mov    -0x8(%rbp),%rax
    a4c3:	48 89 ce             	mov    %rcx,%rsi
    a4c6:	48 89 c7             	mov    %rax,%rdi
    a4c9:	e8 b6 04 00 00       	call   a984 <_ZN9__gnu_cxx13new_allocatorIiE10deallocateEPim>
    a4ce:	90                   	nop
    a4cf:	c9                   	leave  
    a4d0:	c3                   	ret    

000000000000a4d1 <_ZSt8_DestroyIPiEvT_S1_>:
    a4d1:	f3 0f 1e fa          	endbr64 
    a4d5:	55                   	push   %rbp
    a4d6:	48 89 e5             	mov    %rsp,%rbp
    a4d9:	48 83 ec 10          	sub    $0x10,%rsp
    a4dd:	48 89 7d f8          	mov    %rdi,-0x8(%rbp)
    a4e1:	48 89 75 f0          	mov    %rsi,-0x10(%rbp)
    a4e5:	48 8b 55 f0          	mov    -0x10(%rbp),%rdx
    a4e9:	48 8b 45 f8          	mov    -0x8(%rbp),%rax
    a4ed:	48 89 d6             	mov    %rdx,%rsi
    a4f0:	48 89 c7             	mov    %rax,%rdi
    a4f3:	e8 c1 04 00 00       	call   a9b9 <_ZNSt12_Destroy_auxILb1EE9__destroyIPiEEvT_S3_>
    a4f8:	90                   	nop
    a4f9:	c9                   	leave  
    a4fa:	c3                   	ret    

000000000000a4fb <_ZNSt16allocator_traitsISaIiEE9constructIiJiEEEvRS0_PT_DpOT0_>:
    a4fb:	f3 0f 1e fa          	endbr64 
    a4ff:	55                   	push   %rbp
    a500:	48 89 e5             	mov    %rsp,%rbp
    a503:	48 83 ec 20          	sub    $0x20,%rsp
    a507:	48 89 7d f8          	mov    %rdi,-0x8(%rbp)
    a50b:	48 89 75 f0          	mov    %rsi,-0x10(%rbp)
    a50f:	48 89 55 e8          	mov    %rdx,-0x18(%rbp)
    a513:	48 8b 45 e8          	mov    -0x18(%rbp),%rax
    a517:	48 89 c7             	mov    %rax,%rdi
    a51a:	e8 dd f9 ff ff       	call   9efc <_ZSt7forwardIiEOT_RNSt16remove_referenceIS0_E4typeE>
    a51f:	48 89 c2             	mov    %rax,%rdx
    a522:	48 8b 4d f0          	mov    -0x10(%rbp),%rcx
    a526:	48 8b 45 f8          	mov    -0x8(%rbp),%rax
    a52a:	48 89 ce             	mov    %rcx,%rsi
    a52d:	48 89 c7             	mov    %rax,%rdi
    a530:	e8 97 04 00 00       	call   a9cc <_ZN9__gnu_cxx13new_allocatorIiE9constructIiJiEEEvPT_DpOT0_>
    a535:	90                   	nop
    a536:	c9                   	leave  
    a537:	c3                   	ret    

000000000000a538 <_ZNSt6vectorIiSaIiEE3endEv>:
    a538:	f3 0f 1e fa          	endbr64 
    a53c:	55                   	push   %rbp
    a53d:	48 89 e5             	mov    %rsp,%rbp
    a540:	48 83 ec 20          	sub    $0x20,%rsp
    a544:	48 89 7d e8          	mov    %rdi,-0x18(%rbp)
    a548:	64 48 8b 04 25 28 00 	mov    %fs:0x28,%rax
    a54f:	00 00 
    a551:	48 89 45 f8          	mov    %rax,-0x8(%rbp)
    a555:	31 c0                	xor    %eax,%eax
    a557:	48 8b 45 e8          	mov    -0x18(%rbp),%rax
    a55b:	48 8d 50 08          	lea    0x8(%rax),%rdx
    a55f:	48 8d 45 f0          	lea    -0x10(%rbp),%rax
    a563:	48 89 d6             	mov    %rdx,%rsi
    a566:	48 89 c7             	mov    %rax,%rdi
    a569:	e8 a0 04 00 00       	call   aa0e <_ZN9__gnu_cxx17__normal_iteratorIPiSt6vectorIiSaIiEEEC1ERKS1_>
    a56e:	48 8b 45 f0          	mov    -0x10(%rbp),%rax
    a572:	48 8b 55 f8          	mov    -0x8(%rbp),%rdx
    a576:	64 48 2b 14 25 28 00 	sub    %fs:0x28,%rdx
    a57d:	00 00 
    a57f:	74 05                	je     a586 <_ZNSt6vectorIiSaIiEE3endEv+0x4e>
    a581:	e8 5a 7f ff ff       	call   24e0 <__stack_chk_fail@plt>
    a586:	c9                   	leave  
    a587:	c3                   	ret    

000000000000a588 <_ZNSt6vectorIiSaIiEE17_M_realloc_insertIJiEEEvN9__gnu_cxx17__normal_iteratorIPiS1_EEDpOT_>:
    a588:	f3 0f 1e fa          	endbr64 
    a58c:	55                   	push   %rbp
    a58d:	48 89 e5             	mov    %rsp,%rbp
    a590:	53                   	push   %rbx
    a591:	48 83 ec 68          	sub    $0x68,%rsp
    a595:	48 89 7d a8          	mov    %rdi,-0x58(%rbp)
    a599:	48 89 75 a0          	mov    %rsi,-0x60(%rbp)
    a59d:	48 89 55 98          	mov    %rdx,-0x68(%rbp)
    a5a1:	64 48 8b 04 25 28 00 	mov    %fs:0x28,%rax
    a5a8:	00 00 
    a5aa:	48 89 45 e8          	mov    %rax,-0x18(%rbp)
    a5ae:	31 c0                	xor    %eax,%eax
    a5b0:	48 8b 45 a8          	mov    -0x58(%rbp),%rax
    a5b4:	48 8d 15 07 4e 00 00 	lea    0x4e07(%rip),%rdx        # f3c2 <_ZN6__pstl9execution2v1L5unseqE+0x3af>
    a5bb:	be 01 00 00 00       	mov    $0x1,%esi
    a5c0:	48 89 c7             	mov    %rax,%rdi
    a5c3:	e8 68 04 00 00       	call   aa30 <_ZNKSt6vectorIiSaIiEE12_M_check_lenEmPKc>
    a5c8:	48 89 45 b8          	mov    %rax,-0x48(%rbp)
    a5cc:	48 8b 45 a8          	mov    -0x58(%rbp),%rax
    a5d0:	48 8b 00             	mov    (%rax),%rax
    a5d3:	48 89 45 c0          	mov    %rax,-0x40(%rbp)
    a5d7:	48 8b 45 a8          	mov    -0x58(%rbp),%rax
    a5db:	48 8b 40 08          	mov    0x8(%rax),%rax
    a5df:	48 89 45 c8          	mov    %rax,-0x38(%rbp)
    a5e3:	48 8b 45 a8          	mov    -0x58(%rbp),%rax
    a5e7:	48 89 c7             	mov    %rax,%rdi
    a5ea:	e8 31 05 00 00       	call   ab20 <_ZNSt6vectorIiSaIiEE5beginEv>
    a5ef:	48 89 45 b0          	mov    %rax,-0x50(%rbp)
    a5f3:	48 8d 55 b0          	lea    -0x50(%rbp),%rdx
    a5f7:	48 8d 45 a0          	lea    -0x60(%rbp),%rax
    a5fb:	48 89 d6             	mov    %rdx,%rsi
    a5fe:	48 89 c7             	mov    %rax,%rdi
    a601:	e8 66 05 00 00       	call   ab6c <_ZN9__gnu_cxxmiIPiSt6vectorIiSaIiEEEENS_17__normal_iteratorIT_T0_E15difference_typeERKS8_SB_>
    a606:	48 89 45 d0          	mov    %rax,-0x30(%rbp)
    a60a:	48 8b 45 a8          	mov    -0x58(%rbp),%rax
    a60e:	48 8b 55 b8          	mov    -0x48(%rbp),%rdx
    a612:	48 89 d6             	mov    %rdx,%rsi
    a615:	48 89 c7             	mov    %rax,%rdi
    a618:	e8 93 05 00 00       	call   abb0 <_ZNSt12_Vector_baseIiSaIiEE11_M_allocateEm>
    a61d:	48 89 45 d8          	mov    %rax,-0x28(%rbp)
    a621:	48 8b 45 d8          	mov    -0x28(%rbp),%rax
    a625:	48 89 45 e0          	mov    %rax,-0x20(%rbp)
    a629:	48 8b 45 98          	mov    -0x68(%rbp),%rax
    a62d:	48 89 c7             	mov    %rax,%rdi
    a630:	e8 c7 f8 ff ff       	call   9efc <_ZSt7forwardIiEOT_RNSt16remove_referenceIS0_E4typeE>
    a635:	48 89 c2             	mov    %rax,%rdx
    a638:	48 8b 45 d0          	mov    -0x30(%rbp),%rax
    a63c:	48 8d 0c 85 00 00 00 	lea    0x0(,%rax,4),%rcx
    a643:	00 
    a644:	48 8b 45 d8          	mov    -0x28(%rbp),%rax
    a648:	48 01 c1             	add    %rax,%rcx
    a64b:	48 8b 45 a8          	mov    -0x58(%rbp),%rax
    a64f:	48 89 ce             	mov    %rcx,%rsi
    a652:	48 89 c7             	mov    %rax,%rdi
    a655:	e8 a1 fe ff ff       	call   a4fb <_ZNSt16allocator_traitsISaIiEE9constructIiJiEEEvRS0_PT_DpOT0_>
    a65a:	48 c7 45 e0 00 00 00 	movq   $0x0,-0x20(%rbp)
    a661:	00 
    a662:	48 8b 45 a8          	mov    -0x58(%rbp),%rax
    a666:	48 89 c7             	mov    %rax,%rdi
    a669:	e8 30 fc ff ff       	call   a29e <_ZNSt12_Vector_baseIiSaIiEE19_M_get_Tp_allocatorEv>
    a66e:	48 89 c3             	mov    %rax,%rbx
    a671:	48 8d 45 a0          	lea    -0x60(%rbp),%rax
    a675:	48 89 c7             	mov    %rax,%rdi
    a678:	e8 a1 05 00 00       	call   ac1e <_ZNK9__gnu_cxx17__normal_iteratorIPiSt6vectorIiSaIiEEE4baseEv>
    a67d:	48 8b 30             	mov    (%rax),%rsi
    a680:	48 8b 55 d8          	mov    -0x28(%rbp),%rdx
    a684:	48 8b 45 c0          	mov    -0x40(%rbp),%rax
    a688:	48 89 d9             	mov    %rbx,%rcx
    a68b:	48 89 c7             	mov    %rax,%rdi
    a68e:	e8 54 05 00 00       	call   abe7 <_ZNSt6vectorIiSaIiEE11_S_relocateEPiS2_S2_RS0_>
    a693:	48 89 45 e0          	mov    %rax,-0x20(%rbp)
    a697:	48 83 45 e0 04       	addq   $0x4,-0x20(%rbp)
    a69c:	48 8b 45 a8          	mov    -0x58(%rbp),%rax
    a6a0:	48 89 c7             	mov    %rax,%rdi
    a6a3:	e8 f6 fb ff ff       	call   a29e <_ZNSt12_Vector_baseIiSaIiEE19_M_get_Tp_allocatorEv>
    a6a8:	48 89 c3             	mov    %rax,%rbx
    a6ab:	48 8d 45 a0          	lea    -0x60(%rbp),%rax
    a6af:	48 89 c7             	mov    %rax,%rdi
    a6b2:	e8 67 05 00 00       	call   ac1e <_ZNK9__gnu_cxx17__normal_iteratorIPiSt6vectorIiSaIiEEE4baseEv>
    a6b7:	48 8b 00             	mov    (%rax),%rax
    a6ba:	48 8b 55 e0          	mov    -0x20(%rbp),%rdx
    a6be:	48 8b 75 c8          	mov    -0x38(%rbp),%rsi
    a6c2:	48 89 d9             	mov    %rbx,%rcx
    a6c5:	48 89 c7             	mov    %rax,%rdi
    a6c8:	e8 1a 05 00 00       	call   abe7 <_ZNSt6vectorIiSaIiEE11_S_relocateEPiS2_S2_RS0_>
    a6cd:	48 89 45 e0          	mov    %rax,-0x20(%rbp)
    a6d1:	48 8b 45 a8          	mov    -0x58(%rbp),%rax
    a6d5:	48 8b 55 a8          	mov    -0x58(%rbp),%rdx
    a6d9:	48 8b 52 10          	mov    0x10(%rdx),%rdx
    a6dd:	48 2b 55 c0          	sub    -0x40(%rbp),%rdx
    a6e1:	48 c1 fa 02          	sar    $0x2,%rdx
    a6e5:	48 8b 4d c0          	mov    -0x40(%rbp),%rcx
    a6e9:	48 89 ce             	mov    %rcx,%rsi
    a6ec:	48 89 c7             	mov    %rax,%rdi
    a6ef:	e8 70 fb ff ff       	call   a264 <_ZNSt12_Vector_baseIiSaIiEE13_M_deallocateEPim>
    a6f4:	48 8b 45 a8          	mov    -0x58(%rbp),%rax
    a6f8:	48 8b 55 d8          	mov    -0x28(%rbp),%rdx
    a6fc:	48 89 10             	mov    %rdx,(%rax)
    a6ff:	48 8b 45 a8          	mov    -0x58(%rbp),%rax
    a703:	48 8b 55 e0          	mov    -0x20(%rbp),%rdx
    a707:	48 89 50 08          	mov    %rdx,0x8(%rax)
    a70b:	48 8b 45 b8          	mov    -0x48(%rbp),%rax
    a70f:	48 8d 14 85 00 00 00 	lea    0x0(,%rax,4),%rdx
    a716:	00 
    a717:	48 8b 45 d8          	mov    -0x28(%rbp),%rax
    a71b:	48 01 c2             	add    %rax,%rdx
    a71e:	48 8b 45 a8          	mov    -0x58(%rbp),%rax
    a722:	48 89 50 10          	mov    %rdx,0x10(%rax)
    a726:	90                   	nop
    a727:	48 8b 45 e8          	mov    -0x18(%rbp),%rax
    a72b:	64 48 2b 04 25 28 00 	sub    %fs:0x28,%rax
    a732:	00 00 
    a734:	74 05                	je     a73b <_ZNSt6vectorIiSaIiEE17_M_realloc_insertIJiEEEvN9__gnu_cxx17__normal_iteratorIPiS1_EEDpOT_+0x1b3>
    a736:	e8 a5 7d ff ff       	call   24e0 <__stack_chk_fail@plt>
    a73b:	48 8b 5d f8          	mov    -0x8(%rbp),%rbx
    a73f:	c9                   	leave  
    a740:	c3                   	ret    
    a741:	90                   	nop

000000000000a742 <_ZNSt6vectorIiSaIiEE4backEv>:
    a742:	f3 0f 1e fa          	endbr64 
    a746:	55                   	push   %rbp
    a747:	48 89 e5             	mov    %rsp,%rbp
    a74a:	48 83 ec 30          	sub    $0x30,%rsp
    a74e:	48 89 7d d8          	mov    %rdi,-0x28(%rbp)
    a752:	64 48 8b 04 25 28 00 	mov    %fs:0x28,%rax
    a759:	00 00 
    a75b:	48 89 45 f8          	mov    %rax,-0x8(%rbp)
    a75f:	31 c0                	xor    %eax,%eax
    a761:	48 8b 45 d8          	mov    -0x28(%rbp),%rax
    a765:	48 89 c7             	mov    %rax,%rdi
    a768:	e8 cb fd ff ff       	call   a538 <_ZNSt6vectorIiSaIiEE3endEv>
    a76d:	48 89 45 e8          	mov    %rax,-0x18(%rbp)
    a771:	48 8d 45 e8          	lea    -0x18(%rbp),%rax
    a775:	be 01 00 00 00       	mov    $0x1,%esi
    a77a:	48 89 c7             	mov    %rax,%rdi
    a77d:	e8 ae 04 00 00       	call   ac30 <_ZNK9__gnu_cxx17__normal_iteratorIPiSt6vectorIiSaIiEEEmiEl>
    a782:	48 89 45 f0          	mov    %rax,-0x10(%rbp)
    a786:	48 8d 45 f0          	lea    -0x10(%rbp),%rax
    a78a:	48 89 c7             	mov    %rax,%rdi
    a78d:	e8 08 05 00 00       	call   ac9a <_ZNK9__gnu_cxx17__normal_iteratorIPiSt6vectorIiSaIiEEEdeEv>
    a792:	48 8b 55 f8          	mov    -0x8(%rbp),%rdx
    a796:	64 48 2b 14 25 28 00 	sub    %fs:0x28,%rdx
    a79d:	00 00 
    a79f:	74 05                	je     a7a6 <_ZNSt6vectorIiSaIiEE4backEv+0x64>
    a7a1:	e8 3a 7d ff ff       	call   24e0 <__stack_chk_fail@plt>
    a7a6:	c9                   	leave  
    a7a7:	c3                   	ret    

000000000000a7a8 <_ZSt14__partial_sortIPeN9__gnu_cxx5__ops15_Iter_less_iterEEvT_S4_S4_T0_>:
    a7a8:	f3 0f 1e fa          	endbr64 
    a7ac:	55                   	push   %rbp
    a7ad:	48 89 e5             	mov    %rsp,%rbp
    a7b0:	48 83 ec 20          	sub    $0x20,%rsp
    a7b4:	48 89 7d f8          	mov    %rdi,-0x8(%rbp)
    a7b8:	48 89 75 f0          	mov    %rsi,-0x10(%rbp)
    a7bc:	48 89 55 e8          	mov    %rdx,-0x18(%rbp)
    a7c0:	48 8b 55 e8          	mov    -0x18(%rbp),%rdx
    a7c4:	48 8b 4d f0          	mov    -0x10(%rbp),%rcx
    a7c8:	48 8b 45 f8          	mov    -0x8(%rbp),%rax
    a7cc:	48 89 ce             	mov    %rcx,%rsi
    a7cf:	48 89 c7             	mov    %rax,%rdi
    a7d2:	e8 d8 04 00 00       	call   acaf <_ZSt13__heap_selectIPeN9__gnu_cxx5__ops15_Iter_less_iterEEvT_S4_S4_T0_>
    a7d7:	48 8d 55 e7          	lea    -0x19(%rbp),%rdx
    a7db:	48 8b 4d f0          	mov    -0x10(%rbp),%rcx
    a7df:	48 8b 45 f8          	mov    -0x8(%rbp),%rax
    a7e3:	48 89 ce             	mov    %rcx,%rsi
    a7e6:	48 89 c7             	mov    %rax,%rdi
    a7e9:	e8 40 05 00 00       	call   ad2e <_ZSt11__sort_heapIPeN9__gnu_cxx5__ops15_Iter_less_iterEEvT_S4_RT0_>
    a7ee:	90                   	nop
    a7ef:	c9                   	leave  
    a7f0:	c3                   	ret    

000000000000a7f1 <_ZSt27__unguarded_partition_pivotIPeN9__gnu_cxx5__ops15_Iter_less_iterEET_S4_S4_T0_>:
    a7f1:	f3 0f 1e fa          	endbr64 
    a7f5:	55                   	push   %rbp
    a7f6:	48 89 e5             	mov    %rsp,%rbp
    a7f9:	48 83 ec 30          	sub    $0x30,%rsp
    a7fd:	48 89 7d e8          	mov    %rdi,-0x18(%rbp)
    a801:	48 89 75 e0          	mov    %rsi,-0x20(%rbp)
    a805:	48 8b 45 e0          	mov    -0x20(%rbp),%rax
    a809:	48 2b 45 e8          	sub    -0x18(%rbp),%rax
    a80d:	48 c1 f8 04          	sar    $0x4,%rax
    a811:	48 89 c2             	mov    %rax,%rdx
    a814:	48 c1 ea 3f          	shr    $0x3f,%rdx
    a818:	48 01 d0             	add    %rdx,%rax
    a81b:	48 d1 f8             	sar    %rax
    a81e:	48 c1 e0 04          	shl    $0x4,%rax
    a822:	48 89 c2             	mov    %rax,%rdx
    a825:	48 8b 45 e8          	mov    -0x18(%rbp),%rax
    a829:	48 01 d0             	add    %rdx,%rax
    a82c:	48 89 45 f8          	mov    %rax,-0x8(%rbp)
    a830:	48 8b 45 e0          	mov    -0x20(%rbp),%rax
    a834:	48 8d 48 f0          	lea    -0x10(%rax),%rcx
    a838:	48 8b 45 e8          	mov    -0x18(%rbp),%rax
    a83c:	48 8d 70 10          	lea    0x10(%rax),%rsi
    a840:	48 8b 55 f8          	mov    -0x8(%rbp),%rdx
    a844:	48 8b 45 e8          	mov    -0x18(%rbp),%rax
    a848:	48 89 c7             	mov    %rax,%rdi
    a84b:	e8 51 05 00 00       	call   ada1 <_ZSt22__move_median_to_firstIPeN9__gnu_cxx5__ops15_Iter_less_iterEEvT_S4_S4_S4_T0_>
    a850:	48 8b 45 e8          	mov    -0x18(%rbp),%rax
    a854:	48 8d 48 10          	lea    0x10(%rax),%rcx
    a858:	48 8b 55 e8          	mov    -0x18(%rbp),%rdx
    a85c:	48 8b 45 e0          	mov    -0x20(%rbp),%rax
    a860:	48 89 c6             	mov    %rax,%rsi
    a863:	48 89 cf             	mov    %rcx,%rdi
    a866:	e8 5e 06 00 00       	call   aec9 <_ZSt21__unguarded_partitionIPeN9__gnu_cxx5__ops15_Iter_less_iterEET_S4_S4_S4_T0_>
    a86b:	c9                   	leave  
    a86c:	c3                   	ret    

000000000000a86d <_ZSt16__insertion_sortIPeN9__gnu_cxx5__ops15_Iter_less_iterEEvT_S4_T0_>:
    a86d:	f3 0f 1e fa          	endbr64 
    a871:	55                   	push   %rbp
    a872:	48 89 e5             	mov    %rsp,%rbp
    a875:	48 83 ec 50          	sub    $0x50,%rsp
    a879:	48 89 7d c8          	mov    %rdi,-0x38(%rbp)
    a87d:	48 89 75 c0          	mov    %rsi,-0x40(%rbp)
    a881:	64 48 8b 04 25 28 00 	mov    %fs:0x28,%rax
    a888:	00 00 
    a88a:	48 89 45 f8          	mov    %rax,-0x8(%rbp)
    a88e:	31 c0                	xor    %eax,%eax
    a890:	48 8b 45 c8          	mov    -0x38(%rbp),%rax
    a894:	48 3b 45 c0          	cmp    -0x40(%rbp),%rax
    a898:	0f 84 8d 00 00 00    	je     a92b <_ZSt16__insertion_sortIPeN9__gnu_cxx5__ops15_Iter_less_iterEEvT_S4_T0_+0xbe>
    a89e:	48 8b 45 c8          	mov    -0x38(%rbp),%rax
    a8a2:	48 83 c0 10          	add    $0x10,%rax
    a8a6:	48 89 45 d8          	mov    %rax,-0x28(%rbp)
    a8aa:	eb 73                	jmp    a91f <_ZSt16__insertion_sortIPeN9__gnu_cxx5__ops15_Iter_less_iterEEvT_S4_T0_+0xb2>
    a8ac:	48 8b 55 c8          	mov    -0x38(%rbp),%rdx
    a8b0:	48 8b 4d d8          	mov    -0x28(%rbp),%rcx
    a8b4:	48 8d 45 bf          	lea    -0x41(%rbp),%rax
    a8b8:	48 89 ce             	mov    %rcx,%rsi
    a8bb:	48 89 c7             	mov    %rax,%rdi
    a8be:	e8 b5 04 00 00       	call   ad78 <_ZNK9__gnu_cxx5__ops15_Iter_less_iterclIPeS3_EEbT_T0_>
    a8c3:	84 c0                	test   %al,%al
    a8c5:	74 42                	je     a909 <_ZSt16__insertion_sortIPeN9__gnu_cxx5__ops15_Iter_less_iterEEvT_S4_T0_+0x9c>
    a8c7:	48 8b 45 d8          	mov    -0x28(%rbp),%rax
    a8cb:	48 89 c7             	mov    %rax,%rdi
    a8ce:	e8 83 06 00 00       	call   af56 <_ZSt4moveIReEONSt16remove_referenceIT_E4typeEOS2_>
    a8d3:	db 28                	fldt   (%rax)
    a8d5:	db 7d e0             	fstpt  -0x20(%rbp)
    a8d8:	48 8b 45 d8          	mov    -0x28(%rbp),%rax
    a8dc:	48 8d 50 10          	lea    0x10(%rax),%rdx
    a8e0:	48 8b 4d d8          	mov    -0x28(%rbp),%rcx
    a8e4:	48 8b 45 c8          	mov    -0x38(%rbp),%rax
    a8e8:	48 89 ce             	mov    %rcx,%rsi
    a8eb:	48 89 c7             	mov    %rax,%rdi
    a8ee:	e8 75 06 00 00       	call   af68 <_ZSt13move_backwardIPeS0_ET0_T_S2_S1_>
    a8f3:	48 8d 45 e0          	lea    -0x20(%rbp),%rax
    a8f7:	48 89 c7             	mov    %rax,%rdi
    a8fa:	e8 57 06 00 00       	call   af56 <_ZSt4moveIReEONSt16remove_referenceIT_E4typeEOS2_>
    a8ff:	db 28                	fldt   (%rax)
    a901:	48 8b 45 c8          	mov    -0x38(%rbp),%rax
    a905:	db 38                	fstpt  (%rax)
    a907:	eb 11                	jmp    a91a <_ZSt16__insertion_sortIPeN9__gnu_cxx5__ops15_Iter_less_iterEEvT_S4_T0_+0xad>
    a909:	e8 c5 e8 ff ff       	call   91d3 <_ZN9__gnu_cxx5__ops15__val_comp_iterENS0_15_Iter_less_iterE>
    a90e:	48 8b 45 d8          	mov    -0x28(%rbp),%rax
    a912:	48 89 c7             	mov    %rax,%rdi
    a915:	e8 9d 06 00 00       	call   afb7 <_ZSt25__unguarded_linear_insertIPeN9__gnu_cxx5__ops14_Val_less_iterEEvT_T0_>
    a91a:	48 83 45 d8 10       	addq   $0x10,-0x28(%rbp)
    a91f:	48 8b 45 d8          	mov    -0x28(%rbp),%rax
    a923:	48 3b 45 c0          	cmp    -0x40(%rbp),%rax
    a927:	75 83                	jne    a8ac <_ZSt16__insertion_sortIPeN9__gnu_cxx5__ops15_Iter_less_iterEEvT_S4_T0_+0x3f>
    a929:	eb 01                	jmp    a92c <_ZSt16__insertion_sortIPeN9__gnu_cxx5__ops15_Iter_less_iterEEvT_S4_T0_+0xbf>
    a92b:	90                   	nop
    a92c:	48 8b 45 f8          	mov    -0x8(%rbp),%rax
    a930:	64 48 2b 04 25 28 00 	sub    %fs:0x28,%rax
    a937:	00 00 
    a939:	74 05                	je     a940 <_ZSt16__insertion_sortIPeN9__gnu_cxx5__ops15_Iter_less_iterEEvT_S4_T0_+0xd3>
    a93b:	e8 a0 7b ff ff       	call   24e0 <__stack_chk_fail@plt>
    a940:	c9                   	leave  
    a941:	c3                   	ret    

000000000000a942 <_ZSt26__unguarded_insertion_sortIPeN9__gnu_cxx5__ops15_Iter_less_iterEEvT_S4_T0_>:
    a942:	f3 0f 1e fa          	endbr64 
    a946:	55                   	push   %rbp
    a947:	48 89 e5             	mov    %rsp,%rbp
    a94a:	48 83 ec 30          	sub    $0x30,%rsp
    a94e:	48 89 7d e8          	mov    %rdi,-0x18(%rbp)
    a952:	48 89 75 e0          	mov    %rsi,-0x20(%rbp)
    a956:	48 8b 45 e8          	mov    -0x18(%rbp),%rax
    a95a:	48 89 45 f8          	mov    %rax,-0x8(%rbp)
    a95e:	eb 16                	jmp    a976 <_ZSt26__unguarded_insertion_sortIPeN9__gnu_cxx5__ops15_Iter_less_iterEEvT_S4_T0_+0x34>
    a960:	e8 6e e8 ff ff       	call   91d3 <_ZN9__gnu_cxx5__ops15__val_comp_iterENS0_15_Iter_less_iterE>
    a965:	48 8b 45 f8          	mov    -0x8(%rbp),%rax
    a969:	48 89 c7             	mov    %rax,%rdi
    a96c:	e8 46 06 00 00       	call   afb7 <_ZSt25__unguarded_linear_insertIPeN9__gnu_cxx5__ops14_Val_less_iterEEvT_T0_>
    a971:	48 83 45 f8 10       	addq   $0x10,-0x8(%rbp)
    a976:	48 8b 45 f8          	mov    -0x8(%rbp),%rax
    a97a:	48 3b 45 e0          	cmp    -0x20(%rbp),%rax
    a97e:	75 e0                	jne    a960 <_ZSt26__unguarded_insertion_sortIPeN9__gnu_cxx5__ops15_Iter_less_iterEEvT_S4_T0_+0x1e>
    a980:	90                   	nop
    a981:	90                   	nop
    a982:	c9                   	leave  
    a983:	c3                   	ret    

000000000000a984 <_ZN9__gnu_cxx13new_allocatorIiE10deallocateEPim>:
    a984:	f3 0f 1e fa          	endbr64 
    a988:	55                   	push   %rbp
    a989:	48 89 e5             	mov    %rsp,%rbp
    a98c:	48 83 ec 20          	sub    $0x20,%rsp
    a990:	48 89 7d f8          	mov    %rdi,-0x8(%rbp)
    a994:	48 89 75 f0          	mov    %rsi,-0x10(%rbp)
    a998:	48 89 55 e8          	mov    %rdx,-0x18(%rbp)
    a99c:	48 8b 45 e8          	mov    -0x18(%rbp),%rax
    a9a0:	48 8d 14 85 00 00 00 	lea    0x0(,%rax,4),%rdx
    a9a7:	00 
    a9a8:	48 8b 45 f0          	mov    -0x10(%rbp),%rax
    a9ac:	48 89 d6             	mov    %rdx,%rsi
    a9af:	48 89 c7             	mov    %rax,%rdi
    a9b2:	e8 f9 7a ff ff       	call   24b0 <_ZdlPvm@plt>
    a9b7:	c9                   	leave  
    a9b8:	c3                   	ret    

000000000000a9b9 <_ZNSt12_Destroy_auxILb1EE9__destroyIPiEEvT_S3_>:
    a9b9:	f3 0f 1e fa          	endbr64 
    a9bd:	55                   	push   %rbp
    a9be:	48 89 e5             	mov    %rsp,%rbp
    a9c1:	48 89 7d f8          	mov    %rdi,-0x8(%rbp)
    a9c5:	48 89 75 f0          	mov    %rsi,-0x10(%rbp)
    a9c9:	90                   	nop
    a9ca:	5d                   	pop    %rbp
    a9cb:	c3                   	ret    

000000000000a9cc <_ZN9__gnu_cxx13new_allocatorIiE9constructIiJiEEEvPT_DpOT0_>:
    a9cc:	f3 0f 1e fa          	endbr64 
    a9d0:	55                   	push   %rbp
    a9d1:	48 89 e5             	mov    %rsp,%rbp
    a9d4:	53                   	push   %rbx
    a9d5:	48 83 ec 28          	sub    $0x28,%rsp
    a9d9:	48 89 7d e8          	mov    %rdi,-0x18(%rbp)
    a9dd:	48 89 75 e0          	mov    %rsi,-0x20(%rbp)
    a9e1:	48 89 55 d8          	mov    %rdx,-0x28(%rbp)
    a9e5:	48 8b 45 d8          	mov    -0x28(%rbp),%rax
    a9e9:	48 89 c7             	mov    %rax,%rdi
    a9ec:	e8 0b f5 ff ff       	call   9efc <_ZSt7forwardIiEOT_RNSt16remove_referenceIS0_E4typeE>
    a9f1:	8b 18                	mov    (%rax),%ebx
    a9f3:	48 8b 45 e0          	mov    -0x20(%rbp),%rax
    a9f7:	48 89 c6             	mov    %rax,%rsi
    a9fa:	bf 04 00 00 00       	mov    $0x4,%edi
    a9ff:	e8 9f e7 ff ff       	call   91a3 <_ZnwmPv>
    aa04:	89 18                	mov    %ebx,(%rax)
    aa06:	90                   	nop
    aa07:	48 8b 5d f8          	mov    -0x8(%rbp),%rbx
    aa0b:	c9                   	leave  
    aa0c:	c3                   	ret    
    aa0d:	90                   	nop

000000000000aa0e <_ZN9__gnu_cxx17__normal_iteratorIPiSt6vectorIiSaIiEEEC1ERKS1_>:
    aa0e:	f3 0f 1e fa          	endbr64 
    aa12:	55                   	push   %rbp
    aa13:	48 89 e5             	mov    %rsp,%rbp
    aa16:	48 89 7d f8          	mov    %rdi,-0x8(%rbp)
    aa1a:	48 89 75 f0          	mov    %rsi,-0x10(%rbp)
    aa1e:	48 8b 45 f0          	mov    -0x10(%rbp),%rax
    aa22:	48 8b 10             	mov    (%rax),%rdx
    aa25:	48 8b 45 f8          	mov    -0x8(%rbp),%rax
    aa29:	48 89 10             	mov    %rdx,(%rax)
    aa2c:	90                   	nop
    aa2d:	5d                   	pop    %rbp
    aa2e:	c3                   	ret    
    aa2f:	90                   	nop

000000000000aa30 <_ZNKSt6vectorIiSaIiEE12_M_check_lenEmPKc>:
    aa30:	f3 0f 1e fa          	endbr64 
    aa34:	55                   	push   %rbp
    aa35:	48 89 e5             	mov    %rsp,%rbp
    aa38:	53                   	push   %rbx
    aa39:	48 83 ec 48          	sub    $0x48,%rsp
    aa3d:	48 89 7d c8          	mov    %rdi,-0x38(%rbp)
    aa41:	48 89 75 c0          	mov    %rsi,-0x40(%rbp)
    aa45:	48 89 55 b8          	mov    %rdx,-0x48(%rbp)
    aa49:	64 48 8b 04 25 28 00 	mov    %fs:0x28,%rax
    aa50:	00 00 
    aa52:	48 89 45 e8          	mov    %rax,-0x18(%rbp)
    aa56:	31 c0                	xor    %eax,%eax
    aa58:	48 8b 45 c8          	mov    -0x38(%rbp),%rax
    aa5c:	48 89 c7             	mov    %rax,%rdi
    aa5f:	e8 fa 05 00 00       	call   b05e <_ZNKSt6vectorIiSaIiEE8max_sizeEv>
    aa64:	48 89 c3             	mov    %rax,%rbx
    aa67:	48 8b 45 c8          	mov    -0x38(%rbp),%rax
    aa6b:	48 89 c7             	mov    %rax,%rdi
    aa6e:	e8 11 06 00 00       	call   b084 <_ZNKSt6vectorIiSaIiEE4sizeEv>
    aa73:	48 29 c3             	sub    %rax,%rbx
    aa76:	48 89 da             	mov    %rbx,%rdx
    aa79:	48 8b 45 c0          	mov    -0x40(%rbp),%rax
    aa7d:	48 39 c2             	cmp    %rax,%rdx
    aa80:	0f 92 c0             	setb   %al
    aa83:	84 c0                	test   %al,%al
    aa85:	74 0c                	je     aa93 <_ZNKSt6vectorIiSaIiEE12_M_check_lenEmPKc+0x63>
    aa87:	48 8b 45 b8          	mov    -0x48(%rbp),%rax
    aa8b:	48 89 c7             	mov    %rax,%rdi
    aa8e:	e8 5d 79 ff ff       	call   23f0 <_ZSt20__throw_length_errorPKc@plt>
    aa93:	48 8b 45 c8          	mov    -0x38(%rbp),%rax
    aa97:	48 89 c7             	mov    %rax,%rdi
    aa9a:	e8 e5 05 00 00       	call   b084 <_ZNKSt6vectorIiSaIiEE4sizeEv>
    aa9f:	48 89 c3             	mov    %rax,%rbx
    aaa2:	48 8b 45 c8          	mov    -0x38(%rbp),%rax
    aaa6:	48 89 c7             	mov    %rax,%rdi
    aaa9:	e8 d6 05 00 00       	call   b084 <_ZNKSt6vectorIiSaIiEE4sizeEv>
    aaae:	48 89 45 d8          	mov    %rax,-0x28(%rbp)
    aab2:	48 8d 55 c0          	lea    -0x40(%rbp),%rdx
    aab6:	48 8d 45 d8          	lea    -0x28(%rbp),%rax
    aaba:	48 89 d6             	mov    %rdx,%rsi
    aabd:	48 89 c7             	mov    %rax,%rdi
    aac0:	e8 08 f4 ff ff       	call   9ecd <_ZSt3maxImERKT_S2_S2_>
    aac5:	48 8b 00             	mov    (%rax),%rax
    aac8:	48 01 d8             	add    %rbx,%rax
    aacb:	48 89 45 e0          	mov    %rax,-0x20(%rbp)
    aacf:	48 8b 45 c8          	mov    -0x38(%rbp),%rax
    aad3:	48 89 c7             	mov    %rax,%rdi
    aad6:	e8 a9 05 00 00       	call   b084 <_ZNKSt6vectorIiSaIiEE4sizeEv>
    aadb:	48 39 45 e0          	cmp    %rax,-0x20(%rbp)
    aadf:	72 12                	jb     aaf3 <_ZNKSt6vectorIiSaIiEE12_M_check_lenEmPKc+0xc3>
    aae1:	48 8b 45 c8          	mov    -0x38(%rbp),%rax
    aae5:	48 89 c7             	mov    %rax,%rdi
    aae8:	e8 71 05 00 00       	call   b05e <_ZNKSt6vectorIiSaIiEE8max_sizeEv>
    aaed:	48 39 45 e0          	cmp    %rax,-0x20(%rbp)
    aaf1:	76 0e                	jbe    ab01 <_ZNKSt6vectorIiSaIiEE12_M_check_lenEmPKc+0xd1>
    aaf3:	48 8b 45 c8          	mov    -0x38(%rbp),%rax
    aaf7:	48 89 c7             	mov    %rax,%rdi
    aafa:	e8 5f 05 00 00       	call   b05e <_ZNKSt6vectorIiSaIiEE8max_sizeEv>
    aaff:	eb 04                	jmp    ab05 <_ZNKSt6vectorIiSaIiEE12_M_check_lenEmPKc+0xd5>
    ab01:	48 8b 45 e0          	mov    -0x20(%rbp),%rax
    ab05:	48 8b 55 e8          	mov    -0x18(%rbp),%rdx
    ab09:	64 48 2b 14 25 28 00 	sub    %fs:0x28,%rdx
    ab10:	00 00 
    ab12:	74 05                	je     ab19 <_ZNKSt6vectorIiSaIiEE12_M_check_lenEmPKc+0xe9>
    ab14:	e8 c7 79 ff ff       	call   24e0 <__stack_chk_fail@plt>
    ab19:	48 8b 5d f8          	mov    -0x8(%rbp),%rbx
    ab1d:	c9                   	leave  
    ab1e:	c3                   	ret    
    ab1f:	90                   	nop

000000000000ab20 <_ZNSt6vectorIiSaIiEE5beginEv>:
    ab20:	f3 0f 1e fa          	endbr64 
    ab24:	55                   	push   %rbp
    ab25:	48 89 e5             	mov    %rsp,%rbp
    ab28:	48 83 ec 20          	sub    $0x20,%rsp
    ab2c:	48 89 7d e8          	mov    %rdi,-0x18(%rbp)
    ab30:	64 48 8b 04 25 28 00 	mov    %fs:0x28,%rax
    ab37:	00 00 
    ab39:	48 89 45 f8          	mov    %rax,-0x8(%rbp)
    ab3d:	31 c0                	xor    %eax,%eax
    ab3f:	48 8b 55 e8          	mov    -0x18(%rbp),%rdx
    ab43:	48 8d 45 f0          	lea    -0x10(%rbp),%rax
    ab47:	48 89 d6             	mov    %rdx,%rsi
    ab4a:	48 89 c7             	mov    %rax,%rdi
    ab4d:	e8 bc fe ff ff       	call   aa0e <_ZN9__gnu_cxx17__normal_iteratorIPiSt6vectorIiSaIiEEEC1ERKS1_>
    ab52:	48 8b 45 f0          	mov    -0x10(%rbp),%rax
    ab56:	48 8b 55 f8          	mov    -0x8(%rbp),%rdx
    ab5a:	64 48 2b 14 25 28 00 	sub    %fs:0x28,%rdx
    ab61:	00 00 
    ab63:	74 05                	je     ab6a <_ZNSt6vectorIiSaIiEE5beginEv+0x4a>
    ab65:	e8 76 79 ff ff       	call   24e0 <__stack_chk_fail@plt>
    ab6a:	c9                   	leave  
    ab6b:	c3                   	ret    

000000000000ab6c <_ZN9__gnu_cxxmiIPiSt6vectorIiSaIiEEEENS_17__normal_iteratorIT_T0_E15difference_typeERKS8_SB_>:
    ab6c:	f3 0f 1e fa          	endbr64 
    ab70:	55                   	push   %rbp
    ab71:	48 89 e5             	mov    %rsp,%rbp
    ab74:	53                   	push   %rbx
    ab75:	48 83 ec 18          	sub    $0x18,%rsp
    ab79:	48 89 7d e8          	mov    %rdi,-0x18(%rbp)
    ab7d:	48 89 75 e0          	mov    %rsi,-0x20(%rbp)
    ab81:	48 8b 45 e8          	mov    -0x18(%rbp),%rax
    ab85:	48 89 c7             	mov    %rax,%rdi
    ab88:	e8 91 00 00 00       	call   ac1e <_ZNK9__gnu_cxx17__normal_iteratorIPiSt6vectorIiSaIiEEE4baseEv>
    ab8d:	48 8b 18             	mov    (%rax),%rbx
    ab90:	48 8b 45 e0          	mov    -0x20(%rbp),%rax
    ab94:	48 89 c7             	mov    %rax,%rdi
    ab97:	e8 82 00 00 00       	call   ac1e <_ZNK9__gnu_cxx17__normal_iteratorIPiSt6vectorIiSaIiEEE4baseEv>
    ab9c:	48 8b 10             	mov    (%rax),%rdx
    ab9f:	48 89 d8             	mov    %rbx,%rax
    aba2:	48 29 d0             	sub    %rdx,%rax
    aba5:	48 c1 f8 02          	sar    $0x2,%rax
    aba9:	48 8b 5d f8          	mov    -0x8(%rbp),%rbx
    abad:	c9                   	leave  
    abae:	c3                   	ret    
    abaf:	90                   	nop

000000000000abb0 <_ZNSt12_Vector_baseIiSaIiEE11_M_allocateEm>:
    abb0:	f3 0f 1e fa          	endbr64 
    abb4:	55                   	push   %rbp
    abb5:	48 89 e5             	mov    %rsp,%rbp
    abb8:	48 83 ec 10          	sub    $0x10,%rsp
    abbc:	48 89 7d f8          	mov    %rdi,-0x8(%rbp)
    abc0:	48 89 75 f0          	mov    %rsi,-0x10(%rbp)
    abc4:	48 83 7d f0 00       	cmpq   $0x0,-0x10(%rbp)
    abc9:	74 15                	je     abe0 <_ZNSt12_Vector_baseIiSaIiEE11_M_allocateEm+0x30>
    abcb:	48 8b 45 f8          	mov    -0x8(%rbp),%rax
    abcf:	48 8b 55 f0          	mov    -0x10(%rbp),%rdx
    abd3:	48 89 d6             	mov    %rdx,%rsi
    abd6:	48 89 c7             	mov    %rax,%rdi
    abd9:	e8 cd 04 00 00       	call   b0ab <_ZNSt16allocator_traitsISaIiEE8allocateERS0_m>
    abde:	eb 05                	jmp    abe5 <_ZNSt12_Vector_baseIiSaIiEE11_M_allocateEm+0x35>
    abe0:	b8 00 00 00 00       	mov    $0x0,%eax
    abe5:	c9                   	leave  
    abe6:	c3                   	ret    

000000000000abe7 <_ZNSt6vectorIiSaIiEE11_S_relocateEPiS2_S2_RS0_>:
    abe7:	f3 0f 1e fa          	endbr64 
    abeb:	55                   	push   %rbp
    abec:	48 89 e5             	mov    %rsp,%rbp
    abef:	48 83 ec 20          	sub    $0x20,%rsp
    abf3:	48 89 7d f8          	mov    %rdi,-0x8(%rbp)
    abf7:	48 89 75 f0          	mov    %rsi,-0x10(%rbp)
    abfb:	48 89 55 e8          	mov    %rdx,-0x18(%rbp)
    abff:	48 89 4d e0          	mov    %rcx,-0x20(%rbp)
    ac03:	48 8b 4d e0          	mov    -0x20(%rbp),%rcx
    ac07:	48 8b 55 e8          	mov    -0x18(%rbp),%rdx
    ac0b:	48 8b 75 f0          	mov    -0x10(%rbp),%rsi
    ac0f:	48 8b 45 f8          	mov    -0x8(%rbp),%rax
    ac13:	48 89 c7             	mov    %rax,%rdi
    ac16:	e8 be 04 00 00       	call   b0d9 <_ZNSt6vectorIiSaIiEE14_S_do_relocateEPiS2_S2_RS0_St17integral_constantIbLb1EE>
    ac1b:	c9                   	leave  
    ac1c:	c3                   	ret    
    ac1d:	90                   	nop

000000000000ac1e <_ZNK9__gnu_cxx17__normal_iteratorIPiSt6vectorIiSaIiEEE4baseEv>:
    ac1e:	f3 0f 1e fa          	endbr64 
    ac22:	55                   	push   %rbp
    ac23:	48 89 e5             	mov    %rsp,%rbp
    ac26:	48 89 7d f8          	mov    %rdi,-0x8(%rbp)
    ac2a:	48 8b 45 f8          	mov    -0x8(%rbp),%rax
    ac2e:	5d                   	pop    %rbp
    ac2f:	c3                   	ret    

000000000000ac30 <_ZNK9__gnu_cxx17__normal_iteratorIPiSt6vectorIiSaIiEEEmiEl>:
    ac30:	f3 0f 1e fa          	endbr64 
    ac34:	55                   	push   %rbp
    ac35:	48 89 e5             	mov    %rsp,%rbp
    ac38:	48 83 ec 30          	sub    $0x30,%rsp
    ac3c:	48 89 7d d8          	mov    %rdi,-0x28(%rbp)
    ac40:	48 89 75 d0          	mov    %rsi,-0x30(%rbp)
    ac44:	64 48 8b 04 25 28 00 	mov    %fs:0x28,%rax
    ac4b:	00 00 
    ac4d:	48 89 45 f8          	mov    %rax,-0x8(%rbp)
    ac51:	31 c0                	xor    %eax,%eax
    ac53:	48 8b 45 d8          	mov    -0x28(%rbp),%rax
    ac57:	48 8b 10             	mov    (%rax),%rdx
    ac5a:	48 8b 45 d0          	mov    -0x30(%rbp),%rax
    ac5e:	48 c1 e0 02          	shl    $0x2,%rax
    ac62:	48 f7 d8             	neg    %rax
    ac65:	48 01 d0             	add    %rdx,%rax
    ac68:	48 89 45 e8          	mov    %rax,-0x18(%rbp)
    ac6c:	48 8d 55 e8          	lea    -0x18(%rbp),%rdx
    ac70:	48 8d 45 f0          	lea    -0x10(%rbp),%rax
    ac74:	48 89 d6             	mov    %rdx,%rsi
    ac77:	48 89 c7             	mov    %rax,%rdi
    ac7a:	e8 8f fd ff ff       	call   aa0e <_ZN9__gnu_cxx17__normal_iteratorIPiSt6vectorIiSaIiEEEC1ERKS1_>
    ac7f:	48 8b 45 f0          	mov    -0x10(%rbp),%rax
    ac83:	48 8b 55 f8          	mov    -0x8(%rbp),%rdx
    ac87:	64 48 2b 14 25 28 00 	sub    %fs:0x28,%rdx
    ac8e:	00 00 
    ac90:	74 05                	je     ac97 <_ZNK9__gnu_cxx17__normal_iteratorIPiSt6vectorIiSaIiEEEmiEl+0x67>
    ac92:	e8 49 78 ff ff       	call   24e0 <__stack_chk_fail@plt>
    ac97:	c9                   	leave  
    ac98:	c3                   	ret    
    ac99:	90                   	nop

000000000000ac9a <_ZNK9__gnu_cxx17__normal_iteratorIPiSt6vectorIiSaIiEEEdeEv>:
    ac9a:	f3 0f 1e fa          	endbr64 
    ac9e:	55                   	push   %rbp
    ac9f:	48 89 e5             	mov    %rsp,%rbp
    aca2:	48 89 7d f8          	mov    %rdi,-0x8(%rbp)
    aca6:	48 8b 45 f8          	mov    -0x8(%rbp),%rax
    acaa:	48 8b 00             	mov    (%rax),%rax
    acad:	5d                   	pop    %rbp
    acae:	c3                   	ret    

000000000000acaf <_ZSt13__heap_selectIPeN9__gnu_cxx5__ops15_Iter_less_iterEEvT_S4_S4_T0_>:
    acaf:	f3 0f 1e fa          	endbr64 
    acb3:	55                   	push   %rbp
    acb4:	48 89 e5             	mov    %rsp,%rbp
    acb7:	48 83 ec 30          	sub    $0x30,%rsp
    acbb:	48 89 7d e8          	mov    %rdi,-0x18(%rbp)
    acbf:	48 89 75 e0          	mov    %rsi,-0x20(%rbp)
    acc3:	48 89 55 d8          	mov    %rdx,-0x28(%rbp)
    acc7:	48 8d 55 d7          	lea    -0x29(%rbp),%rdx
    accb:	48 8b 4d e0          	mov    -0x20(%rbp),%rcx
    accf:	48 8b 45 e8          	mov    -0x18(%rbp),%rax
    acd3:	48 89 ce             	mov    %rcx,%rsi
    acd6:	48 89 c7             	mov    %rax,%rdi
    acd9:	e8 31 04 00 00       	call   b10f <_ZSt11__make_heapIPeN9__gnu_cxx5__ops15_Iter_less_iterEEvT_S4_RT0_>
    acde:	48 8b 45 e0          	mov    -0x20(%rbp),%rax
    ace2:	48 89 45 f8          	mov    %rax,-0x8(%rbp)
    ace6:	eb 38                	jmp    ad20 <_ZSt13__heap_selectIPeN9__gnu_cxx5__ops15_Iter_less_iterEEvT_S4_S4_T0_+0x71>
    ace8:	48 8b 55 e8          	mov    -0x18(%rbp),%rdx
    acec:	48 8b 4d f8          	mov    -0x8(%rbp),%rcx
    acf0:	48 8d 45 d7          	lea    -0x29(%rbp),%rax
    acf4:	48 89 ce             	mov    %rcx,%rsi
    acf7:	48 89 c7             	mov    %rax,%rdi
    acfa:	e8 79 00 00 00       	call   ad78 <_ZNK9__gnu_cxx5__ops15_Iter_less_iterclIPeS3_EEbT_T0_>
    acff:	84 c0                	test   %al,%al
    ad01:	74 18                	je     ad1b <_ZSt13__heap_selectIPeN9__gnu_cxx5__ops15_Iter_less_iterEEvT_S4_S4_T0_+0x6c>
    ad03:	48 8d 4d d7          	lea    -0x29(%rbp),%rcx
    ad07:	48 8b 55 f8          	mov    -0x8(%rbp),%rdx
    ad0b:	48 8b 75 e0          	mov    -0x20(%rbp),%rsi
    ad0f:	48 8b 45 e8          	mov    -0x18(%rbp),%rax
    ad13:	48 89 c7             	mov    %rax,%rdi
    ad16:	e8 ce 04 00 00       	call   b1e9 <_ZSt10__pop_heapIPeN9__gnu_cxx5__ops15_Iter_less_iterEEvT_S4_S4_RT0_>
    ad1b:	48 83 45 f8 10       	addq   $0x10,-0x8(%rbp)
    ad20:	48 8b 45 f8          	mov    -0x8(%rbp),%rax
    ad24:	48 3b 45 d8          	cmp    -0x28(%rbp),%rax
    ad28:	72 be                	jb     ace8 <_ZSt13__heap_selectIPeN9__gnu_cxx5__ops15_Iter_less_iterEEvT_S4_S4_T0_+0x39>
    ad2a:	90                   	nop
    ad2b:	90                   	nop
    ad2c:	c9                   	leave  
    ad2d:	c3                   	ret    

000000000000ad2e <_ZSt11__sort_heapIPeN9__gnu_cxx5__ops15_Iter_less_iterEEvT_S4_RT0_>:
    ad2e:	f3 0f 1e fa          	endbr64 
    ad32:	55                   	push   %rbp
    ad33:	48 89 e5             	mov    %rsp,%rbp
    ad36:	48 83 ec 20          	sub    $0x20,%rsp
    ad3a:	48 89 7d f8          	mov    %rdi,-0x8(%rbp)
    ad3e:	48 89 75 f0          	mov    %rsi,-0x10(%rbp)
    ad42:	48 89 55 e8          	mov    %rdx,-0x18(%rbp)
    ad46:	eb 1d                	jmp    ad65 <_ZSt11__sort_heapIPeN9__gnu_cxx5__ops15_Iter_less_iterEEvT_S4_RT0_+0x37>
    ad48:	48 83 6d f0 10       	subq   $0x10,-0x10(%rbp)
    ad4d:	48 8b 4d e8          	mov    -0x18(%rbp),%rcx
    ad51:	48 8b 55 f0          	mov    -0x10(%rbp),%rdx
    ad55:	48 8b 75 f0          	mov    -0x10(%rbp),%rsi
    ad59:	48 8b 45 f8          	mov    -0x8(%rbp),%rax
    ad5d:	48 89 c7             	mov    %rax,%rdi
    ad60:	e8 84 04 00 00       	call   b1e9 <_ZSt10__pop_heapIPeN9__gnu_cxx5__ops15_Iter_less_iterEEvT_S4_S4_RT0_>
    ad65:	48 8b 45 f0          	mov    -0x10(%rbp),%rax
    ad69:	48 2b 45 f8          	sub    -0x8(%rbp),%rax
    ad6d:	48 83 f8 10          	cmp    $0x10,%rax
    ad71:	7f d5                	jg     ad48 <_ZSt11__sort_heapIPeN9__gnu_cxx5__ops15_Iter_less_iterEEvT_S4_RT0_+0x1a>
    ad73:	90                   	nop
    ad74:	90                   	nop
    ad75:	c9                   	leave  
    ad76:	c3                   	ret    
    ad77:	90                   	nop

000000000000ad78 <_ZNK9__gnu_cxx5__ops15_Iter_less_iterclIPeS3_EEbT_T0_>:
    ad78:	f3 0f 1e fa          	endbr64 
    ad7c:	55                   	push   %rbp
    ad7d:	48 89 e5             	mov    %rsp,%rbp
    ad80:	48 89 7d f8          	mov    %rdi,-0x8(%rbp)
    ad84:	48 89 75 f0          	mov    %rsi,-0x10(%rbp)
    ad88:	48 89 55 e8          	mov    %rdx,-0x18(%rbp)
    ad8c:	48 8b 45 f0          	mov    -0x10(%rbp),%rax
    ad90:	db 28                	fldt   (%rax)
    ad92:	48 8b 45 e8          	mov    -0x18(%rbp),%rax
    ad96:	db 28                	fldt   (%rax)
    ad98:	df f1                	fcomip %st(1),%st
    ad9a:	dd d8                	fstp   %st(0)
    ad9c:	0f 97 c0             	seta   %al
    ad9f:	5d                   	pop    %rbp
    ada0:	c3                   	ret    

000000000000ada1 <_ZSt22__move_median_to_firstIPeN9__gnu_cxx5__ops15_Iter_less_iterEEvT_S4_S4_S4_T0_>:
    ada1:	f3 0f 1e fa          	endbr64 
    ada5:	55                   	push   %rbp
    ada6:	48 89 e5             	mov    %rsp,%rbp
    ada9:	48 83 ec 30          	sub    $0x30,%rsp
    adad:	48 89 7d f8          	mov    %rdi,-0x8(%rbp)
    adb1:	48 89 75 f0          	mov    %rsi,-0x10(%rbp)
    adb5:	48 89 55 e8          	mov    %rdx,-0x18(%rbp)
    adb9:	48 89 4d e0          	mov    %rcx,-0x20(%rbp)
    adbd:	48 8b 55 e8          	mov    -0x18(%rbp),%rdx
    adc1:	48 8b 4d f0          	mov    -0x10(%rbp),%rcx
    adc5:	48 8d 45 df          	lea    -0x21(%rbp),%rax
    adc9:	48 89 ce             	mov    %rcx,%rsi
    adcc:	48 89 c7             	mov    %rax,%rdi
    adcf:	e8 a4 ff ff ff       	call   ad78 <_ZNK9__gnu_cxx5__ops15_Iter_less_iterclIPeS3_EEbT_T0_>
    add4:	84 c0                	test   %al,%al
    add6:	74 7b                	je     ae53 <_ZSt22__move_median_to_firstIPeN9__gnu_cxx5__ops15_Iter_less_iterEEvT_S4_S4_S4_T0_+0xb2>
    add8:	48 8b 55 e0          	mov    -0x20(%rbp),%rdx
    addc:	48 8b 4d e8          	mov    -0x18(%rbp),%rcx
    ade0:	48 8d 45 df          	lea    -0x21(%rbp),%rax
    ade4:	48 89 ce             	mov    %rcx,%rsi
    ade7:	48 89 c7             	mov    %rax,%rdi
    adea:	e8 89 ff ff ff       	call   ad78 <_ZNK9__gnu_cxx5__ops15_Iter_less_iterclIPeS3_EEbT_T0_>
    adef:	84 c0                	test   %al,%al
    adf1:	74 18                	je     ae0b <_ZSt22__move_median_to_firstIPeN9__gnu_cxx5__ops15_Iter_less_iterEEvT_S4_S4_S4_T0_+0x6a>
    adf3:	48 8b 55 e8          	mov    -0x18(%rbp),%rdx
    adf7:	48 8b 45 f8          	mov    -0x8(%rbp),%rax
    adfb:	48 89 d6             	mov    %rdx,%rsi
    adfe:	48 89 c7             	mov    %rax,%rdi
    ae01:	e8 84 04 00 00       	call   b28a <_ZSt9iter_swapIPeS0_EvT_T0_>
    ae06:	e9 bb 00 00 00       	jmp    aec6 <_ZSt22__move_median_to_firstIPeN9__gnu_cxx5__ops15_Iter_less_iterEEvT_S4_S4_S4_T0_+0x125>
    ae0b:	48 8b 55 e0          	mov    -0x20(%rbp),%rdx
    ae0f:	48 8b 4d f0          	mov    -0x10(%rbp),%rcx
    ae13:	48 8d 45 df          	lea    -0x21(%rbp),%rax
    ae17:	48 89 ce             	mov    %rcx,%rsi
    ae1a:	48 89 c7             	mov    %rax,%rdi
    ae1d:	e8 56 ff ff ff       	call   ad78 <_ZNK9__gnu_cxx5__ops15_Iter_less_iterclIPeS3_EEbT_T0_>
    ae22:	84 c0                	test   %al,%al
    ae24:	74 18                	je     ae3e <_ZSt22__move_median_to_firstIPeN9__gnu_cxx5__ops15_Iter_less_iterEEvT_S4_S4_S4_T0_+0x9d>
    ae26:	48 8b 55 e0          	mov    -0x20(%rbp),%rdx
    ae2a:	48 8b 45 f8          	mov    -0x8(%rbp),%rax
    ae2e:	48 89 d6             	mov    %rdx,%rsi
    ae31:	48 89 c7             	mov    %rax,%rdi
    ae34:	e8 51 04 00 00       	call   b28a <_ZSt9iter_swapIPeS0_EvT_T0_>
    ae39:	e9 88 00 00 00       	jmp    aec6 <_ZSt22__move_median_to_firstIPeN9__gnu_cxx5__ops15_Iter_less_iterEEvT_S4_S4_S4_T0_+0x125>
    ae3e:	48 8b 55 f0          	mov    -0x10(%rbp),%rdx
    ae42:	48 8b 45 f8          	mov    -0x8(%rbp),%rax
    ae46:	48 89 d6             	mov    %rdx,%rsi
    ae49:	48 89 c7             	mov    %rax,%rdi
    ae4c:	e8 39 04 00 00       	call   b28a <_ZSt9iter_swapIPeS0_EvT_T0_>
    ae51:	eb 73                	jmp    aec6 <_ZSt22__move_median_to_firstIPeN9__gnu_cxx5__ops15_Iter_less_iterEEvT_S4_S4_S4_T0_+0x125>
    ae53:	48 8b 55 e0          	mov    -0x20(%rbp),%rdx
    ae57:	48 8b 4d f0          	mov    -0x10(%rbp),%rcx
    ae5b:	48 8d 45 df          	lea    -0x21(%rbp),%rax
    ae5f:	48 89 ce             	mov    %rcx,%rsi
    ae62:	48 89 c7             	mov    %rax,%rdi
    ae65:	e8 0e ff ff ff       	call   ad78 <_ZNK9__gnu_cxx5__ops15_Iter_less_iterclIPeS3_EEbT_T0_>
    ae6a:	84 c0                	test   %al,%al
    ae6c:	74 15                	je     ae83 <_ZSt22__move_median_to_firstIPeN9__gnu_cxx5__ops15_Iter_less_iterEEvT_S4_S4_S4_T0_+0xe2>
    ae6e:	48 8b 55 f0          	mov    -0x10(%rbp),%rdx
    ae72:	48 8b 45 f8          	mov    -0x8(%rbp),%rax
    ae76:	48 89 d6             	mov    %rdx,%rsi
    ae79:	48 89 c7             	mov    %rax,%rdi
    ae7c:	e8 09 04 00 00       	call   b28a <_ZSt9iter_swapIPeS0_EvT_T0_>
    ae81:	eb 43                	jmp    aec6 <_ZSt22__move_median_to_firstIPeN9__gnu_cxx5__ops15_Iter_less_iterEEvT_S4_S4_S4_T0_+0x125>
    ae83:	48 8b 55 e0          	mov    -0x20(%rbp),%rdx
    ae87:	48 8b 4d e8          	mov    -0x18(%rbp),%rcx
    ae8b:	48 8d 45 df          	lea    -0x21(%rbp),%rax
    ae8f:	48 89 ce             	mov    %rcx,%rsi
    ae92:	48 89 c7             	mov    %rax,%rdi
    ae95:	e8 de fe ff ff       	call   ad78 <_ZNK9__gnu_cxx5__ops15_Iter_less_iterclIPeS3_EEbT_T0_>
    ae9a:	84 c0                	test   %al,%al
    ae9c:	74 15                	je     aeb3 <_ZSt22__move_median_to_firstIPeN9__gnu_cxx5__ops15_Iter_less_iterEEvT_S4_S4_S4_T0_+0x112>
    ae9e:	48 8b 55 e0          	mov    -0x20(%rbp),%rdx
    aea2:	48 8b 45 f8          	mov    -0x8(%rbp),%rax
    aea6:	48 89 d6             	mov    %rdx,%rsi
    aea9:	48 89 c7             	mov    %rax,%rdi
    aeac:	e8 d9 03 00 00       	call   b28a <_ZSt9iter_swapIPeS0_EvT_T0_>
    aeb1:	eb 13                	jmp    aec6 <_ZSt22__move_median_to_firstIPeN9__gnu_cxx5__ops15_Iter_less_iterEEvT_S4_S4_S4_T0_+0x125>
    aeb3:	48 8b 55 e8          	mov    -0x18(%rbp),%rdx
    aeb7:	48 8b 45 f8          	mov    -0x8(%rbp),%rax
    aebb:	48 89 d6             	mov    %rdx,%rsi
    aebe:	48 89 c7             	mov    %rax,%rdi
    aec1:	e8 c4 03 00 00       	call   b28a <_ZSt9iter_swapIPeS0_EvT_T0_>
    aec6:	90                   	nop
    aec7:	c9                   	leave  
    aec8:	c3                   	ret    

000000000000aec9 <_ZSt21__unguarded_partitionIPeN9__gnu_cxx5__ops15_Iter_less_iterEET_S4_S4_S4_T0_>:
    aec9:	f3 0f 1e fa          	endbr64 
    aecd:	55                   	push   %rbp
    aece:	48 89 e5             	mov    %rsp,%rbp
    aed1:	48 83 ec 20          	sub    $0x20,%rsp
    aed5:	48 89 7d f8          	mov    %rdi,-0x8(%rbp)
    aed9:	48 89 75 f0          	mov    %rsi,-0x10(%rbp)
    aedd:	48 89 55 e8          	mov    %rdx,-0x18(%rbp)
    aee1:	eb 05                	jmp    aee8 <_ZSt21__unguarded_partitionIPeN9__gnu_cxx5__ops15_Iter_less_iterEET_S4_S4_S4_T0_+0x1f>
    aee3:	48 83 45 f8 10       	addq   $0x10,-0x8(%rbp)
    aee8:	48 8b 55 e8          	mov    -0x18(%rbp),%rdx
    aeec:	48 8b 4d f8          	mov    -0x8(%rbp),%rcx
    aef0:	48 8d 45 e7          	lea    -0x19(%rbp),%rax
    aef4:	48 89 ce             	mov    %rcx,%rsi
    aef7:	48 89 c7             	mov    %rax,%rdi
    aefa:	e8 79 fe ff ff       	call   ad78 <_ZNK9__gnu_cxx5__ops15_Iter_less_iterclIPeS3_EEbT_T0_>
    aeff:	84 c0                	test   %al,%al
    af01:	75 e0                	jne    aee3 <_ZSt21__unguarded_partitionIPeN9__gnu_cxx5__ops15_Iter_less_iterEET_S4_S4_S4_T0_+0x1a>
    af03:	48 83 6d f0 10       	subq   $0x10,-0x10(%rbp)
    af08:	eb 05                	jmp    af0f <_ZSt21__unguarded_partitionIPeN9__gnu_cxx5__ops15_Iter_less_iterEET_S4_S4_S4_T0_+0x46>
    af0a:	48 83 6d f0 10       	subq   $0x10,-0x10(%rbp)
    af0f:	48 8b 55 f0          	mov    -0x10(%rbp),%rdx
    af13:	48 8b 4d e8          	mov    -0x18(%rbp),%rcx
    af17:	48 8d 45 e7          	lea    -0x19(%rbp),%rax
    af1b:	48 89 ce             	mov    %rcx,%rsi
    af1e:	48 89 c7             	mov    %rax,%rdi
    af21:	e8 52 fe ff ff       	call   ad78 <_ZNK9__gnu_cxx5__ops15_Iter_less_iterclIPeS3_EEbT_T0_>
    af26:	84 c0                	test   %al,%al
    af28:	75 e0                	jne    af0a <_ZSt21__unguarded_partitionIPeN9__gnu_cxx5__ops15_Iter_less_iterEET_S4_S4_S4_T0_+0x41>
    af2a:	48 8b 45 f8          	mov    -0x8(%rbp),%rax
    af2e:	48 3b 45 f0          	cmp    -0x10(%rbp),%rax
    af32:	72 06                	jb     af3a <_ZSt21__unguarded_partitionIPeN9__gnu_cxx5__ops15_Iter_less_iterEET_S4_S4_S4_T0_+0x71>
    af34:	48 8b 45 f8          	mov    -0x8(%rbp),%rax
    af38:	eb 1a                	jmp    af54 <_ZSt21__unguarded_partitionIPeN9__gnu_cxx5__ops15_Iter_less_iterEET_S4_S4_S4_T0_+0x8b>
    af3a:	48 8b 55 f0          	mov    -0x10(%rbp),%rdx
    af3e:	48 8b 45 f8          	mov    -0x8(%rbp),%rax
    af42:	48 89 d6             	mov    %rdx,%rsi
    af45:	48 89 c7             	mov    %rax,%rdi
    af48:	e8 3d 03 00 00       	call   b28a <_ZSt9iter_swapIPeS0_EvT_T0_>
    af4d:	48 83 45 f8 10       	addq   $0x10,-0x8(%rbp)
    af52:	eb 94                	jmp    aee8 <_ZSt21__unguarded_partitionIPeN9__gnu_cxx5__ops15_Iter_less_iterEET_S4_S4_S4_T0_+0x1f>
    af54:	c9                   	leave  
    af55:	c3                   	ret    

000000000000af56 <_ZSt4moveIReEONSt16remove_referenceIT_E4typeEOS2_>:
    af56:	f3 0f 1e fa          	endbr64 
    af5a:	55                   	push   %rbp
    af5b:	48 89 e5             	mov    %rsp,%rbp
    af5e:	48 89 7d f8          	mov    %rdi,-0x8(%rbp)
    af62:	48 8b 45 f8          	mov    -0x8(%rbp),%rax
    af66:	5d                   	pop    %rbp
    af67:	c3                   	ret    

000000000000af68 <_ZSt13move_backwardIPeS0_ET0_T_S2_S1_>:
    af68:	f3 0f 1e fa          	endbr64 
    af6c:	55                   	push   %rbp
    af6d:	48 89 e5             	mov    %rsp,%rbp
    af70:	53                   	push   %rbx
    af71:	48 83 ec 28          	sub    $0x28,%rsp
    af75:	48 89 7d e8          	mov    %rdi,-0x18(%rbp)
    af79:	48 89 75 e0          	mov    %rsi,-0x20(%rbp)
    af7d:	48 89 55 d8          	mov    %rdx,-0x28(%rbp)
    af81:	48 8b 45 e0          	mov    -0x20(%rbp),%rax
    af85:	48 89 c7             	mov    %rax,%rdi
    af88:	e8 27 03 00 00       	call   b2b4 <_ZSt12__miter_baseIPeET_S1_>
    af8d:	48 89 c3             	mov    %rax,%rbx
    af90:	48 8b 45 e8          	mov    -0x18(%rbp),%rax
    af94:	48 89 c7             	mov    %rax,%rdi
    af97:	e8 18 03 00 00       	call   b2b4 <_ZSt12__miter_baseIPeET_S1_>
    af9c:	48 89 c1             	mov    %rax,%rcx
    af9f:	48 8b 45 d8          	mov    -0x28(%rbp),%rax
    afa3:	48 89 c2             	mov    %rax,%rdx
    afa6:	48 89 de             	mov    %rbx,%rsi
    afa9:	48 89 cf             	mov    %rcx,%rdi
    afac:	e8 15 03 00 00       	call   b2c6 <_ZSt22__copy_move_backward_aILb1EPeS0_ET1_T0_S2_S1_>
    afb1:	48 8b 5d f8          	mov    -0x8(%rbp),%rbx
    afb5:	c9                   	leave  
    afb6:	c3                   	ret    

000000000000afb7 <_ZSt25__unguarded_linear_insertIPeN9__gnu_cxx5__ops14_Val_less_iterEEvT_T0_>:
    afb7:	f3 0f 1e fa          	endbr64 
    afbb:	55                   	push   %rbp
    afbc:	48 89 e5             	mov    %rsp,%rbp
    afbf:	48 83 ec 40          	sub    $0x40,%rsp
    afc3:	48 89 7d c8          	mov    %rdi,-0x38(%rbp)
    afc7:	64 48 8b 04 25 28 00 	mov    %fs:0x28,%rax
    afce:	00 00 
    afd0:	48 89 45 f8          	mov    %rax,-0x8(%rbp)
    afd4:	31 c0                	xor    %eax,%eax
    afd6:	48 8b 45 c8          	mov    -0x38(%rbp),%rax
    afda:	48 89 c7             	mov    %rax,%rdi
    afdd:	e8 74 ff ff ff       	call   af56 <_ZSt4moveIReEONSt16remove_referenceIT_E4typeEOS2_>
    afe2:	db 28                	fldt   (%rax)
    afe4:	db 7d e0             	fstpt  -0x20(%rbp)
    afe7:	48 8b 45 c8          	mov    -0x38(%rbp),%rax
    afeb:	48 89 45 d8          	mov    %rax,-0x28(%rbp)
    afef:	48 83 6d d8 10       	subq   $0x10,-0x28(%rbp)
    aff4:	eb 21                	jmp    b017 <_ZSt25__unguarded_linear_insertIPeN9__gnu_cxx5__ops14_Val_less_iterEEvT_T0_+0x60>
    aff6:	48 8b 45 d8          	mov    -0x28(%rbp),%rax
    affa:	48 89 c7             	mov    %rax,%rdi
    affd:	e8 54 ff ff ff       	call   af56 <_ZSt4moveIReEONSt16remove_referenceIT_E4typeEOS2_>
    b002:	db 28                	fldt   (%rax)
    b004:	48 8b 45 c8          	mov    -0x38(%rbp),%rax
    b008:	db 38                	fstpt  (%rax)
    b00a:	48 8b 45 d8          	mov    -0x28(%rbp),%rax
    b00e:	48 89 45 c8          	mov    %rax,-0x38(%rbp)
    b012:	48 83 6d d8 10       	subq   $0x10,-0x28(%rbp)
    b017:	48 8b 55 d8          	mov    -0x28(%rbp),%rdx
    b01b:	48 8d 4d e0          	lea    -0x20(%rbp),%rcx
    b01f:	48 8d 45 c7          	lea    -0x39(%rbp),%rax
    b023:	48 89 ce             	mov    %rcx,%rsi
    b026:	48 89 c7             	mov    %rax,%rdi
    b029:	e8 06 03 00 00       	call   b334 <_ZNK9__gnu_cxx5__ops14_Val_less_iterclIePeEEbRT_T0_>
    b02e:	84 c0                	test   %al,%al
    b030:	75 c4                	jne    aff6 <_ZSt25__unguarded_linear_insertIPeN9__gnu_cxx5__ops14_Val_less_iterEEvT_T0_+0x3f>
    b032:	48 8d 45 e0          	lea    -0x20(%rbp),%rax
    b036:	48 89 c7             	mov    %rax,%rdi
    b039:	e8 18 ff ff ff       	call   af56 <_ZSt4moveIReEONSt16remove_referenceIT_E4typeEOS2_>
    b03e:	db 28                	fldt   (%rax)
    b040:	48 8b 45 c8          	mov    -0x38(%rbp),%rax
    b044:	db 38                	fstpt  (%rax)
    b046:	90                   	nop
    b047:	48 8b 45 f8          	mov    -0x8(%rbp),%rax
    b04b:	64 48 2b 04 25 28 00 	sub    %fs:0x28,%rax
    b052:	00 00 
    b054:	74 05                	je     b05b <_ZSt25__unguarded_linear_insertIPeN9__gnu_cxx5__ops14_Val_less_iterEEvT_T0_+0xa4>
    b056:	e8 85 74 ff ff       	call   24e0 <__stack_chk_fail@plt>
    b05b:	c9                   	leave  
    b05c:	c3                   	ret    
    b05d:	90                   	nop

000000000000b05e <_ZNKSt6vectorIiSaIiEE8max_sizeEv>:
    b05e:	f3 0f 1e fa          	endbr64 
    b062:	55                   	push   %rbp
    b063:	48 89 e5             	mov    %rsp,%rbp
    b066:	48 83 ec 10          	sub    $0x10,%rsp
    b06a:	48 89 7d f8          	mov    %rdi,-0x8(%rbp)
    b06e:	48 8b 45 f8          	mov    -0x8(%rbp),%rax
    b072:	48 89 c7             	mov    %rax,%rdi
    b075:	e8 4c 03 00 00       	call   b3c6 <_ZNKSt12_Vector_baseIiSaIiEE19_M_get_Tp_allocatorEv>
    b07a:	48 89 c7             	mov    %rax,%rdi
    b07d:	e8 db 02 00 00       	call   b35d <_ZNSt6vectorIiSaIiEE11_S_max_sizeERKS0_>
    b082:	c9                   	leave  
    b083:	c3                   	ret    

000000000000b084 <_ZNKSt6vectorIiSaIiEE4sizeEv>:
    b084:	f3 0f 1e fa          	endbr64 
    b088:	55                   	push   %rbp
    b089:	48 89 e5             	mov    %rsp,%rbp
    b08c:	48 89 7d f8          	mov    %rdi,-0x8(%rbp)
    b090:	48 8b 45 f8          	mov    -0x8(%rbp),%rax
    b094:	48 8b 50 08          	mov    0x8(%rax),%rdx
    b098:	48 8b 45 f8          	mov    -0x8(%rbp),%rax
    b09c:	48 8b 08             	mov    (%rax),%rcx
    b09f:	48 89 d0             	mov    %rdx,%rax
    b0a2:	48 29 c8             	sub    %rcx,%rax
    b0a5:	48 c1 f8 02          	sar    $0x2,%rax
    b0a9:	5d                   	pop    %rbp
    b0aa:	c3                   	ret    

000000000000b0ab <_ZNSt16allocator_traitsISaIiEE8allocateERS0_m>:
    b0ab:	f3 0f 1e fa          	endbr64 
    b0af:	55                   	push   %rbp
    b0b0:	48 89 e5             	mov    %rsp,%rbp
    b0b3:	48 83 ec 10          	sub    $0x10,%rsp
    b0b7:	48 89 7d f8          	mov    %rdi,-0x8(%rbp)
    b0bb:	48 89 75 f0          	mov    %rsi,-0x10(%rbp)
    b0bf:	48 8b 4d f0          	mov    -0x10(%rbp),%rcx
    b0c3:	48 8b 45 f8          	mov    -0x8(%rbp),%rax
    b0c7:	ba 00 00 00 00       	mov    $0x0,%edx
    b0cc:	48 89 ce             	mov    %rcx,%rsi
    b0cf:	48 89 c7             	mov    %rax,%rdi
    b0d2:	e8 19 03 00 00       	call   b3f0 <_ZN9__gnu_cxx13new_allocatorIiE8allocateEmPKv>
    b0d7:	c9                   	leave  
    b0d8:	c3                   	ret    

000000000000b0d9 <_ZNSt6vectorIiSaIiEE14_S_do_relocateEPiS2_S2_RS0_St17integral_constantIbLb1EE>:
    b0d9:	f3 0f 1e fa          	endbr64 
    b0dd:	55                   	push   %rbp
    b0de:	48 89 e5             	mov    %rsp,%rbp
    b0e1:	48 83 ec 20          	sub    $0x20,%rsp
    b0e5:	48 89 7d f8          	mov    %rdi,-0x8(%rbp)
    b0e9:	48 89 75 f0          	mov    %rsi,-0x10(%rbp)
    b0ed:	48 89 55 e8          	mov    %rdx,-0x18(%rbp)
    b0f1:	48 89 4d e0          	mov    %rcx,-0x20(%rbp)
    b0f5:	48 8b 4d e0          	mov    -0x20(%rbp),%rcx
    b0f9:	48 8b 55 e8          	mov    -0x18(%rbp),%rdx
    b0fd:	48 8b 75 f0          	mov    -0x10(%rbp),%rsi
    b101:	48 8b 45 f8          	mov    -0x8(%rbp),%rax
    b105:	48 89 c7             	mov    %rax,%rdi
    b108:	e8 48 03 00 00       	call   b455 <_ZSt12__relocate_aIPiS0_SaIiEET0_T_S3_S2_RT1_>
    b10d:	c9                   	leave  
    b10e:	c3                   	ret    

000000000000b10f <_ZSt11__make_heapIPeN9__gnu_cxx5__ops15_Iter_less_iterEEvT_S4_RT0_>:
    b10f:	f3 0f 1e fa          	endbr64 
    b113:	55                   	push   %rbp
    b114:	48 89 e5             	mov    %rsp,%rbp
    b117:	48 83 ec 50          	sub    $0x50,%rsp
    b11b:	48 89 7d c8          	mov    %rdi,-0x38(%rbp)
    b11f:	48 89 75 c0          	mov    %rsi,-0x40(%rbp)
    b123:	48 89 55 b8          	mov    %rdx,-0x48(%rbp)
    b127:	64 48 8b 04 25 28 00 	mov    %fs:0x28,%rax
    b12e:	00 00 
    b130:	48 89 45 f8          	mov    %rax,-0x8(%rbp)
    b134:	31 c0                	xor    %eax,%eax
    b136:	48 8b 45 c0          	mov    -0x40(%rbp),%rax
    b13a:	48 2b 45 c8          	sub    -0x38(%rbp),%rax
    b13e:	48 83 f8 10          	cmp    $0x10,%rax
    b142:	0f 8e 87 00 00 00    	jle    b1cf <_ZSt11__make_heapIPeN9__gnu_cxx5__ops15_Iter_less_iterEEvT_S4_RT0_+0xc0>
    b148:	48 8b 45 c0          	mov    -0x40(%rbp),%rax
    b14c:	48 2b 45 c8          	sub    -0x38(%rbp),%rax
    b150:	48 c1 f8 04          	sar    $0x4,%rax
    b154:	48 89 45 d8          	mov    %rax,-0x28(%rbp)
    b158:	48 8b 45 d8          	mov    -0x28(%rbp),%rax
    b15c:	48 83 e8 02          	sub    $0x2,%rax
    b160:	48 89 c2             	mov    %rax,%rdx
    b163:	48 c1 ea 3f          	shr    $0x3f,%rdx
    b167:	48 01 d0             	add    %rdx,%rax
    b16a:	48 d1 f8             	sar    %rax
    b16d:	48 89 45 d0          	mov    %rax,-0x30(%rbp)
    b171:	48 8b 45 d0          	mov    -0x30(%rbp),%rax
    b175:	48 c1 e0 04          	shl    $0x4,%rax
    b179:	48 89 c2             	mov    %rax,%rdx
    b17c:	48 8b 45 c8          	mov    -0x38(%rbp),%rax
    b180:	48 01 d0             	add    %rdx,%rax
    b183:	48 89 c7             	mov    %rax,%rdi
    b186:	e8 cb fd ff ff       	call   af56 <_ZSt4moveIReEONSt16remove_referenceIT_E4typeEOS2_>
    b18b:	db 28                	fldt   (%rax)
    b18d:	db 7d e0             	fstpt  -0x20(%rbp)
    b190:	48 8d 45 e0          	lea    -0x20(%rbp),%rax
    b194:	48 89 c7             	mov    %rax,%rdi
    b197:	e8 ba fd ff ff       	call   af56 <_ZSt4moveIReEONSt16remove_referenceIT_E4typeEOS2_>
    b19c:	db 28                	fldt   (%rax)
    b19e:	48 8b 55 d8          	mov    -0x28(%rbp),%rdx
    b1a2:	48 8b 4d d0          	mov    -0x30(%rbp),%rcx
    b1a6:	48 8b 45 c8          	mov    -0x38(%rbp),%rax
    b1aa:	48 8d 64 24 f0       	lea    -0x10(%rsp),%rsp
    b1af:	db 3c 24             	fstpt  (%rsp)
    b1b2:	48 89 ce             	mov    %rcx,%rsi
    b1b5:	48 89 c7             	mov    %rax,%rdi
    b1b8:	e8 ff 02 00 00       	call   b4bc <_ZSt13__adjust_heapIPeleN9__gnu_cxx5__ops15_Iter_less_iterEEvT_T0_S5_T1_T2_>
    b1bd:	48 83 c4 10          	add    $0x10,%rsp
    b1c1:	48 83 7d d0 00       	cmpq   $0x0,-0x30(%rbp)
    b1c6:	74 0a                	je     b1d2 <_ZSt11__make_heapIPeN9__gnu_cxx5__ops15_Iter_less_iterEEvT_S4_RT0_+0xc3>
    b1c8:	48 83 6d d0 01       	subq   $0x1,-0x30(%rbp)
    b1cd:	eb a2                	jmp    b171 <_ZSt11__make_heapIPeN9__gnu_cxx5__ops15_Iter_less_iterEEvT_S4_RT0_+0x62>
    b1cf:	90                   	nop
    b1d0:	eb 01                	jmp    b1d3 <_ZSt11__make_heapIPeN9__gnu_cxx5__ops15_Iter_less_iterEEvT_S4_RT0_+0xc4>
    b1d2:	90                   	nop
    b1d3:	48 8b 45 f8          	mov    -0x8(%rbp),%rax
    b1d7:	64 48 2b 04 25 28 00 	sub    %fs:0x28,%rax
    b1de:	00 00 
    b1e0:	74 05                	je     b1e7 <_ZSt11__make_heapIPeN9__gnu_cxx5__ops15_Iter_less_iterEEvT_S4_RT0_+0xd8>
    b1e2:	e8 f9 72 ff ff       	call   24e0 <__stack_chk_fail@plt>
    b1e7:	c9                   	leave  
    b1e8:	c3                   	ret    

000000000000b1e9 <_ZSt10__pop_heapIPeN9__gnu_cxx5__ops15_Iter_less_iterEEvT_S4_S4_RT0_>:
    b1e9:	f3 0f 1e fa          	endbr64 
    b1ed:	55                   	push   %rbp
    b1ee:	48 89 e5             	mov    %rsp,%rbp
    b1f1:	48 83 ec 40          	sub    $0x40,%rsp
    b1f5:	48 89 7d d8          	mov    %rdi,-0x28(%rbp)
    b1f9:	48 89 75 d0          	mov    %rsi,-0x30(%rbp)
    b1fd:	48 89 55 c8          	mov    %rdx,-0x38(%rbp)
    b201:	48 89 4d c0          	mov    %rcx,-0x40(%rbp)
    b205:	64 48 8b 04 25 28 00 	mov    %fs:0x28,%rax
    b20c:	00 00 
    b20e:	48 89 45 f8          	mov    %rax,-0x8(%rbp)
    b212:	31 c0                	xor    %eax,%eax
    b214:	48 8b 45 c8          	mov    -0x38(%rbp),%rax
    b218:	48 89 c7             	mov    %rax,%rdi
    b21b:	e8 36 fd ff ff       	call   af56 <_ZSt4moveIReEONSt16remove_referenceIT_E4typeEOS2_>
    b220:	db 28                	fldt   (%rax)
    b222:	db 7d e0             	fstpt  -0x20(%rbp)
    b225:	48 8b 45 d8          	mov    -0x28(%rbp),%rax
    b229:	48 89 c7             	mov    %rax,%rdi
    b22c:	e8 25 fd ff ff       	call   af56 <_ZSt4moveIReEONSt16remove_referenceIT_E4typeEOS2_>
    b231:	db 28                	fldt   (%rax)
    b233:	48 8b 45 c8          	mov    -0x38(%rbp),%rax
    b237:	db 38                	fstpt  (%rax)
    b239:	48 8d 45 e0          	lea    -0x20(%rbp),%rax
    b23d:	48 89 c7             	mov    %rax,%rdi
    b240:	e8 11 fd ff ff       	call   af56 <_ZSt4moveIReEONSt16remove_referenceIT_E4typeEOS2_>
    b245:	db 28                	fldt   (%rax)
    b247:	48 8b 45 d0          	mov    -0x30(%rbp),%rax
    b24b:	48 2b 45 d8          	sub    -0x28(%rbp),%rax
    b24f:	48 c1 f8 04          	sar    $0x4,%rax
    b253:	48 89 c2             	mov    %rax,%rdx
    b256:	48 8b 45 d8          	mov    -0x28(%rbp),%rax
    b25a:	48 8d 64 24 f0       	lea    -0x10(%rsp),%rsp
    b25f:	db 3c 24             	fstpt  (%rsp)
    b262:	be 00 00 00 00       	mov    $0x0,%esi
    b267:	48 89 c7             	mov    %rax,%rdi
    b26a:	e8 4d 02 00 00       	call   b4bc <_ZSt13__adjust_heapIPeleN9__gnu_cxx5__ops15_Iter_less_iterEEvT_T0_S5_T1_T2_>
    b26f:	48 83 c4 10          	add    $0x10,%rsp
    b273:	90                   	nop
    b274:	48 8b 45 f8          	mov    -0x8(%rbp),%rax
    b278:	64 48 2b 04 25 28 00 	sub    %fs:0x28,%rax
    b27f:	00 00 
    b281:	74 05                	je     b288 <_ZSt10__pop_heapIPeN9__gnu_cxx5__ops15_Iter_less_iterEEvT_S4_S4_RT0_+0x9f>
    b283:	e8 58 72 ff ff       	call   24e0 <__stack_chk_fail@plt>
    b288:	c9                   	leave  
    b289:	c3                   	ret    

000000000000b28a <_ZSt9iter_swapIPeS0_EvT_T0_>:
    b28a:	f3 0f 1e fa          	endbr64 
    b28e:	55                   	push   %rbp
    b28f:	48 89 e5             	mov    %rsp,%rbp
    b292:	48 83 ec 10          	sub    $0x10,%rsp
    b296:	48 89 7d f8          	mov    %rdi,-0x8(%rbp)
    b29a:	48 89 75 f0          	mov    %rsi,-0x10(%rbp)
    b29e:	48 8b 55 f0          	mov    -0x10(%rbp),%rdx
    b2a2:	48 8b 45 f8          	mov    -0x8(%rbp),%rax
    b2a6:	48 89 d6             	mov    %rdx,%rsi
    b2a9:	48 89 c7             	mov    %rax,%rdi
    b2ac:	e8 bb 03 00 00       	call   b66c <_ZSt4swapIeENSt9enable_ifIXsrSt6__and_IJSt6__not_ISt15__is_tuple_likeIT_EESt21is_move_constructibleIS4_ESt18is_move_assignableIS4_EEE5valueEvE4typeERS4_SE_>
    b2b1:	90                   	nop
    b2b2:	c9                   	leave  
    b2b3:	c3                   	ret    

000000000000b2b4 <_ZSt12__miter_baseIPeET_S1_>:
    b2b4:	f3 0f 1e fa          	endbr64 
    b2b8:	55                   	push   %rbp
    b2b9:	48 89 e5             	mov    %rsp,%rbp
    b2bc:	48 89 7d f8          	mov    %rdi,-0x8(%rbp)
    b2c0:	48 8b 45 f8          	mov    -0x8(%rbp),%rax
    b2c4:	5d                   	pop    %rbp
    b2c5:	c3                   	ret    

000000000000b2c6 <_ZSt22__copy_move_backward_aILb1EPeS0_ET1_T0_S2_S1_>:
    b2c6:	f3 0f 1e fa          	endbr64 
    b2ca:	55                   	push   %rbp
    b2cb:	48 89 e5             	mov    %rsp,%rbp
    b2ce:	41 54                	push   %r12
    b2d0:	53                   	push   %rbx
    b2d1:	48 83 ec 20          	sub    $0x20,%rsp
    b2d5:	48 89 7d e8          	mov    %rdi,-0x18(%rbp)
    b2d9:	48 89 75 e0          	mov    %rsi,-0x20(%rbp)
    b2dd:	48 89 55 d8          	mov    %rdx,-0x28(%rbp)
    b2e1:	48 8b 45 d8          	mov    -0x28(%rbp),%rax
    b2e5:	48 89 c7             	mov    %rax,%rdi
    b2e8:	e8 f2 03 00 00       	call   b6df <_ZSt12__niter_baseIPeET_S1_>
    b2ed:	49 89 c4             	mov    %rax,%r12
    b2f0:	48 8b 45 e0          	mov    -0x20(%rbp),%rax
    b2f4:	48 89 c7             	mov    %rax,%rdi
    b2f7:	e8 e3 03 00 00       	call   b6df <_ZSt12__niter_baseIPeET_S1_>
    b2fc:	48 89 c3             	mov    %rax,%rbx
    b2ff:	48 8b 45 e8          	mov    -0x18(%rbp),%rax
    b303:	48 89 c7             	mov    %rax,%rdi
    b306:	e8 d4 03 00 00       	call   b6df <_ZSt12__niter_baseIPeET_S1_>
    b30b:	4c 89 e2             	mov    %r12,%rdx
    b30e:	48 89 de             	mov    %rbx,%rsi
    b311:	48 89 c7             	mov    %rax,%rdi
    b314:	e8 d8 03 00 00       	call   b6f1 <_ZSt23__copy_move_backward_a1ILb1EPeS0_ET1_T0_S2_S1_>
    b319:	48 89 c2             	mov    %rax,%rdx
    b31c:	48 8d 45 d8          	lea    -0x28(%rbp),%rax
    b320:	48 89 d6             	mov    %rdx,%rsi
    b323:	48 89 c7             	mov    %rax,%rdi
    b326:	e8 f7 03 00 00       	call   b722 <_ZSt12__niter_wrapIPeET_RKS1_S1_>
    b32b:	48 83 c4 20          	add    $0x20,%rsp
    b32f:	5b                   	pop    %rbx
    b330:	41 5c                	pop    %r12
    b332:	5d                   	pop    %rbp
    b333:	c3                   	ret    

000000000000b334 <_ZNK9__gnu_cxx5__ops14_Val_less_iterclIePeEEbRT_T0_>:
    b334:	f3 0f 1e fa          	endbr64 
    b338:	55                   	push   %rbp
    b339:	48 89 e5             	mov    %rsp,%rbp
    b33c:	48 89 7d f8          	mov    %rdi,-0x8(%rbp)
    b340:	48 89 75 f0          	mov    %rsi,-0x10(%rbp)
    b344:	48 89 55 e8          	mov    %rdx,-0x18(%rbp)
    b348:	48 8b 45 f0          	mov    -0x10(%rbp),%rax
    b34c:	db 28                	fldt   (%rax)
    b34e:	48 8b 45 e8          	mov    -0x18(%rbp),%rax
    b352:	db 28                	fldt   (%rax)
    b354:	df f1                	fcomip %st(1),%st
    b356:	dd d8                	fstp   %st(0)
    b358:	0f 97 c0             	seta   %al
    b35b:	5d                   	pop    %rbp
    b35c:	c3                   	ret    

000000000000b35d <_ZNSt6vectorIiSaIiEE11_S_max_sizeERKS0_>:
    b35d:	f3 0f 1e fa          	endbr64 
    b361:	55                   	push   %rbp
    b362:	48 89 e5             	mov    %rsp,%rbp
    b365:	48 83 ec 30          	sub    $0x30,%rsp
    b369:	48 89 7d d8          	mov    %rdi,-0x28(%rbp)
    b36d:	64 48 8b 04 25 28 00 	mov    %fs:0x28,%rax
    b374:	00 00 
    b376:	48 89 45 f8          	mov    %rax,-0x8(%rbp)
    b37a:	31 c0                	xor    %eax,%eax
    b37c:	48 b8 ff ff ff ff ff 	movabs $0x1fffffffffffffff,%rax
    b383:	ff ff 1f 
    b386:	48 89 45 e8          	mov    %rax,-0x18(%rbp)
    b38a:	48 8b 45 d8          	mov    -0x28(%rbp),%rax
    b38e:	48 89 c7             	mov    %rax,%rdi
    b391:	e8 a2 03 00 00       	call   b738 <_ZNSt16allocator_traitsISaIiEE8max_sizeERKS0_>
    b396:	48 89 45 f0          	mov    %rax,-0x10(%rbp)
    b39a:	48 8d 55 f0          	lea    -0x10(%rbp),%rdx
    b39e:	48 8d 45 e8          	lea    -0x18(%rbp),%rax
    b3a2:	48 89 d6             	mov    %rdx,%rsi
    b3a5:	48 89 c7             	mov    %rax,%rdi
    b3a8:	e8 fe de ff ff       	call   92ab <_ZSt3minImERKT_S2_S2_>
    b3ad:	48 8b 00             	mov    (%rax),%rax
    b3b0:	48 8b 55 f8          	mov    -0x8(%rbp),%rdx
    b3b4:	64 48 2b 14 25 28 00 	sub    %fs:0x28,%rdx
    b3bb:	00 00 
    b3bd:	74 05                	je     b3c4 <_ZNSt6vectorIiSaIiEE11_S_max_sizeERKS0_+0x67>
    b3bf:	e8 1c 71 ff ff       	call   24e0 <__stack_chk_fail@plt>
    b3c4:	c9                   	leave  
    b3c5:	c3                   	ret    

000000000000b3c6 <_ZNKSt12_Vector_baseIiSaIiEE19_M_get_Tp_allocatorEv>:
    b3c6:	f3 0f 1e fa          	endbr64 
    b3ca:	55                   	push   %rbp
    b3cb:	48 89 e5             	mov    %rsp,%rbp
    b3ce:	48 89 7d f8          	mov    %rdi,-0x8(%rbp)
    b3d2:	48 8b 45 f8          	mov    -0x8(%rbp),%rax
    b3d6:	5d                   	pop    %rbp
    b3d7:	c3                   	ret    

000000000000b3d8 <_ZNK9__gnu_cxx13new_allocatorIiE11_M_max_sizeEv>:
    b3d8:	f3 0f 1e fa          	endbr64 
    b3dc:	55                   	push   %rbp
    b3dd:	48 89 e5             	mov    %rsp,%rbp
    b3e0:	48 89 7d f8          	mov    %rdi,-0x8(%rbp)
    b3e4:	48 b8 ff ff ff ff ff 	movabs $0x1fffffffffffffff,%rax
    b3eb:	ff ff 1f 
    b3ee:	5d                   	pop    %rbp
    b3ef:	c3                   	ret    

000000000000b3f0 <_ZN9__gnu_cxx13new_allocatorIiE8allocateEmPKv>:
    b3f0:	f3 0f 1e fa          	endbr64 
    b3f4:	55                   	push   %rbp
    b3f5:	48 89 e5             	mov    %rsp,%rbp
    b3f8:	48 83 ec 20          	sub    $0x20,%rsp
    b3fc:	48 89 7d f8          	mov    %rdi,-0x8(%rbp)
    b400:	48 89 75 f0          	mov    %rsi,-0x10(%rbp)
    b404:	48 89 55 e8          	mov    %rdx,-0x18(%rbp)
    b408:	48 8b 45 f8          	mov    -0x8(%rbp),%rax
    b40c:	48 89 c7             	mov    %rax,%rdi
    b40f:	e8 c4 ff ff ff       	call   b3d8 <_ZNK9__gnu_cxx13new_allocatorIiE11_M_max_sizeEv>
    b414:	48 39 45 f0          	cmp    %rax,-0x10(%rbp)
    b418:	0f 97 c0             	seta   %al
    b41b:	0f b6 c0             	movzbl %al,%eax
    b41e:	48 85 c0             	test   %rax,%rax
    b421:	0f 95 c0             	setne  %al
    b424:	84 c0                	test   %al,%al
    b426:	74 1a                	je     b442 <_ZN9__gnu_cxx13new_allocatorIiE8allocateEmPKv+0x52>
    b428:	48 b8 ff ff ff ff ff 	movabs $0x3fffffffffffffff,%rax
    b42f:	ff ff 3f 
    b432:	48 39 45 f0          	cmp    %rax,-0x10(%rbp)
    b436:	76 05                	jbe    b43d <_ZN9__gnu_cxx13new_allocatorIiE8allocateEmPKv+0x4d>
    b438:	e8 e3 6f ff ff       	call   2420 <_ZSt28__throw_bad_array_new_lengthv@plt>
    b43d:	e8 7e 6f ff ff       	call   23c0 <_ZSt17__throw_bad_allocv@plt>
    b442:	48 8b 45 f0          	mov    -0x10(%rbp),%rax
    b446:	48 c1 e0 02          	shl    $0x2,%rax
    b44a:	48 89 c7             	mov    %rax,%rdi
    b44d:	e8 4e 70 ff ff       	call   24a0 <_Znwm@plt>
    b452:	90                   	nop
    b453:	c9                   	leave  
    b454:	c3                   	ret    

000000000000b455 <_ZSt12__relocate_aIPiS0_SaIiEET0_T_S3_S2_RT1_>:
    b455:	f3 0f 1e fa          	endbr64 
    b459:	55                   	push   %rbp
    b45a:	48 89 e5             	mov    %rsp,%rbp
    b45d:	41 54                	push   %r12
    b45f:	53                   	push   %rbx
    b460:	48 83 ec 20          	sub    $0x20,%rsp
    b464:	48 89 7d e8          	mov    %rdi,-0x18(%rbp)
    b468:	48 89 75 e0          	mov    %rsi,-0x20(%rbp)
    b46c:	48 89 55 d8          	mov    %rdx,-0x28(%rbp)
    b470:	48 89 4d d0          	mov    %rcx,-0x30(%rbp)
    b474:	48 8b 45 d8          	mov    -0x28(%rbp),%rax
    b478:	48 89 c7             	mov    %rax,%rdi
    b47b:	e8 d6 02 00 00       	call   b756 <_ZSt12__niter_baseIPiET_S1_>
    b480:	49 89 c4             	mov    %rax,%r12
    b483:	48 8b 45 e0          	mov    -0x20(%rbp),%rax
    b487:	48 89 c7             	mov    %rax,%rdi
    b48a:	e8 c7 02 00 00       	call   b756 <_ZSt12__niter_baseIPiET_S1_>
    b48f:	48 89 c3             	mov    %rax,%rbx
    b492:	48 8b 45 e8          	mov    -0x18(%rbp),%rax
    b496:	48 89 c7             	mov    %rax,%rdi
    b499:	e8 b8 02 00 00       	call   b756 <_ZSt12__niter_baseIPiET_S1_>
    b49e:	48 89 c7             	mov    %rax,%rdi
    b4a1:	48 8b 45 d0          	mov    -0x30(%rbp),%rax
    b4a5:	48 89 c1             	mov    %rax,%rcx
    b4a8:	4c 89 e2             	mov    %r12,%rdx
    b4ab:	48 89 de             	mov    %rbx,%rsi
    b4ae:	e8 b5 02 00 00       	call   b768 <_ZSt14__relocate_a_1IiiENSt9enable_ifIXsrSt24__is_bitwise_relocatableIT_vE5valueEPS2_E4typeES4_S4_S4_RSaIT0_E>
    b4b3:	48 83 c4 20          	add    $0x20,%rsp
    b4b7:	5b                   	pop    %rbx
    b4b8:	41 5c                	pop    %r12
    b4ba:	5d                   	pop    %rbp
    b4bb:	c3                   	ret    

000000000000b4bc <_ZSt13__adjust_heapIPeleN9__gnu_cxx5__ops15_Iter_less_iterEEvT_T0_S5_T1_T2_>:
    b4bc:	f3 0f 1e fa          	endbr64 
    b4c0:	55                   	push   %rbp
    b4c1:	48 89 e5             	mov    %rsp,%rbp
    b4c4:	48 83 ec 40          	sub    $0x40,%rsp
    b4c8:	48 89 7d d8          	mov    %rdi,-0x28(%rbp)
    b4cc:	48 89 75 d0          	mov    %rsi,-0x30(%rbp)
    b4d0:	48 89 55 c8          	mov    %rdx,-0x38(%rbp)
    b4d4:	64 48 8b 04 25 28 00 	mov    %fs:0x28,%rax
    b4db:	00 00 
    b4dd:	48 89 45 f8          	mov    %rax,-0x8(%rbp)
    b4e1:	31 c0                	xor    %eax,%eax
    b4e3:	48 8b 45 d0          	mov    -0x30(%rbp),%rax
    b4e7:	48 89 45 f0          	mov    %rax,-0x10(%rbp)
    b4eb:	48 8b 45 d0          	mov    -0x30(%rbp),%rax
    b4ef:	48 89 45 e8          	mov    %rax,-0x18(%rbp)
    b4f3:	e9 84 00 00 00       	jmp    b57c <_ZSt13__adjust_heapIPeleN9__gnu_cxx5__ops15_Iter_less_iterEEvT_T0_S5_T1_T2_+0xc0>
    b4f8:	48 8b 45 e8          	mov    -0x18(%rbp),%rax
    b4fc:	48 83 c0 01          	add    $0x1,%rax
    b500:	48 01 c0             	add    %rax,%rax
    b503:	48 89 45 e8          	mov    %rax,-0x18(%rbp)
    b507:	48 8b 45 e8          	mov    -0x18(%rbp),%rax
    b50b:	48 c1 e0 04          	shl    $0x4,%rax
    b50f:	48 8d 50 f0          	lea    -0x10(%rax),%rdx
    b513:	48 8b 45 d8          	mov    -0x28(%rbp),%rax
    b517:	48 01 c2             	add    %rax,%rdx
    b51a:	48 8b 45 e8          	mov    -0x18(%rbp),%rax
    b51e:	48 c1 e0 04          	shl    $0x4,%rax
    b522:	48 89 c1             	mov    %rax,%rcx
    b525:	48 8b 45 d8          	mov    -0x28(%rbp),%rax
    b529:	48 01 c1             	add    %rax,%rcx
    b52c:	48 8d 45 c7          	lea    -0x39(%rbp),%rax
    b530:	48 89 ce             	mov    %rcx,%rsi
    b533:	48 89 c7             	mov    %rax,%rdi
    b536:	e8 3d f8 ff ff       	call   ad78 <_ZNK9__gnu_cxx5__ops15_Iter_less_iterclIPeS3_EEbT_T0_>
    b53b:	84 c0                	test   %al,%al
    b53d:	74 05                	je     b544 <_ZSt13__adjust_heapIPeleN9__gnu_cxx5__ops15_Iter_less_iterEEvT_T0_S5_T1_T2_+0x88>
    b53f:	48 83 6d e8 01       	subq   $0x1,-0x18(%rbp)
    b544:	48 8b 45 e8          	mov    -0x18(%rbp),%rax
    b548:	48 c1 e0 04          	shl    $0x4,%rax
    b54c:	48 89 c2             	mov    %rax,%rdx
    b54f:	48 8b 45 d8          	mov    -0x28(%rbp),%rax
    b553:	48 01 d0             	add    %rdx,%rax
    b556:	48 89 c7             	mov    %rax,%rdi
    b559:	e8 f8 f9 ff ff       	call   af56 <_ZSt4moveIReEONSt16remove_referenceIT_E4typeEOS2_>
    b55e:	48 8b 55 d0          	mov    -0x30(%rbp),%rdx
    b562:	48 89 d1             	mov    %rdx,%rcx
    b565:	48 c1 e1 04          	shl    $0x4,%rcx
    b569:	48 8b 55 d8          	mov    -0x28(%rbp),%rdx
    b56d:	48 01 ca             	add    %rcx,%rdx
    b570:	db 28                	fldt   (%rax)
    b572:	db 3a                	fstpt  (%rdx)
    b574:	48 8b 45 e8          	mov    -0x18(%rbp),%rax
    b578:	48 89 45 d0          	mov    %rax,-0x30(%rbp)
    b57c:	48 8b 45 c8          	mov    -0x38(%rbp),%rax
    b580:	48 83 e8 01          	sub    $0x1,%rax
    b584:	48 89 c2             	mov    %rax,%rdx
    b587:	48 c1 ea 3f          	shr    $0x3f,%rdx
    b58b:	48 01 d0             	add    %rdx,%rax
    b58e:	48 d1 f8             	sar    %rax
    b591:	48 39 45 e8          	cmp    %rax,-0x18(%rbp)
    b595:	0f 8c 5d ff ff ff    	jl     b4f8 <_ZSt13__adjust_heapIPeleN9__gnu_cxx5__ops15_Iter_less_iterEEvT_T0_S5_T1_T2_+0x3c>
    b59b:	48 8b 45 c8          	mov    -0x38(%rbp),%rax
    b59f:	83 e0 01             	and    $0x1,%eax
    b5a2:	48 85 c0             	test   %rax,%rax
    b5a5:	75 67                	jne    b60e <_ZSt13__adjust_heapIPeleN9__gnu_cxx5__ops15_Iter_less_iterEEvT_T0_S5_T1_T2_+0x152>
    b5a7:	48 8b 45 c8          	mov    -0x38(%rbp),%rax
    b5ab:	48 83 e8 02          	sub    $0x2,%rax
    b5af:	48 89 c2             	mov    %rax,%rdx
    b5b2:	48 c1 ea 3f          	shr    $0x3f,%rdx
    b5b6:	48 01 d0             	add    %rdx,%rax
    b5b9:	48 d1 f8             	sar    %rax
    b5bc:	48 39 45 e8          	cmp    %rax,-0x18(%rbp)
    b5c0:	75 4c                	jne    b60e <_ZSt13__adjust_heapIPeleN9__gnu_cxx5__ops15_Iter_less_iterEEvT_T0_S5_T1_T2_+0x152>
    b5c2:	48 8b 45 e8          	mov    -0x18(%rbp),%rax
    b5c6:	48 83 c0 01          	add    $0x1,%rax
    b5ca:	48 01 c0             	add    %rax,%rax
    b5cd:	48 89 45 e8          	mov    %rax,-0x18(%rbp)
    b5d1:	48 8b 45 e8          	mov    -0x18(%rbp),%rax
    b5d5:	48 c1 e0 04          	shl    $0x4,%rax
    b5d9:	48 8d 50 f0          	lea    -0x10(%rax),%rdx
    b5dd:	48 8b 45 d8          	mov    -0x28(%rbp),%rax
    b5e1:	48 01 d0             	add    %rdx,%rax
    b5e4:	48 89 c7             	mov    %rax,%rdi
    b5e7:	e8 6a f9 ff ff       	call   af56 <_ZSt4moveIReEONSt16remove_referenceIT_E4typeEOS2_>
    b5ec:	48 8b 55 d0          	mov    -0x30(%rbp),%rdx
    b5f0:	48 89 d1             	mov    %rdx,%rcx
    b5f3:	48 c1 e1 04          	shl    $0x4,%rcx
    b5f7:	48 8b 55 d8          	mov    -0x28(%rbp),%rdx
    b5fb:	48 01 ca             	add    %rcx,%rdx
    b5fe:	db 28                	fldt   (%rax)
    b600:	db 3a                	fstpt  (%rdx)
    b602:	48 8b 45 e8          	mov    -0x18(%rbp),%rax
    b606:	48 83 e8 01          	sub    $0x1,%rax
    b60a:	48 89 45 d0          	mov    %rax,-0x30(%rbp)
    b60e:	48 8d 45 c7          	lea    -0x39(%rbp),%rax
    b612:	48 89 c7             	mov    %rax,%rdi
    b615:	e8 b5 01 00 00       	call   b7cf <_ZSt4moveIRN9__gnu_cxx5__ops15_Iter_less_iterEEONSt16remove_referenceIT_E4typeEOS5_>
    b61a:	48 8d 45 e7          	lea    -0x19(%rbp),%rax
    b61e:	48 89 c7             	mov    %rax,%rdi
    b621:	e8 9e db ff ff       	call   91c4 <_ZN9__gnu_cxx5__ops14_Iter_less_valC1ENS0_15_Iter_less_iterE>
    b626:	48 8d 7d 10          	lea    0x10(%rbp),%rdi
    b62a:	e8 27 f9 ff ff       	call   af56 <_ZSt4moveIReEONSt16remove_referenceIT_E4typeEOS2_>
    b62f:	db 28                	fldt   (%rax)
    b631:	48 8d 4d e7          	lea    -0x19(%rbp),%rcx
    b635:	48 8b 55 f0          	mov    -0x10(%rbp),%rdx
    b639:	48 8b 75 d0          	mov    -0x30(%rbp),%rsi
    b63d:	48 8b 45 d8          	mov    -0x28(%rbp),%rax
    b641:	48 8d 64 24 f0       	lea    -0x10(%rsp),%rsp
    b646:	db 3c 24             	fstpt  (%rsp)
    b649:	48 89 c7             	mov    %rax,%rdi
    b64c:	e8 90 01 00 00       	call   b7e1 <_ZSt11__push_heapIPeleN9__gnu_cxx5__ops14_Iter_less_valEEvT_T0_S5_T1_RT2_>
    b651:	48 83 c4 10          	add    $0x10,%rsp
    b655:	90                   	nop
    b656:	48 8b 45 f8          	mov    -0x8(%rbp),%rax
    b65a:	64 48 2b 04 25 28 00 	sub    %fs:0x28,%rax
    b661:	00 00 
    b663:	74 05                	je     b66a <_ZSt13__adjust_heapIPeleN9__gnu_cxx5__ops15_Iter_less_iterEEvT_T0_S5_T1_T2_+0x1ae>
    b665:	e8 76 6e ff ff       	call   24e0 <__stack_chk_fail@plt>
    b66a:	c9                   	leave  
    b66b:	c3                   	ret    

000000000000b66c <_ZSt4swapIeENSt9enable_ifIXsrSt6__and_IJSt6__not_ISt15__is_tuple_likeIT_EESt21is_move_constructibleIS4_ESt18is_move_assignableIS4_EEE5valueEvE4typeERS4_SE_>:
    b66c:	f3 0f 1e fa          	endbr64 
    b670:	55                   	push   %rbp
    b671:	48 89 e5             	mov    %rsp,%rbp
    b674:	48 83 ec 30          	sub    $0x30,%rsp
    b678:	48 89 7d d8          	mov    %rdi,-0x28(%rbp)
    b67c:	48 89 75 d0          	mov    %rsi,-0x30(%rbp)
    b680:	64 48 8b 04 25 28 00 	mov    %fs:0x28,%rax
    b687:	00 00 
    b689:	48 89 45 f8          	mov    %rax,-0x8(%rbp)
    b68d:	31 c0                	xor    %eax,%eax
    b68f:	48 8b 45 d8          	mov    -0x28(%rbp),%rax
    b693:	48 89 c7             	mov    %rax,%rdi
    b696:	e8 bb f8 ff ff       	call   af56 <_ZSt4moveIReEONSt16remove_referenceIT_E4typeEOS2_>
    b69b:	db 28                	fldt   (%rax)
    b69d:	db 7d e0             	fstpt  -0x20(%rbp)
    b6a0:	48 8b 45 d0          	mov    -0x30(%rbp),%rax
    b6a4:	48 89 c7             	mov    %rax,%rdi
    b6a7:	e8 aa f8 ff ff       	call   af56 <_ZSt4moveIReEONSt16remove_referenceIT_E4typeEOS2_>
    b6ac:	db 28                	fldt   (%rax)
    b6ae:	48 8b 45 d8          	mov    -0x28(%rbp),%rax
    b6b2:	db 38                	fstpt  (%rax)
    b6b4:	48 8d 45 e0          	lea    -0x20(%rbp),%rax
    b6b8:	48 89 c7             	mov    %rax,%rdi
    b6bb:	e8 96 f8 ff ff       	call   af56 <_ZSt4moveIReEONSt16remove_referenceIT_E4typeEOS2_>
    b6c0:	db 28                	fldt   (%rax)
    b6c2:	48 8b 45 d0          	mov    -0x30(%rbp),%rax
    b6c6:	db 38                	fstpt  (%rax)
    b6c8:	90                   	nop
    b6c9:	48 8b 45 f8          	mov    -0x8(%rbp),%rax
    b6cd:	64 48 2b 04 25 28 00 	sub    %fs:0x28,%rax
    b6d4:	00 00 
    b6d6:	74 05                	je     b6dd <_ZSt4swapIeENSt9enable_ifIXsrSt6__and_IJSt6__not_ISt15__is_tuple_likeIT_EESt21is_move_constructibleIS4_ESt18is_move_assignableIS4_EEE5valueEvE4typeERS4_SE_+0x71>
    b6d8:	e8 03 6e ff ff       	call   24e0 <__stack_chk_fail@plt>
    b6dd:	c9                   	leave  
    b6de:	c3                   	ret    

000000000000b6df <_ZSt12__niter_baseIPeET_S1_>:
    b6df:	f3 0f 1e fa          	endbr64 
    b6e3:	55                   	push   %rbp
    b6e4:	48 89 e5             	mov    %rsp,%rbp
    b6e7:	48 89 7d f8          	mov    %rdi,-0x8(%rbp)
    b6eb:	48 8b 45 f8          	mov    -0x8(%rbp),%rax
    b6ef:	5d                   	pop    %rbp
    b6f0:	c3                   	ret    

000000000000b6f1 <_ZSt23__copy_move_backward_a1ILb1EPeS0_ET1_T0_S2_S1_>:
    b6f1:	f3 0f 1e fa          	endbr64 
    b6f5:	55                   	push   %rbp
    b6f6:	48 89 e5             	mov    %rsp,%rbp
    b6f9:	48 83 ec 20          	sub    $0x20,%rsp
    b6fd:	48 89 7d f8          	mov    %rdi,-0x8(%rbp)
    b701:	48 89 75 f0          	mov    %rsi,-0x10(%rbp)
    b705:	48 89 55 e8          	mov    %rdx,-0x18(%rbp)
    b709:	48 8b 55 e8          	mov    -0x18(%rbp),%rdx
    b70d:	48 8b 4d f0          	mov    -0x10(%rbp),%rcx
    b711:	48 8b 45 f8          	mov    -0x8(%rbp),%rax
    b715:	48 89 ce             	mov    %rcx,%rsi
    b718:	48 89 c7             	mov    %rax,%rdi
    b71b:	e8 b3 01 00 00       	call   b8d3 <_ZSt23__copy_move_backward_a2ILb1EPeS0_ET1_T0_S2_S1_>
    b720:	c9                   	leave  
    b721:	c3                   	ret    

000000000000b722 <_ZSt12__niter_wrapIPeET_RKS1_S1_>:
    b722:	f3 0f 1e fa          	endbr64 
    b726:	55                   	push   %rbp
    b727:	48 89 e5             	mov    %rsp,%rbp
    b72a:	48 89 7d f8          	mov    %rdi,-0x8(%rbp)
    b72e:	48 89 75 f0          	mov    %rsi,-0x10(%rbp)
    b732:	48 8b 45 f0          	mov    -0x10(%rbp),%rax
    b736:	5d                   	pop    %rbp
    b737:	c3                   	ret    

000000000000b738 <_ZNSt16allocator_traitsISaIiEE8max_sizeERKS0_>:
    b738:	f3 0f 1e fa          	endbr64 
    b73c:	55                   	push   %rbp
    b73d:	48 89 e5             	mov    %rsp,%rbp
    b740:	48 83 ec 10          	sub    $0x10,%rsp
    b744:	48 89 7d f8          	mov    %rdi,-0x8(%rbp)
    b748:	48 8b 45 f8          	mov    -0x8(%rbp),%rax
    b74c:	48 89 c7             	mov    %rax,%rdi
    b74f:	e8 b0 01 00 00       	call   b904 <_ZNK9__gnu_cxx13new_allocatorIiE8max_sizeEv>
    b754:	c9                   	leave  
    b755:	c3                   	ret    

000000000000b756 <_ZSt12__niter_baseIPiET_S1_>:
    b756:	f3 0f 1e fa          	endbr64 
    b75a:	55                   	push   %rbp
    b75b:	48 89 e5             	mov    %rsp,%rbp
    b75e:	48 89 7d f8          	mov    %rdi,-0x8(%rbp)
    b762:	48 8b 45 f8          	mov    -0x8(%rbp),%rax
    b766:	5d                   	pop    %rbp
    b767:	c3                   	ret    

000000000000b768 <_ZSt14__relocate_a_1IiiENSt9enable_ifIXsrSt24__is_bitwise_relocatableIT_vE5valueEPS2_E4typeES4_S4_S4_RSaIT0_E>:
    b768:	f3 0f 1e fa          	endbr64 
    b76c:	55                   	push   %rbp
    b76d:	48 89 e5             	mov    %rsp,%rbp
    b770:	48 83 ec 30          	sub    $0x30,%rsp
    b774:	48 89 7d e8          	mov    %rdi,-0x18(%rbp)
    b778:	48 89 75 e0          	mov    %rsi,-0x20(%rbp)
    b77c:	48 89 55 d8          	mov    %rdx,-0x28(%rbp)
    b780:	48 89 4d d0          	mov    %rcx,-0x30(%rbp)
    b784:	48 8b 45 e0          	mov    -0x20(%rbp),%rax
    b788:	48 2b 45 e8          	sub    -0x18(%rbp),%rax
    b78c:	48 c1 f8 02          	sar    $0x2,%rax
    b790:	48 89 45 f8          	mov    %rax,-0x8(%rbp)
    b794:	48 83 7d f8 00       	cmpq   $0x0,-0x8(%rbp)
    b799:	7e 1f                	jle    b7ba <_ZSt14__relocate_a_1IiiENSt9enable_ifIXsrSt24__is_bitwise_relocatableIT_vE5valueEPS2_E4typeES4_S4_S4_RSaIT0_E+0x52>
    b79b:	48 8b 45 f8          	mov    -0x8(%rbp),%rax
    b79f:	48 8d 14 85 00 00 00 	lea    0x0(,%rax,4),%rdx
    b7a6:	00 
    b7a7:	48 8b 4d e8          	mov    -0x18(%rbp),%rcx
    b7ab:	48 8b 45 d8          	mov    -0x28(%rbp),%rax
    b7af:	48 89 ce             	mov    %rcx,%rsi
    b7b2:	48 89 c7             	mov    %rax,%rdi
    b7b5:	e8 f6 6d ff ff       	call   25b0 <memmove@plt>
    b7ba:	48 8b 45 f8          	mov    -0x8(%rbp),%rax
    b7be:	48 8d 14 85 00 00 00 	lea    0x0(,%rax,4),%rdx
    b7c5:	00 
    b7c6:	48 8b 45 d8          	mov    -0x28(%rbp),%rax
    b7ca:	48 01 d0             	add    %rdx,%rax
    b7cd:	c9                   	leave  
    b7ce:	c3                   	ret    

000000000000b7cf <_ZSt4moveIRN9__gnu_cxx5__ops15_Iter_less_iterEEONSt16remove_referenceIT_E4typeEOS5_>:
    b7cf:	f3 0f 1e fa          	endbr64 
    b7d3:	55                   	push   %rbp
    b7d4:	48 89 e5             	mov    %rsp,%rbp
    b7d7:	48 89 7d f8          	mov    %rdi,-0x8(%rbp)
    b7db:	48 8b 45 f8          	mov    -0x8(%rbp),%rax
    b7df:	5d                   	pop    %rbp
    b7e0:	c3                   	ret    

000000000000b7e1 <_ZSt11__push_heapIPeleN9__gnu_cxx5__ops14_Iter_less_valEEvT_T0_S5_T1_RT2_>:
    b7e1:	f3 0f 1e fa          	endbr64 
    b7e5:	55                   	push   %rbp
    b7e6:	48 89 e5             	mov    %rsp,%rbp
    b7e9:	48 83 ec 30          	sub    $0x30,%rsp
    b7ed:	48 89 7d e8          	mov    %rdi,-0x18(%rbp)
    b7f1:	48 89 75 e0          	mov    %rsi,-0x20(%rbp)
    b7f5:	48 89 55 d8          	mov    %rdx,-0x28(%rbp)
    b7f9:	48 89 4d d0          	mov    %rcx,-0x30(%rbp)
    b7fd:	48 8b 45 e0          	mov    -0x20(%rbp),%rax
    b801:	48 83 e8 01          	sub    $0x1,%rax
    b805:	48 89 c2             	mov    %rax,%rdx
    b808:	48 c1 ea 3f          	shr    $0x3f,%rdx
    b80c:	48 01 d0             	add    %rdx,%rax
    b80f:	48 d1 f8             	sar    %rax
    b812:	48 89 45 f8          	mov    %rax,-0x8(%rbp)
    b816:	eb 51                	jmp    b869 <_ZSt11__push_heapIPeleN9__gnu_cxx5__ops14_Iter_less_valEEvT_T0_S5_T1_RT2_+0x88>
    b818:	48 8b 45 f8          	mov    -0x8(%rbp),%rax
    b81c:	48 c1 e0 04          	shl    $0x4,%rax
    b820:	48 89 c2             	mov    %rax,%rdx
    b823:	48 8b 45 e8          	mov    -0x18(%rbp),%rax
    b827:	48 01 d0             	add    %rdx,%rax
    b82a:	48 89 c7             	mov    %rax,%rdi
    b82d:	e8 24 f7 ff ff       	call   af56 <_ZSt4moveIReEONSt16remove_referenceIT_E4typeEOS2_>
    b832:	48 8b 55 e0          	mov    -0x20(%rbp),%rdx
    b836:	48 89 d1             	mov    %rdx,%rcx
    b839:	48 c1 e1 04          	shl    $0x4,%rcx
    b83d:	48 8b 55 e8          	mov    -0x18(%rbp),%rdx
    b841:	48 01 ca             	add    %rcx,%rdx
    b844:	db 28                	fldt   (%rax)
    b846:	db 3a                	fstpt  (%rdx)
    b848:	48 8b 45 f8          	mov    -0x8(%rbp),%rax
    b84c:	48 89 45 e0          	mov    %rax,-0x20(%rbp)
    b850:	48 8b 45 e0          	mov    -0x20(%rbp),%rax
    b854:	48 83 e8 01          	sub    $0x1,%rax
    b858:	48 89 c2             	mov    %rax,%rdx
    b85b:	48 c1 ea 3f          	shr    $0x3f,%rdx
    b85f:	48 01 d0             	add    %rdx,%rax
    b862:	48 d1 f8             	sar    %rax
    b865:	48 89 45 f8          	mov    %rax,-0x8(%rbp)
    b869:	48 8b 45 e0          	mov    -0x20(%rbp),%rax
    b86d:	48 3b 45 d8          	cmp    -0x28(%rbp),%rax
    b871:	7e 31                	jle    b8a4 <_ZSt11__push_heapIPeleN9__gnu_cxx5__ops14_Iter_less_valEEvT_T0_S5_T1_RT2_+0xc3>
    b873:	48 8b 45 f8          	mov    -0x8(%rbp),%rax
    b877:	48 c1 e0 04          	shl    $0x4,%rax
    b87b:	48 89 c2             	mov    %rax,%rdx
    b87e:	48 8b 45 e8          	mov    -0x18(%rbp),%rax
    b882:	48 8d 0c 02          	lea    (%rdx,%rax,1),%rcx
    b886:	48 8b 45 d0          	mov    -0x30(%rbp),%rax
    b88a:	48 8d 55 10          	lea    0x10(%rbp),%rdx
    b88e:	48 89 ce             	mov    %rcx,%rsi
    b891:	48 89 c7             	mov    %rax,%rdi
    b894:	e8 89 00 00 00       	call   b922 <_ZNK9__gnu_cxx5__ops14_Iter_less_valclIPeeEEbT_RT0_>
    b899:	84 c0                	test   %al,%al
    b89b:	74 07                	je     b8a4 <_ZSt11__push_heapIPeleN9__gnu_cxx5__ops14_Iter_less_valEEvT_T0_S5_T1_RT2_+0xc3>
    b89d:	b8 01 00 00 00       	mov    $0x1,%eax
    b8a2:	eb 05                	jmp    b8a9 <_ZSt11__push_heapIPeleN9__gnu_cxx5__ops14_Iter_less_valEEvT_T0_S5_T1_RT2_+0xc8>
    b8a4:	b8 00 00 00 00       	mov    $0x0,%eax
    b8a9:	84 c0                	test   %al,%al
    b8ab:	0f 85 67 ff ff ff    	jne    b818 <_ZSt11__push_heapIPeleN9__gnu_cxx5__ops14_Iter_less_valEEvT_T0_S5_T1_RT2_+0x37>
    b8b1:	48 8d 7d 10          	lea    0x10(%rbp),%rdi
    b8b5:	e8 9c f6 ff ff       	call   af56 <_ZSt4moveIReEONSt16remove_referenceIT_E4typeEOS2_>
    b8ba:	48 8b 55 e0          	mov    -0x20(%rbp),%rdx
    b8be:	48 89 d1             	mov    %rdx,%rcx
    b8c1:	48 c1 e1 04          	shl    $0x4,%rcx
    b8c5:	48 8b 55 e8          	mov    -0x18(%rbp),%rdx
    b8c9:	48 01 ca             	add    %rcx,%rdx
    b8cc:	db 28                	fldt   (%rax)
    b8ce:	db 3a                	fstpt  (%rdx)
    b8d0:	90                   	nop
    b8d1:	c9                   	leave  
    b8d2:	c3                   	ret    

000000000000b8d3 <_ZSt23__copy_move_backward_a2ILb1EPeS0_ET1_T0_S2_S1_>:
    b8d3:	f3 0f 1e fa          	endbr64 
    b8d7:	55                   	push   %rbp
    b8d8:	48 89 e5             	mov    %rsp,%rbp
    b8db:	48 83 ec 20          	sub    $0x20,%rsp
    b8df:	48 89 7d f8          	mov    %rdi,-0x8(%rbp)
    b8e3:	48 89 75 f0          	mov    %rsi,-0x10(%rbp)
    b8e7:	48 89 55 e8          	mov    %rdx,-0x18(%rbp)
    b8eb:	48 8b 55 e8          	mov    -0x18(%rbp),%rdx
    b8ef:	48 8b 4d f0          	mov    -0x10(%rbp),%rcx
    b8f3:	48 8b 45 f8          	mov    -0x8(%rbp),%rax
    b8f7:	48 89 ce             	mov    %rcx,%rsi
    b8fa:	48 89 c7             	mov    %rax,%rdi
    b8fd:	e8 49 00 00 00       	call   b94b <_ZNSt20__copy_move_backwardILb1ELb1ESt26random_access_iterator_tagE13__copy_move_bIeEEPT_PKS3_S6_S4_>
    b902:	c9                   	leave  
    b903:	c3                   	ret    

000000000000b904 <_ZNK9__gnu_cxx13new_allocatorIiE8max_sizeEv>:
    b904:	f3 0f 1e fa          	endbr64 
    b908:	55                   	push   %rbp
    b909:	48 89 e5             	mov    %rsp,%rbp
    b90c:	48 83 ec 10          	sub    $0x10,%rsp
    b910:	48 89 7d f8          	mov    %rdi,-0x8(%rbp)
    b914:	48 8b 45 f8          	mov    -0x8(%rbp),%rax
    b918:	48 89 c7             	mov    %rax,%rdi
    b91b:	e8 b8 fa ff ff       	call   b3d8 <_ZNK9__gnu_cxx13new_allocatorIiE11_M_max_sizeEv>
    b920:	c9                   	leave  
    b921:	c3                   	ret    

000000000000b922 <_ZNK9__gnu_cxx5__ops14_Iter_less_valclIPeeEEbT_RT0_>:
    b922:	f3 0f 1e fa          	endbr64 
    b926:	55                   	push   %rbp
    b927:	48 89 e5             	mov    %rsp,%rbp
    b92a:	48 89 7d f8          	mov    %rdi,-0x8(%rbp)
    b92e:	48 89 75 f0          	mov    %rsi,-0x10(%rbp)
    b932:	48 89 55 e8          	mov    %rdx,-0x18(%rbp)
    b936:	48 8b 45 f0          	mov    -0x10(%rbp),%rax
    b93a:	db 28                	fldt   (%rax)
    b93c:	48 8b 45 e8          	mov    -0x18(%rbp),%rax
    b940:	db 28                	fldt   (%rax)
    b942:	df f1                	fcomip %st(1),%st
    b944:	dd d8                	fstp   %st(0)
    b946:	0f 97 c0             	seta   %al
    b949:	5d                   	pop    %rbp
    b94a:	c3                   	ret    

000000000000b94b <_ZNSt20__copy_move_backwardILb1ELb1ESt26random_access_iterator_tagE13__copy_move_bIeEEPT_PKS3_S6_S4_>:
    b94b:	f3 0f 1e fa          	endbr64 
    b94f:	55                   	push   %rbp
    b950:	48 89 e5             	mov    %rsp,%rbp
    b953:	48 83 ec 30          	sub    $0x30,%rsp
    b957:	48 89 7d e8          	mov    %rdi,-0x18(%rbp)
    b95b:	48 89 75 e0          	mov    %rsi,-0x20(%rbp)
    b95f:	48 89 55 d8          	mov    %rdx,-0x28(%rbp)
    b963:	48 8b 45 e0          	mov    -0x20(%rbp),%rax
    b967:	48 2b 45 e8          	sub    -0x18(%rbp),%rax
    b96b:	48 c1 f8 04          	sar    $0x4,%rax
    b96f:	48 89 45 f8          	mov    %rax,-0x8(%rbp)
    b973:	48 83 7d f8 00       	cmpq   $0x0,-0x8(%rbp)
    b978:	74 2f                	je     b9a9 <_ZNSt20__copy_move_backwardILb1ELb1ESt26random_access_iterator_tagE13__copy_move_bIeEEPT_PKS3_S6_S4_+0x5e>
    b97a:	48 8b 45 f8          	mov    -0x8(%rbp),%rax
    b97e:	48 c1 e0 04          	shl    $0x4,%rax
    b982:	48 89 c2             	mov    %rax,%rdx
    b985:	48 8b 45 f8          	mov    -0x8(%rbp),%rax
    b989:	48 c1 e0 04          	shl    $0x4,%rax
    b98d:	48 f7 d8             	neg    %rax
    b990:	48 89 c1             	mov    %rax,%rcx
    b993:	48 8b 45 d8          	mov    -0x28(%rbp),%rax
    b997:	48 01 c1             	add    %rax,%rcx
    b99a:	48 8b 45 e8          	mov    -0x18(%rbp),%rax
    b99e:	48 89 c6             	mov    %rax,%rsi
    b9a1:	48 89 cf             	mov    %rcx,%rdi
    b9a4:	e8 07 6c ff ff       	call   25b0 <memmove@plt>
    b9a9:	48 8b 45 f8          	mov    -0x8(%rbp),%rax
    b9ad:	48 c1 e0 04          	shl    $0x4,%rax
    b9b1:	48 f7 d8             	neg    %rax
    b9b4:	48 89 c2             	mov    %rax,%rdx
    b9b7:	48 8b 45 d8          	mov    -0x28(%rbp),%rax
    b9bb:	48 01 d0             	add    %rdx,%rax
    b9be:	c9                   	leave  
    b9bf:	c3                   	ret    

000000000000b9c0 <_Z10allocate2djjPPe>:
    b9c0:	f3 0f 1e fa          	endbr64 
    b9c4:	55                   	push   %rbp
    b9c5:	48 89 e5             	mov    %rsp,%rbp
    b9c8:	53                   	push   %rbx
    b9c9:	48 83 ec 28          	sub    $0x28,%rsp
    b9cd:	89 7d dc             	mov    %edi,-0x24(%rbp)
    b9d0:	89 75 d8             	mov    %esi,-0x28(%rbp)
    b9d3:	48 89 55 d0          	mov    %rdx,-0x30(%rbp)
    b9d7:	8b 45 dc             	mov    -0x24(%rbp),%eax
    b9da:	48 c1 e0 03          	shl    $0x3,%rax
    b9de:	48 89 c7             	mov    %rax,%rdi
    b9e1:	e8 5a 69 ff ff       	call   2340 <_Znam@plt>
    b9e6:	48 89 45 d0          	mov    %rax,-0x30(%rbp)
    b9ea:	c7 45 ec 00 00 00 00 	movl   $0x0,-0x14(%rbp)
    b9f1:	eb 29                	jmp    ba1c <_Z10allocate2djjPPe+0x5c>
    b9f3:	8b 45 d8             	mov    -0x28(%rbp),%eax
    b9f6:	48 c1 e0 04          	shl    $0x4,%rax
    b9fa:	8b 55 ec             	mov    -0x14(%rbp),%edx
    b9fd:	48 8d 0c d5 00 00 00 	lea    0x0(,%rdx,8),%rcx
    ba04:	00 
    ba05:	48 8b 55 d0          	mov    -0x30(%rbp),%rdx
    ba09:	48 8d 1c 11          	lea    (%rcx,%rdx,1),%rbx
    ba0d:	48 89 c7             	mov    %rax,%rdi
    ba10:	e8 2b 69 ff ff       	call   2340 <_Znam@plt>
    ba15:	48 89 03             	mov    %rax,(%rbx)
    ba18:	83 45 ec 01          	addl   $0x1,-0x14(%rbp)
    ba1c:	8b 45 ec             	mov    -0x14(%rbp),%eax
    ba1f:	3b 45 dc             	cmp    -0x24(%rbp),%eax
    ba22:	72 cf                	jb     b9f3 <_Z10allocate2djjPPe+0x33>
    ba24:	48 8b 45 d0          	mov    -0x30(%rbp),%rax
    ba28:	48 8b 5d f8          	mov    -0x8(%rbp),%rbx
    ba2c:	c9                   	leave  
    ba2d:	c3                   	ret    

000000000000ba2e <_Z10allocate3djjj>:
    ba2e:	f3 0f 1e fa          	endbr64 
    ba32:	55                   	push   %rbp
    ba33:	48 89 e5             	mov    %rsp,%rbp
    ba36:	53                   	push   %rbx
    ba37:	48 83 ec 38          	sub    $0x38,%rsp
    ba3b:	89 7d cc             	mov    %edi,-0x34(%rbp)
    ba3e:	89 75 c8             	mov    %esi,-0x38(%rbp)
    ba41:	89 55 c4             	mov    %edx,-0x3c(%rbp)
    ba44:	8b 45 cc             	mov    -0x34(%rbp),%eax
    ba47:	89 45 d8             	mov    %eax,-0x28(%rbp)
    ba4a:	8b 45 c8             	mov    -0x38(%rbp),%eax
    ba4d:	89 45 dc             	mov    %eax,-0x24(%rbp)
    ba50:	8b 45 c4             	mov    -0x3c(%rbp),%eax
    ba53:	89 45 e0             	mov    %eax,-0x20(%rbp)
    ba56:	c7 45 e4 00 00 00 00 	movl   $0x0,-0x1c(%rbp)
    ba5d:	8b 45 d8             	mov    -0x28(%rbp),%eax
    ba60:	48 98                	cltq   
    ba62:	48 ba ff ff ff ff ff 	movabs $0xfffffffffffffff,%rdx
    ba69:	ff ff 0f 
    ba6c:	48 39 d0             	cmp    %rdx,%rax
    ba6f:	77 1c                	ja     ba8d <_Z10allocate3djjj+0x5f>
    ba71:	48 c1 e0 03          	shl    $0x3,%rax
    ba75:	48 89 c7             	mov    %rax,%rdi
    ba78:	e8 c3 68 ff ff       	call   2340 <_Znam@plt>
    ba7d:	48 89 45 e8          	mov    %rax,-0x18(%rbp)
    ba81:	c7 45 d0 00 00 00 00 	movl   $0x0,-0x30(%rbp)
    ba88:	e9 ac 00 00 00       	jmp    bb39 <_Z10allocate3djjj+0x10b>
    ba8d:	e8 be 6a ff ff       	call   2550 <__cxa_throw_bad_array_new_length@plt>
    ba92:	8b 45 dc             	mov    -0x24(%rbp),%eax
    ba95:	48 98                	cltq   
    ba97:	48 ba ff ff ff ff ff 	movabs $0xfffffffffffffff,%rdx
    ba9e:	ff ff 0f 
    baa1:	48 39 d0             	cmp    %rdx,%rax
    baa4:	77 2e                	ja     bad4 <_Z10allocate3djjj+0xa6>
    baa6:	48 c1 e0 03          	shl    $0x3,%rax
    baaa:	8b 55 d0             	mov    -0x30(%rbp),%edx
    baad:	48 63 d2             	movslq %edx,%rdx
    bab0:	48 8d 0c d5 00 00 00 	lea    0x0(,%rdx,8),%rcx
    bab7:	00 
    bab8:	48 8b 55 e8          	mov    -0x18(%rbp),%rdx
    babc:	48 8d 1c 11          	lea    (%rcx,%rdx,1),%rbx
    bac0:	48 89 c7             	mov    %rax,%rdi
    bac3:	e8 78 68 ff ff       	call   2340 <_Znam@plt>
    bac8:	48 89 03             	mov    %rax,(%rbx)
    bacb:	c7 45 d4 00 00 00 00 	movl   $0x0,-0x2c(%rbp)
    bad2:	eb 59                	jmp    bb2d <_Z10allocate3djjj+0xff>
    bad4:	e8 77 6a ff ff       	call   2550 <__cxa_throw_bad_array_new_length@plt>
    bad9:	8b 45 e0             	mov    -0x20(%rbp),%eax
    badc:	48 98                	cltq   
    bade:	48 ba ff ff ff ff ff 	movabs $0x7ffffffffffffff,%rdx
    bae5:	ff ff 07 
    bae8:	48 39 d0             	cmp    %rdx,%rax
    baeb:	77 06                	ja     baf3 <_Z10allocate3djjj+0xc5>
    baed:	48 c1 e0 04          	shl    $0x4,%rax
    baf1:	eb 05                	jmp    baf8 <_Z10allocate3djjj+0xca>
    baf3:	e8 58 6a ff ff       	call   2550 <__cxa_throw_bad_array_new_length@plt>
    baf8:	8b 55 d0             	mov    -0x30(%rbp),%edx
    bafb:	48 63 d2             	movslq %edx,%rdx
    bafe:	48 8d 0c d5 00 00 00 	lea    0x0(,%rdx,8),%rcx
    bb05:	00 
    bb06:	48 8b 55 e8          	mov    -0x18(%rbp),%rdx
    bb0a:	48 01 ca             	add    %rcx,%rdx
    bb0d:	48 8b 0a             	mov    (%rdx),%rcx
    bb10:	8b 55 d4             	mov    -0x2c(%rbp),%edx
    bb13:	48 63 d2             	movslq %edx,%rdx
    bb16:	48 c1 e2 03          	shl    $0x3,%rdx
    bb1a:	48 8d 1c 11          	lea    (%rcx,%rdx,1),%rbx
    bb1e:	48 89 c7             	mov    %rax,%rdi
    bb21:	e8 1a 68 ff ff       	call   2340 <_Znam@plt>
    bb26:	48 89 03             	mov    %rax,(%rbx)
    bb29:	83 45 d4 01          	addl   $0x1,-0x2c(%rbp)
    bb2d:	8b 45 d4             	mov    -0x2c(%rbp),%eax
    bb30:	3b 45 dc             	cmp    -0x24(%rbp),%eax
    bb33:	7c a4                	jl     bad9 <_Z10allocate3djjj+0xab>
    bb35:	83 45 d0 01          	addl   $0x1,-0x30(%rbp)
    bb39:	8b 45 d0             	mov    -0x30(%rbp),%eax
    bb3c:	3b 45 d8             	cmp    -0x28(%rbp),%eax
    bb3f:	0f 8c 4d ff ff ff    	jl     ba92 <_Z10allocate3djjj+0x64>
    bb45:	48 8b 45 e8          	mov    -0x18(%rbp),%rax
    bb49:	48 8b 5d f8          	mov    -0x8(%rbp),%rbx
    bb4d:	c9                   	leave  
    bb4e:	c3                   	ret    

000000000000bb4f <_Z11allocate3dtjjj>:
    bb4f:	f3 0f 1e fa          	endbr64 
    bb53:	55                   	push   %rbp
    bb54:	48 89 e5             	mov    %rsp,%rbp
    bb57:	41 55                	push   %r13
    bb59:	41 54                	push   %r12
    bb5b:	53                   	push   %rbx
    bb5c:	48 83 ec 38          	sub    $0x38,%rsp
    bb60:	89 7d bc             	mov    %edi,-0x44(%rbp)
    bb63:	89 75 b8             	mov    %esi,-0x48(%rbp)
    bb66:	89 55 b4             	mov    %edx,-0x4c(%rbp)
    bb69:	8b 45 bc             	mov    -0x44(%rbp),%eax
    bb6c:	89 45 c8             	mov    %eax,-0x38(%rbp)
    bb6f:	8b 45 b8             	mov    -0x48(%rbp),%eax
    bb72:	89 45 cc             	mov    %eax,-0x34(%rbp)
    bb75:	8b 45 b4             	mov    -0x4c(%rbp),%eax
    bb78:	89 45 d0             	mov    %eax,-0x30(%rbp)
    bb7b:	c7 45 d4 00 00 00 00 	movl   $0x0,-0x2c(%rbp)
    bb82:	8b 45 c8             	mov    -0x38(%rbp),%eax
    bb85:	48 98                	cltq   
    bb87:	48 ba ff ff ff ff ff 	movabs $0xfffffffffffffff,%rdx
    bb8e:	ff ff 0f 
    bb91:	48 39 d0             	cmp    %rdx,%rax
    bb94:	77 1c                	ja     bbb2 <_Z11allocate3dtjjj+0x63>
    bb96:	48 c1 e0 03          	shl    $0x3,%rax
    bb9a:	48 89 c7             	mov    %rax,%rdi
    bb9d:	e8 9e 67 ff ff       	call   2340 <_Znam@plt>
    bba2:	48 89 45 d8          	mov    %rax,-0x28(%rbp)
    bba6:	c7 45 c0 00 00 00 00 	movl   $0x0,-0x40(%rbp)
    bbad:	e9 dd 00 00 00       	jmp    bc8f <_Z11allocate3dtjjj+0x140>
    bbb2:	e8 99 69 ff ff       	call   2550 <__cxa_throw_bad_array_new_length@plt>
    bbb7:	8b 45 cc             	mov    -0x34(%rbp),%eax
    bbba:	48 98                	cltq   
    bbbc:	48 ba ff ff ff ff ff 	movabs $0xfffffffffffffff,%rdx
    bbc3:	ff ff 0f 
    bbc6:	48 39 d0             	cmp    %rdx,%rax
    bbc9:	77 31                	ja     bbfc <_Z11allocate3dtjjj+0xad>
    bbcb:	48 c1 e0 03          	shl    $0x3,%rax
    bbcf:	8b 55 c0             	mov    -0x40(%rbp),%edx
    bbd2:	48 63 d2             	movslq %edx,%rdx
    bbd5:	48 8d 0c d5 00 00 00 	lea    0x0(,%rdx,8),%rcx
    bbdc:	00 
    bbdd:	48 8b 55 d8          	mov    -0x28(%rbp),%rdx
    bbe1:	48 8d 1c 11          	lea    (%rcx,%rdx,1),%rbx
    bbe5:	48 89 c7             	mov    %rax,%rdi
    bbe8:	e8 53 67 ff ff       	call   2340 <_Znam@plt>
    bbed:	48 89 03             	mov    %rax,(%rbx)
    bbf0:	c7 45 c4 00 00 00 00 	movl   $0x0,-0x3c(%rbp)
    bbf7:	e9 83 00 00 00       	jmp    bc7f <_Z11allocate3dtjjj+0x130>
    bbfc:	e8 4f 69 ff ff       	call   2550 <__cxa_throw_bad_array_new_length@plt>
    bc01:	8b 45 d0             	mov    -0x30(%rbp),%eax
    bc04:	48 63 d8             	movslq %eax,%rbx
    bc07:	48 b8 c7 71 1c c7 71 	movabs $0x1c71c71c71c71c7,%rax
    bc0e:	1c c7 01 
    bc11:	48 39 c3             	cmp    %rax,%rbx
    bc14:	77 25                	ja     bc3b <_Z11allocate3dtjjj+0xec>
    bc16:	48 89 d8             	mov    %rbx,%rax
    bc19:	48 c1 e0 03          	shl    $0x3,%rax
    bc1d:	48 01 d8             	add    %rbx,%rax
    bc20:	48 c1 e0 03          	shl    $0x3,%rax
    bc24:	48 89 c7             	mov    %rax,%rdi
    bc27:	e8 14 67 ff ff       	call   2340 <_Znam@plt>
    bc2c:	49 89 c5             	mov    %rax,%r13
    bc2f:	4d 89 ec             	mov    %r13,%r12
    bc32:	48 8d 43 ff          	lea    -0x1(%rbx),%rax
    bc36:	48 89 c3             	mov    %rax,%rbx
    bc39:	eb 15                	jmp    bc50 <_Z11allocate3dtjjj+0x101>
    bc3b:	e8 10 69 ff ff       	call   2550 <__cxa_throw_bad_array_new_length@plt>
    bc40:	4c 89 e7             	mov    %r12,%rdi
    bc43:	e8 66 03 00 00       	call   bfae <_ZN6tensorC1Ev>
    bc48:	49 83 c4 48          	add    $0x48,%r12
    bc4c:	48 83 eb 01          	sub    $0x1,%rbx
    bc50:	48 85 db             	test   %rbx,%rbx
    bc53:	79 eb                	jns    bc40 <_Z11allocate3dtjjj+0xf1>
    bc55:	8b 45 c0             	mov    -0x40(%rbp),%eax
    bc58:	48 98                	cltq   
    bc5a:	48 8d 14 c5 00 00 00 	lea    0x0(,%rax,8),%rdx
    bc61:	00 
    bc62:	48 8b 45 d8          	mov    -0x28(%rbp),%rax
    bc66:	48 01 d0             	add    %rdx,%rax
    bc69:	48 8b 10             	mov    (%rax),%rdx
    bc6c:	8b 45 c4             	mov    -0x3c(%rbp),%eax
    bc6f:	48 98                	cltq   
    bc71:	48 c1 e0 03          	shl    $0x3,%rax
    bc75:	48 01 d0             	add    %rdx,%rax
    bc78:	4c 89 28             	mov    %r13,(%rax)
    bc7b:	83 45 c4 01          	addl   $0x1,-0x3c(%rbp)
    bc7f:	8b 45 c4             	mov    -0x3c(%rbp),%eax
    bc82:	3b 45 cc             	cmp    -0x34(%rbp),%eax
    bc85:	0f 8c 76 ff ff ff    	jl     bc01 <_Z11allocate3dtjjj+0xb2>
    bc8b:	83 45 c0 01          	addl   $0x1,-0x40(%rbp)
    bc8f:	8b 45 c0             	mov    -0x40(%rbp),%eax
    bc92:	3b 45 c8             	cmp    -0x38(%rbp),%eax
    bc95:	0f 8c 1c ff ff ff    	jl     bbb7 <_Z11allocate3dtjjj+0x68>
    bc9b:	8b 45 bc             	mov    -0x44(%rbp),%eax
    bc9e:	89 c6                	mov    %eax,%esi
    bca0:	48 8d 05 99 73 00 00 	lea    0x7399(%rip),%rax        # 13040 <_ZSt4cout@GLIBCXX_3.4>
    bca7:	48 89 c7             	mov    %rax,%rdi
    bcaa:	e8 71 68 ff ff       	call   2520 <_ZNSolsEj@plt>
    bcaf:	48 89 c2             	mov    %rax,%rdx
    bcb2:	48 8d 05 1b 38 00 00 	lea    0x381b(%rip),%rax        # f4d4 <_ZN6__pstl9execution2v1L5unseqE+0x1>
    bcb9:	48 89 c6             	mov    %rax,%rsi
    bcbc:	48 89 d7             	mov    %rdx,%rdi
    bcbf:	e8 cc 67 ff ff       	call   2490 <_ZStlsISt11char_traitsIcEERSt13basic_ostreamIcT_ES5_PKc@plt>
    bcc4:	48 89 c2             	mov    %rax,%rdx
    bcc7:	8b 45 b8             	mov    -0x48(%rbp),%eax
    bcca:	89 c6                	mov    %eax,%esi
    bccc:	48 89 d7             	mov    %rdx,%rdi
    bccf:	e8 4c 68 ff ff       	call   2520 <_ZNSolsEj@plt>
    bcd4:	48 89 c2             	mov    %rax,%rdx
    bcd7:	48 8d 05 f6 37 00 00 	lea    0x37f6(%rip),%rax        # f4d4 <_ZN6__pstl9execution2v1L5unseqE+0x1>
    bcde:	48 89 c6             	mov    %rax,%rsi
    bce1:	48 89 d7             	mov    %rdx,%rdi
    bce4:	e8 a7 67 ff ff       	call   2490 <_ZStlsISt11char_traitsIcEERSt13basic_ostreamIcT_ES5_PKc@plt>
    bce9:	48 89 c2             	mov    %rax,%rdx
    bcec:	8b 45 b4             	mov    -0x4c(%rbp),%eax
    bcef:	89 c6                	mov    %eax,%esi
    bcf1:	48 89 d7             	mov    %rdx,%rdi
    bcf4:	e8 27 68 ff ff       	call   2520 <_ZNSolsEj@plt>
    bcf9:	48 8b 15 d0 72 00 00 	mov    0x72d0(%rip),%rdx        # 12fd0 <_ZSt4endlIcSt11char_traitsIcEERSt13basic_ostreamIT_T0_ES6_@GLIBCXX_3.4>
    bd00:	48 89 d6             	mov    %rdx,%rsi
    bd03:	48 89 c7             	mov    %rax,%rdi
    bd06:	e8 c5 67 ff ff       	call   24d0 <_ZNSolsEPFRSoS_E@plt>
    bd0b:	48 8b 45 d8          	mov    -0x28(%rbp),%rax
    bd0f:	48 83 c4 38          	add    $0x38,%rsp
    bd13:	5b                   	pop    %rbx
    bd14:	41 5c                	pop    %r12
    bd16:	41 5d                	pop    %r13
    bd18:	5d                   	pop    %rbp
    bd19:	c3                   	ret    

000000000000bd1a <_Z10allocate4djjjj>:
    bd1a:	f3 0f 1e fa          	endbr64 
    bd1e:	55                   	push   %rbp
    bd1f:	48 89 e5             	mov    %rsp,%rbp
    bd22:	53                   	push   %rbx
    bd23:	48 83 ec 38          	sub    $0x38,%rsp
    bd27:	89 7d cc             	mov    %edi,-0x34(%rbp)
    bd2a:	89 75 c8             	mov    %esi,-0x38(%rbp)
    bd2d:	89 55 c4             	mov    %edx,-0x3c(%rbp)
    bd30:	89 4d c0             	mov    %ecx,-0x40(%rbp)
    bd33:	8b 45 cc             	mov    -0x34(%rbp),%eax
    bd36:	48 c1 e0 03          	shl    $0x3,%rax
    bd3a:	48 89 c7             	mov    %rax,%rdi
    bd3d:	e8 fe 65 ff ff       	call   2340 <_Znam@plt>
    bd42:	48 89 45 e8          	mov    %rax,-0x18(%rbp)
    bd46:	c7 45 dc 00 00 00 00 	movl   $0x0,-0x24(%rbp)
    bd4d:	e9 dd 00 00 00       	jmp    be2f <_Z10allocate4djjjj+0x115>
    bd52:	8b 45 c8             	mov    -0x38(%rbp),%eax
    bd55:	48 c1 e0 03          	shl    $0x3,%rax
    bd59:	8b 55 dc             	mov    -0x24(%rbp),%edx
    bd5c:	48 63 d2             	movslq %edx,%rdx
    bd5f:	48 8d 0c d5 00 00 00 	lea    0x0(,%rdx,8),%rcx
    bd66:	00 
    bd67:	48 8b 55 e8          	mov    -0x18(%rbp),%rdx
    bd6b:	48 8d 1c 11          	lea    (%rcx,%rdx,1),%rbx
    bd6f:	48 89 c7             	mov    %rax,%rdi
    bd72:	e8 c9 65 ff ff       	call   2340 <_Znam@plt>
    bd77:	48 89 03             	mov    %rax,(%rbx)
    bd7a:	c7 45 e0 00 00 00 00 	movl   $0x0,-0x20(%rbp)
    bd81:	e9 99 00 00 00       	jmp    be1f <_Z10allocate4djjjj+0x105>
    bd86:	8b 45 c4             	mov    -0x3c(%rbp),%eax
    bd89:	48 c1 e0 03          	shl    $0x3,%rax
    bd8d:	8b 55 dc             	mov    -0x24(%rbp),%edx
    bd90:	48 63 d2             	movslq %edx,%rdx
    bd93:	48 8d 0c d5 00 00 00 	lea    0x0(,%rdx,8),%rcx
    bd9a:	00 
    bd9b:	48 8b 55 e8          	mov    -0x18(%rbp),%rdx
    bd9f:	48 01 ca             	add    %rcx,%rdx
    bda2:	48 8b 0a             	mov    (%rdx),%rcx
    bda5:	8b 55 e0             	mov    -0x20(%rbp),%edx
    bda8:	48 63 d2             	movslq %edx,%rdx
    bdab:	48 c1 e2 03          	shl    $0x3,%rdx
    bdaf:	48 8d 1c 11          	lea    (%rcx,%rdx,1),%rbx
    bdb3:	48 89 c7             	mov    %rax,%rdi
    bdb6:	e8 85 65 ff ff       	call   2340 <_Znam@plt>
    bdbb:	48 89 03             	mov    %rax,(%rbx)
    bdbe:	c7 45 e4 00 00 00 00 	movl   $0x0,-0x1c(%rbp)
    bdc5:	eb 4c                	jmp    be13 <_Z10allocate4djjjj+0xf9>
    bdc7:	8b 45 c0             	mov    -0x40(%rbp),%eax
    bdca:	48 c1 e0 04          	shl    $0x4,%rax
    bdce:	8b 55 dc             	mov    -0x24(%rbp),%edx
    bdd1:	48 63 d2             	movslq %edx,%rdx
    bdd4:	48 8d 0c d5 00 00 00 	lea    0x0(,%rdx,8),%rcx
    bddb:	00 
    bddc:	48 8b 55 e8          	mov    -0x18(%rbp),%rdx
    bde0:	48 01 ca             	add    %rcx,%rdx
    bde3:	48 8b 0a             	mov    (%rdx),%rcx
    bde6:	8b 55 e0             	mov    -0x20(%rbp),%edx
    bde9:	48 63 d2             	movslq %edx,%rdx
    bdec:	48 c1 e2 03          	shl    $0x3,%rdx
    bdf0:	48 01 ca             	add    %rcx,%rdx
    bdf3:	48 8b 0a             	mov    (%rdx),%rcx
    bdf6:	8b 55 e4             	mov    -0x1c(%rbp),%edx
    bdf9:	48 63 d2             	movslq %edx,%rdx
    bdfc:	48 c1 e2 03          	shl    $0x3,%rdx
    be00:	48 8d 1c 11          	lea    (%rcx,%rdx,1),%rbx
    be04:	48 89 c7             	mov    %rax,%rdi
    be07:	e8 34 65 ff ff       	call   2340 <_Znam@plt>
    be0c:	48 89 03             	mov    %rax,(%rbx)
    be0f:	83 45 e4 01          	addl   $0x1,-0x1c(%rbp)
    be13:	8b 45 e4             	mov    -0x1c(%rbp),%eax
    be16:	39 45 c0             	cmp    %eax,-0x40(%rbp)
    be19:	77 ac                	ja     bdc7 <_Z10allocate4djjjj+0xad>
    be1b:	83 45 e0 01          	addl   $0x1,-0x20(%rbp)
    be1f:	8b 45 e0             	mov    -0x20(%rbp),%eax
    be22:	39 45 c8             	cmp    %eax,-0x38(%rbp)
    be25:	0f 87 5b ff ff ff    	ja     bd86 <_Z10allocate4djjjj+0x6c>
    be2b:	83 45 dc 01          	addl   $0x1,-0x24(%rbp)
    be2f:	8b 45 dc             	mov    -0x24(%rbp),%eax
    be32:	39 45 cc             	cmp    %eax,-0x34(%rbp)
    be35:	0f 87 17 ff ff ff    	ja     bd52 <_Z10allocate4djjjj+0x38>
    be3b:	48 8b 45 e8          	mov    -0x18(%rbp),%rax
    be3f:	48 8b 5d f8          	mov    -0x8(%rbp),%rbx
    be43:	c9                   	leave  
    be44:	c3                   	ret    

000000000000be45 <_Z11allocate3dvjjj>:
    be45:	f3 0f 1e fa          	endbr64 
    be49:	55                   	push   %rbp
    be4a:	48 89 e5             	mov    %rsp,%rbp
    be4d:	41 55                	push   %r13
    be4f:	41 54                	push   %r12
    be51:	53                   	push   %rbx
    be52:	48 83 ec 28          	sub    $0x28,%rsp
    be56:	89 7d cc             	mov    %edi,-0x34(%rbp)
    be59:	89 75 c8             	mov    %esi,-0x38(%rbp)
    be5c:	89 55 c4             	mov    %edx,-0x3c(%rbp)
    be5f:	8b 45 cc             	mov    -0x34(%rbp),%eax
    be62:	48 c1 e0 03          	shl    $0x3,%rax
    be66:	48 89 c7             	mov    %rax,%rdi
    be69:	e8 d2 64 ff ff       	call   2340 <_Znam@plt>
    be6e:	48 89 45 d8          	mov    %rax,-0x28(%rbp)
    be72:	c7 45 d0 00 00 00 00 	movl   $0x0,-0x30(%rbp)
    be79:	e9 a6 00 00 00       	jmp    bf24 <_Z11allocate3dvjjj+0xdf>
    be7e:	8b 45 c8             	mov    -0x38(%rbp),%eax
    be81:	48 c1 e0 03          	shl    $0x3,%rax
    be85:	8b 55 d0             	mov    -0x30(%rbp),%edx
    be88:	48 63 d2             	movslq %edx,%rdx
    be8b:	48 8d 0c d5 00 00 00 	lea    0x0(,%rdx,8),%rcx
    be92:	00 
    be93:	48 8b 55 d8          	mov    -0x28(%rbp),%rdx
    be97:	48 8d 1c 11          	lea    (%rcx,%rdx,1),%rbx
    be9b:	48 89 c7             	mov    %rax,%rdi
    be9e:	e8 9d 64 ff ff       	call   2340 <_Znam@plt>
    bea3:	48 89 03             	mov    %rax,(%rbx)
    bea6:	c7 45 d4 00 00 00 00 	movl   $0x0,-0x2c(%rbp)
    bead:	eb 69                	jmp    bf18 <_Z11allocate3dvjjj+0xd3>
    beaf:	8b 55 c4             	mov    -0x3c(%rbp),%edx
    beb2:	48 89 d0             	mov    %rdx,%rax
    beb5:	48 01 c0             	add    %rax,%rax
    beb8:	48 01 d0             	add    %rdx,%rax
    bebb:	48 c1 e0 03          	shl    $0x3,%rax
    bebf:	48 89 c7             	mov    %rax,%rdi
    bec2:	e8 79 64 ff ff       	call   2340 <_Znam@plt>
    bec7:	49 89 c5             	mov    %rax,%r13
    beca:	4d 89 ec             	mov    %r13,%r12
    becd:	8b 45 c4             	mov    -0x3c(%rbp),%eax
    bed0:	48 83 e8 01          	sub    $0x1,%rax
    bed4:	48 89 c3             	mov    %rax,%rbx
    bed7:	eb 10                	jmp    bee9 <_Z11allocate3dvjjj+0xa4>
    bed9:	4c 89 e7             	mov    %r12,%rdi
    bedc:	e8 f9 d3 ff ff       	call   92da <_ZN6vectorC1Ev>
    bee1:	49 83 c4 18          	add    $0x18,%r12
    bee5:	48 83 eb 01          	sub    $0x1,%rbx
    bee9:	48 85 db             	test   %rbx,%rbx
    beec:	79 eb                	jns    bed9 <_Z11allocate3dvjjj+0x94>
    beee:	8b 45 d0             	mov    -0x30(%rbp),%eax
    bef1:	48 98                	cltq   
    bef3:	48 8d 14 c5 00 00 00 	lea    0x0(,%rax,8),%rdx
    befa:	00 
    befb:	48 8b 45 d8          	mov    -0x28(%rbp),%rax
    beff:	48 01 d0             	add    %rdx,%rax
    bf02:	48 8b 10             	mov    (%rax),%rdx
    bf05:	8b 45 d4             	mov    -0x2c(%rbp),%eax
    bf08:	48 98                	cltq   
    bf0a:	48 c1 e0 03          	shl    $0x3,%rax
    bf0e:	48 01 d0             	add    %rdx,%rax
    bf11:	4c 89 28             	mov    %r13,(%rax)
    bf14:	83 45 d4 01          	addl   $0x1,-0x2c(%rbp)
    bf18:	8b 45 d4             	mov    -0x2c(%rbp),%eax
    bf1b:	39 45 c8             	cmp    %eax,-0x38(%rbp)
    bf1e:	77 8f                	ja     beaf <_Z11allocate3dvjjj+0x6a>
    bf20:	83 45 d0 01          	addl   $0x1,-0x30(%rbp)
    bf24:	8b 45 d0             	mov    -0x30(%rbp),%eax
    bf27:	39 45 cc             	cmp    %eax,-0x34(%rbp)
    bf2a:	0f 87 4e ff ff ff    	ja     be7e <_Z11allocate3dvjjj+0x39>
    bf30:	48 8b 45 d8          	mov    -0x28(%rbp),%rax
    bf34:	48 83 c4 28          	add    $0x28,%rsp
    bf38:	5b                   	pop    %rbx
    bf39:	41 5c                	pop    %r12
    bf3b:	41 5d                	pop    %r13
    bf3d:	5d                   	pop    %rbp
    bf3e:	c3                   	ret    

000000000000bf3f <_Z41__static_initialization_and_destruction_0ii>:
    bf3f:	f3 0f 1e fa          	endbr64 
    bf43:	55                   	push   %rbp
    bf44:	48 89 e5             	mov    %rsp,%rbp
    bf47:	48 83 ec 10          	sub    $0x10,%rsp
    bf4b:	89 7d fc             	mov    %edi,-0x4(%rbp)
    bf4e:	89 75 f8             	mov    %esi,-0x8(%rbp)
    bf51:	83 7d fc 01          	cmpl   $0x1,-0x4(%rbp)
    bf55:	75 3b                	jne    bf92 <_Z41__static_initialization_and_destruction_0ii+0x53>
    bf57:	81 7d f8 ff ff 00 00 	cmpl   $0xffff,-0x8(%rbp)
    bf5e:	75 32                	jne    bf92 <_Z41__static_initialization_and_destruction_0ii+0x53>
    bf60:	48 8d 05 13 73 00 00 	lea    0x7313(%rip),%rax        # 1327a <_ZStL8__ioinit>
    bf67:	48 89 c7             	mov    %rax,%rdi
    bf6a:	e8 11 66 ff ff       	call   2580 <_ZNSt8ios_base4InitC1Ev@plt>
    bf6f:	48 8d 05 92 70 00 00 	lea    0x7092(%rip),%rax        # 13008 <__dso_handle>
    bf76:	48 89 c2             	mov    %rax,%rdx
    bf79:	48 8d 05 fa 72 00 00 	lea    0x72fa(%rip),%rax        # 1327a <_ZStL8__ioinit>
    bf80:	48 89 c6             	mov    %rax,%rsi
    bf83:	48 8b 05 6e 70 00 00 	mov    0x706e(%rip),%rax        # 12ff8 <_ZNSt8ios_base4InitD1Ev@GLIBCXX_3.4>
    bf8a:	48 89 c7             	mov    %rax,%rdi
    bf8d:	e8 ce 64 ff ff       	call   2460 <__cxa_atexit@plt>
    bf92:	90                   	nop
    bf93:	c9                   	leave  
    bf94:	c3                   	ret    

000000000000bf95 <_GLOBAL__sub_I__Z10allocate2djjPPe>:
    bf95:	f3 0f 1e fa          	endbr64 
    bf99:	55                   	push   %rbp
    bf9a:	48 89 e5             	mov    %rsp,%rbp
    bf9d:	be ff ff 00 00       	mov    $0xffff,%esi
    bfa2:	bf 01 00 00 00       	mov    $0x1,%edi
    bfa7:	e8 93 ff ff ff       	call   bf3f <_Z41__static_initialization_and_destruction_0ii>
    bfac:	5d                   	pop    %rbp
    bfad:	c3                   	ret    

000000000000bfae <_ZN6tensorC1Ev>:
    bfae:	f3 0f 1e fa          	endbr64 
    bfb2:	55                   	push   %rbp
    bfb3:	48 89 e5             	mov    %rsp,%rbp
    bfb6:	48 83 ec 70          	sub    $0x70,%rsp
    bfba:	48 89 7d 98          	mov    %rdi,-0x68(%rbp)
    bfbe:	64 48 8b 04 25 28 00 	mov    %fs:0x28,%rax
    bfc5:	00 00 
    bfc7:	48 89 45 f8          	mov    %rax,-0x8(%rbp)
    bfcb:	31 c0                	xor    %eax,%eax
    bfcd:	48 8b 45 98          	mov    -0x68(%rbp),%rax
    bfd1:	48 89 c7             	mov    %rax,%rdi
    bfd4:	e8 01 d3 ff ff       	call   92da <_ZN6vectorC1Ev>
    bfd9:	48 8b 45 98          	mov    -0x68(%rbp),%rax
    bfdd:	48 83 c0 18          	add    $0x18,%rax
    bfe1:	48 89 c7             	mov    %rax,%rdi
    bfe4:	e8 f1 d2 ff ff       	call   92da <_ZN6vectorC1Ev>
    bfe9:	48 8b 45 98          	mov    -0x68(%rbp),%rax
    bfed:	48 83 c0 30          	add    $0x30,%rax
    bff1:	48 89 c7             	mov    %rax,%rdi
    bff4:	e8 e1 d2 ff ff       	call   92da <_ZN6vectorC1Ev>
    bff9:	f2 0f 10 0d d7 34 00 	movsd  0x34d7(%rip),%xmm1        # f4d8 <_ZN6__pstl9execution2v1L5unseqE+0x5>
    c000:	00 
    c001:	f2 0f 10 05 cf 34 00 	movsd  0x34cf(%rip),%xmm0        # f4d8 <_ZN6__pstl9execution2v1L5unseqE+0x5>
    c008:	00 
    c009:	48 8b 15 c8 34 00 00 	mov    0x34c8(%rip),%rdx        # f4d8 <_ZN6__pstl9execution2v1L5unseqE+0x5>
    c010:	48 8d 45 a0          	lea    -0x60(%rbp),%rax
    c014:	66 0f 28 d1          	movapd %xmm1,%xmm2
    c018:	66 0f 28 c8          	movapd %xmm0,%xmm1
    c01c:	66 48 0f 6e c2       	movq   %rdx,%xmm0
    c021:	48 89 c7             	mov    %rax,%rdi
    c024:	e8 e7 d2 ff ff       	call   9310 <_ZN6vectorC1Eddd>
    c029:	f2 0f 10 0d a7 34 00 	movsd  0x34a7(%rip),%xmm1        # f4d8 <_ZN6__pstl9execution2v1L5unseqE+0x5>
    c030:	00 
    c031:	f2 0f 10 05 9f 34 00 	movsd  0x349f(%rip),%xmm0        # f4d8 <_ZN6__pstl9execution2v1L5unseqE+0x5>
    c038:	00 
    c039:	48 8b 15 98 34 00 00 	mov    0x3498(%rip),%rdx        # f4d8 <_ZN6__pstl9execution2v1L5unseqE+0x5>
    c040:	48 8d 45 c0          	lea    -0x40(%rbp),%rax
    c044:	66 0f 28 d1          	movapd %xmm1,%xmm2
    c048:	66 0f 28 c8          	movapd %xmm0,%xmm1
    c04c:	66 48 0f 6e c2       	movq   %rdx,%xmm0
    c051:	48 89 c7             	mov    %rax,%rdi
    c054:	e8 b7 d2 ff ff       	call   9310 <_ZN6vectorC1Eddd>
    c059:	f2 0f 10 0d 77 34 00 	movsd  0x3477(%rip),%xmm1        # f4d8 <_ZN6__pstl9execution2v1L5unseqE+0x5>
    c060:	00 
    c061:	f2 0f 10 05 6f 34 00 	movsd  0x346f(%rip),%xmm0        # f4d8 <_ZN6__pstl9execution2v1L5unseqE+0x5>
    c068:	00 
    c069:	48 8b 15 68 34 00 00 	mov    0x3468(%rip),%rdx        # f4d8 <_ZN6__pstl9execution2v1L5unseqE+0x5>
    c070:	48 8d 45 e0          	lea    -0x20(%rbp),%rax
    c074:	66 0f 28 d1          	movapd %xmm1,%xmm2
    c078:	66 0f 28 c8          	movapd %xmm0,%xmm1
    c07c:	66 48 0f 6e c2       	movq   %rdx,%xmm0
    c081:	48 89 c7             	mov    %rax,%rdi
    c084:	e8 87 d2 ff ff       	call   9310 <_ZN6vectorC1Eddd>
    c089:	48 8b 45 98          	mov    -0x68(%rbp),%rax
    c08d:	48 8d 55 a0          	lea    -0x60(%rbp),%rdx
    c091:	48 89 d6             	mov    %rdx,%rsi
    c094:	48 89 c7             	mov    %rax,%rdi
    c097:	e8 40 d6 ff ff       	call   96dc <_ZN6vectoraSERKS_>
    c09c:	48 8b 45 98          	mov    -0x68(%rbp),%rax
    c0a0:	48 8d 50 18          	lea    0x18(%rax),%rdx
    c0a4:	48 8d 45 c0          	lea    -0x40(%rbp),%rax
    c0a8:	48 89 c6             	mov    %rax,%rsi
    c0ab:	48 89 d7             	mov    %rdx,%rdi
    c0ae:	e8 29 d6 ff ff       	call   96dc <_ZN6vectoraSERKS_>
    c0b3:	48 8b 45 98          	mov    -0x68(%rbp),%rax
    c0b7:	48 8d 50 30          	lea    0x30(%rax),%rdx
    c0bb:	48 8d 45 e0          	lea    -0x20(%rbp),%rax
    c0bf:	48 89 c6             	mov    %rax,%rsi
    c0c2:	48 89 d7             	mov    %rdx,%rdi
    c0c5:	e8 12 d6 ff ff       	call   96dc <_ZN6vectoraSERKS_>
    c0ca:	90                   	nop
    c0cb:	48 8b 45 f8          	mov    -0x8(%rbp),%rax
    c0cf:	64 48 2b 04 25 28 00 	sub    %fs:0x28,%rax
    c0d6:	00 00 
    c0d8:	74 05                	je     c0df <_ZN6tensorC1Ev+0x131>
    c0da:	e8 01 64 ff ff       	call   24e0 <__stack_chk_fail@plt>
    c0df:	c9                   	leave  
    c0e0:	c3                   	ret    

000000000000c0e1 <_Z5shearddd>:
    c0e1:	f3 0f 1e fa          	endbr64 
    c0e5:	55                   	push   %rbp
    c0e6:	48 89 e5             	mov    %rsp,%rbp
    c0e9:	48 81 ec 20 01 00 00 	sub    $0x120,%rsp
    c0f0:	48 89 bd f8 fe ff ff 	mov    %rdi,-0x108(%rbp)
    c0f7:	f2 0f 11 85 f0 fe ff 	movsd  %xmm0,-0x110(%rbp)
    c0fe:	ff 
    c0ff:	f2 0f 11 8d e8 fe ff 	movsd  %xmm1,-0x118(%rbp)
    c106:	ff 
    c107:	f2 0f 11 95 e0 fe ff 	movsd  %xmm2,-0x120(%rbp)
    c10e:	ff 
    c10f:	64 48 8b 04 25 28 00 	mov    %fs:0x28,%rax
    c116:	00 00 
    c118:	48 89 45 f8          	mov    %rax,-0x8(%rbp)
    c11c:	31 c0                	xor    %eax,%eax
    c11e:	48 8d 85 00 ff ff ff 	lea    -0x100(%rbp),%rax
    c125:	f2 0f 10 8d e0 fe ff 	movsd  -0x120(%rbp),%xmm1
    c12c:	ff 
    c12d:	f2 0f 10 85 e8 fe ff 	movsd  -0x118(%rbp),%xmm0
    c134:	ff 
    c135:	48 8b 95 f0 fe ff ff 	mov    -0x110(%rbp),%rdx
    c13c:	be 01 00 00 00       	mov    $0x1,%esi
    c141:	66 0f 28 d1          	movapd %xmm1,%xmm2
    c145:	66 0f 28 c8          	movapd %xmm0,%xmm1
    c149:	66 48 0f 6e c2       	movq   %rdx,%xmm0
    c14e:	48 89 c7             	mov    %rax,%rdi
    c151:	e8 8f 02 00 00       	call   c3e5 <_Z4diffdddi>
    c156:	48 8d 85 20 ff ff ff 	lea    -0xe0(%rbp),%rax
    c15d:	f2 0f 10 8d e0 fe ff 	movsd  -0x120(%rbp),%xmm1
    c164:	ff 
    c165:	f2 0f 10 85 e8 fe ff 	movsd  -0x118(%rbp),%xmm0
    c16c:	ff 
    c16d:	48 8b 95 f0 fe ff ff 	mov    -0x110(%rbp),%rdx
    c174:	be 02 00 00 00       	mov    $0x2,%esi
    c179:	66 0f 28 d1          	movapd %xmm1,%xmm2
    c17d:	66 0f 28 c8          	movapd %xmm0,%xmm1
    c181:	66 48 0f 6e c2       	movq   %rdx,%xmm0
    c186:	48 89 c7             	mov    %rax,%rdi
    c189:	e8 57 02 00 00       	call   c3e5 <_Z4diffdddi>
    c18e:	48 8d 85 40 ff ff ff 	lea    -0xc0(%rbp),%rax
    c195:	f2 0f 10 8d e0 fe ff 	movsd  -0x120(%rbp),%xmm1
    c19c:	ff 
    c19d:	f2 0f 10 85 e8 fe ff 	movsd  -0x118(%rbp),%xmm0
    c1a4:	ff 
    c1a5:	48 8b 95 f0 fe ff ff 	mov    -0x110(%rbp),%rdx
    c1ac:	be 03 00 00 00       	mov    $0x3,%esi
    c1b1:	66 0f 28 d1          	movapd %xmm1,%xmm2
    c1b5:	66 0f 28 c8          	movapd %xmm0,%xmm1
    c1b9:	66 48 0f 6e c2       	movq   %rdx,%xmm0
    c1be:	48 89 c7             	mov    %rax,%rdi
    c1c1:	e8 1f 02 00 00       	call   c3e5 <_Z4diffdddi>
    c1c6:	48 8d 85 60 ff ff ff 	lea    -0xa0(%rbp),%rax
    c1cd:	48 83 ec 08          	sub    $0x8,%rsp
    c1d1:	ff b5 50 ff ff ff    	push   -0xb0(%rbp)
    c1d7:	ff b5 48 ff ff ff    	push   -0xb8(%rbp)
    c1dd:	ff b5 40 ff ff ff    	push   -0xc0(%rbp)
    c1e3:	ff b5 30 ff ff ff    	push   -0xd0(%rbp)
    c1e9:	ff b5 28 ff ff ff    	push   -0xd8(%rbp)
    c1ef:	ff b5 20 ff ff ff    	push   -0xe0(%rbp)
    c1f5:	ff b5 10 ff ff ff    	push   -0xf0(%rbp)
    c1fb:	ff b5 08 ff ff ff    	push   -0xf8(%rbp)
    c201:	ff b5 00 ff ff ff    	push   -0x100(%rbp)
    c207:	48 89 c7             	mov    %rax,%rdi
    c20a:	e8 95 d5 ff ff       	call   97a4 <_ZN6tensorC1E6vectorS0_S0_>
    c20f:	48 83 c4 50          	add    $0x50,%rsp
    c213:	48 8d 45 b0          	lea    -0x50(%rbp),%rax
    c217:	48 8d 95 60 ff ff ff 	lea    -0xa0(%rbp),%rdx
    c21e:	48 89 d6             	mov    %rdx,%rsi
    c221:	48 89 c7             	mov    %rax,%rdi
    c224:	e8 bf d7 ff ff       	call   99e8 <_ZN6tensor9transposeEv>
    c229:	48 8b 85 f8 fe ff ff 	mov    -0x108(%rbp),%rax
    c230:	48 8d 95 60 ff ff ff 	lea    -0xa0(%rbp),%rdx
    c237:	48 83 ec 08          	sub    $0x8,%rsp
    c23b:	ff 75 f0             	push   -0x10(%rbp)
    c23e:	ff 75 e8             	push   -0x18(%rbp)
    c241:	ff 75 e0             	push   -0x20(%rbp)
    c244:	ff 75 d8             	push   -0x28(%rbp)
    c247:	ff 75 d0             	push   -0x30(%rbp)
    c24a:	ff 75 c8             	push   -0x38(%rbp)
    c24d:	ff 75 c0             	push   -0x40(%rbp)
    c250:	ff 75 b8             	push   -0x48(%rbp)
    c253:	ff 75 b0             	push   -0x50(%rbp)
    c256:	48 89 d6             	mov    %rdx,%rsi
    c259:	48 89 c7             	mov    %rax,%rdi
    c25c:	e8 ef da ff ff       	call   9d50 <_ZN6tensorplES_>
    c261:	48 83 c4 50          	add    $0x50,%rsp
    c265:	48 8b 45 f8          	mov    -0x8(%rbp),%rax
    c269:	64 48 2b 04 25 28 00 	sub    %fs:0x28,%rax
    c270:	00 00 
    c272:	74 05                	je     c279 <_Z5shearddd+0x198>
    c274:	e8 67 62 ff ff       	call   24e0 <__stack_chk_fail@plt>
    c279:	48 8b 85 f8 fe ff ff 	mov    -0x108(%rbp),%rax
    c280:	c9                   	leave  
    c281:	c3                   	ret    

000000000000c282 <_Z6stressdddd>:
    c282:	f3 0f 1e fa          	endbr64 
    c286:	55                   	push   %rbp
    c287:	48 89 e5             	mov    %rsp,%rbp
    c28a:	48 81 ec 20 01 00 00 	sub    $0x120,%rsp
    c291:	48 89 bd 08 ff ff ff 	mov    %rdi,-0xf8(%rbp)
    c298:	f2 0f 11 85 00 ff ff 	movsd  %xmm0,-0x100(%rbp)
    c29f:	ff 
    c2a0:	f2 0f 11 8d f8 fe ff 	movsd  %xmm1,-0x108(%rbp)
    c2a7:	ff 
    c2a8:	f2 0f 11 95 f0 fe ff 	movsd  %xmm2,-0x110(%rbp)
    c2af:	ff 
    c2b0:	f2 0f 11 9d e8 fe ff 	movsd  %xmm3,-0x118(%rbp)
    c2b7:	ff 
    c2b8:	64 48 8b 04 25 28 00 	mov    %fs:0x28,%rax
    c2bf:	00 00 
    c2c1:	48 89 45 f8          	mov    %rax,-0x8(%rbp)
    c2c5:	31 c0                	xor    %eax,%eax
    c2c7:	48 c7 45 b0 00 00 00 	movq   $0x0,-0x50(%rbp)
    c2ce:	00 
    c2cf:	48 c7 45 b8 00 00 00 	movq   $0x0,-0x48(%rbp)
    c2d6:	00 
    c2d7:	48 c7 45 c0 00 00 00 	movq   $0x0,-0x40(%rbp)
    c2de:	00 
    c2df:	48 c7 45 c8 00 00 00 	movq   $0x0,-0x38(%rbp)
    c2e6:	00 
    c2e7:	48 c7 45 d0 00 00 00 	movq   $0x0,-0x30(%rbp)
    c2ee:	00 
    c2ef:	48 c7 45 d8 00 00 00 	movq   $0x0,-0x28(%rbp)
    c2f6:	00 
    c2f7:	48 c7 45 e0 00 00 00 	movq   $0x0,-0x20(%rbp)
    c2fe:	00 
    c2ff:	48 c7 45 e8 00 00 00 	movq   $0x0,-0x18(%rbp)
    c306:	00 
    c307:	48 c7 45 f0 00 00 00 	movq   $0x0,-0x10(%rbp)
    c30e:	00 
    c30f:	f2 0f 10 85 00 ff ff 	movsd  -0x100(%rbp),%xmm0
    c316:	ff 
    c317:	f2 0f 11 45 b0       	movsd  %xmm0,-0x50(%rbp)
    c31c:	f2 0f 10 85 00 ff ff 	movsd  -0x100(%rbp),%xmm0
    c323:	ff 
    c324:	f2 0f 11 45 d0       	movsd  %xmm0,-0x30(%rbp)
    c329:	f2 0f 10 85 00 ff ff 	movsd  -0x100(%rbp),%xmm0
    c330:	ff 
    c331:	f2 0f 11 45 f0       	movsd  %xmm0,-0x10(%rbp)
    c336:	48 8d 55 b0          	lea    -0x50(%rbp),%rdx
    c33a:	48 8d 85 10 ff ff ff 	lea    -0xf0(%rbp),%rax
    c341:	48 89 d6             	mov    %rdx,%rsi
    c344:	48 89 c7             	mov    %rax,%rdi
    c347:	e8 d6 d4 ff ff       	call   9822 <_ZN6tensorC1EPd>
    c34c:	48 8d 85 60 ff ff ff 	lea    -0xa0(%rbp),%rax
    c353:	f2 0f 10 8d e8 fe ff 	movsd  -0x118(%rbp),%xmm1
    c35a:	ff 
    c35b:	f2 0f 10 85 f0 fe ff 	movsd  -0x110(%rbp),%xmm0
    c362:	ff 
    c363:	48 8b 95 f8 fe ff ff 	mov    -0x108(%rbp),%rdx
    c36a:	66 0f 28 d1          	movapd %xmm1,%xmm2
    c36e:	66 0f 28 c8          	movapd %xmm0,%xmm1
    c372:	66 48 0f 6e c2       	movq   %rdx,%xmm0
    c377:	48 89 c7             	mov    %rax,%rdi
    c37a:	e8 62 fd ff ff       	call   c0e1 <_Z5shearddd>
    c37f:	48 8b 85 08 ff ff ff 	mov    -0xf8(%rbp),%rax
    c386:	48 8d 95 10 ff ff ff 	lea    -0xf0(%rbp),%rdx
    c38d:	48 83 ec 08          	sub    $0x8,%rsp
    c391:	ff 75 a0             	push   -0x60(%rbp)
    c394:	ff 75 98             	push   -0x68(%rbp)
    c397:	ff 75 90             	push   -0x70(%rbp)
    c39a:	ff 75 88             	push   -0x78(%rbp)
    c39d:	ff 75 80             	push   -0x80(%rbp)
    c3a0:	ff b5 78 ff ff ff    	push   -0x88(%rbp)
    c3a6:	ff b5 70 ff ff ff    	push   -0x90(%rbp)
    c3ac:	ff b5 68 ff ff ff    	push   -0x98(%rbp)
    c3b2:	ff b5 60 ff ff ff    	push   -0xa0(%rbp)
    c3b8:	48 89 d6             	mov    %rdx,%rsi
    c3bb:	48 89 c7             	mov    %rax,%rdi
    c3be:	e8 8d d9 ff ff       	call   9d50 <_ZN6tensorplES_>
    c3c3:	48 83 c4 50          	add    $0x50,%rsp
    c3c7:	90                   	nop
    c3c8:	48 8b 45 f8          	mov    -0x8(%rbp),%rax
    c3cc:	64 48 2b 04 25 28 00 	sub    %fs:0x28,%rax
    c3d3:	00 00 
    c3d5:	74 05                	je     c3dc <_Z6stressdddd+0x15a>
    c3d7:	e8 04 61 ff ff       	call   24e0 <__stack_chk_fail@plt>
    c3dc:	48 8b 85 08 ff ff ff 	mov    -0xf8(%rbp),%rax
    c3e3:	c9                   	leave  
    c3e4:	c3                   	ret    

000000000000c3e5 <_Z4diffdddi>:
    c3e5:	f3 0f 1e fa          	endbr64 
    c3e9:	55                   	push   %rbp
    c3ea:	48 89 e5             	mov    %rsp,%rbp
    c3ed:	48 81 ec a0 00 00 00 	sub    $0xa0,%rsp
    c3f4:	48 89 7d 88          	mov    %rdi,-0x78(%rbp)
    c3f8:	f2 0f 11 45 80       	movsd  %xmm0,-0x80(%rbp)
    c3fd:	f2 0f 11 8d 78 ff ff 	movsd  %xmm1,-0x88(%rbp)
    c404:	ff 
    c405:	f2 0f 11 95 70 ff ff 	movsd  %xmm2,-0x90(%rbp)
    c40c:	ff 
    c40d:	89 b5 6c ff ff ff    	mov    %esi,-0x94(%rbp)
    c413:	64 48 8b 04 25 28 00 	mov    %fs:0x28,%rax
    c41a:	00 00 
    c41c:	48 89 45 f8          	mov    %rax,-0x8(%rbp)
    c420:	31 c0                	xor    %eax,%eax
    c422:	f2 0f 10 05 c6 30 00 	movsd  0x30c6(%rip),%xmm0        # f4f0 <_ZN6__pstl9execution2v1L5unseqE+0x8>
    c429:	00 
    c42a:	f2 0f 11 45 98       	movsd  %xmm0,-0x68(%rbp)
    c42f:	83 bd 6c ff ff ff 03 	cmpl   $0x3,-0x94(%rbp)
    c436:	0f 84 5c 01 00 00    	je     c598 <_Z4diffdddi+0x1b3>
    c43c:	83 bd 6c ff ff ff 03 	cmpl   $0x3,-0x94(%rbp)
    c443:	0f 8f e7 01 00 00    	jg     c630 <_Z4diffdddi+0x24b>
    c449:	83 bd 6c ff ff ff 01 	cmpl   $0x1,-0x94(%rbp)
    c450:	74 12                	je     c464 <_Z4diffdddi+0x7f>
    c452:	83 bd 6c ff ff ff 02 	cmpl   $0x2,-0x94(%rbp)
    c459:	0f 84 a2 00 00 00    	je     c501 <_Z4diffdddi+0x11c>
    c45f:	e9 cc 01 00 00       	jmp    c630 <_Z4diffdddi+0x24b>
    c464:	48 8d 45 c0          	lea    -0x40(%rbp),%rax
    c468:	f2 0f 10 8d 70 ff ff 	movsd  -0x90(%rbp),%xmm1
    c46f:	ff 
    c470:	f2 0f 10 85 78 ff ff 	movsd  -0x88(%rbp),%xmm0
    c477:	ff 
    c478:	48 8b 55 80          	mov    -0x80(%rbp),%rdx
    c47c:	66 0f 28 d1          	movapd %xmm1,%xmm2
    c480:	66 0f 28 c8          	movapd %xmm0,%xmm1
    c484:	66 48 0f 6e c2       	movq   %rdx,%xmm0
    c489:	48 89 c7             	mov    %rax,%rdi
    c48c:	e8 66 0f 00 00       	call   d3f7 <_Z8velocityddd>
    c491:	f2 0f 10 45 80       	movsd  -0x80(%rbp),%xmm0
    c496:	f2 0f 58 45 98       	addsd  -0x68(%rbp),%xmm0
    c49b:	66 48 0f 7e c2       	movq   %xmm0,%rdx
    c4a0:	48 8d 45 a0          	lea    -0x60(%rbp),%rax
    c4a4:	f2 0f 10 8d 70 ff ff 	movsd  -0x90(%rbp),%xmm1
    c4ab:	ff 
    c4ac:	f2 0f 10 85 78 ff ff 	movsd  -0x88(%rbp),%xmm0
    c4b3:	ff 
    c4b4:	66 0f 28 d1          	movapd %xmm1,%xmm2
    c4b8:	66 0f 28 c8          	movapd %xmm0,%xmm1
    c4bc:	66 48 0f 6e c2       	movq   %rdx,%xmm0
    c4c1:	48 89 c7             	mov    %rax,%rdi
    c4c4:	e8 2e 0f 00 00       	call   d3f7 <_Z8velocityddd>
    c4c9:	48 8d 45 e0          	lea    -0x20(%rbp),%rax
    c4cd:	48 8d 55 c0          	lea    -0x40(%rbp),%rdx
    c4d1:	48 8d 4d a0          	lea    -0x60(%rbp),%rcx
    c4d5:	48 89 ce             	mov    %rcx,%rsi
    c4d8:	48 89 c7             	mov    %rax,%rdi
    c4db:	e8 aa d0 ff ff       	call   958a <_ZN6vectormiERKS_>
    c4e0:	48 8b 45 88          	mov    -0x78(%rbp),%rax
    c4e4:	48 8b 4d 98          	mov    -0x68(%rbp),%rcx
    c4e8:	48 8d 55 e0          	lea    -0x20(%rbp),%rdx
    c4ec:	66 48 0f 6e c1       	movq   %rcx,%xmm0
    c4f1:	48 89 d6             	mov    %rdx,%rsi
    c4f4:	48 89 c7             	mov    %rax,%rdi
    c4f7:	e8 78 d1 ff ff       	call   9674 <_ZN6vectordvEd>
    c4fc:	e9 30 01 00 00       	jmp    c631 <_Z4diffdddi+0x24c>
    c501:	48 8d 45 c0          	lea    -0x40(%rbp),%rax
    c505:	f2 0f 10 8d 70 ff ff 	movsd  -0x90(%rbp),%xmm1
    c50c:	ff 
    c50d:	f2 0f 10 85 78 ff ff 	movsd  -0x88(%rbp),%xmm0
    c514:	ff 
    c515:	48 8b 55 80          	mov    -0x80(%rbp),%rdx
    c519:	66 0f 28 d1          	movapd %xmm1,%xmm2
    c51d:	66 0f 28 c8          	movapd %xmm0,%xmm1
    c521:	66 48 0f 6e c2       	movq   %rdx,%xmm0
    c526:	48 89 c7             	mov    %rax,%rdi
    c529:	e8 c9 0e 00 00       	call   d3f7 <_Z8velocityddd>
    c52e:	f2 0f 10 85 78 ff ff 	movsd  -0x88(%rbp),%xmm0
    c535:	ff 
    c536:	f2 0f 58 45 98       	addsd  -0x68(%rbp),%xmm0
    c53b:	48 8d 45 a0          	lea    -0x60(%rbp),%rax
    c53f:	f2 0f 10 8d 70 ff ff 	movsd  -0x90(%rbp),%xmm1
    c546:	ff 
    c547:	48 8b 55 80          	mov    -0x80(%rbp),%rdx
    c54b:	66 0f 28 d1          	movapd %xmm1,%xmm2
    c54f:	66 0f 28 c8          	movapd %xmm0,%xmm1
    c553:	66 48 0f 6e c2       	movq   %rdx,%xmm0
    c558:	48 89 c7             	mov    %rax,%rdi
    c55b:	e8 97 0e 00 00       	call   d3f7 <_Z8velocityddd>
    c560:	48 8d 45 e0          	lea    -0x20(%rbp),%rax
    c564:	48 8d 55 c0          	lea    -0x40(%rbp),%rdx
    c568:	48 8d 4d a0          	lea    -0x60(%rbp),%rcx
    c56c:	48 89 ce             	mov    %rcx,%rsi
    c56f:	48 89 c7             	mov    %rax,%rdi
    c572:	e8 13 d0 ff ff       	call   958a <_ZN6vectormiERKS_>
    c577:	48 8b 45 88          	mov    -0x78(%rbp),%rax
    c57b:	48 8b 4d 98          	mov    -0x68(%rbp),%rcx
    c57f:	48 8d 55 e0          	lea    -0x20(%rbp),%rdx
    c583:	66 48 0f 6e c1       	movq   %rcx,%xmm0
    c588:	48 89 d6             	mov    %rdx,%rsi
    c58b:	48 89 c7             	mov    %rax,%rdi
    c58e:	e8 e1 d0 ff ff       	call   9674 <_ZN6vectordvEd>
    c593:	e9 99 00 00 00       	jmp    c631 <_Z4diffdddi+0x24c>
    c598:	48 8d 45 c0          	lea    -0x40(%rbp),%rax
    c59c:	f2 0f 10 8d 70 ff ff 	movsd  -0x90(%rbp),%xmm1
    c5a3:	ff 
    c5a4:	f2 0f 10 85 78 ff ff 	movsd  -0x88(%rbp),%xmm0
    c5ab:	ff 
    c5ac:	48 8b 55 80          	mov    -0x80(%rbp),%rdx
    c5b0:	66 0f 28 d1          	movapd %xmm1,%xmm2
    c5b4:	66 0f 28 c8          	movapd %xmm0,%xmm1
    c5b8:	66 48 0f 6e c2       	movq   %rdx,%xmm0
    c5bd:	48 89 c7             	mov    %rax,%rdi
    c5c0:	e8 32 0e 00 00       	call   d3f7 <_Z8velocityddd>
    c5c5:	f2 0f 10 85 70 ff ff 	movsd  -0x90(%rbp),%xmm0
    c5cc:	ff 
    c5cd:	66 0f 28 c8          	movapd %xmm0,%xmm1
    c5d1:	f2 0f 58 4d 98       	addsd  -0x68(%rbp),%xmm1
    c5d6:	48 8d 45 a0          	lea    -0x60(%rbp),%rax
    c5da:	f2 0f 10 85 78 ff ff 	movsd  -0x88(%rbp),%xmm0
    c5e1:	ff 
    c5e2:	48 8b 55 80          	mov    -0x80(%rbp),%rdx
    c5e6:	66 0f 28 d1          	movapd %xmm1,%xmm2
    c5ea:	66 0f 28 c8          	movapd %xmm0,%xmm1
    c5ee:	66 48 0f 6e c2       	movq   %rdx,%xmm0
    c5f3:	48 89 c7             	mov    %rax,%rdi
    c5f6:	e8 fc 0d 00 00       	call   d3f7 <_Z8velocityddd>
    c5fb:	48 8d 45 e0          	lea    -0x20(%rbp),%rax
    c5ff:	48 8d 55 c0          	lea    -0x40(%rbp),%rdx
    c603:	48 8d 4d a0          	lea    -0x60(%rbp),%rcx
    c607:	48 89 ce             	mov    %rcx,%rsi
    c60a:	48 89 c7             	mov    %rax,%rdi
    c60d:	e8 78 cf ff ff       	call   958a <_ZN6vectormiERKS_>
    c612:	48 8b 45 88          	mov    -0x78(%rbp),%rax
    c616:	48 8b 4d 98          	mov    -0x68(%rbp),%rcx
    c61a:	48 8d 55 e0          	lea    -0x20(%rbp),%rdx
    c61e:	66 48 0f 6e c1       	movq   %rcx,%xmm0
    c623:	48 89 d6             	mov    %rdx,%rsi
    c626:	48 89 c7             	mov    %rax,%rdi
    c629:	e8 46 d0 ff ff       	call   9674 <_ZN6vectordvEd>
    c62e:	eb 01                	jmp    c631 <_Z4diffdddi+0x24c>
    c630:	90                   	nop
    c631:	48 8b 45 f8          	mov    -0x8(%rbp),%rax
    c635:	64 48 2b 04 25 28 00 	sub    %fs:0x28,%rax
    c63c:	00 00 
    c63e:	74 05                	je     c645 <_Z4diffdddi+0x260>
    c640:	e8 9b 5e ff ff       	call   24e0 <__stack_chk_fail@plt>
    c645:	48 8b 45 88          	mov    -0x78(%rbp),%rax
    c649:	c9                   	leave  
    c64a:	c3                   	ret    

000000000000c64b <_Z6shearaPPPPdiii>:
    c64b:	f3 0f 1e fa          	endbr64 
    c64f:	55                   	push   %rbp
    c650:	48 89 e5             	mov    %rsp,%rbp
    c653:	48 81 ec 20 01 00 00 	sub    $0x120,%rsp
    c65a:	48 89 bd f8 fe ff ff 	mov    %rdi,-0x108(%rbp)
    c661:	48 89 b5 f0 fe ff ff 	mov    %rsi,-0x110(%rbp)
    c668:	89 95 ec fe ff ff    	mov    %edx,-0x114(%rbp)
    c66e:	89 8d e8 fe ff ff    	mov    %ecx,-0x118(%rbp)
    c674:	44 89 85 e4 fe ff ff 	mov    %r8d,-0x11c(%rbp)
    c67b:	64 48 8b 04 25 28 00 	mov    %fs:0x28,%rax
    c682:	00 00 
    c684:	48 89 45 f8          	mov    %rax,-0x8(%rbp)
    c688:	31 c0                	xor    %eax,%eax
    c68a:	66 0f ef c9          	pxor   %xmm1,%xmm1
    c68e:	f2 0f 2a 8d e4 fe ff 	cvtsi2sdl -0x11c(%rbp),%xmm1
    c695:	ff 
    c696:	66 0f ef c0          	pxor   %xmm0,%xmm0
    c69a:	f2 0f 2a 85 e8 fe ff 	cvtsi2sdl -0x118(%rbp),%xmm0
    c6a1:	ff 
    c6a2:	66 0f ef db          	pxor   %xmm3,%xmm3
    c6a6:	f2 0f 2a 9d ec fe ff 	cvtsi2sdl -0x114(%rbp),%xmm3
    c6ad:	ff 
    c6ae:	66 48 0f 7e da       	movq   %xmm3,%rdx
    c6b3:	48 8d 85 00 ff ff ff 	lea    -0x100(%rbp),%rax
    c6ba:	be 01 00 00 00       	mov    $0x1,%esi
    c6bf:	66 0f 28 d1          	movapd %xmm1,%xmm2
    c6c3:	66 0f 28 c8          	movapd %xmm0,%xmm1
    c6c7:	66 48 0f 6e c2       	movq   %rdx,%xmm0
    c6cc:	48 89 c7             	mov    %rax,%rdi
    c6cf:	e8 11 fd ff ff       	call   c3e5 <_Z4diffdddi>
    c6d4:	66 0f ef c9          	pxor   %xmm1,%xmm1
    c6d8:	f2 0f 2a 8d e4 fe ff 	cvtsi2sdl -0x11c(%rbp),%xmm1
    c6df:	ff 
    c6e0:	66 0f ef c0          	pxor   %xmm0,%xmm0
    c6e4:	f2 0f 2a 85 e8 fe ff 	cvtsi2sdl -0x118(%rbp),%xmm0
    c6eb:	ff 
    c6ec:	66 0f ef e4          	pxor   %xmm4,%xmm4
    c6f0:	f2 0f 2a a5 ec fe ff 	cvtsi2sdl -0x114(%rbp),%xmm4
    c6f7:	ff 
    c6f8:	66 48 0f 7e e2       	movq   %xmm4,%rdx
    c6fd:	48 8d 85 20 ff ff ff 	lea    -0xe0(%rbp),%rax
    c704:	be 02 00 00 00       	mov    $0x2,%esi
    c709:	66 0f 28 d1          	movapd %xmm1,%xmm2
    c70d:	66 0f 28 c8          	movapd %xmm0,%xmm1
    c711:	66 48 0f 6e c2       	movq   %rdx,%xmm0
    c716:	48 89 c7             	mov    %rax,%rdi
    c719:	e8 c7 fc ff ff       	call   c3e5 <_Z4diffdddi>
    c71e:	66 0f ef c9          	pxor   %xmm1,%xmm1
    c722:	f2 0f 2a 8d e4 fe ff 	cvtsi2sdl -0x11c(%rbp),%xmm1
    c729:	ff 
    c72a:	66 0f ef c0          	pxor   %xmm0,%xmm0
    c72e:	f2 0f 2a 85 e8 fe ff 	cvtsi2sdl -0x118(%rbp),%xmm0
    c735:	ff 
    c736:	66 0f ef ed          	pxor   %xmm5,%xmm5
    c73a:	f2 0f 2a ad ec fe ff 	cvtsi2sdl -0x114(%rbp),%xmm5
    c741:	ff 
    c742:	66 48 0f 7e ea       	movq   %xmm5,%rdx
    c747:	48 8d 85 40 ff ff ff 	lea    -0xc0(%rbp),%rax
    c74e:	be 03 00 00 00       	mov    $0x3,%esi
    c753:	66 0f 28 d1          	movapd %xmm1,%xmm2
    c757:	66 0f 28 c8          	movapd %xmm0,%xmm1
    c75b:	66 48 0f 6e c2       	movq   %rdx,%xmm0
    c760:	48 89 c7             	mov    %rax,%rdi
    c763:	e8 7d fc ff ff       	call   c3e5 <_Z4diffdddi>
    c768:	48 8d 85 60 ff ff ff 	lea    -0xa0(%rbp),%rax
    c76f:	48 83 ec 08          	sub    $0x8,%rsp
    c773:	ff b5 50 ff ff ff    	push   -0xb0(%rbp)
    c779:	ff b5 48 ff ff ff    	push   -0xb8(%rbp)
    c77f:	ff b5 40 ff ff ff    	push   -0xc0(%rbp)
    c785:	ff b5 30 ff ff ff    	push   -0xd0(%rbp)
    c78b:	ff b5 28 ff ff ff    	push   -0xd8(%rbp)
    c791:	ff b5 20 ff ff ff    	push   -0xe0(%rbp)
    c797:	ff b5 10 ff ff ff    	push   -0xf0(%rbp)
    c79d:	ff b5 08 ff ff ff    	push   -0xf8(%rbp)
    c7a3:	ff b5 00 ff ff ff    	push   -0x100(%rbp)
    c7a9:	48 89 c7             	mov    %rax,%rdi
    c7ac:	e8 f3 cf ff ff       	call   97a4 <_ZN6tensorC1E6vectorS0_S0_>
    c7b1:	48 83 c4 50          	add    $0x50,%rsp
    c7b5:	48 8d 45 b0          	lea    -0x50(%rbp),%rax
    c7b9:	48 8d 95 60 ff ff ff 	lea    -0xa0(%rbp),%rdx
    c7c0:	48 89 d6             	mov    %rdx,%rsi
    c7c3:	48 89 c7             	mov    %rax,%rdi
    c7c6:	e8 1d d2 ff ff       	call   99e8 <_ZN6tensor9transposeEv>
    c7cb:	48 8b 85 f8 fe ff ff 	mov    -0x108(%rbp),%rax
    c7d2:	48 8d 95 60 ff ff ff 	lea    -0xa0(%rbp),%rdx
    c7d9:	48 83 ec 08          	sub    $0x8,%rsp
    c7dd:	ff 75 f0             	push   -0x10(%rbp)
    c7e0:	ff 75 e8             	push   -0x18(%rbp)
    c7e3:	ff 75 e0             	push   -0x20(%rbp)
    c7e6:	ff 75 d8             	push   -0x28(%rbp)
    c7e9:	ff 75 d0             	push   -0x30(%rbp)
    c7ec:	ff 75 c8             	push   -0x38(%rbp)
    c7ef:	ff 75 c0             	push   -0x40(%rbp)
    c7f2:	ff 75 b8             	push   -0x48(%rbp)
    c7f5:	ff 75 b0             	push   -0x50(%rbp)
    c7f8:	48 89 d6             	mov    %rdx,%rsi
    c7fb:	48 89 c7             	mov    %rax,%rdi
    c7fe:	e8 4d d5 ff ff       	call   9d50 <_ZN6tensorplES_>
    c803:	48 83 c4 50          	add    $0x50,%rsp
    c807:	48 8b 45 f8          	mov    -0x8(%rbp),%rax
    c80b:	64 48 2b 04 25 28 00 	sub    %fs:0x28,%rax
    c812:	00 00 
    c814:	74 05                	je     c81b <_Z6shearaPPPPdiii+0x1d0>
    c816:	e8 c5 5c ff ff       	call   24e0 <__stack_chk_fail@plt>
    c81b:	48 8b 85 f8 fe ff ff 	mov    -0x108(%rbp),%rax
    c822:	c9                   	leave  
    c823:	c3                   	ret    

000000000000c824 <_Z7partdifPPPPeiiiidii>:
    c824:	f3 0f 1e fa          	endbr64 
    c828:	55                   	push   %rbp
    c829:	48 89 e5             	mov    %rsp,%rbp
    c82c:	48 89 7d e8          	mov    %rdi,-0x18(%rbp)
    c830:	89 75 e4             	mov    %esi,-0x1c(%rbp)
    c833:	89 55 e0             	mov    %edx,-0x20(%rbp)
    c836:	89 4d dc             	mov    %ecx,-0x24(%rbp)
    c839:	44 89 45 d8          	mov    %r8d,-0x28(%rbp)
    c83d:	f2 0f 11 45 d0       	movsd  %xmm0,-0x30(%rbp)
    c842:	44 89 4d cc          	mov    %r9d,-0x34(%rbp)
    c846:	66 0f ef c0          	pxor   %xmm0,%xmm0
    c84a:	f2 0f 11 45 f8       	movsd  %xmm0,-0x8(%rbp)
    c84f:	83 7d 10 02          	cmpl   $0x2,0x10(%rbp)
    c853:	0f 84 79 05 00 00    	je     cdd2 <_Z7partdifPPPPeiiiidii+0x5ae>
    c859:	83 7d 10 02          	cmpl   $0x2,0x10(%rbp)
    c85d:	0f 8f 1c 08 00 00    	jg     d07f <_Z7partdifPPPPeiiiidii+0x85b>
    c863:	83 7d 10 00          	cmpl   $0x0,0x10(%rbp)
    c867:	74 0f                	je     c878 <_Z7partdifPPPPeiiiidii+0x54>
    c869:	83 7d 10 01          	cmpl   $0x1,0x10(%rbp)
    c86d:	0f 84 b2 02 00 00    	je     cb25 <_Z7partdifPPPPeiiiidii+0x301>
    c873:	e9 07 08 00 00       	jmp    d07f <_Z7partdifPPPPeiiiidii+0x85b>
    c878:	83 7d e4 00          	cmpl   $0x0,-0x1c(%rbp)
    c87c:	0f 8e ae 01 00 00    	jle    ca30 <_Z7partdifPPPPeiiiidii+0x20c>
    c882:	8b 45 d8             	mov    -0x28(%rbp),%eax
    c885:	83 e8 01             	sub    $0x1,%eax
    c888:	39 45 e4             	cmp    %eax,-0x1c(%rbp)
    c88b:	0f 8d a5 00 00 00    	jge    c936 <_Z7partdifPPPPeiiiidii+0x112>
    c891:	8b 45 cc             	mov    -0x34(%rbp),%eax
    c894:	48 98                	cltq   
    c896:	48 8d 14 c5 00 00 00 	lea    0x0(,%rax,8),%rdx
    c89d:	00 
    c89e:	48 8b 45 e8          	mov    -0x18(%rbp),%rax
    c8a2:	48 01 d0             	add    %rdx,%rax
    c8a5:	48 8b 10             	mov    (%rax),%rdx
    c8a8:	8b 45 e4             	mov    -0x1c(%rbp),%eax
    c8ab:	48 98                	cltq   
    c8ad:	48 83 c0 01          	add    $0x1,%rax
    c8b1:	48 c1 e0 03          	shl    $0x3,%rax
    c8b5:	48 01 d0             	add    %rdx,%rax
    c8b8:	48 8b 10             	mov    (%rax),%rdx
    c8bb:	8b 45 e0             	mov    -0x20(%rbp),%eax
    c8be:	48 98                	cltq   
    c8c0:	48 c1 e0 03          	shl    $0x3,%rax
    c8c4:	48 01 d0             	add    %rdx,%rax
    c8c7:	48 8b 10             	mov    (%rax),%rdx
    c8ca:	8b 45 dc             	mov    -0x24(%rbp),%eax
    c8cd:	48 98                	cltq   
    c8cf:	48 c1 e0 04          	shl    $0x4,%rax
    c8d3:	48 01 d0             	add    %rdx,%rax
    c8d6:	db 28                	fldt   (%rax)
    c8d8:	8b 45 cc             	mov    -0x34(%rbp),%eax
    c8db:	48 98                	cltq   
    c8dd:	48 8d 14 c5 00 00 00 	lea    0x0(,%rax,8),%rdx
    c8e4:	00 
    c8e5:	48 8b 45 e8          	mov    -0x18(%rbp),%rax
    c8e9:	48 01 d0             	add    %rdx,%rax
    c8ec:	48 8b 10             	mov    (%rax),%rdx
    c8ef:	8b 45 e4             	mov    -0x1c(%rbp),%eax
    c8f2:	48 98                	cltq   
    c8f4:	48 c1 e0 03          	shl    $0x3,%rax
    c8f8:	48 83 e8 08          	sub    $0x8,%rax
    c8fc:	48 01 d0             	add    %rdx,%rax
    c8ff:	48 8b 10             	mov    (%rax),%rdx
    c902:	8b 45 e0             	mov    -0x20(%rbp),%eax
    c905:	48 98                	cltq   
    c907:	48 c1 e0 03          	shl    $0x3,%rax
    c90b:	48 01 d0             	add    %rdx,%rax
    c90e:	48 8b 10             	mov    (%rax),%rdx
    c911:	8b 45 dc             	mov    -0x24(%rbp),%eax
    c914:	48 98                	cltq   
    c916:	48 c1 e0 04          	shl    $0x4,%rax
    c91a:	48 01 d0             	add    %rdx,%rax
    c91d:	db 28                	fldt   (%rax)
    c91f:	de e9                	fsubrp %st,%st(1)
    c921:	db 2d d9 2b 00 00    	fldt   0x2bd9(%rip)        # f500 <_ZN6__pstl9execution2v1L5unseqE+0x18>
    c927:	de f9                	fdivrp %st,%st(1)
    c929:	dd 45 d0             	fldl   -0x30(%rbp)
    c92c:	de f9                	fdivrp %st,%st(1)
    c92e:	dd 5d f8             	fstpl  -0x8(%rbp)
    c931:	e9 ef 01 00 00       	jmp    cb25 <_Z7partdifPPPPeiiiidii+0x301>
    c936:	8b 45 cc             	mov    -0x34(%rbp),%eax
    c939:	48 98                	cltq   
    c93b:	48 8d 14 c5 00 00 00 	lea    0x0(,%rax,8),%rdx
    c942:	00 
    c943:	48 8b 45 e8          	mov    -0x18(%rbp),%rax
    c947:	48 01 d0             	add    %rdx,%rax
    c94a:	48 8b 10             	mov    (%rax),%rdx
    c94d:	8b 45 e4             	mov    -0x1c(%rbp),%eax
    c950:	48 98                	cltq   
    c952:	48 c1 e0 03          	shl    $0x3,%rax
    c956:	48 01 d0             	add    %rdx,%rax
    c959:	48 8b 10             	mov    (%rax),%rdx
    c95c:	8b 45 e0             	mov    -0x20(%rbp),%eax
    c95f:	48 98                	cltq   
    c961:	48 c1 e0 03          	shl    $0x3,%rax
    c965:	48 01 d0             	add    %rdx,%rax
    c968:	48 8b 10             	mov    (%rax),%rdx
    c96b:	8b 45 dc             	mov    -0x24(%rbp),%eax
    c96e:	48 98                	cltq   
    c970:	48 c1 e0 04          	shl    $0x4,%rax
    c974:	48 01 d0             	add    %rdx,%rax
    c977:	db 28                	fldt   (%rax)
    c979:	db 2d 91 2b 00 00    	fldt   0x2b91(%rip)        # f510 <_ZN6__pstl9execution2v1L5unseqE+0x28>
    c97f:	de c9                	fmulp  %st,%st(1)
    c981:	8b 45 cc             	mov    -0x34(%rbp),%eax
    c984:	48 98                	cltq   
    c986:	48 8d 14 c5 00 00 00 	lea    0x0(,%rax,8),%rdx
    c98d:	00 
    c98e:	48 8b 45 e8          	mov    -0x18(%rbp),%rax
    c992:	48 01 d0             	add    %rdx,%rax
    c995:	48 8b 10             	mov    (%rax),%rdx
    c998:	8b 45 e4             	mov    -0x1c(%rbp),%eax
    c99b:	48 98                	cltq   
    c99d:	48 c1 e0 03          	shl    $0x3,%rax
    c9a1:	48 83 e8 08          	sub    $0x8,%rax
    c9a5:	48 01 d0             	add    %rdx,%rax
    c9a8:	48 8b 10             	mov    (%rax),%rdx
    c9ab:	8b 45 e0             	mov    -0x20(%rbp),%eax
    c9ae:	48 98                	cltq   
    c9b0:	48 c1 e0 03          	shl    $0x3,%rax
    c9b4:	48 01 d0             	add    %rdx,%rax
    c9b7:	48 8b 10             	mov    (%rax),%rdx
    c9ba:	8b 45 dc             	mov    -0x24(%rbp),%eax
    c9bd:	48 98                	cltq   
    c9bf:	48 c1 e0 04          	shl    $0x4,%rax
    c9c3:	48 01 d0             	add    %rdx,%rax
    c9c6:	db 28                	fldt   (%rax)
    c9c8:	db 2d 52 2b 00 00    	fldt   0x2b52(%rip)        # f520 <_ZN6__pstl9execution2v1L5unseqE+0x38>
    c9ce:	de c9                	fmulp  %st,%st(1)
    c9d0:	de e9                	fsubrp %st,%st(1)
    c9d2:	8b 45 cc             	mov    -0x34(%rbp),%eax
    c9d5:	48 98                	cltq   
    c9d7:	48 8d 14 c5 00 00 00 	lea    0x0(,%rax,8),%rdx
    c9de:	00 
    c9df:	48 8b 45 e8          	mov    -0x18(%rbp),%rax
    c9e3:	48 01 d0             	add    %rdx,%rax
    c9e6:	48 8b 10             	mov    (%rax),%rdx
    c9e9:	8b 45 e4             	mov    -0x1c(%rbp),%eax
    c9ec:	48 98                	cltq   
    c9ee:	48 c1 e0 03          	shl    $0x3,%rax
    c9f2:	48 83 e8 10          	sub    $0x10,%rax
    c9f6:	48 01 d0             	add    %rdx,%rax
    c9f9:	48 8b 10             	mov    (%rax),%rdx
    c9fc:	8b 45 e0             	mov    -0x20(%rbp),%eax
    c9ff:	48 98                	cltq   
    ca01:	48 c1 e0 03          	shl    $0x3,%rax
    ca05:	48 01 d0             	add    %rdx,%rax
    ca08:	48 8b 10             	mov    (%rax),%rdx
    ca0b:	8b 45 dc             	mov    -0x24(%rbp),%eax
    ca0e:	48 98                	cltq   
    ca10:	48 c1 e0 04          	shl    $0x4,%rax
    ca14:	48 01 d0             	add    %rdx,%rax
    ca17:	db 28                	fldt   (%rax)
    ca19:	de c1                	faddp  %st,%st(1)
    ca1b:	db 2d df 2a 00 00    	fldt   0x2adf(%rip)        # f500 <_ZN6__pstl9execution2v1L5unseqE+0x18>
    ca21:	de f9                	fdivrp %st,%st(1)
    ca23:	dd 45 d0             	fldl   -0x30(%rbp)
    ca26:	de f9                	fdivrp %st,%st(1)
    ca28:	dd 5d f8             	fstpl  -0x8(%rbp)
    ca2b:	e9 f5 00 00 00       	jmp    cb25 <_Z7partdifPPPPeiiiidii+0x301>
    ca30:	8b 45 cc             	mov    -0x34(%rbp),%eax
    ca33:	48 98                	cltq   
    ca35:	48 8d 14 c5 00 00 00 	lea    0x0(,%rax,8),%rdx
    ca3c:	00 
    ca3d:	48 8b 45 e8          	mov    -0x18(%rbp),%rax
    ca41:	48 01 d0             	add    %rdx,%rax
    ca44:	48 8b 10             	mov    (%rax),%rdx
    ca47:	8b 45 e4             	mov    -0x1c(%rbp),%eax
    ca4a:	48 98                	cltq   
    ca4c:	48 c1 e0 03          	shl    $0x3,%rax
    ca50:	48 01 d0             	add    %rdx,%rax
    ca53:	48 8b 10             	mov    (%rax),%rdx
    ca56:	8b 45 e0             	mov    -0x20(%rbp),%eax
    ca59:	48 98                	cltq   
    ca5b:	48 c1 e0 03          	shl    $0x3,%rax
    ca5f:	48 01 d0             	add    %rdx,%rax
    ca62:	48 8b 10             	mov    (%rax),%rdx
    ca65:	8b 45 dc             	mov    -0x24(%rbp),%eax
    ca68:	48 98                	cltq   
    ca6a:	48 c1 e0 04          	shl    $0x4,%rax
    ca6e:	48 01 d0             	add    %rdx,%rax
    ca71:	db 28                	fldt   (%rax)
    ca73:	db 2d b7 2a 00 00    	fldt   0x2ab7(%rip)        # f530 <_ZN6__pstl9execution2v1L5unseqE+0x48>
    ca79:	de c9                	fmulp  %st,%st(1)
    ca7b:	8b 45 cc             	mov    -0x34(%rbp),%eax
    ca7e:	48 98                	cltq   
    ca80:	48 8d 14 c5 00 00 00 	lea    0x0(,%rax,8),%rdx
    ca87:	00 
    ca88:	48 8b 45 e8          	mov    -0x18(%rbp),%rax
    ca8c:	48 01 d0             	add    %rdx,%rax
    ca8f:	48 8b 10             	mov    (%rax),%rdx
    ca92:	8b 45 e4             	mov    -0x1c(%rbp),%eax
    ca95:	48 98                	cltq   
    ca97:	48 83 c0 01          	add    $0x1,%rax
    ca9b:	48 c1 e0 03          	shl    $0x3,%rax
    ca9f:	48 01 d0             	add    %rdx,%rax
    caa2:	48 8b 10             	mov    (%rax),%rdx
    caa5:	8b 45 e0             	mov    -0x20(%rbp),%eax
    caa8:	48 98                	cltq   
    caaa:	48 c1 e0 03          	shl    $0x3,%rax
    caae:	48 01 d0             	add    %rdx,%rax
    cab1:	48 8b 10             	mov    (%rax),%rdx
    cab4:	8b 45 dc             	mov    -0x24(%rbp),%eax
    cab7:	48 98                	cltq   
    cab9:	48 c1 e0 04          	shl    $0x4,%rax
    cabd:	48 01 d0             	add    %rdx,%rax
    cac0:	db 28                	fldt   (%rax)
    cac2:	db 2d 58 2a 00 00    	fldt   0x2a58(%rip)        # f520 <_ZN6__pstl9execution2v1L5unseqE+0x38>
    cac8:	de c9                	fmulp  %st,%st(1)
    caca:	de c1                	faddp  %st,%st(1)
    cacc:	8b 45 cc             	mov    -0x34(%rbp),%eax
    cacf:	48 98                	cltq   
    cad1:	48 8d 14 c5 00 00 00 	lea    0x0(,%rax,8),%rdx
    cad8:	00 
    cad9:	48 8b 45 e8          	mov    -0x18(%rbp),%rax
    cadd:	48 01 d0             	add    %rdx,%rax
    cae0:	48 8b 10             	mov    (%rax),%rdx
    cae3:	8b 45 e4             	mov    -0x1c(%rbp),%eax
    cae6:	48 98                	cltq   
    cae8:	48 83 c0 02          	add    $0x2,%rax
    caec:	48 c1 e0 03          	shl    $0x3,%rax
    caf0:	48 01 d0             	add    %rdx,%rax
    caf3:	48 8b 10             	mov    (%rax),%rdx
    caf6:	8b 45 e0             	mov    -0x20(%rbp),%eax
    caf9:	48 98                	cltq   
    cafb:	48 c1 e0 03          	shl    $0x3,%rax
    caff:	48 01 d0             	add    %rdx,%rax
    cb02:	48 8b 10             	mov    (%rax),%rdx
    cb05:	8b 45 dc             	mov    -0x24(%rbp),%eax
    cb08:	48 98                	cltq   
    cb0a:	48 c1 e0 04          	shl    $0x4,%rax
    cb0e:	48 01 d0             	add    %rdx,%rax
    cb11:	db 28                	fldt   (%rax)
    cb13:	de e9                	fsubrp %st,%st(1)
    cb15:	db 2d e5 29 00 00    	fldt   0x29e5(%rip)        # f500 <_ZN6__pstl9execution2v1L5unseqE+0x18>
    cb1b:	de f9                	fdivrp %st,%st(1)
    cb1d:	dd 45 d0             	fldl   -0x30(%rbp)
    cb20:	de f9                	fdivrp %st,%st(1)
    cb22:	dd 5d f8             	fstpl  -0x8(%rbp)
    cb25:	83 7d e0 00          	cmpl   $0x0,-0x20(%rbp)
    cb29:	0f 8e ae 01 00 00    	jle    ccdd <_Z7partdifPPPPeiiiidii+0x4b9>
    cb2f:	8b 45 d8             	mov    -0x28(%rbp),%eax
    cb32:	83 e8 01             	sub    $0x1,%eax
    cb35:	39 45 e0             	cmp    %eax,-0x20(%rbp)
    cb38:	0f 8d a5 00 00 00    	jge    cbe3 <_Z7partdifPPPPeiiiidii+0x3bf>
    cb3e:	8b 45 cc             	mov    -0x34(%rbp),%eax
    cb41:	48 98                	cltq   
    cb43:	48 8d 14 c5 00 00 00 	lea    0x0(,%rax,8),%rdx
    cb4a:	00 
    cb4b:	48 8b 45 e8          	mov    -0x18(%rbp),%rax
    cb4f:	48 01 d0             	add    %rdx,%rax
    cb52:	48 8b 10             	mov    (%rax),%rdx
    cb55:	8b 45 e4             	mov    -0x1c(%rbp),%eax
    cb58:	48 98                	cltq   
    cb5a:	48 c1 e0 03          	shl    $0x3,%rax
    cb5e:	48 01 d0             	add    %rdx,%rax
    cb61:	48 8b 10             	mov    (%rax),%rdx
    cb64:	8b 45 e0             	mov    -0x20(%rbp),%eax
    cb67:	48 98                	cltq   
    cb69:	48 83 c0 01          	add    $0x1,%rax
    cb6d:	48 c1 e0 03          	shl    $0x3,%rax
    cb71:	48 01 d0             	add    %rdx,%rax
    cb74:	48 8b 10             	mov    (%rax),%rdx
    cb77:	8b 45 dc             	mov    -0x24(%rbp),%eax
    cb7a:	48 98                	cltq   
    cb7c:	48 c1 e0 04          	shl    $0x4,%rax
    cb80:	48 01 d0             	add    %rdx,%rax
    cb83:	db 28                	fldt   (%rax)
    cb85:	8b 45 cc             	mov    -0x34(%rbp),%eax
    cb88:	48 98                	cltq   
    cb8a:	48 8d 14 c5 00 00 00 	lea    0x0(,%rax,8),%rdx
    cb91:	00 
    cb92:	48 8b 45 e8          	mov    -0x18(%rbp),%rax
    cb96:	48 01 d0             	add    %rdx,%rax
    cb99:	48 8b 10             	mov    (%rax),%rdx
    cb9c:	8b 45 e4             	mov    -0x1c(%rbp),%eax
    cb9f:	48 98                	cltq   
    cba1:	48 c1 e0 03          	shl    $0x3,%rax
    cba5:	48 01 d0             	add    %rdx,%rax
    cba8:	48 8b 10             	mov    (%rax),%rdx
    cbab:	8b 45 e0             	mov    -0x20(%rbp),%eax
    cbae:	48 98                	cltq   
    cbb0:	48 c1 e0 03          	shl    $0x3,%rax
    cbb4:	48 83 e8 08          	sub    $0x8,%rax
    cbb8:	48 01 d0             	add    %rdx,%rax
    cbbb:	48 8b 10             	mov    (%rax),%rdx
    cbbe:	8b 45 dc             	mov    -0x24(%rbp),%eax
    cbc1:	48 98                	cltq   
    cbc3:	48 c1 e0 04          	shl    $0x4,%rax
    cbc7:	48 01 d0             	add    %rdx,%rax
    cbca:	db 28                	fldt   (%rax)
    cbcc:	de e9                	fsubrp %st,%st(1)
    cbce:	db 2d 2c 29 00 00    	fldt   0x292c(%rip)        # f500 <_ZN6__pstl9execution2v1L5unseqE+0x18>
    cbd4:	de f9                	fdivrp %st,%st(1)
    cbd6:	dd 45 d0             	fldl   -0x30(%rbp)
    cbd9:	de f9                	fdivrp %st,%st(1)
    cbdb:	dd 5d f8             	fstpl  -0x8(%rbp)
    cbde:	e9 ef 01 00 00       	jmp    cdd2 <_Z7partdifPPPPeiiiidii+0x5ae>
    cbe3:	8b 45 cc             	mov    -0x34(%rbp),%eax
    cbe6:	48 98                	cltq   
    cbe8:	48 8d 14 c5 00 00 00 	lea    0x0(,%rax,8),%rdx
    cbef:	00 
    cbf0:	48 8b 45 e8          	mov    -0x18(%rbp),%rax
    cbf4:	48 01 d0             	add    %rdx,%rax
    cbf7:	48 8b 10             	mov    (%rax),%rdx
    cbfa:	8b 45 e4             	mov    -0x1c(%rbp),%eax
    cbfd:	48 98                	cltq   
    cbff:	48 c1 e0 03          	shl    $0x3,%rax
    cc03:	48 01 d0             	add    %rdx,%rax
    cc06:	48 8b 10             	mov    (%rax),%rdx
    cc09:	8b 45 e0             	mov    -0x20(%rbp),%eax
    cc0c:	48 98                	cltq   
    cc0e:	48 c1 e0 03          	shl    $0x3,%rax
    cc12:	48 01 d0             	add    %rdx,%rax
    cc15:	48 8b 10             	mov    (%rax),%rdx
    cc18:	8b 45 dc             	mov    -0x24(%rbp),%eax
    cc1b:	48 98                	cltq   
    cc1d:	48 c1 e0 04          	shl    $0x4,%rax
    cc21:	48 01 d0             	add    %rdx,%rax
    cc24:	db 28                	fldt   (%rax)
    cc26:	db 2d e4 28 00 00    	fldt   0x28e4(%rip)        # f510 <_ZN6__pstl9execution2v1L5unseqE+0x28>
    cc2c:	de c9                	fmulp  %st,%st(1)
    cc2e:	8b 45 cc             	mov    -0x34(%rbp),%eax
    cc31:	48 98                	cltq   
    cc33:	48 8d 14 c5 00 00 00 	lea    0x0(,%rax,8),%rdx
    cc3a:	00 
    cc3b:	48 8b 45 e8          	mov    -0x18(%rbp),%rax
    cc3f:	48 01 d0             	add    %rdx,%rax
    cc42:	48 8b 10             	mov    (%rax),%rdx
    cc45:	8b 45 e4             	mov    -0x1c(%rbp),%eax
    cc48:	48 98                	cltq   
    cc4a:	48 c1 e0 03          	shl    $0x3,%rax
    cc4e:	48 01 d0             	add    %rdx,%rax
    cc51:	48 8b 10             	mov    (%rax),%rdx
    cc54:	8b 45 e0             	mov    -0x20(%rbp),%eax
    cc57:	48 98                	cltq   
    cc59:	48 c1 e0 03          	shl    $0x3,%rax
    cc5d:	48 83 e8 08          	sub    $0x8,%rax
    cc61:	48 01 d0             	add    %rdx,%rax
    cc64:	48 8b 10             	mov    (%rax),%rdx
    cc67:	8b 45 dc             	mov    -0x24(%rbp),%eax
    cc6a:	48 98                	cltq   
    cc6c:	48 c1 e0 04          	shl    $0x4,%rax
    cc70:	48 01 d0             	add    %rdx,%rax
    cc73:	db 28                	fldt   (%rax)
    cc75:	db 2d a5 28 00 00    	fldt   0x28a5(%rip)        # f520 <_ZN6__pstl9execution2v1L5unseqE+0x38>
    cc7b:	de c9                	fmulp  %st,%st(1)
    cc7d:	de e9                	fsubrp %st,%st(1)
    cc7f:	8b 45 cc             	mov    -0x34(%rbp),%eax
    cc82:	48 98                	cltq   
    cc84:	48 8d 14 c5 00 00 00 	lea    0x0(,%rax,8),%rdx
    cc8b:	00 
    cc8c:	48 8b 45 e8          	mov    -0x18(%rbp),%rax
    cc90:	48 01 d0             	add    %rdx,%rax
    cc93:	48 8b 10             	mov    (%rax),%rdx
    cc96:	8b 45 e4             	mov    -0x1c(%rbp),%eax
    cc99:	48 98                	cltq   
    cc9b:	48 c1 e0 03          	shl    $0x3,%rax
    cc9f:	48 01 d0             	add    %rdx,%rax
    cca2:	48 8b 10             	mov    (%rax),%rdx
    cca5:	8b 45 e0             	mov    -0x20(%rbp),%eax
    cca8:	48 98                	cltq   
    ccaa:	48 c1 e0 03          	shl    $0x3,%rax
    ccae:	48 83 e8 10          	sub    $0x10,%rax
    ccb2:	48 01 d0             	add    %rdx,%rax
    ccb5:	48 8b 10             	mov    (%rax),%rdx
    ccb8:	8b 45 dc             	mov    -0x24(%rbp),%eax
    ccbb:	48 98                	cltq   
    ccbd:	48 c1 e0 04          	shl    $0x4,%rax
    ccc1:	48 01 d0             	add    %rdx,%rax
    ccc4:	db 28                	fldt   (%rax)
    ccc6:	de c1                	faddp  %st,%st(1)
    ccc8:	db 2d 32 28 00 00    	fldt   0x2832(%rip)        # f500 <_ZN6__pstl9execution2v1L5unseqE+0x18>
    ccce:	de f9                	fdivrp %st,%st(1)
    ccd0:	dd 45 d0             	fldl   -0x30(%rbp)
    ccd3:	de f9                	fdivrp %st,%st(1)
    ccd5:	dd 5d f8             	fstpl  -0x8(%rbp)
    ccd8:	e9 f5 00 00 00       	jmp    cdd2 <_Z7partdifPPPPeiiiidii+0x5ae>
    ccdd:	8b 45 cc             	mov    -0x34(%rbp),%eax
    cce0:	48 98                	cltq   
    cce2:	48 8d 14 c5 00 00 00 	lea    0x0(,%rax,8),%rdx
    cce9:	00 
    ccea:	48 8b 45 e8          	mov    -0x18(%rbp),%rax
    ccee:	48 01 d0             	add    %rdx,%rax
    ccf1:	48 8b 10             	mov    (%rax),%rdx
    ccf4:	8b 45 e4             	mov    -0x1c(%rbp),%eax
    ccf7:	48 98                	cltq   
    ccf9:	48 c1 e0 03          	shl    $0x3,%rax
    ccfd:	48 01 d0             	add    %rdx,%rax
    cd00:	48 8b 10             	mov    (%rax),%rdx
    cd03:	8b 45 e0             	mov    -0x20(%rbp),%eax
    cd06:	48 98                	cltq   
    cd08:	48 c1 e0 03          	shl    $0x3,%rax
    cd0c:	48 01 d0             	add    %rdx,%rax
    cd0f:	48 8b 10             	mov    (%rax),%rdx
    cd12:	8b 45 dc             	mov    -0x24(%rbp),%eax
    cd15:	48 98                	cltq   
    cd17:	48 c1 e0 04          	shl    $0x4,%rax
    cd1b:	48 01 d0             	add    %rdx,%rax
    cd1e:	db 28                	fldt   (%rax)
    cd20:	db 2d 0a 28 00 00    	fldt   0x280a(%rip)        # f530 <_ZN6__pstl9execution2v1L5unseqE+0x48>
    cd26:	de c9                	fmulp  %st,%st(1)
    cd28:	8b 45 cc             	mov    -0x34(%rbp),%eax
    cd2b:	48 98                	cltq   
    cd2d:	48 8d 14 c5 00 00 00 	lea    0x0(,%rax,8),%rdx
    cd34:	00 
    cd35:	48 8b 45 e8          	mov    -0x18(%rbp),%rax
    cd39:	48 01 d0             	add    %rdx,%rax
    cd3c:	48 8b 10             	mov    (%rax),%rdx
    cd3f:	8b 45 e4             	mov    -0x1c(%rbp),%eax
    cd42:	48 98                	cltq   
    cd44:	48 c1 e0 03          	shl    $0x3,%rax
    cd48:	48 01 d0             	add    %rdx,%rax
    cd4b:	48 8b 10             	mov    (%rax),%rdx
    cd4e:	8b 45 e0             	mov    -0x20(%rbp),%eax
    cd51:	48 98                	cltq   
    cd53:	48 83 c0 01          	add    $0x1,%rax
    cd57:	48 c1 e0 03          	shl    $0x3,%rax
    cd5b:	48 01 d0             	add    %rdx,%rax
    cd5e:	48 8b 10             	mov    (%rax),%rdx
    cd61:	8b 45 dc             	mov    -0x24(%rbp),%eax
    cd64:	48 98                	cltq   
    cd66:	48 c1 e0 04          	shl    $0x4,%rax
    cd6a:	48 01 d0             	add    %rdx,%rax
    cd6d:	db 28                	fldt   (%rax)
    cd6f:	db 2d ab 27 00 00    	fldt   0x27ab(%rip)        # f520 <_ZN6__pstl9execution2v1L5unseqE+0x38>
    cd75:	de c9                	fmulp  %st,%st(1)
    cd77:	de c1                	faddp  %st,%st(1)
    cd79:	8b 45 cc             	mov    -0x34(%rbp),%eax
    cd7c:	48 98                	cltq   
    cd7e:	48 8d 14 c5 00 00 00 	lea    0x0(,%rax,8),%rdx
    cd85:	00 
    cd86:	48 8b 45 e8          	mov    -0x18(%rbp),%rax
    cd8a:	48 01 d0             	add    %rdx,%rax
    cd8d:	48 8b 10             	mov    (%rax),%rdx
    cd90:	8b 45 e4             	mov    -0x1c(%rbp),%eax
    cd93:	48 98                	cltq   
    cd95:	48 c1 e0 03          	shl    $0x3,%rax
    cd99:	48 01 d0             	add    %rdx,%rax
    cd9c:	48 8b 10             	mov    (%rax),%rdx
    cd9f:	8b 45 e0             	mov    -0x20(%rbp),%eax
    cda2:	48 98                	cltq   
    cda4:	48 83 c0 02          	add    $0x2,%rax
    cda8:	48 c1 e0 03          	shl    $0x3,%rax
    cdac:	48 01 d0             	add    %rdx,%rax
    cdaf:	48 8b 10             	mov    (%rax),%rdx
    cdb2:	8b 45 dc             	mov    -0x24(%rbp),%eax
    cdb5:	48 98                	cltq   
    cdb7:	48 c1 e0 04          	shl    $0x4,%rax
    cdbb:	48 01 d0             	add    %rdx,%rax
    cdbe:	db 28                	fldt   (%rax)
    cdc0:	de e9                	fsubrp %st,%st(1)
    cdc2:	db 2d 38 27 00 00    	fldt   0x2738(%rip)        # f500 <_ZN6__pstl9execution2v1L5unseqE+0x18>
    cdc8:	de f9                	fdivrp %st,%st(1)
    cdca:	dd 45 d0             	fldl   -0x30(%rbp)
    cdcd:	de f9                	fdivrp %st,%st(1)
    cdcf:	dd 5d f8             	fstpl  -0x8(%rbp)
    cdd2:	83 7d dc 00          	cmpl   $0x0,-0x24(%rbp)
    cdd6:	0f 8e ae 01 00 00    	jle    cf8a <_Z7partdifPPPPeiiiidii+0x766>
    cddc:	8b 45 d8             	mov    -0x28(%rbp),%eax
    cddf:	83 e8 01             	sub    $0x1,%eax
    cde2:	39 45 dc             	cmp    %eax,-0x24(%rbp)
    cde5:	0f 8d a5 00 00 00    	jge    ce90 <_Z7partdifPPPPeiiiidii+0x66c>
    cdeb:	8b 45 cc             	mov    -0x34(%rbp),%eax
    cdee:	48 98                	cltq   
    cdf0:	48 8d 14 c5 00 00 00 	lea    0x0(,%rax,8),%rdx
    cdf7:	00 
    cdf8:	48 8b 45 e8          	mov    -0x18(%rbp),%rax
    cdfc:	48 01 d0             	add    %rdx,%rax
    cdff:	48 8b 10             	mov    (%rax),%rdx
    ce02:	8b 45 e4             	mov    -0x1c(%rbp),%eax
    ce05:	48 98                	cltq   
    ce07:	48 c1 e0 03          	shl    $0x3,%rax
    ce0b:	48 01 d0             	add    %rdx,%rax
    ce0e:	48 8b 10             	mov    (%rax),%rdx
    ce11:	8b 45 e0             	mov    -0x20(%rbp),%eax
    ce14:	48 98                	cltq   
    ce16:	48 c1 e0 03          	shl    $0x3,%rax
    ce1a:	48 01 d0             	add    %rdx,%rax
    ce1d:	48 8b 10             	mov    (%rax),%rdx
    ce20:	8b 45 dc             	mov    -0x24(%rbp),%eax
    ce23:	48 98                	cltq   
    ce25:	48 83 c0 01          	add    $0x1,%rax
    ce29:	48 c1 e0 04          	shl    $0x4,%rax
    ce2d:	48 01 d0             	add    %rdx,%rax
    ce30:	db 28                	fldt   (%rax)
    ce32:	8b 45 cc             	mov    -0x34(%rbp),%eax
    ce35:	48 98                	cltq   
    ce37:	48 8d 14 c5 00 00 00 	lea    0x0(,%rax,8),%rdx
    ce3e:	00 
    ce3f:	48 8b 45 e8          	mov    -0x18(%rbp),%rax
    ce43:	48 01 d0             	add    %rdx,%rax
    ce46:	48 8b 10             	mov    (%rax),%rdx
    ce49:	8b 45 e4             	mov    -0x1c(%rbp),%eax
    ce4c:	48 98                	cltq   
    ce4e:	48 c1 e0 03          	shl    $0x3,%rax
    ce52:	48 01 d0             	add    %rdx,%rax
    ce55:	48 8b 10             	mov    (%rax),%rdx
    ce58:	8b 45 e0             	mov    -0x20(%rbp),%eax
    ce5b:	48 98                	cltq   
    ce5d:	48 c1 e0 03          	shl    $0x3,%rax
    ce61:	48 01 d0             	add    %rdx,%rax
    ce64:	48 8b 10             	mov    (%rax),%rdx
    ce67:	8b 45 dc             	mov    -0x24(%rbp),%eax
    ce6a:	48 98                	cltq   
    ce6c:	48 c1 e0 04          	shl    $0x4,%rax
    ce70:	48 83 e8 10          	sub    $0x10,%rax
    ce74:	48 01 d0             	add    %rdx,%rax
    ce77:	db 28                	fldt   (%rax)
    ce79:	de e9                	fsubrp %st,%st(1)
    ce7b:	db 2d 7f 26 00 00    	fldt   0x267f(%rip)        # f500 <_ZN6__pstl9execution2v1L5unseqE+0x18>
    ce81:	de f9                	fdivrp %st,%st(1)
    ce83:	dd 45 d0             	fldl   -0x30(%rbp)
    ce86:	de f9                	fdivrp %st,%st(1)
    ce88:	dd 5d f8             	fstpl  -0x8(%rbp)
    ce8b:	e9 ef 01 00 00       	jmp    d07f <_Z7partdifPPPPeiiiidii+0x85b>
    ce90:	8b 45 cc             	mov    -0x34(%rbp),%eax
    ce93:	48 98                	cltq   
    ce95:	48 8d 14 c5 00 00 00 	lea    0x0(,%rax,8),%rdx
    ce9c:	00 
    ce9d:	48 8b 45 e8          	mov    -0x18(%rbp),%rax
    cea1:	48 01 d0             	add    %rdx,%rax
    cea4:	48 8b 10             	mov    (%rax),%rdx
    cea7:	8b 45 e4             	mov    -0x1c(%rbp),%eax
    ceaa:	48 98                	cltq   
    ceac:	48 c1 e0 03          	shl    $0x3,%rax
    ceb0:	48 01 d0             	add    %rdx,%rax
    ceb3:	48 8b 10             	mov    (%rax),%rdx
    ceb6:	8b 45 e0             	mov    -0x20(%rbp),%eax
    ceb9:	48 98                	cltq   
    cebb:	48 c1 e0 03          	shl    $0x3,%rax
    cebf:	48 01 d0             	add    %rdx,%rax
    cec2:	48 8b 10             	mov    (%rax),%rdx
    cec5:	8b 45 dc             	mov    -0x24(%rbp),%eax
    cec8:	48 98                	cltq   
    ceca:	48 c1 e0 04          	shl    $0x4,%rax
    cece:	48 01 d0             	add    %rdx,%rax
    ced1:	db 28                	fldt   (%rax)
    ced3:	db 2d 37 26 00 00    	fldt   0x2637(%rip)        # f510 <_ZN6__pstl9execution2v1L5unseqE+0x28>
    ced9:	de c9                	fmulp  %st,%st(1)
    cedb:	8b 45 cc             	mov    -0x34(%rbp),%eax
    cede:	48 98                	cltq   
    cee0:	48 8d 14 c5 00 00 00 	lea    0x0(,%rax,8),%rdx
    cee7:	00 
    cee8:	48 8b 45 e8          	mov    -0x18(%rbp),%rax
    ceec:	48 01 d0             	add    %rdx,%rax
    ceef:	48 8b 10             	mov    (%rax),%rdx
    cef2:	8b 45 e4             	mov    -0x1c(%rbp),%eax
    cef5:	48 98                	cltq   
    cef7:	48 c1 e0 03          	shl    $0x3,%rax
    cefb:	48 01 d0             	add    %rdx,%rax
    cefe:	48 8b 10             	mov    (%rax),%rdx
    cf01:	8b 45 e0             	mov    -0x20(%rbp),%eax
    cf04:	48 98                	cltq   
    cf06:	48 c1 e0 03          	shl    $0x3,%rax
    cf0a:	48 01 d0             	add    %rdx,%rax
    cf0d:	48 8b 10             	mov    (%rax),%rdx
    cf10:	8b 45 dc             	mov    -0x24(%rbp),%eax
    cf13:	48 98                	cltq   
    cf15:	48 c1 e0 04          	shl    $0x4,%rax
    cf19:	48 83 e8 10          	sub    $0x10,%rax
    cf1d:	48 01 d0             	add    %rdx,%rax
    cf20:	db 28                	fldt   (%rax)
    cf22:	db 2d f8 25 00 00    	fldt   0x25f8(%rip)        # f520 <_ZN6__pstl9execution2v1L5unseqE+0x38>
    cf28:	de c9                	fmulp  %st,%st(1)
    cf2a:	de e9                	fsubrp %st,%st(1)
    cf2c:	8b 45 cc             	mov    -0x34(%rbp),%eax
    cf2f:	48 98                	cltq   
    cf31:	48 8d 14 c5 00 00 00 	lea    0x0(,%rax,8),%rdx
    cf38:	00 
    cf39:	48 8b 45 e8          	mov    -0x18(%rbp),%rax
    cf3d:	48 01 d0             	add    %rdx,%rax
    cf40:	48 8b 10             	mov    (%rax),%rdx
    cf43:	8b 45 e4             	mov    -0x1c(%rbp),%eax
    cf46:	48 98                	cltq   
    cf48:	48 c1 e0 03          	shl    $0x3,%rax
    cf4c:	48 01 d0             	add    %rdx,%rax
    cf4f:	48 8b 10             	mov    (%rax),%rdx
    cf52:	8b 45 e0             	mov    -0x20(%rbp),%eax
    cf55:	48 98                	cltq   
    cf57:	48 c1 e0 03          	shl    $0x3,%rax
    cf5b:	48 01 d0             	add    %rdx,%rax
    cf5e:	48 8b 10             	mov    (%rax),%rdx
    cf61:	8b 45 dc             	mov    -0x24(%rbp),%eax
    cf64:	48 98                	cltq   
    cf66:	48 c1 e0 04          	shl    $0x4,%rax
    cf6a:	48 83 e8 20          	sub    $0x20,%rax
    cf6e:	48 01 d0             	add    %rdx,%rax
    cf71:	db 28                	fldt   (%rax)
    cf73:	de c1                	faddp  %st,%st(1)
    cf75:	db 2d 85 25 00 00    	fldt   0x2585(%rip)        # f500 <_ZN6__pstl9execution2v1L5unseqE+0x18>
    cf7b:	de f9                	fdivrp %st,%st(1)
    cf7d:	dd 45 d0             	fldl   -0x30(%rbp)
    cf80:	de f9                	fdivrp %st,%st(1)
    cf82:	dd 5d f8             	fstpl  -0x8(%rbp)
    cf85:	e9 f5 00 00 00       	jmp    d07f <_Z7partdifPPPPeiiiidii+0x85b>
    cf8a:	8b 45 cc             	mov    -0x34(%rbp),%eax
    cf8d:	48 98                	cltq   
    cf8f:	48 8d 14 c5 00 00 00 	lea    0x0(,%rax,8),%rdx
    cf96:	00 
    cf97:	48 8b 45 e8          	mov    -0x18(%rbp),%rax
    cf9b:	48 01 d0             	add    %rdx,%rax
    cf9e:	48 8b 10             	mov    (%rax),%rdx
    cfa1:	8b 45 e4             	mov    -0x1c(%rbp),%eax
    cfa4:	48 98                	cltq   
    cfa6:	48 c1 e0 03          	shl    $0x3,%rax
    cfaa:	48 01 d0             	add    %rdx,%rax
    cfad:	48 8b 10             	mov    (%rax),%rdx
    cfb0:	8b 45 e0             	mov    -0x20(%rbp),%eax
    cfb3:	48 98                	cltq   
    cfb5:	48 c1 e0 03          	shl    $0x3,%rax
    cfb9:	48 01 d0             	add    %rdx,%rax
    cfbc:	48 8b 10             	mov    (%rax),%rdx
    cfbf:	8b 45 dc             	mov    -0x24(%rbp),%eax
    cfc2:	48 98                	cltq   
    cfc4:	48 c1 e0 04          	shl    $0x4,%rax
    cfc8:	48 01 d0             	add    %rdx,%rax
    cfcb:	db 28                	fldt   (%rax)
    cfcd:	db 2d 5d 25 00 00    	fldt   0x255d(%rip)        # f530 <_ZN6__pstl9execution2v1L5unseqE+0x48>
    cfd3:	de c9                	fmulp  %st,%st(1)
    cfd5:	8b 45 cc             	mov    -0x34(%rbp),%eax
    cfd8:	48 98                	cltq   
    cfda:	48 8d 14 c5 00 00 00 	lea    0x0(,%rax,8),%rdx
    cfe1:	00 
    cfe2:	48 8b 45 e8          	mov    -0x18(%rbp),%rax
    cfe6:	48 01 d0             	add    %rdx,%rax
    cfe9:	48 8b 10             	mov    (%rax),%rdx
    cfec:	8b 45 e4             	mov    -0x1c(%rbp),%eax
    cfef:	48 98                	cltq   
    cff1:	48 c1 e0 03          	shl    $0x3,%rax
    cff5:	48 01 d0             	add    %rdx,%rax
    cff8:	48 8b 10             	mov    (%rax),%rdx
    cffb:	8b 45 e0             	mov    -0x20(%rbp),%eax
    cffe:	48 98                	cltq   
    d000:	48 c1 e0 03          	shl    $0x3,%rax
    d004:	48 01 d0             	add    %rdx,%rax
    d007:	48 8b 10             	mov    (%rax),%rdx
    d00a:	8b 45 dc             	mov    -0x24(%rbp),%eax
    d00d:	48 98                	cltq   
    d00f:	48 83 c0 01          	add    $0x1,%rax
    d013:	48 c1 e0 04          	shl    $0x4,%rax
    d017:	48 01 d0             	add    %rdx,%rax
    d01a:	db 28                	fldt   (%rax)
    d01c:	db 2d fe 24 00 00    	fldt   0x24fe(%rip)        # f520 <_ZN6__pstl9execution2v1L5unseqE+0x38>
    d022:	de c9                	fmulp  %st,%st(1)
    d024:	de c1                	faddp  %st,%st(1)
    d026:	8b 45 cc             	mov    -0x34(%rbp),%eax
    d029:	48 98                	cltq   
    d02b:	48 8d 14 c5 00 00 00 	lea    0x0(,%rax,8),%rdx
    d032:	00 
    d033:	48 8b 45 e8          	mov    -0x18(%rbp),%rax
    d037:	48 01 d0             	add    %rdx,%rax
    d03a:	48 8b 10             	mov    (%rax),%rdx
    d03d:	8b 45 e4             	mov    -0x1c(%rbp),%eax
    d040:	48 98                	cltq   
    d042:	48 c1 e0 03          	shl    $0x3,%rax
    d046:	48 01 d0             	add    %rdx,%rax
    d049:	48 8b 10             	mov    (%rax),%rdx
    d04c:	8b 45 e0             	mov    -0x20(%rbp),%eax
    d04f:	48 98                	cltq   
    d051:	48 c1 e0 03          	shl    $0x3,%rax
    d055:	48 01 d0             	add    %rdx,%rax
    d058:	48 8b 10             	mov    (%rax),%rdx
    d05b:	8b 45 dc             	mov    -0x24(%rbp),%eax
    d05e:	48 98                	cltq   
    d060:	48 83 c0 02          	add    $0x2,%rax
    d064:	48 c1 e0 04          	shl    $0x4,%rax
    d068:	48 01 d0             	add    %rdx,%rax
    d06b:	db 28                	fldt   (%rax)
    d06d:	de e9                	fsubrp %st,%st(1)
    d06f:	db 2d 8b 24 00 00    	fldt   0x248b(%rip)        # f500 <_ZN6__pstl9execution2v1L5unseqE+0x18>
    d075:	de f9                	fdivrp %st,%st(1)
    d077:	dd 45 d0             	fldl   -0x30(%rbp)
    d07a:	de f9                	fdivrp %st,%st(1)
    d07c:	dd 5d f8             	fstpl  -0x8(%rbp)
    d07f:	f2 0f 10 45 f8       	movsd  -0x8(%rbp),%xmm0
    d084:	66 48 0f 7e c0       	movq   %xmm0,%rax
    d089:	66 48 0f 6e c0       	movq   %rax,%xmm0
    d08e:	5d                   	pop    %rbp
    d08f:	c3                   	ret    

000000000000d090 <_Z9divtenallPPP6tensorid>:
    d090:	f3 0f 1e fa          	endbr64 
    d094:	55                   	push   %rbp
    d095:	48 89 e5             	mov    %rsp,%rbp
    d098:	48 81 ec b0 00 00 00 	sub    $0xb0,%rsp
    d09f:	48 89 bd 78 ff ff ff 	mov    %rdi,-0x88(%rbp)
    d0a6:	89 b5 74 ff ff ff    	mov    %esi,-0x8c(%rbp)
    d0ac:	f2 0f 11 85 68 ff ff 	movsd  %xmm0,-0x98(%rbp)
    d0b3:	ff 
    d0b4:	64 48 8b 04 25 28 00 	mov    %fs:0x28,%rax
    d0bb:	00 00 
    d0bd:	48 89 45 f8          	mov    %rax,-0x8(%rbp)
    d0c1:	31 c0                	xor    %eax,%eax
    d0c3:	8b 8d 74 ff ff ff    	mov    -0x8c(%rbp),%ecx
    d0c9:	8b 95 74 ff ff ff    	mov    -0x8c(%rbp),%edx
    d0cf:	8b 85 74 ff ff ff    	mov    -0x8c(%rbp),%eax
    d0d5:	89 c6                	mov    %eax,%esi
    d0d7:	bf 09 00 00 00       	mov    $0x9,%edi
    d0dc:	e8 39 ec ff ff       	call   bd1a <_Z10allocate4djjjj>
    d0e1:	48 89 45 b0          	mov    %rax,-0x50(%rbp)
    d0e5:	c7 45 88 00 00 00 00 	movl   $0x0,-0x78(%rbp)
    d0ec:	e9 22 01 00 00       	jmp    d213 <_Z9divtenallPPP6tensorid+0x183>
    d0f1:	c7 45 8c 00 00 00 00 	movl   $0x0,-0x74(%rbp)
    d0f8:	e9 03 01 00 00       	jmp    d200 <_Z9divtenallPPP6tensorid+0x170>
    d0fd:	c7 45 90 00 00 00 00 	movl   $0x0,-0x70(%rbp)
    d104:	e9 e4 00 00 00       	jmp    d1ed <_Z9divtenallPPP6tensorid+0x15d>
    d109:	c7 45 94 01 00 00 00 	movl   $0x1,-0x6c(%rbp)
    d110:	e9 ca 00 00 00       	jmp    d1df <_Z9divtenallPPP6tensorid+0x14f>
    d115:	c7 45 98 01 00 00 00 	movl   $0x1,-0x68(%rbp)
    d11c:	e9 b0 00 00 00       	jmp    d1d1 <_Z9divtenallPPP6tensorid+0x141>
    d121:	8b 45 88             	mov    -0x78(%rbp),%eax
    d124:	48 98                	cltq   
    d126:	48 8d 14 c5 00 00 00 	lea    0x0(,%rax,8),%rdx
    d12d:	00 
    d12e:	48 8b 85 78 ff ff ff 	mov    -0x88(%rbp),%rax
    d135:	48 01 d0             	add    %rdx,%rax
    d138:	48 8b 10             	mov    (%rax),%rdx
    d13b:	8b 45 8c             	mov    -0x74(%rbp),%eax
    d13e:	48 98                	cltq   
    d140:	48 c1 e0 03          	shl    $0x3,%rax
    d144:	48 01 d0             	add    %rdx,%rax
    d147:	48 8b 08             	mov    (%rax),%rcx
    d14a:	8b 45 90             	mov    -0x70(%rbp),%eax
    d14d:	48 63 d0             	movslq %eax,%rdx
    d150:	48 89 d0             	mov    %rdx,%rax
    d153:	48 c1 e0 03          	shl    $0x3,%rax
    d157:	48 01 d0             	add    %rdx,%rax
    d15a:	48 c1 e0 03          	shl    $0x3,%rax
    d15e:	48 01 c1             	add    %rax,%rcx
    d161:	8b 55 98             	mov    -0x68(%rbp),%edx
    d164:	8b 45 94             	mov    -0x6c(%rbp),%eax
    d167:	89 c6                	mov    %eax,%esi
    d169:	48 89 cf             	mov    %rcx,%rdi
    d16c:	e8 db 06 00 00       	call   d84c <_ZN6tensor8getValueEii>
    d171:	f2 0f 11 85 60 ff ff 	movsd  %xmm0,-0xa0(%rbp)
    d178:	ff 
    d179:	8b 55 94             	mov    -0x6c(%rbp),%edx
    d17c:	89 d0                	mov    %edx,%eax
    d17e:	01 c0                	add    %eax,%eax
    d180:	01 c2                	add    %eax,%edx
    d182:	8b 45 98             	mov    -0x68(%rbp),%eax
    d185:	01 d0                	add    %edx,%eax
    d187:	48 98                	cltq   
    d189:	48 c1 e0 03          	shl    $0x3,%rax
    d18d:	48 8d 50 e0          	lea    -0x20(%rax),%rdx
    d191:	48 8b 45 b0          	mov    -0x50(%rbp),%rax
    d195:	48 01 d0             	add    %rdx,%rax
    d198:	48 8b 10             	mov    (%rax),%rdx
    d19b:	8b 45 88             	mov    -0x78(%rbp),%eax
    d19e:	48 98                	cltq   
    d1a0:	48 c1 e0 03          	shl    $0x3,%rax
    d1a4:	48 01 d0             	add    %rdx,%rax
    d1a7:	48 8b 10             	mov    (%rax),%rdx
    d1aa:	8b 45 8c             	mov    -0x74(%rbp),%eax
    d1ad:	48 98                	cltq   
    d1af:	48 c1 e0 03          	shl    $0x3,%rax
    d1b3:	48 01 d0             	add    %rdx,%rax
    d1b6:	48 8b 10             	mov    (%rax),%rdx
    d1b9:	8b 45 90             	mov    -0x70(%rbp),%eax
    d1bc:	48 98                	cltq   
    d1be:	48 c1 e0 04          	shl    $0x4,%rax
    d1c2:	48 01 d0             	add    %rdx,%rax
    d1c5:	dd 85 60 ff ff ff    	fldl   -0xa0(%rbp)
    d1cb:	db 38                	fstpt  (%rax)
    d1cd:	83 45 98 01          	addl   $0x1,-0x68(%rbp)
    d1d1:	83 7d 98 03          	cmpl   $0x3,-0x68(%rbp)
    d1d5:	0f 8e 46 ff ff ff    	jle    d121 <_Z9divtenallPPP6tensorid+0x91>
    d1db:	83 45 94 01          	addl   $0x1,-0x6c(%rbp)
    d1df:	83 7d 94 03          	cmpl   $0x3,-0x6c(%rbp)
    d1e3:	0f 8e 2c ff ff ff    	jle    d115 <_Z9divtenallPPP6tensorid+0x85>
    d1e9:	83 45 90 01          	addl   $0x1,-0x70(%rbp)
    d1ed:	8b 45 90             	mov    -0x70(%rbp),%eax
    d1f0:	3b 85 74 ff ff ff    	cmp    -0x8c(%rbp),%eax
    d1f6:	0f 8c 0d ff ff ff    	jl     d109 <_Z9divtenallPPP6tensorid+0x79>
    d1fc:	83 45 8c 01          	addl   $0x1,-0x74(%rbp)
    d200:	8b 45 8c             	mov    -0x74(%rbp),%eax
    d203:	3b 85 74 ff ff ff    	cmp    -0x8c(%rbp),%eax
    d209:	0f 8c ee fe ff ff    	jl     d0fd <_Z9divtenallPPP6tensorid+0x6d>
    d20f:	83 45 88 01          	addl   $0x1,-0x78(%rbp)
    d213:	8b 45 88             	mov    -0x78(%rbp),%eax
    d216:	3b 85 74 ff ff ff    	cmp    -0x8c(%rbp),%eax
    d21c:	0f 8c cf fe ff ff    	jl     d0f1 <_Z9divtenallPPP6tensorid+0x61>
    d222:	8b 95 74 ff ff ff    	mov    -0x8c(%rbp),%edx
    d228:	8b 8d 74 ff ff ff    	mov    -0x8c(%rbp),%ecx
    d22e:	8b 85 74 ff ff ff    	mov    -0x8c(%rbp),%eax
    d234:	89 ce                	mov    %ecx,%esi
    d236:	89 c7                	mov    %eax,%edi
    d238:	e8 08 ec ff ff       	call   be45 <_Z11allocate3dvjjj>
    d23d:	48 89 45 b8          	mov    %rax,-0x48(%rbp)
    d241:	c7 45 9c 00 00 00 00 	movl   $0x0,-0x64(%rbp)
    d248:	e9 81 01 00 00       	jmp    d3ce <_Z9divtenallPPP6tensorid+0x33e>
    d24d:	c7 45 a0 00 00 00 00 	movl   $0x0,-0x60(%rbp)
    d254:	e9 62 01 00 00       	jmp    d3bb <_Z9divtenallPPP6tensorid+0x32b>
    d259:	c7 45 a4 00 00 00 00 	movl   $0x0,-0x5c(%rbp)
    d260:	e9 43 01 00 00       	jmp    d3a8 <_Z9divtenallPPP6tensorid+0x318>
    d265:	d9 ee                	fldz   
    d267:	db 7d c0             	fstpt  -0x40(%rbp)
    d26a:	d9 ee                	fldz   
    d26c:	db 7d d0             	fstpt  -0x30(%rbp)
    d26f:	d9 ee                	fldz   
    d271:	db 7d e0             	fstpt  -0x20(%rbp)
    d274:	c7 45 a8 01 00 00 00 	movl   $0x1,-0x58(%rbp)
    d27b:	e9 a3 00 00 00       	jmp    d323 <_Z9divtenallPPP6tensorid+0x293>
    d280:	c7 45 ac 01 00 00 00 	movl   $0x1,-0x54(%rbp)
    d287:	e9 89 00 00 00       	jmp    d315 <_Z9divtenallPPP6tensorid+0x285>
    d28c:	8b 55 a8             	mov    -0x58(%rbp),%edx
    d28f:	89 d0                	mov    %edx,%eax
    d291:	01 c0                	add    %eax,%eax
    d293:	01 c2                	add    %eax,%edx
    d295:	8b 45 ac             	mov    -0x54(%rbp),%eax
    d298:	01 d0                	add    %edx,%eax
    d29a:	44 8d 48 fc          	lea    -0x4(%rax),%r9d
    d29e:	48 8b bd 68 ff ff ff 	mov    -0x98(%rbp),%rdi
    d2a5:	44 8b 95 74 ff ff ff 	mov    -0x8c(%rbp),%r10d
    d2ac:	8b 4d a4             	mov    -0x5c(%rbp),%ecx
    d2af:	8b 55 a0             	mov    -0x60(%rbp),%edx
    d2b2:	8b 75 9c             	mov    -0x64(%rbp),%esi
    d2b5:	48 8b 45 b0          	mov    -0x50(%rbp),%rax
    d2b9:	48 83 ec 08          	sub    $0x8,%rsp
    d2bd:	44 8b 45 ac          	mov    -0x54(%rbp),%r8d
    d2c1:	41 50                	push   %r8
    d2c3:	66 48 0f 6e c7       	movq   %rdi,%xmm0
    d2c8:	45 89 d0             	mov    %r10d,%r8d
    d2cb:	48 89 c7             	mov    %rax,%rdi
    d2ce:	e8 51 f5 ff ff       	call   c824 <_Z7partdifPPPPeiiiidii>
    d2d3:	48 83 c4 10          	add    $0x10,%rsp
    d2d7:	f2 0f 11 85 60 ff ff 	movsd  %xmm0,-0xa0(%rbp)
    d2de:	ff 
    d2df:	8b 45 a8             	mov    -0x58(%rbp),%eax
    d2e2:	83 e8 01             	sub    $0x1,%eax
    d2e5:	48 98                	cltq   
    d2e7:	48 c1 e0 04          	shl    $0x4,%rax
    d2eb:	48 01 e8             	add    %rbp,%rax
    d2ee:	48 83 e8 40          	sub    $0x40,%rax
    d2f2:	db 28                	fldt   (%rax)
    d2f4:	dd 85 60 ff ff ff    	fldl   -0xa0(%rbp)
    d2fa:	8b 45 a8             	mov    -0x58(%rbp),%eax
    d2fd:	83 e8 01             	sub    $0x1,%eax
    d300:	de c1                	faddp  %st,%st(1)
    d302:	48 98                	cltq   
    d304:	48 c1 e0 04          	shl    $0x4,%rax
    d308:	48 01 e8             	add    %rbp,%rax
    d30b:	48 83 e8 40          	sub    $0x40,%rax
    d30f:	db 38                	fstpt  (%rax)
    d311:	83 45 ac 01          	addl   $0x1,-0x54(%rbp)
    d315:	83 7d ac 03          	cmpl   $0x3,-0x54(%rbp)
    d319:	0f 8e 6d ff ff ff    	jle    d28c <_Z9divtenallPPP6tensorid+0x1fc>
    d31f:	83 45 a8 01          	addl   $0x1,-0x58(%rbp)
    d323:	83 7d a8 03          	cmpl   $0x3,-0x58(%rbp)
    d327:	0f 8e 53 ff ff ff    	jle    d280 <_Z9divtenallPPP6tensorid+0x1f0>
    d32d:	8b 45 9c             	mov    -0x64(%rbp),%eax
    d330:	48 98                	cltq   
    d332:	48 8d 14 c5 00 00 00 	lea    0x0(,%rax,8),%rdx
    d339:	00 
    d33a:	48 8b 45 b8          	mov    -0x48(%rbp),%rax
    d33e:	48 01 d0             	add    %rdx,%rax
    d341:	48 8b 10             	mov    (%rax),%rdx
    d344:	8b 45 a0             	mov    -0x60(%rbp),%eax
    d347:	48 98                	cltq   
    d349:	48 c1 e0 03          	shl    $0x3,%rax
    d34d:	48 01 d0             	add    %rdx,%rax
    d350:	48 8b 08             	mov    (%rax),%rcx
    d353:	8b 45 a4             	mov    -0x5c(%rbp),%eax
    d356:	48 63 d0             	movslq %eax,%rdx
    d359:	48 89 d0             	mov    %rdx,%rax
    d35c:	48 01 c0             	add    %rax,%rax
    d35f:	48 01 d0             	add    %rdx,%rax
    d362:	48 c1 e0 03          	shl    $0x3,%rax
    d366:	48 01 c8             	add    %rcx,%rax
    d369:	db 6d e0             	fldt   -0x20(%rbp)
    d36c:	dd 9d 60 ff ff ff    	fstpl  -0xa0(%rbp)
    d372:	db 6d d0             	fldt   -0x30(%rbp)
    d375:	dd 9d 58 ff ff ff    	fstpl  -0xa8(%rbp)
    d37b:	db 6d c0             	fldt   -0x40(%rbp)
    d37e:	dd 9d 50 ff ff ff    	fstpl  -0xb0(%rbp)
    d384:	f2 0f 10 85 50 ff ff 	movsd  -0xb0(%rbp),%xmm0
    d38b:	ff 
    d38c:	f2 0f 10 95 60 ff ff 	movsd  -0xa0(%rbp),%xmm2
    d393:	ff 
    d394:	f2 0f 10 8d 58 ff ff 	movsd  -0xa8(%rbp),%xmm1
    d39b:	ff 
    d39c:	48 89 c7             	mov    %rax,%rdi
    d39f:	e8 60 04 00 00       	call   d804 <_ZN6vector3setEddd>
    d3a4:	83 45 a4 01          	addl   $0x1,-0x5c(%rbp)
    d3a8:	8b 45 a4             	mov    -0x5c(%rbp),%eax
    d3ab:	3b 85 74 ff ff ff    	cmp    -0x8c(%rbp),%eax
    d3b1:	0f 8c ae fe ff ff    	jl     d265 <_Z9divtenallPPP6tensorid+0x1d5>
    d3b7:	83 45 a0 01          	addl   $0x1,-0x60(%rbp)
    d3bb:	8b 45 a0             	mov    -0x60(%rbp),%eax
    d3be:	3b 85 74 ff ff ff    	cmp    -0x8c(%rbp),%eax
    d3c4:	0f 8c 8f fe ff ff    	jl     d259 <_Z9divtenallPPP6tensorid+0x1c9>
    d3ca:	83 45 9c 01          	addl   $0x1,-0x64(%rbp)
    d3ce:	8b 45 9c             	mov    -0x64(%rbp),%eax
    d3d1:	3b 85 74 ff ff ff    	cmp    -0x8c(%rbp),%eax
    d3d7:	0f 8c 70 fe ff ff    	jl     d24d <_Z9divtenallPPP6tensorid+0x1bd>
    d3dd:	48 8b 45 b8          	mov    -0x48(%rbp),%rax
    d3e1:	48 8b 55 f8          	mov    -0x8(%rbp),%rdx
    d3e5:	64 48 2b 14 25 28 00 	sub    %fs:0x28,%rdx
    d3ec:	00 00 
    d3ee:	74 05                	je     d3f5 <_Z9divtenallPPP6tensorid+0x365>
    d3f0:	e8 eb 50 ff ff       	call   24e0 <__stack_chk_fail@plt>
    d3f5:	c9                   	leave  
    d3f6:	c3                   	ret    

000000000000d3f7 <_Z8velocityddd>:
    d3f7:	f3 0f 1e fa          	endbr64 
    d3fb:	55                   	push   %rbp
    d3fc:	48 89 e5             	mov    %rsp,%rbp
    d3ff:	48 83 ec 20          	sub    $0x20,%rsp
    d403:	48 89 7d f8          	mov    %rdi,-0x8(%rbp)
    d407:	f2 0f 11 45 f0       	movsd  %xmm0,-0x10(%rbp)
    d40c:	f2 0f 11 4d e8       	movsd  %xmm1,-0x18(%rbp)
    d411:	f2 0f 11 55 e0       	movsd  %xmm2,-0x20(%rbp)
    d416:	f2 0f 10 4d e8       	movsd  -0x18(%rbp),%xmm1
    d41b:	f2 0f 10 05 1d 21 00 	movsd  0x211d(%rip),%xmm0        # f540 <_ZN6__pstl9execution2v1L5unseqE+0x58>
    d422:	00 
    d423:	f2 0f 59 c1          	mulsd  %xmm1,%xmm0
    d427:	f2 0f 59 45 e8       	mulsd  -0x18(%rbp),%xmm0
    d42c:	66 48 0f 7e c2       	movq   %xmm0,%rdx
    d431:	48 8b 45 f8          	mov    -0x8(%rbp),%rax
    d435:	66 0f ef d2          	pxor   %xmm2,%xmm2
    d439:	66 0f ef c9          	pxor   %xmm1,%xmm1
    d43d:	66 48 0f 6e c2       	movq   %rdx,%xmm0
    d442:	48 89 c7             	mov    %rax,%rdi
    d445:	e8 c6 be ff ff       	call   9310 <_ZN6vectorC1Eddd>
    d44a:	90                   	nop
    d44b:	48 8b 45 f8          	mov    -0x8(%rbp),%rax
    d44f:	c9                   	leave  
    d450:	c3                   	ret    

000000000000d451 <_Z10divvadvecvddd>:
    d451:	f3 0f 1e fa          	endbr64 
    d455:	55                   	push   %rbp
    d456:	48 89 e5             	mov    %rsp,%rbp
    d459:	48 81 ec c0 00 00 00 	sub    $0xc0,%rsp
    d460:	48 89 bd 78 ff ff ff 	mov    %rdi,-0x88(%rbp)
    d467:	f2 0f 11 85 70 ff ff 	movsd  %xmm0,-0x90(%rbp)
    d46e:	ff 
    d46f:	f2 0f 11 8d 68 ff ff 	movsd  %xmm1,-0x98(%rbp)
    d476:	ff 
    d477:	f2 0f 11 95 60 ff ff 	movsd  %xmm2,-0xa0(%rbp)
    d47e:	ff 
    d47f:	64 48 8b 04 25 28 00 	mov    %fs:0x28,%rax
    d486:	00 00 
    d488:	48 89 45 f8          	mov    %rax,-0x8(%rbp)
    d48c:	31 c0                	xor    %eax,%eax
    d48e:	48 8d 45 80          	lea    -0x80(%rbp),%rax
    d492:	f2 0f 10 8d 60 ff ff 	movsd  -0xa0(%rbp),%xmm1
    d499:	ff 
    d49a:	f2 0f 10 85 68 ff ff 	movsd  -0x98(%rbp),%xmm0
    d4a1:	ff 
    d4a2:	48 8b 95 70 ff ff ff 	mov    -0x90(%rbp),%rdx
    d4a9:	66 0f 28 d1          	movapd %xmm1,%xmm2
    d4ad:	66 0f 28 c8          	movapd %xmm0,%xmm1
    d4b1:	66 48 0f 6e c2       	movq   %rdx,%xmm0
    d4b6:	48 89 c7             	mov    %rax,%rdi
    d4b9:	e8 39 ff ff ff       	call   d3f7 <_Z8velocityddd>
    d4be:	48 8d 45 a0          	lea    -0x60(%rbp),%rax
    d4c2:	f2 0f 10 8d 60 ff ff 	movsd  -0xa0(%rbp),%xmm1
    d4c9:	ff 
    d4ca:	f2 0f 10 85 68 ff ff 	movsd  -0x98(%rbp),%xmm0
    d4d1:	ff 
    d4d2:	48 8b 95 70 ff ff ff 	mov    -0x90(%rbp),%rdx
    d4d9:	be 01 00 00 00       	mov    $0x1,%esi
    d4de:	66 0f 28 d1          	movapd %xmm1,%xmm2
    d4e2:	66 0f 28 c8          	movapd %xmm0,%xmm1
    d4e6:	66 48 0f 6e c2       	movq   %rdx,%xmm0
    d4eb:	48 89 c7             	mov    %rax,%rdi
    d4ee:	e8 f2 ee ff ff       	call   c3e5 <_Z4diffdddi>
    d4f3:	48 8d 45 c0          	lea    -0x40(%rbp),%rax
    d4f7:	f2 0f 10 8d 60 ff ff 	movsd  -0xa0(%rbp),%xmm1
    d4fe:	ff 
    d4ff:	f2 0f 10 85 68 ff ff 	movsd  -0x98(%rbp),%xmm0
    d506:	ff 
    d507:	48 8b 95 70 ff ff ff 	mov    -0x90(%rbp),%rdx
    d50e:	be 02 00 00 00       	mov    $0x2,%esi
    d513:	66 0f 28 d1          	movapd %xmm1,%xmm2
    d517:	66 0f 28 c8          	movapd %xmm0,%xmm1
    d51b:	66 48 0f 6e c2       	movq   %rdx,%xmm0
    d520:	48 89 c7             	mov    %rax,%rdi
    d523:	e8 bd ee ff ff       	call   c3e5 <_Z4diffdddi>
    d528:	48 8d 45 e0          	lea    -0x20(%rbp),%rax
    d52c:	f2 0f 10 8d 60 ff ff 	movsd  -0xa0(%rbp),%xmm1
    d533:	ff 
    d534:	f2 0f 10 85 68 ff ff 	movsd  -0x98(%rbp),%xmm0
    d53b:	ff 
    d53c:	48 8b 95 70 ff ff ff 	mov    -0x90(%rbp),%rdx
    d543:	be 03 00 00 00       	mov    $0x3,%esi
    d548:	66 0f 28 d1          	movapd %xmm1,%xmm2
    d54c:	66 0f 28 c8          	movapd %xmm0,%xmm1
    d550:	66 48 0f 6e c2       	movq   %rdx,%xmm0
    d555:	48 89 c7             	mov    %rax,%rdi
    d558:	e8 88 ee ff ff       	call   c3e5 <_Z4diffdddi>
    d55d:	48 8d 45 80          	lea    -0x80(%rbp),%rax
    d561:	48 89 c7             	mov    %rax,%rdi
    d564:	e8 ef bd ff ff       	call   9358 <_ZN6vector1XEv>
    d569:	f2 0f 11 85 58 ff ff 	movsd  %xmm0,-0xa8(%rbp)
    d570:	ff 
    d571:	48 8d 45 a0          	lea    -0x60(%rbp),%rax
    d575:	48 89 c7             	mov    %rax,%rdi
    d578:	e8 1d be ff ff       	call   939a <_ZN6vector1ZEv>
    d57d:	66 0f 28 d8          	movapd %xmm0,%xmm3
    d581:	f2 0f 59 9d 58 ff ff 	mulsd  -0xa8(%rbp),%xmm3
    d588:	ff 
    d589:	f2 0f 11 9d 58 ff ff 	movsd  %xmm3,-0xa8(%rbp)
    d590:	ff 
    d591:	48 8d 45 80          	lea    -0x80(%rbp),%rax
    d595:	48 89 c7             	mov    %rax,%rdi
    d598:	e8 db bd ff ff       	call   9378 <_ZN6vector1YEv>
    d59d:	f2 0f 11 85 50 ff ff 	movsd  %xmm0,-0xb0(%rbp)
    d5a4:	ff 
    d5a5:	48 8d 45 c0          	lea    -0x40(%rbp),%rax
    d5a9:	48 89 c7             	mov    %rax,%rdi
    d5ac:	e8 e9 bd ff ff       	call   939a <_ZN6vector1ZEv>
    d5b1:	f2 0f 59 85 50 ff ff 	mulsd  -0xb0(%rbp),%xmm0
    d5b8:	ff 
    d5b9:	f2 0f 58 85 58 ff ff 	addsd  -0xa8(%rbp),%xmm0
    d5c0:	ff 
    d5c1:	f2 0f 11 85 58 ff ff 	movsd  %xmm0,-0xa8(%rbp)
    d5c8:	ff 
    d5c9:	48 8d 45 80          	lea    -0x80(%rbp),%rax
    d5cd:	48 89 c7             	mov    %rax,%rdi
    d5d0:	e8 c5 bd ff ff       	call   939a <_ZN6vector1ZEv>
    d5d5:	f2 0f 11 85 50 ff ff 	movsd  %xmm0,-0xb0(%rbp)
    d5dc:	ff 
    d5dd:	48 8d 45 e0          	lea    -0x20(%rbp),%rax
    d5e1:	48 89 c7             	mov    %rax,%rdi
    d5e4:	e8 b1 bd ff ff       	call   939a <_ZN6vector1ZEv>
    d5e9:	f2 0f 59 85 50 ff ff 	mulsd  -0xb0(%rbp),%xmm0
    d5f0:	ff 
    d5f1:	66 0f 28 e8          	movapd %xmm0,%xmm5
    d5f5:	f2 0f 58 ad 58 ff ff 	addsd  -0xa8(%rbp),%xmm5
    d5fc:	ff 
    d5fd:	f2 0f 11 ad 58 ff ff 	movsd  %xmm5,-0xa8(%rbp)
    d604:	ff 
    d605:	48 8d 45 80          	lea    -0x80(%rbp),%rax
    d609:	48 89 c7             	mov    %rax,%rdi
    d60c:	e8 47 bd ff ff       	call   9358 <_ZN6vector1XEv>
    d611:	f2 0f 11 85 50 ff ff 	movsd  %xmm0,-0xb0(%rbp)
    d618:	ff 
    d619:	48 8d 45 a0          	lea    -0x60(%rbp),%rax
    d61d:	48 89 c7             	mov    %rax,%rdi
    d620:	e8 53 bd ff ff       	call   9378 <_ZN6vector1YEv>
    d625:	66 0f 28 f0          	movapd %xmm0,%xmm6
    d629:	f2 0f 59 b5 50 ff ff 	mulsd  -0xb0(%rbp),%xmm6
    d630:	ff 
    d631:	f2 0f 11 b5 50 ff ff 	movsd  %xmm6,-0xb0(%rbp)
    d638:	ff 
    d639:	48 8d 45 80          	lea    -0x80(%rbp),%rax
    d63d:	48 89 c7             	mov    %rax,%rdi
    d640:	e8 33 bd ff ff       	call   9378 <_ZN6vector1YEv>
    d645:	f2 0f 11 85 48 ff ff 	movsd  %xmm0,-0xb8(%rbp)
    d64c:	ff 
    d64d:	48 8d 45 c0          	lea    -0x40(%rbp),%rax
    d651:	48 89 c7             	mov    %rax,%rdi
    d654:	e8 1f bd ff ff       	call   9378 <_ZN6vector1YEv>
    d659:	f2 0f 59 85 48 ff ff 	mulsd  -0xb8(%rbp),%xmm0
    d660:	ff 
    d661:	f2 0f 58 85 50 ff ff 	addsd  -0xb0(%rbp),%xmm0
    d668:	ff 
    d669:	f2 0f 11 85 50 ff ff 	movsd  %xmm0,-0xb0(%rbp)
    d670:	ff 
    d671:	48 8d 45 80          	lea    -0x80(%rbp),%rax
    d675:	48 89 c7             	mov    %rax,%rdi
    d678:	e8 1d bd ff ff       	call   939a <_ZN6vector1ZEv>
    d67d:	f2 0f 11 85 48 ff ff 	movsd  %xmm0,-0xb8(%rbp)
    d684:	ff 
    d685:	48 8d 45 e0          	lea    -0x20(%rbp),%rax
    d689:	48 89 c7             	mov    %rax,%rdi
    d68c:	e8 e7 bc ff ff       	call   9378 <_ZN6vector1YEv>
    d691:	f2 0f 59 85 48 ff ff 	mulsd  -0xb8(%rbp),%xmm0
    d698:	ff 
    d699:	66 0f 28 e0          	movapd %xmm0,%xmm4
    d69d:	f2 0f 58 a5 50 ff ff 	addsd  -0xb0(%rbp),%xmm4
    d6a4:	ff 
    d6a5:	f2 0f 11 a5 50 ff ff 	movsd  %xmm4,-0xb0(%rbp)
    d6ac:	ff 
    d6ad:	48 8d 45 80          	lea    -0x80(%rbp),%rax
    d6b1:	48 89 c7             	mov    %rax,%rdi
    d6b4:	e8 9f bc ff ff       	call   9358 <_ZN6vector1XEv>
    d6b9:	f2 0f 11 85 48 ff ff 	movsd  %xmm0,-0xb8(%rbp)
    d6c0:	ff 
    d6c1:	48 8d 45 a0          	lea    -0x60(%rbp),%rax
    d6c5:	48 89 c7             	mov    %rax,%rdi
    d6c8:	e8 8b bc ff ff       	call   9358 <_ZN6vector1XEv>
    d6cd:	66 0f 28 f8          	movapd %xmm0,%xmm7
    d6d1:	f2 0f 59 bd 48 ff ff 	mulsd  -0xb8(%rbp),%xmm7
    d6d8:	ff 
    d6d9:	f2 0f 11 bd 48 ff ff 	movsd  %xmm7,-0xb8(%rbp)
    d6e0:	ff 
    d6e1:	48 8d 45 80          	lea    -0x80(%rbp),%rax
    d6e5:	48 89 c7             	mov    %rax,%rdi
    d6e8:	e8 8b bc ff ff       	call   9378 <_ZN6vector1YEv>
    d6ed:	f2 0f 11 85 40 ff ff 	movsd  %xmm0,-0xc0(%rbp)
    d6f4:	ff 
    d6f5:	48 8d 45 c0          	lea    -0x40(%rbp),%rax
    d6f9:	48 89 c7             	mov    %rax,%rdi
    d6fc:	e8 57 bc ff ff       	call   9358 <_ZN6vector1XEv>
    d701:	f2 0f 59 85 40 ff ff 	mulsd  -0xc0(%rbp),%xmm0
    d708:	ff 
    d709:	f2 0f 58 85 48 ff ff 	addsd  -0xb8(%rbp),%xmm0
    d710:	ff 
    d711:	f2 0f 11 85 48 ff ff 	movsd  %xmm0,-0xb8(%rbp)
    d718:	ff 
    d719:	48 8d 45 80          	lea    -0x80(%rbp),%rax
    d71d:	48 89 c7             	mov    %rax,%rdi
    d720:	e8 75 bc ff ff       	call   939a <_ZN6vector1ZEv>
    d725:	f2 0f 11 85 40 ff ff 	movsd  %xmm0,-0xc0(%rbp)
    d72c:	ff 
    d72d:	48 8d 45 e0          	lea    -0x20(%rbp),%rax
    d731:	48 89 c7             	mov    %rax,%rdi
    d734:	e8 1f bc ff ff       	call   9358 <_ZN6vector1XEv>
    d739:	f2 0f 59 85 40 ff ff 	mulsd  -0xc0(%rbp),%xmm0
    d740:	ff 
    d741:	66 0f 28 f0          	movapd %xmm0,%xmm6
    d745:	f2 0f 58 b5 48 ff ff 	addsd  -0xb8(%rbp),%xmm6
    d74c:	ff 
    d74d:	66 48 0f 7e f2       	movq   %xmm6,%rdx
    d752:	48 8b 85 78 ff ff ff 	mov    -0x88(%rbp),%rax
    d759:	f2 0f 10 95 58 ff ff 	movsd  -0xa8(%rbp),%xmm2
    d760:	ff 
    d761:	f2 0f 10 8d 50 ff ff 	movsd  -0xb0(%rbp),%xmm1
    d768:	ff 
    d769:	66 48 0f 6e c2       	movq   %rdx,%xmm0
    d76e:	48 89 c7             	mov    %rax,%rdi
    d771:	e8 9a bb ff ff       	call   9310 <_ZN6vectorC1Eddd>
    d776:	90                   	nop
    d777:	48 8b 45 f8          	mov    -0x8(%rbp),%rax
    d77b:	64 48 2b 04 25 28 00 	sub    %fs:0x28,%rax
    d782:	00 00 
    d784:	74 05                	je     d78b <_Z10divvadvecvddd+0x33a>
    d786:	e8 55 4d ff ff       	call   24e0 <__stack_chk_fail@plt>
    d78b:	48 8b 85 78 ff ff ff 	mov    -0x88(%rbp),%rax
    d792:	c9                   	leave  
    d793:	c3                   	ret    

000000000000d794 <_Z41__static_initialization_and_destruction_0ii>:
    d794:	f3 0f 1e fa          	endbr64 
    d798:	55                   	push   %rbp
    d799:	48 89 e5             	mov    %rsp,%rbp
    d79c:	48 83 ec 10          	sub    $0x10,%rsp
    d7a0:	89 7d fc             	mov    %edi,-0x4(%rbp)
    d7a3:	89 75 f8             	mov    %esi,-0x8(%rbp)
    d7a6:	83 7d fc 01          	cmpl   $0x1,-0x4(%rbp)
    d7aa:	75 3b                	jne    d7e7 <_Z41__static_initialization_and_destruction_0ii+0x53>
    d7ac:	81 7d f8 ff ff 00 00 	cmpl   $0xffff,-0x8(%rbp)
    d7b3:	75 32                	jne    d7e7 <_Z41__static_initialization_and_destruction_0ii+0x53>
    d7b5:	48 8d 05 bf 5a 00 00 	lea    0x5abf(%rip),%rax        # 1327b <_ZStL8__ioinit>
    d7bc:	48 89 c7             	mov    %rax,%rdi
    d7bf:	e8 bc 4d ff ff       	call   2580 <_ZNSt8ios_base4InitC1Ev@plt>
    d7c4:	48 8d 05 3d 58 00 00 	lea    0x583d(%rip),%rax        # 13008 <__dso_handle>
    d7cb:	48 89 c2             	mov    %rax,%rdx
    d7ce:	48 8d 05 a6 5a 00 00 	lea    0x5aa6(%rip),%rax        # 1327b <_ZStL8__ioinit>
    d7d5:	48 89 c6             	mov    %rax,%rsi
    d7d8:	48 8b 05 19 58 00 00 	mov    0x5819(%rip),%rax        # 12ff8 <_ZNSt8ios_base4InitD1Ev@GLIBCXX_3.4>
    d7df:	48 89 c7             	mov    %rax,%rdi
    d7e2:	e8 79 4c ff ff       	call   2460 <__cxa_atexit@plt>
    d7e7:	90                   	nop
    d7e8:	c9                   	leave  
    d7e9:	c3                   	ret    

000000000000d7ea <_GLOBAL__sub_I__Z5shearddd>:
    d7ea:	f3 0f 1e fa          	endbr64 
    d7ee:	55                   	push   %rbp
    d7ef:	48 89 e5             	mov    %rsp,%rbp
    d7f2:	be ff ff 00 00       	mov    $0xffff,%esi
    d7f7:	bf 01 00 00 00       	mov    $0x1,%edi
    d7fc:	e8 93 ff ff ff       	call   d794 <_Z41__static_initialization_and_destruction_0ii>
    d801:	5d                   	pop    %rbp
    d802:	c3                   	ret    
    d803:	90                   	nop

000000000000d804 <_ZN6vector3setEddd>:
    d804:	f3 0f 1e fa          	endbr64 
    d808:	55                   	push   %rbp
    d809:	48 89 e5             	mov    %rsp,%rbp
    d80c:	48 89 7d f8          	mov    %rdi,-0x8(%rbp)
    d810:	f2 0f 11 45 f0       	movsd  %xmm0,-0x10(%rbp)
    d815:	f2 0f 11 4d e8       	movsd  %xmm1,-0x18(%rbp)
    d81a:	f2 0f 11 55 e0       	movsd  %xmm2,-0x20(%rbp)
    d81f:	48 8b 45 f8          	mov    -0x8(%rbp),%rax
    d823:	f2 0f 10 45 f0       	movsd  -0x10(%rbp),%xmm0
    d828:	f2 0f 11 00          	movsd  %xmm0,(%rax)
    d82c:	48 8b 45 f8          	mov    -0x8(%rbp),%rax
    d830:	f2 0f 10 45 e8       	movsd  -0x18(%rbp),%xmm0
    d835:	f2 0f 11 40 08       	movsd  %xmm0,0x8(%rax)
    d83a:	48 8b 45 f8          	mov    -0x8(%rbp),%rax
    d83e:	f2 0f 10 45 e0       	movsd  -0x20(%rbp),%xmm0
    d843:	f2 0f 11 40 10       	movsd  %xmm0,0x10(%rax)
    d848:	90                   	nop
    d849:	5d                   	pop    %rbp
    d84a:	c3                   	ret    
    d84b:	90                   	nop

000000000000d84c <_ZN6tensor8getValueEii>:
    d84c:	f3 0f 1e fa          	endbr64 
    d850:	55                   	push   %rbp
    d851:	48 89 e5             	mov    %rsp,%rbp
    d854:	48 83 ec 30          	sub    $0x30,%rsp
    d858:	48 89 7d d8          	mov    %rdi,-0x28(%rbp)
    d85c:	89 75 d4             	mov    %esi,-0x2c(%rbp)
    d85f:	89 55 d0             	mov    %edx,-0x30(%rbp)
    d862:	64 48 8b 04 25 28 00 	mov    %fs:0x28,%rax
    d869:	00 00 
    d86b:	48 89 45 f8          	mov    %rax,-0x8(%rbp)
    d86f:	31 c0                	xor    %eax,%eax
    d871:	48 8d 45 e0          	lea    -0x20(%rbp),%rax
    d875:	8b 55 d4             	mov    -0x2c(%rbp),%edx
    d878:	48 8b 4d d8          	mov    -0x28(%rbp),%rcx
    d87c:	48 89 ce             	mov    %rcx,%rsi
    d87f:	48 89 c7             	mov    %rax,%rdi
    d882:	e8 db c2 ff ff       	call   9b62 <_ZN6tensor9getColumnEi>
    d887:	83 7d d0 03          	cmpl   $0x3,-0x30(%rbp)
    d88b:	74 3a                	je     d8c7 <_ZN6tensor8getValueEii+0x7b>
    d88d:	83 7d d0 03          	cmpl   $0x3,-0x30(%rbp)
    d891:	7f 47                	jg     d8da <_ZN6tensor8getValueEii+0x8e>
    d893:	83 7d d0 01          	cmpl   $0x1,-0x30(%rbp)
    d897:	74 08                	je     d8a1 <_ZN6tensor8getValueEii+0x55>
    d899:	83 7d d0 02          	cmpl   $0x2,-0x30(%rbp)
    d89d:	74 15                	je     d8b4 <_ZN6tensor8getValueEii+0x68>
    d89f:	eb 39                	jmp    d8da <_ZN6tensor8getValueEii+0x8e>
    d8a1:	48 8d 45 e0          	lea    -0x20(%rbp),%rax
    d8a5:	48 89 c7             	mov    %rax,%rdi
    d8a8:	e8 ab ba ff ff       	call   9358 <_ZN6vector1XEv>
    d8ad:	66 48 0f 7e c0       	movq   %xmm0,%rax
    d8b2:	eb 51                	jmp    d905 <_ZN6tensor8getValueEii+0xb9>
    d8b4:	48 8d 45 e0          	lea    -0x20(%rbp),%rax
    d8b8:	48 89 c7             	mov    %rax,%rdi
    d8bb:	e8 b8 ba ff ff       	call   9378 <_ZN6vector1YEv>
    d8c0:	66 48 0f 7e c0       	movq   %xmm0,%rax
    d8c5:	eb 3e                	jmp    d905 <_ZN6tensor8getValueEii+0xb9>
    d8c7:	48 8d 45 e0          	lea    -0x20(%rbp),%rax
    d8cb:	48 89 c7             	mov    %rax,%rdi
    d8ce:	e8 c7 ba ff ff       	call   939a <_ZN6vector1ZEv>
    d8d3:	66 48 0f 7e c0       	movq   %xmm0,%rax
    d8d8:	eb 2b                	jmp    d905 <_ZN6tensor8getValueEii+0xb9>
    d8da:	48 8d 05 ff 1b 00 00 	lea    0x1bff(%rip),%rax        # f4e0 <_ZN6__pstl9execution2v1L5unseqE+0xd>
    d8e1:	48 89 c6             	mov    %rax,%rsi
    d8e4:	48 8d 05 55 57 00 00 	lea    0x5755(%rip),%rax        # 13040 <_ZSt4cout@GLIBCXX_3.4>
    d8eb:	48 89 c7             	mov    %rax,%rdi
    d8ee:	e8 9d 4b ff ff       	call   2490 <_ZStlsISt11char_traitsIcEERSt13basic_ostreamIcT_ES5_PKc@plt>
    d8f3:	48 8d 45 e0          	lea    -0x20(%rbp),%rax
    d8f7:	48 89 c7             	mov    %rax,%rdi
    d8fa:	e8 59 ba ff ff       	call   9358 <_ZN6vector1XEv>
    d8ff:	66 48 0f 7e c0       	movq   %xmm0,%rax
    d904:	90                   	nop
    d905:	48 8b 55 f8          	mov    -0x8(%rbp),%rdx
    d909:	64 48 2b 14 25 28 00 	sub    %fs:0x28,%rdx
    d910:	00 00 
    d912:	74 05                	je     d919 <_ZN6tensor8getValueEii+0xcd>
    d914:	e8 c7 4b ff ff       	call   24e0 <__stack_chk_fail@plt>
    d919:	66 48 0f 6e c0       	movq   %rax,%xmm0
    d91e:	c9                   	leave  
    d91f:	c3                   	ret    

000000000000d920 <_Z12writeVTKFileiPPPPeiiieee>:
    d920:	f3 0f 1e fa          	endbr64 
    d924:	55                   	push   %rbp
    d925:	48 89 e5             	mov    %rsp,%rbp
    d928:	41 57                	push   %r15
    d92a:	41 56                	push   %r14
    d92c:	4c 8d bd b8 fe ff ff 	lea    -0x148(%rbp),%r15
    d933:	41 55                	push   %r13
    d935:	41 54                	push   %r12
    d937:	49 89 f4             	mov    %rsi,%r12
    d93a:	53                   	push   %rbx
    d93b:	48 8d 9d c0 fd ff ff 	lea    -0x240(%rbp),%rbx
    d942:	48 81 ec c8 02 00 00 	sub    $0x2c8,%rsp
    d949:	89 bd 1c fd ff ff    	mov    %edi,-0x2e4(%rbp)
    d94f:	4c 89 ff             	mov    %r15,%rdi
    d952:	89 95 3c fd ff ff    	mov    %edx,-0x2c4(%rbp)
    d958:	89 8d 38 fd ff ff    	mov    %ecx,-0x2c8(%rbp)
    d95e:	44 89 85 28 fd ff ff 	mov    %r8d,-0x2d8(%rbp)
    d965:	64 48 8b 04 25 28 00 	mov    %fs:0x28,%rax
    d96c:	00 00 
    d96e:	48 89 45 c8          	mov    %rax,-0x38(%rbp)
    d972:	31 c0                	xor    %eax,%eax
    d974:	48 89 9d 58 fd ff ff 	mov    %rbx,-0x2a8(%rbp)
    d97b:	4c 89 bd 10 fd ff ff 	mov    %r15,-0x2f0(%rbp)
    d982:	e8 09 4a ff ff       	call   2390 <_ZNSt8ios_baseC2Ev@plt>
    d987:	66 0f ef c0          	pxor   %xmm0,%xmm0
    d98b:	45 31 db             	xor    %r11d,%r11d
    d98e:	31 f6                	xor    %esi,%esi
    d990:	48 8d 05 f1 50 00 00 	lea    0x50f1(%rip),%rax        # 12a88 <_ZTVSt9basic_iosIcSt11char_traitsIcEE@GLIBCXX_3.4+0x10>
    d997:	66 44 89 5d 98       	mov    %r11w,-0x68(%rbp)
    d99c:	48 89 85 b8 fe ff ff 	mov    %rax,-0x148(%rbp)
    d9a3:	48 8b 05 76 51 00 00 	mov    0x5176(%rip),%rax        # 12b20 <_ZTTSt14basic_ofstreamIcSt11char_traitsIcEE@GLIBCXX_3.4+0x8>
    d9aa:	0f 29 45 a0          	movaps %xmm0,-0x60(%rbp)
    d9ae:	48 89 85 c0 fd ff ff 	mov    %rax,-0x240(%rbp)
    d9b5:	0f 29 45 b0          	movaps %xmm0,-0x50(%rbp)
    d9b9:	48 03 58 e8          	add    -0x18(%rax),%rbx
    d9bd:	48 8b 05 64 51 00 00 	mov    0x5164(%rip),%rax        # 12b28 <_ZTTSt14basic_ofstreamIcSt11char_traitsIcEE@GLIBCXX_3.4+0x10>
    d9c4:	48 c7 45 90 00 00 00 	movq   $0x0,-0x70(%rbp)
    d9cb:	00 
    d9cc:	48 89 df             	mov    %rbx,%rdi
    d9cf:	48 89 03             	mov    %rax,(%rbx)
    d9d2:	e8 59 4b ff ff       	call   2530 <_ZNSt9basic_iosIcSt11char_traitsIcEE4initEPSt15basic_streambufIcS1_E@plt>
    d9d7:	48 8d 05 f2 51 00 00 	lea    0x51f2(%rip),%rax        # 12bd0 <_ZTVSt14basic_ofstreamIcSt11char_traitsIcEE@GLIBCXX_3.4+0x18>
    d9de:	48 89 85 c0 fd ff ff 	mov    %rax,-0x240(%rbp)
    d9e5:	48 83 c0 28          	add    $0x28,%rax
    d9e9:	48 89 85 b8 fe ff ff 	mov    %rax,-0x148(%rbp)
    d9f0:	48 8d 85 c8 fd ff ff 	lea    -0x238(%rbp),%rax
    d9f7:	48 89 c7             	mov    %rax,%rdi
    d9fa:	48 89 85 20 fd ff ff 	mov    %rax,-0x2e0(%rbp)
    da01:	48 89 c3             	mov    %rax,%rbx
    da04:	e8 b7 4a ff ff       	call   24c0 <_ZNSt13basic_filebufIcSt11char_traitsIcEEC1Ev@plt>
    da09:	48 89 de             	mov    %rbx,%rsi
    da0c:	4c 89 ff             	mov    %r15,%rdi
    da0f:	e8 1c 4b ff ff       	call   2530 <_ZNSt9basic_iosIcSt11char_traitsIcEE4initEPSt15basic_streambufIcS1_E@plt>
    da14:	8b 85 1c fd ff ff    	mov    -0x2e4(%rbp),%eax
    da1a:	89 c1                	mov    %eax,%ecx
    da1c:	c1 e9 1f             	shr    $0x1f,%ecx
    da1f:	41 89 cf             	mov    %ecx,%r15d
    da22:	89 c1                	mov    %eax,%ecx
    da24:	f7 d8                	neg    %eax
    da26:	0f 48 c1             	cmovs  %ecx,%eax
    da29:	89 85 40 fd ff ff    	mov    %eax,-0x2c0(%rbp)
    da2f:	83 f8 09             	cmp    $0x9,%eax
    da32:	0f 86 d6 08 00 00    	jbe    e30e <_Z12writeVTKFileiPPPPeiiieee+0x9ee>
    da38:	83 f8 63             	cmp    $0x63,%eax
    da3b:	0f 86 c3 08 00 00    	jbe    e304 <_Z12writeVTKFileiPPPPeiiieee+0x9e4>
    da41:	3d e7 03 00 00       	cmp    $0x3e7,%eax
    da46:	0f 86 ae 08 00 00    	jbe    e2fa <_Z12writeVTKFileiPPPPeiiieee+0x9da>
    da4c:	89 c2                	mov    %eax,%edx
    da4e:	3d 0f 27 00 00       	cmp    $0x270f,%eax
    da53:	0f 86 97 08 00 00    	jbe    e2f0 <_Z12writeVTKFileiPPPPeiiieee+0x9d0>
    da59:	bb 01 00 00 00       	mov    $0x1,%ebx
    da5e:	89 c7                	mov    %eax,%edi
    da60:	48 be 4b 59 86 38 d6 	movabs $0x346dc5d63886594b,%rsi
    da67:	c5 6d 34 
    da6a:	eb 25                	jmp    da91 <_Z12writeVTKFileiPPPPeiiieee+0x171>
    da6c:	0f 1f 40 00          	nopl   0x0(%rax)
    da70:	83 fa 63             	cmp    $0x63,%edx
    da73:	0f 86 36 08 00 00    	jbe    e2af <_Z12writeVTKFileiPPPPeiiieee+0x98f>
    da79:	81 fa e7 03 00 00    	cmp    $0x3e7,%edx
    da7f:	0f 86 1c 08 00 00    	jbe    e2a1 <_Z12writeVTKFileiPPPPeiiieee+0x981>
    da85:	81 fa 0f 27 00 00    	cmp    $0x270f,%edx
    da8b:	0f 86 02 08 00 00    	jbe    e293 <_Z12writeVTKFileiPPPPeiiieee+0x973>
    da91:	48 89 d0             	mov    %rdx,%rax
    da94:	48 89 d1             	mov    %rdx,%rcx
    da97:	48 f7 e6             	mul    %rsi
    da9a:	89 d8                	mov    %ebx,%eax
    da9c:	83 c3 04             	add    $0x4,%ebx
    da9f:	48 c1 ea 0b          	shr    $0xb,%rdx
    daa3:	48 81 f9 9f 86 01 00 	cmp    $0x1869f,%rcx
    daaa:	77 c4                	ja     da70 <_Z12writeVTKFileiPPPPeiiieee+0x150>
    daac:	89 bd 40 fd ff ff    	mov    %edi,-0x2c0(%rbp)
    dab2:	4c 8d ad 60 fd ff ff 	lea    -0x2a0(%rbp),%r13
    dab9:	41 8d 34 1f          	lea    (%r15,%rbx,1),%esi
    dabd:	ba 2d 00 00 00       	mov    $0x2d,%edx
    dac2:	4c 8d b5 70 fd ff ff 	lea    -0x290(%rbp),%r14
    dac9:	4c 89 ef             	mov    %r13,%rdi
    dacc:	4c 89 b5 60 fd ff ff 	mov    %r14,-0x2a0(%rbp)
    dad3:	e8 28 4a ff ff       	call   2500 <_ZNSt7__cxx1112basic_stringIcSt11char_traitsIcESaIcEE12_M_constructEmc@plt>
    dad8:	8b 85 40 fd ff ff    	mov    -0x2c0(%rbp),%eax
    dade:	41 0f b6 cf          	movzbl %r15b,%ecx
    dae2:	83 eb 01             	sub    $0x1,%ebx
    dae5:	48 03 8d 60 fd ff ff 	add    -0x2a0(%rbp),%rcx
    daec:	83 f8 63             	cmp    $0x63,%eax
    daef:	76 59                	jbe    db4a <_Z12writeVTKFileiPPPPeiiieee+0x22a>
    daf1:	48 8d 35 68 1b 00 00 	lea    0x1b68(%rip),%rsi        # f660 <_ZZNSt8__detail18__to_chars_10_implIjEEvPcjT_E8__digits>
    daf8:	41 89 c2             	mov    %eax,%r10d
    dafb:	0f 1f 44 00 00       	nopl   0x0(%rax,%rax,1)
    db00:	44 89 d2             	mov    %r10d,%edx
    db03:	45 89 d1             	mov    %r10d,%r9d
    db06:	48 89 d0             	mov    %rdx,%rax
    db09:	48 69 d2 1f 85 eb 51 	imul   $0x51eb851f,%rdx,%rdx
    db10:	48 c1 ea 25          	shr    $0x25,%rdx
    db14:	6b fa 64             	imul   $0x64,%edx,%edi
    db17:	41 89 d2             	mov    %edx,%r10d
    db1a:	89 da                	mov    %ebx,%edx
    db1c:	29 f8                	sub    %edi,%eax
    db1e:	01 c0                	add    %eax,%eax
    db20:	44 8d 40 01          	lea    0x1(%rax),%r8d
    db24:	0f b6 04 06          	movzbl (%rsi,%rax,1),%eax
    db28:	46 0f b6 04 06       	movzbl (%rsi,%r8,1),%r8d
    db2d:	44 88 04 11          	mov    %r8b,(%rcx,%rdx,1)
    db31:	8d 53 ff             	lea    -0x1(%rbx),%edx
    db34:	83 eb 02             	sub    $0x2,%ebx
    db37:	88 04 11             	mov    %al,(%rcx,%rdx,1)
    db3a:	41 81 f9 0f 27 00 00 	cmp    $0x270f,%r9d
    db41:	77 bd                	ja     db00 <_Z12writeVTKFileiPPPPeiiieee+0x1e0>
    db43:	44 89 95 40 fd ff ff 	mov    %r10d,-0x2c0(%rbp)
    db4a:	8b b5 40 fd ff ff    	mov    -0x2c0(%rbp),%esi
    db50:	89 f0                	mov    %esi,%eax
    db52:	83 c0 30             	add    $0x30,%eax
    db55:	83 fe 09             	cmp    $0x9,%esi
    db58:	76 17                	jbe    db71 <_Z12writeVTKFileiPPPPeiiieee+0x251>
    db5a:	01 f6                	add    %esi,%esi
    db5c:	48 8d 05 fd 1a 00 00 	lea    0x1afd(%rip),%rax        # f660 <_ZZNSt8__detail18__to_chars_10_implIjEEvPcjT_E8__digits>
    db63:	8d 56 01             	lea    0x1(%rsi),%edx
    db66:	0f b6 14 10          	movzbl (%rax,%rdx,1),%edx
    db6a:	0f b6 04 30          	movzbl (%rax,%rsi,1),%eax
    db6e:	88 51 01             	mov    %dl,0x1(%rcx)
    db71:	88 01                	mov    %al,(%rcx)
    db73:	41 b8 07 00 00 00    	mov    $0x7,%r8d
    db79:	31 d2                	xor    %edx,%edx
    db7b:	31 f6                	xor    %esi,%esi
    db7d:	48 8d 0d b2 1a 00 00 	lea    0x1ab2(%rip),%rcx        # f636 <_ZN6__pstl9execution2v1L5unseqE+0x14e>
    db84:	4c 89 ef             	mov    %r13,%rdi
    db87:	e8 04 4a ff ff       	call   2590 <_ZNSt7__cxx1112basic_stringIcSt11char_traitsIcESaIcEE10_M_replaceEmmPKcm@plt>
    db8c:	48 8d 8d 90 fd ff ff 	lea    -0x270(%rbp),%rcx
    db93:	48 8d 50 10          	lea    0x10(%rax),%rdx
    db97:	48 89 8d 80 fd ff ff 	mov    %rcx,-0x280(%rbp)
    db9e:	49 89 cf             	mov    %rcx,%r15
    dba1:	48 8b 08             	mov    (%rax),%rcx
    dba4:	48 39 d1             	cmp    %rdx,%rcx
    dba7:	0f 84 d5 06 00 00    	je     e282 <_Z12writeVTKFileiPPPPeiiieee+0x962>
    dbad:	48 89 8d 80 fd ff ff 	mov    %rcx,-0x280(%rbp)
    dbb4:	48 8b 48 10          	mov    0x10(%rax),%rcx
    dbb8:	48 89 8d 90 fd ff ff 	mov    %rcx,-0x270(%rbp)
    dbbf:	48 8b 48 08          	mov    0x8(%rax),%rcx
    dbc3:	c6 40 10 00          	movb   $0x0,0x10(%rax)
    dbc7:	48 89 8d 88 fd ff ff 	mov    %rcx,-0x278(%rbp)
    dbce:	48 c7 40 08 00 00 00 	movq   $0x0,0x8(%rax)
    dbd5:	00 
    dbd6:	48 89 10             	mov    %rdx,(%rax)
    dbd9:	48 b8 ff ff ff ff ff 	movabs $0x3fffffffffffffff,%rax
    dbe0:	ff ff 3f 
    dbe3:	48 2b 85 88 fd ff ff 	sub    -0x278(%rbp),%rax
    dbea:	48 83 f8 03          	cmp    $0x3,%rax
    dbee:	0f 86 eb 06 00 00    	jbe    e2df <_Z12writeVTKFileiPPPPeiiieee+0x9bf>
    dbf4:	48 8d bd 80 fd ff ff 	lea    -0x280(%rbp),%rdi
    dbfb:	ba 04 00 00 00       	mov    $0x4,%edx
    dc00:	48 8d 35 56 19 00 00 	lea    0x1956(%rip),%rsi        # f55d <_ZN6__pstl9execution2v1L5unseqE+0x75>
    dc07:	e8 94 47 ff ff       	call   23a0 <_ZNSt7__cxx1112basic_stringIcSt11char_traitsIcESaIcEE9_M_appendEPKcm@plt>
    dc0c:	48 8d 9d b0 fd ff ff 	lea    -0x250(%rbp),%rbx
    dc13:	48 8d 50 10          	lea    0x10(%rax),%rdx
    dc17:	48 89 9d a0 fd ff ff 	mov    %rbx,-0x260(%rbp)
    dc1e:	48 8b 08             	mov    (%rax),%rcx
    dc21:	48 39 d1             	cmp    %rdx,%rcx
    dc24:	0f 84 47 06 00 00    	je     e271 <_Z12writeVTKFileiPPPPeiiieee+0x951>
    dc2a:	48 89 8d a0 fd ff ff 	mov    %rcx,-0x260(%rbp)
    dc31:	48 8b 48 10          	mov    0x10(%rax),%rcx
    dc35:	48 89 8d b0 fd ff ff 	mov    %rcx,-0x250(%rbp)
    dc3c:	48 8b 48 08          	mov    0x8(%rax),%rcx
    dc40:	48 8b bd 20 fd ff ff 	mov    -0x2e0(%rbp),%rdi
    dc47:	c6 40 10 00          	movb   $0x0,0x10(%rax)
    dc4b:	48 89 8d a8 fd ff ff 	mov    %rcx,-0x258(%rbp)
    dc52:	48 89 10             	mov    %rdx,(%rax)
    dc55:	48 8b b5 a0 fd ff ff 	mov    -0x260(%rbp),%rsi
    dc5c:	ba 10 00 00 00       	mov    $0x10,%edx
    dc61:	48 c7 40 08 00 00 00 	movq   $0x0,0x8(%rax)
    dc68:	00 
    dc69:	e8 02 48 ff ff       	call   2470 <_ZNSt13basic_filebufIcSt11char_traitsIcEE4openEPKcSt13_Ios_Openmode@plt>
    dc6e:	48 8b 95 c0 fd ff ff 	mov    -0x240(%rbp),%rdx
    dc75:	48 8b bd 58 fd ff ff 	mov    -0x2a8(%rbp),%rdi
    dc7c:	48 03 7a e8          	add    -0x18(%rdx),%rdi
    dc80:	48 85 c0             	test   %rax,%rax
    dc83:	0f 84 d8 05 00 00    	je     e261 <_Z12writeVTKFileiPPPPeiiieee+0x941>
    dc89:	31 f6                	xor    %esi,%esi
    dc8b:	e8 50 49 ff ff       	call   25e0 <_ZNSt9basic_iosIcSt11char_traitsIcEE5clearESt12_Ios_Iostate@plt>
    dc90:	48 8b bd a0 fd ff ff 	mov    -0x260(%rbp),%rdi
    dc97:	48 39 df             	cmp    %rbx,%rdi
    dc9a:	74 10                	je     dcac <_Z12writeVTKFileiPPPPeiiieee+0x38c>
    dc9c:	48 8b 85 b0 fd ff ff 	mov    -0x250(%rbp),%rax
    dca3:	48 8d 70 01          	lea    0x1(%rax),%rsi
    dca7:	e8 04 48 ff ff       	call   24b0 <_ZdlPvm@plt>
    dcac:	48 8b bd 80 fd ff ff 	mov    -0x280(%rbp),%rdi
    dcb3:	4c 39 ff             	cmp    %r15,%rdi
    dcb6:	74 10                	je     dcc8 <_Z12writeVTKFileiPPPPeiiieee+0x3a8>
    dcb8:	48 8b 85 90 fd ff ff 	mov    -0x270(%rbp),%rax
    dcbf:	48 8d 70 01          	lea    0x1(%rax),%rsi
    dcc3:	e8 e8 47 ff ff       	call   24b0 <_ZdlPvm@plt>
    dcc8:	48 8b bd 60 fd ff ff 	mov    -0x2a0(%rbp),%rdi
    dccf:	4c 39 f7             	cmp    %r14,%rdi
    dcd2:	74 10                	je     dce4 <_Z12writeVTKFileiPPPPeiiieee+0x3c4>
    dcd4:	48 8b 85 70 fd ff ff 	mov    -0x290(%rbp),%rax
    dcdb:	48 8d 70 01          	lea    0x1(%rax),%rsi
    dcdf:	e8 cc 47 ff ff       	call   24b0 <_ZdlPvm@plt>
    dce4:	48 8b 9d 58 fd ff ff 	mov    -0x2a8(%rbp),%rbx
    dceb:	ba 1b 00 00 00       	mov    $0x1b,%edx
    dcf0:	48 8d 35 6b 18 00 00 	lea    0x186b(%rip),%rsi        # f562 <_ZN6__pstl9execution2v1L5unseqE+0x7a>
    dcf7:	48 89 df             	mov    %rbx,%rdi
    dcfa:	e8 f1 47 ff ff       	call   24f0 <_ZSt16__ostream_insertIcSt11char_traitsIcEERSt13basic_ostreamIT_T0_ES6_PKS3_l@plt>
    dcff:	ba 15 00 00 00       	mov    $0x15,%edx
    dd04:	48 8d 35 73 18 00 00 	lea    0x1873(%rip),%rsi        # f57e <_ZN6__pstl9execution2v1L5unseqE+0x96>
    dd0b:	48 89 df             	mov    %rbx,%rdi
    dd0e:	e8 dd 47 ff ff       	call   24f0 <_ZSt16__ostream_insertIcSt11char_traitsIcEERSt13basic_ostreamIT_T0_ES6_PKS3_l@plt>
    dd13:	ba 06 00 00 00       	mov    $0x6,%edx
    dd18:	48 8d 35 75 18 00 00 	lea    0x1875(%rip),%rsi        # f594 <_ZN6__pstl9execution2v1L5unseqE+0xac>
    dd1f:	48 89 df             	mov    %rbx,%rdi
    dd22:	e8 c9 47 ff ff       	call   24f0 <_ZSt16__ostream_insertIcSt11char_traitsIcEERSt13basic_ostreamIT_T0_ES6_PKS3_l@plt>
    dd27:	ba 1a 00 00 00       	mov    $0x1a,%edx
    dd2c:	48 8d 35 68 18 00 00 	lea    0x1868(%rip),%rsi        # f59b <_ZN6__pstl9execution2v1L5unseqE+0xb3>
    dd33:	48 89 df             	mov    %rbx,%rdi
    dd36:	e8 b5 47 ff ff       	call   24f0 <_ZSt16__ostream_insertIcSt11char_traitsIcEERSt13basic_ostreamIT_T0_ES6_PKS3_l@plt>
    dd3b:	ba 0b 00 00 00       	mov    $0xb,%edx
    dd40:	48 8d 35 6f 18 00 00 	lea    0x186f(%rip),%rsi        # f5b6 <_ZN6__pstl9execution2v1L5unseqE+0xce>
    dd47:	48 89 df             	mov    %rbx,%rdi
    dd4a:	e8 a1 47 ff ff       	call   24f0 <_ZSt16__ostream_insertIcSt11char_traitsIcEERSt13basic_ostreamIT_T0_ES6_PKS3_l@plt>
    dd4f:	44 8b b5 3c fd ff ff 	mov    -0x2c4(%rbp),%r14d
    dd56:	48 89 df             	mov    %rbx,%rdi
    dd59:	44 89 f6             	mov    %r14d,%esi
    dd5c:	e8 8f 48 ff ff       	call   25f0 <_ZNSolsEi@plt>
    dd61:	4c 8d 3d 7b 18 00 00 	lea    0x187b(%rip),%r15        # f5e3 <_ZN6__pstl9execution2v1L5unseqE+0xfb>
    dd68:	ba 01 00 00 00       	mov    $0x1,%edx
    dd6d:	48 89 c7             	mov    %rax,%rdi
    dd70:	49 89 c5             	mov    %rax,%r13
    dd73:	4c 89 fe             	mov    %r15,%rsi
    dd76:	e8 75 47 ff ff       	call   24f0 <_ZSt16__ostream_insertIcSt11char_traitsIcEERSt13basic_ostreamIT_T0_ES6_PKS3_l@plt>
    dd7b:	8b b5 38 fd ff ff    	mov    -0x2c8(%rbp),%esi
    dd81:	4c 89 ef             	mov    %r13,%rdi
    dd84:	e8 67 48 ff ff       	call   25f0 <_ZNSolsEi@plt>
    dd89:	ba 01 00 00 00       	mov    $0x1,%edx
    dd8e:	4c 89 fe             	mov    %r15,%rsi
    dd91:	48 89 c7             	mov    %rax,%rdi
    dd94:	48 89 85 40 fd ff ff 	mov    %rax,-0x2c0(%rbp)
    dd9b:	e8 50 47 ff ff       	call   24f0 <_ZSt16__ostream_insertIcSt11char_traitsIcEERSt13basic_ostreamIT_T0_ES6_PKS3_l@plt>
    dda0:	44 8b ad 28 fd ff ff 	mov    -0x2d8(%rbp),%r13d
    dda7:	48 8b bd 40 fd ff ff 	mov    -0x2c0(%rbp),%rdi
    ddae:	44 89 ee             	mov    %r13d,%esi
    ddb1:	e8 3a 48 ff ff       	call   25f0 <_ZNSolsEi@plt>
    ddb6:	48 89 c7             	mov    %rax,%rdi
    ddb9:	ba 01 00 00 00       	mov    $0x1,%edx
    ddbe:	48 8d 35 86 18 00 00 	lea    0x1886(%rip),%rsi        # f64b <_ZN6__pstl9execution2v1L5unseqE+0x163>
    ddc5:	e8 26 47 ff ff       	call   24f0 <_ZSt16__ostream_insertIcSt11char_traitsIcEERSt13basic_ostreamIT_T0_ES6_PKS3_l@plt>
    ddca:	ba 0d 00 00 00       	mov    $0xd,%edx
    ddcf:	48 8d 35 ec 17 00 00 	lea    0x17ec(%rip),%rsi        # f5c2 <_ZN6__pstl9execution2v1L5unseqE+0xda>
    ddd6:	48 89 df             	mov    %rbx,%rdi
    ddd9:	e8 12 47 ff ff       	call   24f0 <_ZSt16__ostream_insertIcSt11char_traitsIcEERSt13basic_ostreamIT_T0_ES6_PKS3_l@plt>
    ddde:	ba 08 00 00 00       	mov    $0x8,%edx
    dde3:	48 8d 35 e6 17 00 00 	lea    0x17e6(%rip),%rsi        # f5d0 <_ZN6__pstl9execution2v1L5unseqE+0xe8>
    ddea:	48 89 df             	mov    %rbx,%rdi
    dded:	e8 fe 46 ff ff       	call   24f0 <_ZSt16__ostream_insertIcSt11char_traitsIcEERSt13basic_ostreamIT_T0_ES6_PKS3_l@plt>
    ddf2:	ff 75 18             	push   0x18(%rbp)
    ddf5:	48 89 df             	mov    %rbx,%rdi
    ddf8:	ff 75 10             	push   0x10(%rbp)
    ddfb:	e8 e0 45 ff ff       	call   23e0 <_ZNSo9_M_insertIeEERSoT_@plt>
    de00:	41 59                	pop    %r9
    de02:	ba 01 00 00 00       	mov    $0x1,%edx
    de07:	41 5a                	pop    %r10
    de09:	4c 89 fe             	mov    %r15,%rsi
    de0c:	48 89 c7             	mov    %rax,%rdi
    de0f:	48 89 85 40 fd ff ff 	mov    %rax,-0x2c0(%rbp)
    de16:	e8 d5 46 ff ff       	call   24f0 <_ZSt16__ostream_insertIcSt11char_traitsIcEERSt13basic_ostreamIT_T0_ES6_PKS3_l@plt>
    de1b:	ff 75 28             	push   0x28(%rbp)
    de1e:	48 8b bd 40 fd ff ff 	mov    -0x2c0(%rbp),%rdi
    de25:	ff 75 20             	push   0x20(%rbp)
    de28:	e8 b3 45 ff ff       	call   23e0 <_ZNSo9_M_insertIeEERSoT_@plt>
    de2d:	5f                   	pop    %rdi
    de2e:	ba 01 00 00 00       	mov    $0x1,%edx
    de33:	41 58                	pop    %r8
    de35:	4c 89 fe             	mov    %r15,%rsi
    de38:	48 89 c7             	mov    %rax,%rdi
    de3b:	48 89 85 40 fd ff ff 	mov    %rax,-0x2c0(%rbp)
    de42:	e8 a9 46 ff ff       	call   24f0 <_ZSt16__ostream_insertIcSt11char_traitsIcEERSt13basic_ostreamIT_T0_ES6_PKS3_l@plt>
    de47:	ff 75 38             	push   0x38(%rbp)
    de4a:	48 8b bd 40 fd ff ff 	mov    -0x2c0(%rbp),%rdi
    de51:	ff 75 30             	push   0x30(%rbp)
    de54:	e8 87 45 ff ff       	call   23e0 <_ZNSo9_M_insertIeEERSoT_@plt>
    de59:	59                   	pop    %rcx
    de5a:	48 89 c7             	mov    %rax,%rdi
    de5d:	5e                   	pop    %rsi
    de5e:	ba 01 00 00 00       	mov    $0x1,%edx
    de63:	48 8d 35 e1 17 00 00 	lea    0x17e1(%rip),%rsi        # f64b <_ZN6__pstl9execution2v1L5unseqE+0x163>
    de6a:	e8 81 46 ff ff       	call   24f0 <_ZSt16__ostream_insertIcSt11char_traitsIcEERSt13basic_ostreamIT_T0_ES6_PKS3_l@plt>
    de6f:	ba 0b 00 00 00       	mov    $0xb,%edx
    de74:	48 8d 35 5e 17 00 00 	lea    0x175e(%rip),%rsi        # f5d9 <_ZN6__pstl9execution2v1L5unseqE+0xf1>
    de7b:	48 89 df             	mov    %rbx,%rdi
    de7e:	e8 6d 46 ff ff       	call   24f0 <_ZSt16__ostream_insertIcSt11char_traitsIcEERSt13basic_ostreamIT_T0_ES6_PKS3_l@plt>
    de83:	8b 85 38 fd ff ff    	mov    -0x2c8(%rbp),%eax
    de89:	48 89 df             	mov    %rbx,%rdi
    de8c:	41 0f af c6          	imul   %r14d,%eax
    de90:	89 c6                	mov    %eax,%esi
    de92:	41 0f af f5          	imul   %r13d,%esi
    de96:	e8 55 47 ff ff       	call   25f0 <_ZNSolsEi@plt>
    de9b:	48 89 c7             	mov    %rax,%rdi
    de9e:	ba 01 00 00 00       	mov    $0x1,%edx
    dea3:	48 8d 35 a1 17 00 00 	lea    0x17a1(%rip),%rsi        # f64b <_ZN6__pstl9execution2v1L5unseqE+0x163>
    deaa:	e8 41 46 ff ff       	call   24f0 <_ZSt16__ostream_insertIcSt11char_traitsIcEERSt13basic_ostreamIT_T0_ES6_PKS3_l@plt>
    deaf:	ba 18 00 00 00       	mov    $0x18,%edx
    deb4:	48 8d 35 2a 17 00 00 	lea    0x172a(%rip),%rsi        # f5e5 <_ZN6__pstl9execution2v1L5unseqE+0xfd>
    debb:	48 89 df             	mov    %rbx,%rdi
    debe:	e8 2d 46 ff ff       	call   24f0 <_ZSt16__ostream_insertIcSt11char_traitsIcEERSt13basic_ostreamIT_T0_ES6_PKS3_l@plt>
    dec3:	ba 15 00 00 00       	mov    $0x15,%edx
    dec8:	48 8d 35 2f 17 00 00 	lea    0x172f(%rip),%rsi        # f5fe <_ZN6__pstl9execution2v1L5unseqE+0x116>
    decf:	48 89 df             	mov    %rbx,%rdi
    ded2:	e8 19 46 ff ff       	call   24f0 <_ZSt16__ostream_insertIcSt11char_traitsIcEERSt13basic_ostreamIT_T0_ES6_PKS3_l@plt>
    ded7:	45 85 ed             	test   %r13d,%r13d
    deda:	0f 8e e5 00 00 00    	jle    dfc5 <_Z12writeVTKFileiPPPPeiiieee+0x6a5>
    dee0:	49 63 c5             	movslq %r13d,%rax
    dee3:	8b 8d 38 fd ff ff    	mov    -0x2c8(%rbp),%ecx
    dee9:	45 31 ed             	xor    %r13d,%r13d
    deec:	48 c1 e0 04          	shl    $0x4,%rax
    def0:	48 89 85 30 fd ff ff 	mov    %rax,-0x2d0(%rbp)
    def7:	8d 41 ff             	lea    -0x1(%rcx),%eax
    defa:	48 8d 04 c5 08 00 00 	lea    0x8(,%rax,8),%rax
    df01:	00 
    df02:	48 89 85 50 fd ff ff 	mov    %rax,-0x2b0(%rbp)
    df09:	41 8d 46 ff          	lea    -0x1(%r14),%eax
    df0d:	4c 8d 34 c5 08 00 00 	lea    0x8(,%rax,8),%r14
    df14:	00 
    df15:	0f 1f 00             	nopl   (%rax)
    df18:	44 8b 9d 38 fd ff ff 	mov    -0x2c8(%rbp),%r11d
    df1f:	48 c7 85 40 fd ff ff 	movq   $0x0,-0x2c0(%rbp)
    df26:	00 00 00 00 
    df2a:	45 85 db             	test   %r11d,%r11d
    df2d:	7e 6d                	jle    df9c <_Z12writeVTKFileiPPPPeiiieee+0x67c>
    df2f:	90                   	nop
    df30:	8b 85 3c fd ff ff    	mov    -0x2c4(%rbp),%eax
    df36:	31 db                	xor    %ebx,%ebx
    df38:	85 c0                	test   %eax,%eax
    df3a:	7e 48                	jle    df84 <_Z12writeVTKFileiPPPPeiiieee+0x664>
    df3c:	0f 1f 40 00          	nopl   0x0(%rax)
    df40:	49 8b 44 24 18       	mov    0x18(%r12),%rax
    df45:	48 8b 8d 40 fd ff ff 	mov    -0x2c0(%rbp),%rcx
    df4c:	48 8b bd 58 fd ff ff 	mov    -0x2a8(%rbp),%rdi
    df53:	48 8b 04 18          	mov    (%rax,%rbx,1),%rax
    df57:	48 8b 04 08          	mov    (%rax,%rcx,1),%rax
    df5b:	42 ff 74 28 08       	push   0x8(%rax,%r13,1)
    df60:	42 ff 34 28          	push   (%rax,%r13,1)
    df64:	e8 77 44 ff ff       	call   23e0 <_ZNSo9_M_insertIeEERSoT_@plt>
    df69:	48 89 c7             	mov    %rax,%rdi
    df6c:	4c 89 fe             	mov    %r15,%rsi
    df6f:	58                   	pop    %rax
    df70:	5a                   	pop    %rdx
    df71:	ba 01 00 00 00       	mov    $0x1,%edx
    df76:	e8 75 45 ff ff       	call   24f0 <_ZSt16__ostream_insertIcSt11char_traitsIcEERSt13basic_ostreamIT_T0_ES6_PKS3_l@plt>
    df7b:	48 83 c3 08          	add    $0x8,%rbx
    df7f:	49 39 de             	cmp    %rbx,%r14
    df82:	75 bc                	jne    df40 <_Z12writeVTKFileiPPPPeiiieee+0x620>
    df84:	48 83 85 40 fd ff ff 	addq   $0x8,-0x2c0(%rbp)
    df8b:	08 
    df8c:	48 8b 85 40 fd ff ff 	mov    -0x2c0(%rbp),%rax
    df93:	48 39 85 50 fd ff ff 	cmp    %rax,-0x2b0(%rbp)
    df9a:	75 94                	jne    df30 <_Z12writeVTKFileiPPPPeiiieee+0x610>
    df9c:	48 8b bd 58 fd ff ff 	mov    -0x2a8(%rbp),%rdi
    dfa3:	ba 01 00 00 00       	mov    $0x1,%edx
    dfa8:	48 8d 35 9c 16 00 00 	lea    0x169c(%rip),%rsi        # f64b <_ZN6__pstl9execution2v1L5unseqE+0x163>
    dfaf:	e8 3c 45 ff ff       	call   24f0 <_ZSt16__ostream_insertIcSt11char_traitsIcEERSt13basic_ostreamIT_T0_ES6_PKS3_l@plt>
    dfb4:	49 83 c5 10          	add    $0x10,%r13
    dfb8:	4c 39 ad 30 fd ff ff 	cmp    %r13,-0x2d0(%rbp)
    dfbf:	0f 85 53 ff ff ff    	jne    df18 <_Z12writeVTKFileiPPPPeiiieee+0x5f8>
    dfc5:	48 8b bd 58 fd ff ff 	mov    -0x2a8(%rbp),%rdi
    dfcc:	ba 18 00 00 00       	mov    $0x18,%edx
    dfd1:	48 8d 35 3c 16 00 00 	lea    0x163c(%rip),%rsi        # f614 <_ZN6__pstl9execution2v1L5unseqE+0x12c>
    dfd8:	e8 13 45 ff ff       	call   24f0 <_ZSt16__ostream_insertIcSt11char_traitsIcEERSt13basic_ostreamIT_T0_ES6_PKS3_l@plt>
    dfdd:	48 63 85 28 fd ff ff 	movslq -0x2d8(%rbp),%rax
    dfe4:	85 c0                	test   %eax,%eax
    dfe6:	0f 8e 57 01 00 00    	jle    e143 <_Z12writeVTKFileiPPPPeiiieee+0x823>
    dfec:	48 c1 e0 04          	shl    $0x4,%rax
    dff0:	45 31 f6             	xor    %r14d,%r14d
    dff3:	48 89 85 28 fd ff ff 	mov    %rax,-0x2d8(%rbp)
    dffa:	8b 85 38 fd ff ff    	mov    -0x2c8(%rbp),%eax
    e000:	83 e8 01             	sub    $0x1,%eax
    e003:	48 8d 04 c5 08 00 00 	lea    0x8(,%rax,8),%rax
    e00a:	00 
    e00b:	48 89 85 30 fd ff ff 	mov    %rax,-0x2d0(%rbp)
    e012:	8b 85 3c fd ff ff    	mov    -0x2c4(%rbp),%eax
    e018:	83 e8 01             	sub    $0x1,%eax
    e01b:	48 8d 04 c5 08 00 00 	lea    0x8(,%rax,8),%rax
    e022:	00 
    e023:	48 89 85 50 fd ff ff 	mov    %rax,-0x2b0(%rbp)
    e02a:	66 0f 1f 44 00 00    	nopw   0x0(%rax,%rax,1)
    e030:	8b 85 38 fd ff ff    	mov    -0x2c8(%rbp),%eax
    e036:	45 31 ed             	xor    %r13d,%r13d
    e039:	85 c0                	test   %eax,%eax
    e03b:	0f 8e f1 00 00 00    	jle    e132 <_Z12writeVTKFileiPPPPeiiieee+0x812>
    e041:	0f 1f 80 00 00 00 00 	nopl   0x0(%rax)
    e048:	8b 95 3c fd ff ff    	mov    -0x2c4(%rbp),%edx
    e04e:	31 db                	xor    %ebx,%ebx
    e050:	85 d2                	test   %edx,%edx
    e052:	0f 8e c9 00 00 00    	jle    e121 <_Z12writeVTKFileiPPPPeiiieee+0x801>
    e058:	0f 1f 84 00 00 00 00 	nopl   0x0(%rax,%rax,1)
    e05f:	00 
    e060:	49 8b 04 24          	mov    (%r12),%rax
    e064:	48 8b bd 58 fd ff ff 	mov    -0x2a8(%rbp),%rdi
    e06b:	48 8b 04 18          	mov    (%rax,%rbx,1),%rax
    e06f:	4a 8b 04 28          	mov    (%rax,%r13,1),%rax
    e073:	42 ff 74 30 08       	push   0x8(%rax,%r14,1)
    e078:	42 ff 34 30          	push   (%rax,%r14,1)
    e07c:	e8 5f 43 ff ff       	call   23e0 <_ZNSo9_M_insertIeEERSoT_@plt>
    e081:	41 59                	pop    %r9
    e083:	ba 01 00 00 00       	mov    $0x1,%edx
    e088:	41 5a                	pop    %r10
    e08a:	4c 89 fe             	mov    %r15,%rsi
    e08d:	48 89 c7             	mov    %rax,%rdi
    e090:	48 89 85 40 fd ff ff 	mov    %rax,-0x2c0(%rbp)
    e097:	e8 54 44 ff ff       	call   24f0 <_ZSt16__ostream_insertIcSt11char_traitsIcEERSt13basic_ostreamIT_T0_ES6_PKS3_l@plt>
    e09c:	49 8b 44 24 08       	mov    0x8(%r12),%rax
    e0a1:	48 8b bd 40 fd ff ff 	mov    -0x2c0(%rbp),%rdi
    e0a8:	48 8b 04 18          	mov    (%rax,%rbx,1),%rax
    e0ac:	4a 8b 04 28          	mov    (%rax,%r13,1),%rax
    e0b0:	42 ff 74 30 08       	push   0x8(%rax,%r14,1)
    e0b5:	42 ff 34 30          	push   (%rax,%r14,1)
    e0b9:	e8 22 43 ff ff       	call   23e0 <_ZNSo9_M_insertIeEERSoT_@plt>
    e0be:	5f                   	pop    %rdi
    e0bf:	ba 01 00 00 00       	mov    $0x1,%edx
    e0c4:	41 58                	pop    %r8
    e0c6:	4c 89 fe             	mov    %r15,%rsi
    e0c9:	48 89 c7             	mov    %rax,%rdi
    e0cc:	48 89 85 40 fd ff ff 	mov    %rax,-0x2c0(%rbp)
    e0d3:	e8 18 44 ff ff       	call   24f0 <_ZSt16__ostream_insertIcSt11char_traitsIcEERSt13basic_ostreamIT_T0_ES6_PKS3_l@plt>
    e0d8:	49 8b 44 24 10       	mov    0x10(%r12),%rax
    e0dd:	48 8b bd 40 fd ff ff 	mov    -0x2c0(%rbp),%rdi
    e0e4:	48 8b 04 18          	mov    (%rax,%rbx,1),%rax
    e0e8:	4a 8b 04 28          	mov    (%rax,%r13,1),%rax
    e0ec:	42 ff 74 30 08       	push   0x8(%rax,%r14,1)
    e0f1:	42 ff 34 30          	push   (%rax,%r14,1)
    e0f5:	e8 e6 42 ff ff       	call   23e0 <_ZNSo9_M_insertIeEERSoT_@plt>
    e0fa:	59                   	pop    %rcx
    e0fb:	48 89 c7             	mov    %rax,%rdi
    e0fe:	5e                   	pop    %rsi
    e0ff:	ba 01 00 00 00       	mov    $0x1,%edx
    e104:	48 8d 35 40 15 00 00 	lea    0x1540(%rip),%rsi        # f64b <_ZN6__pstl9execution2v1L5unseqE+0x163>
    e10b:	e8 e0 43 ff ff       	call   24f0 <_ZSt16__ostream_insertIcSt11char_traitsIcEERSt13basic_ostreamIT_T0_ES6_PKS3_l@plt>
    e110:	48 83 c3 08          	add    $0x8,%rbx
    e114:	48 39 9d 50 fd ff ff 	cmp    %rbx,-0x2b0(%rbp)
    e11b:	0f 85 3f ff ff ff    	jne    e060 <_Z12writeVTKFileiPPPPeiiieee+0x740>
    e121:	49 83 c5 08          	add    $0x8,%r13
    e125:	4c 3b ad 30 fd ff ff 	cmp    -0x2d0(%rbp),%r13
    e12c:	0f 85 16 ff ff ff    	jne    e048 <_Z12writeVTKFileiPPPPeiiieee+0x728>
    e132:	49 83 c6 10          	add    $0x10,%r14
    e136:	4c 39 b5 28 fd ff ff 	cmp    %r14,-0x2d8(%rbp)
    e13d:	0f 85 ed fe ff ff    	jne    e030 <_Z12writeVTKFileiPPPPeiiieee+0x710>
    e143:	48 8b bd 20 fd ff ff 	mov    -0x2e0(%rbp),%rdi
    e14a:	e8 21 42 ff ff       	call   2370 <_ZNSt13basic_filebufIcSt11char_traitsIcEE5closeEv@plt>
    e14f:	48 85 c0             	test   %rax,%rax
    e152:	0f 84 65 01 00 00    	je     e2bd <_Z12writeVTKFileiPPPPeiiieee+0x99d>
    e158:	ba 10 00 00 00       	mov    $0x10,%edx
    e15d:	48 8d 35 c9 14 00 00 	lea    0x14c9(%rip),%rsi        # f62d <_ZN6__pstl9execution2v1L5unseqE+0x145>
    e164:	48 8d 3d d5 4e 00 00 	lea    0x4ed5(%rip),%rdi        # 13040 <_ZSt4cout@GLIBCXX_3.4>
    e16b:	e8 80 43 ff ff       	call   24f0 <_ZSt16__ostream_insertIcSt11char_traitsIcEERSt13basic_ostreamIT_T0_ES6_PKS3_l@plt>
    e170:	8b b5 1c fd ff ff    	mov    -0x2e4(%rbp),%esi
    e176:	48 8d 3d c3 4e 00 00 	lea    0x4ec3(%rip),%rdi        # 13040 <_ZSt4cout@GLIBCXX_3.4>
    e17d:	e8 6e 44 ff ff       	call   25f0 <_ZNSolsEi@plt>
    e182:	48 89 c7             	mov    %rax,%rdi
    e185:	48 8d 05 bc 49 00 00 	lea    0x49bc(%rip),%rax        # 12b48 <_ZTVSt13basic_filebufIcSt11char_traitsIcEE@GLIBCXX_3.4+0x10>
    e18c:	f3 0f 7e 0d 74 4a 00 	movq   0x4a74(%rip),%xmm1        # 12c08 <_ZTVSt14basic_ofstreamIcSt11char_traitsIcEE@GLIBCXX_3.4+0x50>
    e193:	00 
    e194:	ba 0e 00 00 00       	mov    $0xe,%edx
    e199:	66 48 0f 6e e0       	movq   %rax,%xmm4
    e19e:	48 8d 35 99 14 00 00 	lea    0x1499(%rip),%rsi        # f63e <_ZN6__pstl9execution2v1L5unseqE+0x156>
    e1a5:	66 0f 6c cc          	punpcklqdq %xmm4,%xmm1
    e1a9:	0f 29 8d 40 fd ff ff 	movaps %xmm1,-0x2c0(%rbp)
    e1b0:	e8 3b 43 ff ff       	call   24f0 <_ZSt16__ostream_insertIcSt11char_traitsIcEERSt13basic_ostreamIT_T0_ES6_PKS3_l@plt>
    e1b5:	66 0f 6f 8d 40 fd ff 	movdqa -0x2c0(%rbp),%xmm1
    e1bc:	ff 
    e1bd:	48 8b bd 20 fd ff ff 	mov    -0x2e0(%rbp),%rdi
    e1c4:	48 8d 05 2d 4a 00 00 	lea    0x4a2d(%rip),%rax        # 12bf8 <_ZTVSt14basic_ofstreamIcSt11char_traitsIcEE@GLIBCXX_3.4+0x40>
    e1cb:	48 89 85 b8 fe ff ff 	mov    %rax,-0x148(%rbp)
    e1d2:	0f 29 8d c0 fd ff ff 	movaps %xmm1,-0x240(%rbp)
    e1d9:	e8 92 41 ff ff       	call   2370 <_ZNSt13basic_filebufIcSt11char_traitsIcEE5closeEv@plt>
    e1de:	48 8d bd 30 fe ff ff 	lea    -0x1d0(%rbp),%rdi
    e1e5:	e8 26 44 ff ff       	call   2610 <_ZNSt12__basic_fileIcED1Ev@plt>
    e1ea:	48 8d 05 b7 48 00 00 	lea    0x48b7(%rip),%rax        # 12aa8 <_ZTVSt15basic_streambufIcSt11char_traitsIcEE@GLIBCXX_3.4+0x10>
    e1f1:	48 8d bd 00 fe ff ff 	lea    -0x200(%rbp),%rdi
    e1f8:	48 89 85 c8 fd ff ff 	mov    %rax,-0x238(%rbp)
    e1ff:	e8 3c 43 ff ff       	call   2540 <_ZNSt6localeD1Ev@plt>
    e204:	48 8b 05 15 49 00 00 	mov    0x4915(%rip),%rax        # 12b20 <_ZTTSt14basic_ofstreamIcSt11char_traitsIcEE@GLIBCXX_3.4+0x8>
    e20b:	48 8b 0d 16 49 00 00 	mov    0x4916(%rip),%rcx        # 12b28 <_ZTTSt14basic_ofstreamIcSt11char_traitsIcEE@GLIBCXX_3.4+0x10>
    e212:	48 8b bd 10 fd ff ff 	mov    -0x2f0(%rbp),%rdi
    e219:	48 89 85 c0 fd ff ff 	mov    %rax,-0x240(%rbp)
    e220:	48 8b 40 e8          	mov    -0x18(%rax),%rax
    e224:	48 89 8c 05 c0 fd ff 	mov    %rcx,-0x240(%rbp,%rax,1)
    e22b:	ff 
    e22c:	48 8d 05 55 48 00 00 	lea    0x4855(%rip),%rax        # 12a88 <_ZTVSt9basic_iosIcSt11char_traitsIcEE@GLIBCXX_3.4+0x10>
    e233:	48 89 85 b8 fe ff ff 	mov    %rax,-0x148(%rbp)
    e23a:	e8 71 41 ff ff       	call   23b0 <_ZNSt8ios_baseD2Ev@plt>
    e23f:	48 8b 45 c8          	mov    -0x38(%rbp),%rax
    e243:	64 48 2b 04 25 28 00 	sub    %fs:0x28,%rax
    e24a:	00 00 
    e24c:	0f 85 99 00 00 00    	jne    e2eb <_Z12writeVTKFileiPPPPeiiieee+0x9cb>
    e252:	48 8d 65 d8          	lea    -0x28(%rbp),%rsp
    e256:	5b                   	pop    %rbx
    e257:	41 5c                	pop    %r12
    e259:	41 5d                	pop    %r13
    e25b:	41 5e                	pop    %r14
    e25d:	41 5f                	pop    %r15
    e25f:	5d                   	pop    %rbp
    e260:	c3                   	ret    
    e261:	8b 77 20             	mov    0x20(%rdi),%esi
    e264:	83 ce 04             	or     $0x4,%esi
    e267:	e8 74 43 ff ff       	call   25e0 <_ZNSt9basic_iosIcSt11char_traitsIcEE5clearESt12_Ios_Iostate@plt>
    e26c:	e9 1f fa ff ff       	jmp    dc90 <_Z12writeVTKFileiPPPPeiiieee+0x370>
    e271:	f3 0f 6f 58 10       	movdqu 0x10(%rax),%xmm3
    e276:	0f 29 9d b0 fd ff ff 	movaps %xmm3,-0x250(%rbp)
    e27d:	e9 ba f9 ff ff       	jmp    dc3c <_Z12writeVTKFileiPPPPeiiieee+0x31c>
    e282:	f3 0f 6f 50 10       	movdqu 0x10(%rax),%xmm2
    e287:	0f 29 95 90 fd ff ff 	movaps %xmm2,-0x270(%rbp)
    e28e:	e9 2c f9 ff ff       	jmp    dbbf <_Z12writeVTKFileiPPPPeiiieee+0x29f>
    e293:	89 bd 40 fd ff ff    	mov    %edi,-0x2c0(%rbp)
    e299:	8d 58 07             	lea    0x7(%rax),%ebx
    e29c:	e9 11 f8 ff ff       	jmp    dab2 <_Z12writeVTKFileiPPPPeiiieee+0x192>
    e2a1:	89 bd 40 fd ff ff    	mov    %edi,-0x2c0(%rbp)
    e2a7:	8d 58 06             	lea    0x6(%rax),%ebx
    e2aa:	e9 03 f8 ff ff       	jmp    dab2 <_Z12writeVTKFileiPPPPeiiieee+0x192>
    e2af:	89 bd 40 fd ff ff    	mov    %edi,-0x2c0(%rbp)
    e2b5:	8d 58 05             	lea    0x5(%rax),%ebx
    e2b8:	e9 f5 f7 ff ff       	jmp    dab2 <_Z12writeVTKFileiPPPPeiiieee+0x192>
    e2bd:	48 8b 85 c0 fd ff ff 	mov    -0x240(%rbp),%rax
    e2c4:	48 8b bd 58 fd ff ff 	mov    -0x2a8(%rbp),%rdi
    e2cb:	48 03 78 e8          	add    -0x18(%rax),%rdi
    e2cf:	8b 77 20             	mov    0x20(%rdi),%esi
    e2d2:	83 ce 04             	or     $0x4,%esi
    e2d5:	e8 06 43 ff ff       	call   25e0 <_ZNSt9basic_iosIcSt11char_traitsIcEE5clearESt12_Ios_Iostate@plt>
    e2da:	e9 79 fe ff ff       	jmp    e158 <_Z12writeVTKFileiPPPPeiiieee+0x838>
    e2df:	48 8d 3d 62 12 00 00 	lea    0x1262(%rip),%rdi        # f548 <_ZN6__pstl9execution2v1L5unseqE+0x60>
    e2e6:	e8 05 41 ff ff       	call   23f0 <_ZSt20__throw_length_errorPKc@plt>
    e2eb:	e8 f0 41 ff ff       	call   24e0 <__stack_chk_fail@plt>
    e2f0:	bb 04 00 00 00       	mov    $0x4,%ebx
    e2f5:	e9 b8 f7 ff ff       	jmp    dab2 <_Z12writeVTKFileiPPPPeiiieee+0x192>
    e2fa:	bb 03 00 00 00       	mov    $0x3,%ebx
    e2ff:	e9 ae f7 ff ff       	jmp    dab2 <_Z12writeVTKFileiPPPPeiiieee+0x192>
    e304:	bb 02 00 00 00       	mov    $0x2,%ebx
    e309:	e9 a4 f7 ff ff       	jmp    dab2 <_Z12writeVTKFileiPPPPeiiieee+0x192>
    e30e:	bb 01 00 00 00       	mov    $0x1,%ebx
    e313:	e9 9a f7 ff ff       	jmp    dab2 <_Z12writeVTKFileiPPPPeiiieee+0x192>
    e318:	f3 0f 1e fa          	endbr64 
    e31c:	48 89 c3             	mov    %rax,%rbx
    e31f:	e9 67 43 ff ff       	jmp    268b <_Z12writeVTKFileiPPPPeiiieee.cold+0x4b>
    e324:	f3 0f 1e fa          	endbr64 
    e328:	48 89 c3             	mov    %rax,%rbx
    e32b:	e9 23 43 ff ff       	jmp    2653 <_Z12writeVTKFileiPPPPeiiieee.cold+0x13>
    e330:	f3 0f 1e fa          	endbr64 
    e334:	49 89 c4             	mov    %rax,%r12
    e337:	e9 04 43 ff ff       	jmp    2640 <_Z12writeVTKFileiPPPPeiiieee.cold>
    e33c:	f3 0f 1e fa          	endbr64 
    e340:	48 89 c3             	mov    %rax,%rbx
    e343:	e9 8a 43 ff ff       	jmp    26d2 <_Z12writeVTKFileiPPPPeiiieee.cold+0x92>
    e348:	f3 0f 1e fa          	endbr64 
    e34c:	48 89 c6             	mov    %rax,%rsi
    e34f:	e9 5a 43 ff ff       	jmp    26ae <_Z12writeVTKFileiPPPPeiiieee.cold+0x6e>
    e354:	f3 0f 1e fa          	endbr64 
    e358:	48 89 c3             	mov    %rax,%rbx
    e35b:	e9 0f 43 ff ff       	jmp    266f <_Z12writeVTKFileiPPPPeiiieee.cold+0x2f>
    e360:	f3 0f 1e fa          	endbr64 
    e364:	48 89 c3             	mov    %rax,%rbx
    e367:	e9 33 43 ff ff       	jmp    269f <_Z12writeVTKFileiPPPPeiiieee.cold+0x5f>
    e36c:	f3 0f 1e fa          	endbr64 
    e370:	48 89 c7             	mov    %rax,%rdi
    e373:	e9 91 43 ff ff       	jmp    2709 <_Z12writeVTKFileiPPPPeiiieee.cold+0xc9>

Disassembly of section .fini:

000000000000e378 <_fini>:
    e378:	f3 0f 1e fa          	endbr64 
    e37c:	48 83 ec 08          	sub    $0x8,%rsp
    e380:	48 83 c4 08          	add    $0x8,%rsp
    e384:	c3                   	ret    
