
cubyboxy:     file format elf64-x86-64


Disassembly of section .init:

0000000000002000 <_init>:
    2000:	f3 0f 1e fa          	endbr64 
    2004:	48 83 ec 08          	sub    $0x8,%rsp
    2008:	48 8b 05 d1 cf 00 00 	mov    0xcfd1(%rip),%rax        # efe0 <__gmon_start__@Base>
    200f:	48 85 c0             	test   %rax,%rax
    2012:	74 02                	je     2016 <_init+0x16>
    2014:	ff d0                	call   *%rax
    2016:	48 83 c4 08          	add    $0x8,%rsp
    201a:	c3                   	ret    

Disassembly of section .plt:

0000000000002020 <.plt>:
    2020:	ff 35 ba cd 00 00    	push   0xcdba(%rip)        # ede0 <_GLOBAL_OFFSET_TABLE_+0x8>
    2026:	f2 ff 25 bb cd 00 00 	bnd jmp *0xcdbb(%rip)        # ede8 <_GLOBAL_OFFSET_TABLE_+0x10>
    202d:	0f 1f 00             	nopl   (%rax)
    2030:	f3 0f 1e fa          	endbr64 
    2034:	68 00 00 00 00       	push   $0x0
    2039:	f2 e9 e1 ff ff ff    	bnd jmp 2020 <_init+0x20>
    203f:	90                   	nop
    2040:	f3 0f 1e fa          	endbr64 
    2044:	68 01 00 00 00       	push   $0x1
    2049:	f2 e9 d1 ff ff ff    	bnd jmp 2020 <_init+0x20>
    204f:	90                   	nop
    2050:	f3 0f 1e fa          	endbr64 
    2054:	68 02 00 00 00       	push   $0x2
    2059:	f2 e9 c1 ff ff ff    	bnd jmp 2020 <_init+0x20>
    205f:	90                   	nop
    2060:	f3 0f 1e fa          	endbr64 
    2064:	68 03 00 00 00       	push   $0x3
    2069:	f2 e9 b1 ff ff ff    	bnd jmp 2020 <_init+0x20>
    206f:	90                   	nop
    2070:	f3 0f 1e fa          	endbr64 
    2074:	68 04 00 00 00       	push   $0x4
    2079:	f2 e9 a1 ff ff ff    	bnd jmp 2020 <_init+0x20>
    207f:	90                   	nop
    2080:	f3 0f 1e fa          	endbr64 
    2084:	68 05 00 00 00       	push   $0x5
    2089:	f2 e9 91 ff ff ff    	bnd jmp 2020 <_init+0x20>
    208f:	90                   	nop
    2090:	f3 0f 1e fa          	endbr64 
    2094:	68 06 00 00 00       	push   $0x6
    2099:	f2 e9 81 ff ff ff    	bnd jmp 2020 <_init+0x20>
    209f:	90                   	nop
    20a0:	f3 0f 1e fa          	endbr64 
    20a4:	68 07 00 00 00       	push   $0x7
    20a9:	f2 e9 71 ff ff ff    	bnd jmp 2020 <_init+0x20>
    20af:	90                   	nop
    20b0:	f3 0f 1e fa          	endbr64 
    20b4:	68 08 00 00 00       	push   $0x8
    20b9:	f2 e9 61 ff ff ff    	bnd jmp 2020 <_init+0x20>
    20bf:	90                   	nop
    20c0:	f3 0f 1e fa          	endbr64 
    20c4:	68 09 00 00 00       	push   $0x9
    20c9:	f2 e9 51 ff ff ff    	bnd jmp 2020 <_init+0x20>
    20cf:	90                   	nop
    20d0:	f3 0f 1e fa          	endbr64 
    20d4:	68 0a 00 00 00       	push   $0xa
    20d9:	f2 e9 41 ff ff ff    	bnd jmp 2020 <_init+0x20>
    20df:	90                   	nop
    20e0:	f3 0f 1e fa          	endbr64 
    20e4:	68 0b 00 00 00       	push   $0xb
    20e9:	f2 e9 31 ff ff ff    	bnd jmp 2020 <_init+0x20>
    20ef:	90                   	nop
    20f0:	f3 0f 1e fa          	endbr64 
    20f4:	68 0c 00 00 00       	push   $0xc
    20f9:	f2 e9 21 ff ff ff    	bnd jmp 2020 <_init+0x20>
    20ff:	90                   	nop
    2100:	f3 0f 1e fa          	endbr64 
    2104:	68 0d 00 00 00       	push   $0xd
    2109:	f2 e9 11 ff ff ff    	bnd jmp 2020 <_init+0x20>
    210f:	90                   	nop
    2110:	f3 0f 1e fa          	endbr64 
    2114:	68 0e 00 00 00       	push   $0xe
    2119:	f2 e9 01 ff ff ff    	bnd jmp 2020 <_init+0x20>
    211f:	90                   	nop
    2120:	f3 0f 1e fa          	endbr64 
    2124:	68 0f 00 00 00       	push   $0xf
    2129:	f2 e9 f1 fe ff ff    	bnd jmp 2020 <_init+0x20>
    212f:	90                   	nop
    2130:	f3 0f 1e fa          	endbr64 
    2134:	68 10 00 00 00       	push   $0x10
    2139:	f2 e9 e1 fe ff ff    	bnd jmp 2020 <_init+0x20>
    213f:	90                   	nop
    2140:	f3 0f 1e fa          	endbr64 
    2144:	68 11 00 00 00       	push   $0x11
    2149:	f2 e9 d1 fe ff ff    	bnd jmp 2020 <_init+0x20>
    214f:	90                   	nop
    2150:	f3 0f 1e fa          	endbr64 
    2154:	68 12 00 00 00       	push   $0x12
    2159:	f2 e9 c1 fe ff ff    	bnd jmp 2020 <_init+0x20>
    215f:	90                   	nop
    2160:	f3 0f 1e fa          	endbr64 
    2164:	68 13 00 00 00       	push   $0x13
    2169:	f2 e9 b1 fe ff ff    	bnd jmp 2020 <_init+0x20>
    216f:	90                   	nop
    2170:	f3 0f 1e fa          	endbr64 
    2174:	68 14 00 00 00       	push   $0x14
    2179:	f2 e9 a1 fe ff ff    	bnd jmp 2020 <_init+0x20>
    217f:	90                   	nop
    2180:	f3 0f 1e fa          	endbr64 
    2184:	68 15 00 00 00       	push   $0x15
    2189:	f2 e9 91 fe ff ff    	bnd jmp 2020 <_init+0x20>
    218f:	90                   	nop
    2190:	f3 0f 1e fa          	endbr64 
    2194:	68 16 00 00 00       	push   $0x16
    2199:	f2 e9 81 fe ff ff    	bnd jmp 2020 <_init+0x20>
    219f:	90                   	nop
    21a0:	f3 0f 1e fa          	endbr64 
    21a4:	68 17 00 00 00       	push   $0x17
    21a9:	f2 e9 71 fe ff ff    	bnd jmp 2020 <_init+0x20>
    21af:	90                   	nop
    21b0:	f3 0f 1e fa          	endbr64 
    21b4:	68 18 00 00 00       	push   $0x18
    21b9:	f2 e9 61 fe ff ff    	bnd jmp 2020 <_init+0x20>
    21bf:	90                   	nop
    21c0:	f3 0f 1e fa          	endbr64 
    21c4:	68 19 00 00 00       	push   $0x19
    21c9:	f2 e9 51 fe ff ff    	bnd jmp 2020 <_init+0x20>
    21cf:	90                   	nop
    21d0:	f3 0f 1e fa          	endbr64 
    21d4:	68 1a 00 00 00       	push   $0x1a
    21d9:	f2 e9 41 fe ff ff    	bnd jmp 2020 <_init+0x20>
    21df:	90                   	nop
    21e0:	f3 0f 1e fa          	endbr64 
    21e4:	68 1b 00 00 00       	push   $0x1b
    21e9:	f2 e9 31 fe ff ff    	bnd jmp 2020 <_init+0x20>
    21ef:	90                   	nop
    21f0:	f3 0f 1e fa          	endbr64 
    21f4:	68 1c 00 00 00       	push   $0x1c
    21f9:	f2 e9 21 fe ff ff    	bnd jmp 2020 <_init+0x20>
    21ff:	90                   	nop
    2200:	f3 0f 1e fa          	endbr64 
    2204:	68 1d 00 00 00       	push   $0x1d
    2209:	f2 e9 11 fe ff ff    	bnd jmp 2020 <_init+0x20>
    220f:	90                   	nop
    2210:	f3 0f 1e fa          	endbr64 
    2214:	68 1e 00 00 00       	push   $0x1e
    2219:	f2 e9 01 fe ff ff    	bnd jmp 2020 <_init+0x20>
    221f:	90                   	nop
    2220:	f3 0f 1e fa          	endbr64 
    2224:	68 1f 00 00 00       	push   $0x1f
    2229:	f2 e9 f1 fd ff ff    	bnd jmp 2020 <_init+0x20>
    222f:	90                   	nop
    2230:	f3 0f 1e fa          	endbr64 
    2234:	68 20 00 00 00       	push   $0x20
    2239:	f2 e9 e1 fd ff ff    	bnd jmp 2020 <_init+0x20>
    223f:	90                   	nop
    2240:	f3 0f 1e fa          	endbr64 
    2244:	68 21 00 00 00       	push   $0x21
    2249:	f2 e9 d1 fd ff ff    	bnd jmp 2020 <_init+0x20>
    224f:	90                   	nop
    2250:	f3 0f 1e fa          	endbr64 
    2254:	68 22 00 00 00       	push   $0x22
    2259:	f2 e9 c1 fd ff ff    	bnd jmp 2020 <_init+0x20>
    225f:	90                   	nop
    2260:	f3 0f 1e fa          	endbr64 
    2264:	68 23 00 00 00       	push   $0x23
    2269:	f2 e9 b1 fd ff ff    	bnd jmp 2020 <_init+0x20>
    226f:	90                   	nop
    2270:	f3 0f 1e fa          	endbr64 
    2274:	68 24 00 00 00       	push   $0x24
    2279:	f2 e9 a1 fd ff ff    	bnd jmp 2020 <_init+0x20>
    227f:	90                   	nop
    2280:	f3 0f 1e fa          	endbr64 
    2284:	68 25 00 00 00       	push   $0x25
    2289:	f2 e9 91 fd ff ff    	bnd jmp 2020 <_init+0x20>
    228f:	90                   	nop
    2290:	f3 0f 1e fa          	endbr64 
    2294:	68 26 00 00 00       	push   $0x26
    2299:	f2 e9 81 fd ff ff    	bnd jmp 2020 <_init+0x20>
    229f:	90                   	nop
    22a0:	f3 0f 1e fa          	endbr64 
    22a4:	68 27 00 00 00       	push   $0x27
    22a9:	f2 e9 71 fd ff ff    	bnd jmp 2020 <_init+0x20>
    22af:	90                   	nop
    22b0:	f3 0f 1e fa          	endbr64 
    22b4:	68 28 00 00 00       	push   $0x28
    22b9:	f2 e9 61 fd ff ff    	bnd jmp 2020 <_init+0x20>
    22bf:	90                   	nop
    22c0:	f3 0f 1e fa          	endbr64 
    22c4:	68 29 00 00 00       	push   $0x29
    22c9:	f2 e9 51 fd ff ff    	bnd jmp 2020 <_init+0x20>
    22cf:	90                   	nop
    22d0:	f3 0f 1e fa          	endbr64 
    22d4:	68 2a 00 00 00       	push   $0x2a
    22d9:	f2 e9 41 fd ff ff    	bnd jmp 2020 <_init+0x20>
    22df:	90                   	nop
    22e0:	f3 0f 1e fa          	endbr64 
    22e4:	68 2b 00 00 00       	push   $0x2b
    22e9:	f2 e9 31 fd ff ff    	bnd jmp 2020 <_init+0x20>
    22ef:	90                   	nop
    22f0:	f3 0f 1e fa          	endbr64 
    22f4:	68 2c 00 00 00       	push   $0x2c
    22f9:	f2 e9 21 fd ff ff    	bnd jmp 2020 <_init+0x20>
    22ff:	90                   	nop
    2300:	f3 0f 1e fa          	endbr64 
    2304:	68 2d 00 00 00       	push   $0x2d
    2309:	f2 e9 11 fd ff ff    	bnd jmp 2020 <_init+0x20>
    230f:	90                   	nop
    2310:	f3 0f 1e fa          	endbr64 
    2314:	68 2e 00 00 00       	push   $0x2e
    2319:	f2 e9 01 fd ff ff    	bnd jmp 2020 <_init+0x20>
    231f:	90                   	nop
    2320:	f3 0f 1e fa          	endbr64 
    2324:	68 2f 00 00 00       	push   $0x2f
    2329:	f2 e9 f1 fc ff ff    	bnd jmp 2020 <_init+0x20>
    232f:	90                   	nop
    2330:	f3 0f 1e fa          	endbr64 
    2334:	68 30 00 00 00       	push   $0x30
    2339:	f2 e9 e1 fc ff ff    	bnd jmp 2020 <_init+0x20>
    233f:	90                   	nop
    2340:	f3 0f 1e fa          	endbr64 
    2344:	68 31 00 00 00       	push   $0x31
    2349:	f2 e9 d1 fc ff ff    	bnd jmp 2020 <_init+0x20>
    234f:	90                   	nop
    2350:	f3 0f 1e fa          	endbr64 
    2354:	68 32 00 00 00       	push   $0x32
    2359:	f2 e9 c1 fc ff ff    	bnd jmp 2020 <_init+0x20>
    235f:	90                   	nop
    2360:	f3 0f 1e fa          	endbr64 
    2364:	68 33 00 00 00       	push   $0x33
    2369:	f2 e9 b1 fc ff ff    	bnd jmp 2020 <_init+0x20>
    236f:	90                   	nop
    2370:	f3 0f 1e fa          	endbr64 
    2374:	68 34 00 00 00       	push   $0x34
    2379:	f2 e9 a1 fc ff ff    	bnd jmp 2020 <_init+0x20>
    237f:	90                   	nop
    2380:	f3 0f 1e fa          	endbr64 
    2384:	68 35 00 00 00       	push   $0x35
    2389:	f2 e9 91 fc ff ff    	bnd jmp 2020 <_init+0x20>
    238f:	90                   	nop
    2390:	f3 0f 1e fa          	endbr64 
    2394:	68 36 00 00 00       	push   $0x36
    2399:	f2 e9 81 fc ff ff    	bnd jmp 2020 <_init+0x20>
    239f:	90                   	nop
    23a0:	f3 0f 1e fa          	endbr64 
    23a4:	68 37 00 00 00       	push   $0x37
    23a9:	f2 e9 71 fc ff ff    	bnd jmp 2020 <_init+0x20>
    23af:	90                   	nop
    23b0:	f3 0f 1e fa          	endbr64 
    23b4:	68 38 00 00 00       	push   $0x38
    23b9:	f2 e9 61 fc ff ff    	bnd jmp 2020 <_init+0x20>
    23bf:	90                   	nop
    23c0:	f3 0f 1e fa          	endbr64 
    23c4:	68 39 00 00 00       	push   $0x39
    23c9:	f2 e9 51 fc ff ff    	bnd jmp 2020 <_init+0x20>
    23cf:	90                   	nop

Disassembly of section .plt.got:

00000000000023d0 <__cxa_finalize@plt>:
    23d0:	f3 0f 1e fa          	endbr64 
    23d4:	f2 ff 25 e5 cb 00 00 	bnd jmp *0xcbe5(%rip)        # efc0 <__cxa_finalize@GLIBC_2.2.5>
    23db:	0f 1f 44 00 00       	nopl   0x0(%rax,%rax,1)

Disassembly of section .plt.sec:

00000000000023e0 <__printf_chk@plt>:
    23e0:	f3 0f 1e fa          	endbr64 
    23e4:	f2 ff 25 05 ca 00 00 	bnd jmp *0xca05(%rip)        # edf0 <__printf_chk@GLIBC_2.3.4>
    23eb:	0f 1f 44 00 00       	nopl   0x0(%rax,%rax,1)

00000000000023f0 <_Znam@plt>:
    23f0:	f3 0f 1e fa          	endbr64 
    23f4:	f2 ff 25 fd c9 00 00 	bnd jmp *0xc9fd(%rip)        # edf8 <_Znam@GLIBCXX_3.4>
    23fb:	0f 1f 44 00 00       	nopl   0x0(%rax,%rax,1)

0000000000002400 <_ZNSo3putEc@plt>:
    2400:	f3 0f 1e fa          	endbr64 
    2404:	f2 ff 25 f5 c9 00 00 	bnd jmp *0xc9f5(%rip)        # ee00 <_ZNSo3putEc@GLIBCXX_3.4>
    240b:	0f 1f 44 00 00       	nopl   0x0(%rax,%rax,1)

0000000000002410 <_ZNSt13basic_filebufIcSt11char_traitsIcEE5closeEv@plt>:
    2410:	f3 0f 1e fa          	endbr64 
    2414:	f2 ff 25 ed c9 00 00 	bnd jmp *0xc9ed(%rip)        # ee08 <_ZNSt13basic_filebufIcSt11char_traitsIcEE5closeEv@GLIBCXX_3.4>
    241b:	0f 1f 44 00 00       	nopl   0x0(%rax,%rax,1)

0000000000002420 <_ZNSt8ios_baseC2Ev@plt>:
    2420:	f3 0f 1e fa          	endbr64 
    2424:	f2 ff 25 e5 c9 00 00 	bnd jmp *0xc9e5(%rip)        # ee10 <_ZNSt8ios_baseC2Ev@GLIBCXX_3.4>
    242b:	0f 1f 44 00 00       	nopl   0x0(%rax,%rax,1)

0000000000002430 <_ZNSt7__cxx1112basic_stringIcSt11char_traitsIcESaIcEE9_M_appendEPKcm@plt>:
    2430:	f3 0f 1e fa          	endbr64 
    2434:	f2 ff 25 dd c9 00 00 	bnd jmp *0xc9dd(%rip)        # ee18 <_ZNSt7__cxx1112basic_stringIcSt11char_traitsIcESaIcEE9_M_appendEPKcm@GLIBCXX_3.4.21>
    243b:	0f 1f 44 00 00       	nopl   0x0(%rax,%rax,1)

0000000000002440 <_ZNSt8ios_baseD2Ev@plt>:
    2440:	f3 0f 1e fa          	endbr64 
    2444:	f2 ff 25 d5 c9 00 00 	bnd jmp *0xc9d5(%rip)        # ee20 <_ZNSt8ios_baseD2Ev@GLIBCXX_3.4>
    244b:	0f 1f 44 00 00       	nopl   0x0(%rax,%rax,1)

0000000000002450 <__cxa_begin_catch@plt>:
    2450:	f3 0f 1e fa          	endbr64 
    2454:	f2 ff 25 cd c9 00 00 	bnd jmp *0xc9cd(%rip)        # ee28 <__cxa_begin_catch@CXXABI_1.3>
    245b:	0f 1f 44 00 00       	nopl   0x0(%rax,%rax,1)

0000000000002460 <round@plt>:
    2460:	f3 0f 1e fa          	endbr64 
    2464:	f2 ff 25 c5 c9 00 00 	bnd jmp *0xc9c5(%rip)        # ee30 <round@GLIBC_2.2.5>
    246b:	0f 1f 44 00 00       	nopl   0x0(%rax,%rax,1)

0000000000002470 <strlen@plt>:
    2470:	f3 0f 1e fa          	endbr64 
    2474:	f2 ff 25 bd c9 00 00 	bnd jmp *0xc9bd(%rip)        # ee38 <strlen@GLIBC_2.2.5>
    247b:	0f 1f 44 00 00       	nopl   0x0(%rax,%rax,1)

0000000000002480 <__cxa_allocate_exception@plt>:
    2480:	f3 0f 1e fa          	endbr64 
    2484:	f2 ff 25 b5 c9 00 00 	bnd jmp *0xc9b5(%rip)        # ee40 <__cxa_allocate_exception@CXXABI_1.3>
    248b:	0f 1f 44 00 00       	nopl   0x0(%rax,%rax,1)

0000000000002490 <_ZSt20__throw_length_errorPKc@plt>:
    2490:	f3 0f 1e fa          	endbr64 
    2494:	f2 ff 25 ad c9 00 00 	bnd jmp *0xc9ad(%rip)        # ee48 <_ZSt20__throw_length_errorPKc@GLIBCXX_3.4>
    249b:	0f 1f 44 00 00       	nopl   0x0(%rax,%rax,1)

00000000000024a0 <sincos@plt>:
    24a0:	f3 0f 1e fa          	endbr64 
    24a4:	f2 ff 25 a5 c9 00 00 	bnd jmp *0xc9a5(%rip)        # ee50 <sincos@GLIBC_2.2.5>
    24ab:	0f 1f 44 00 00       	nopl   0x0(%rax,%rax,1)

00000000000024b0 <_ZNSirsERi@plt>:
    24b0:	f3 0f 1e fa          	endbr64 
    24b4:	f2 ff 25 9d c9 00 00 	bnd jmp *0xc99d(%rip)        # ee58 <_ZNSirsERi@GLIBCXX_3.4>
    24bb:	0f 1f 44 00 00       	nopl   0x0(%rax,%rax,1)

00000000000024c0 <sysconf@plt>:
    24c0:	f3 0f 1e fa          	endbr64 
    24c4:	f2 ff 25 95 c9 00 00 	bnd jmp *0xc995(%rip)        # ee60 <sysconf@GLIBC_2.2.5>
    24cb:	0f 1f 44 00 00       	nopl   0x0(%rax,%rax,1)

00000000000024d0 <__assert_fail@plt>:
    24d0:	f3 0f 1e fa          	endbr64 
    24d4:	f2 ff 25 8d c9 00 00 	bnd jmp *0xc98d(%rip)        # ee68 <__assert_fail@GLIBC_2.2.5>
    24db:	0f 1f 44 00 00       	nopl   0x0(%rax,%rax,1)

00000000000024e0 <_ZNSi10_M_extractIdEERSiRT_@plt>:
    24e0:	f3 0f 1e fa          	endbr64 
    24e4:	f2 ff 25 85 c9 00 00 	bnd jmp *0xc985(%rip)        # ee70 <_ZNSi10_M_extractIdEERSiRT_@GLIBCXX_3.4.9>
    24eb:	0f 1f 44 00 00       	nopl   0x0(%rax,%rax,1)

00000000000024f0 <_ZNSo9_M_insertImEERSoT_@plt>:
    24f0:	f3 0f 1e fa          	endbr64 
    24f4:	f2 ff 25 7d c9 00 00 	bnd jmp *0xc97d(%rip)        # ee78 <_ZNSo9_M_insertImEERSoT_@GLIBCXX_3.4.9>
    24fb:	0f 1f 44 00 00       	nopl   0x0(%rax,%rax,1)

0000000000002500 <_ZNSo5flushEv@plt>:
    2500:	f3 0f 1e fa          	endbr64 
    2504:	f2 ff 25 75 c9 00 00 	bnd jmp *0xc975(%rip)        # ee80 <_ZNSo5flushEv@GLIBCXX_3.4>
    250b:	0f 1f 44 00 00       	nopl   0x0(%rax,%rax,1)

0000000000002510 <_ZSt19__throw_logic_errorPKc@plt>:
    2510:	f3 0f 1e fa          	endbr64 
    2514:	f2 ff 25 6d c9 00 00 	bnd jmp *0xc96d(%rip)        # ee88 <_ZSt19__throw_logic_errorPKc@GLIBCXX_3.4>
    251b:	0f 1f 44 00 00       	nopl   0x0(%rax,%rax,1)

0000000000002520 <sqrt@plt>:
    2520:	f3 0f 1e fa          	endbr64 
    2524:	f2 ff 25 65 c9 00 00 	bnd jmp *0xc965(%rip)        # ee90 <sqrt@GLIBC_2.2.5>
    252b:	0f 1f 44 00 00       	nopl   0x0(%rax,%rax,1)

0000000000002530 <memcpy@plt>:
    2530:	f3 0f 1e fa          	endbr64 
    2534:	f2 ff 25 5d c9 00 00 	bnd jmp *0xc95d(%rip)        # ee98 <memcpy@GLIBC_2.14>
    253b:	0f 1f 44 00 00       	nopl   0x0(%rax,%rax,1)

0000000000002540 <atan@plt>:
    2540:	f3 0f 1e fa          	endbr64 
    2544:	f2 ff 25 55 c9 00 00 	bnd jmp *0xc955(%rip)        # eea0 <atan@GLIBC_2.2.5>
    254b:	0f 1f 44 00 00       	nopl   0x0(%rax,%rax,1)

0000000000002550 <perror@plt>:
    2550:	f3 0f 1e fa          	endbr64 
    2554:	f2 ff 25 4d c9 00 00 	bnd jmp *0xc94d(%rip)        # eea8 <perror@GLIBC_2.2.5>
    255b:	0f 1f 44 00 00       	nopl   0x0(%rax,%rax,1)

0000000000002560 <__cxa_atexit@plt>:
    2560:	f3 0f 1e fa          	endbr64 
    2564:	f2 ff 25 45 c9 00 00 	bnd jmp *0xc945(%rip)        # eeb0 <__cxa_atexit@GLIBC_2.2.5>
    256b:	0f 1f 44 00 00       	nopl   0x0(%rax,%rax,1)

0000000000002570 <_ZNSt13basic_filebufIcSt11char_traitsIcEE4openEPKcSt13_Ios_Openmode@plt>:
    2570:	f3 0f 1e fa          	endbr64 
    2574:	f2 ff 25 3d c9 00 00 	bnd jmp *0xc93d(%rip)        # eeb8 <_ZNSt13basic_filebufIcSt11char_traitsIcEE4openEPKcSt13_Ios_Openmode@GLIBCXX_3.4>
    257b:	0f 1f 44 00 00       	nopl   0x0(%rax,%rax,1)

0000000000002580 <acos@plt>:
    2580:	f3 0f 1e fa          	endbr64 
    2584:	f2 ff 25 35 c9 00 00 	bnd jmp *0xc935(%rip)        # eec0 <acos@GLIBC_2.2.5>
    258b:	0f 1f 44 00 00       	nopl   0x0(%rax,%rax,1)

0000000000002590 <fclose@plt>:
    2590:	f3 0f 1e fa          	endbr64 
    2594:	f2 ff 25 2d c9 00 00 	bnd jmp *0xc92d(%rip)        # eec8 <fclose@GLIBC_2.2.5>
    259b:	0f 1f 44 00 00       	nopl   0x0(%rax,%rax,1)

00000000000025a0 <_Znwm@plt>:
    25a0:	f3 0f 1e fa          	endbr64 
    25a4:	f2 ff 25 25 c9 00 00 	bnd jmp *0xc925(%rip)        # eed0 <_Znwm@GLIBCXX_3.4>
    25ab:	0f 1f 44 00 00       	nopl   0x0(%rax,%rax,1)

00000000000025b0 <_ZdlPvm@plt>:
    25b0:	f3 0f 1e fa          	endbr64 
    25b4:	f2 ff 25 1d c9 00 00 	bnd jmp *0xc91d(%rip)        # eed8 <_ZdlPvm@CXXABI_1.3.9>
    25bb:	0f 1f 44 00 00       	nopl   0x0(%rax,%rax,1)

00000000000025c0 <_ZNSt13basic_filebufIcSt11char_traitsIcEEC1Ev@plt>:
    25c0:	f3 0f 1e fa          	endbr64 
    25c4:	f2 ff 25 15 c9 00 00 	bnd jmp *0xc915(%rip)        # eee0 <_ZNSt13basic_filebufIcSt11char_traitsIcEEC1Ev@GLIBCXX_3.4>
    25cb:	0f 1f 44 00 00       	nopl   0x0(%rax,%rax,1)

00000000000025d0 <__stack_chk_fail@plt>:
    25d0:	f3 0f 1e fa          	endbr64 
    25d4:	f2 ff 25 0d c9 00 00 	bnd jmp *0xc90d(%rip)        # eee8 <__stack_chk_fail@GLIBC_2.4>
    25db:	0f 1f 44 00 00       	nopl   0x0(%rax,%rax,1)

00000000000025e0 <_ZSt16__ostream_insertIcSt11char_traitsIcEERSt13basic_ostreamIT_T0_ES6_PKS3_l@plt>:
    25e0:	f3 0f 1e fa          	endbr64 
    25e4:	f2 ff 25 05 c9 00 00 	bnd jmp *0xc905(%rip)        # eef0 <_ZSt16__ostream_insertIcSt11char_traitsIcEERSt13basic_ostreamIT_T0_ES6_PKS3_l@GLIBCXX_3.4.9>
    25eb:	0f 1f 44 00 00       	nopl   0x0(%rax,%rax,1)

00000000000025f0 <_ZNKSt5ctypeIcE13_M_widen_initEv@plt>:
    25f0:	f3 0f 1e fa          	endbr64 
    25f4:	f2 ff 25 fd c8 00 00 	bnd jmp *0xc8fd(%rip)        # eef8 <_ZNKSt5ctypeIcE13_M_widen_initEv@GLIBCXX_3.4.11>
    25fb:	0f 1f 44 00 00       	nopl   0x0(%rax,%rax,1)

0000000000002600 <_ZNSt7__cxx1112basic_stringIcSt11char_traitsIcESaIcEE12_M_constructEmc@plt>:
    2600:	f3 0f 1e fa          	endbr64 
    2604:	f2 ff 25 f5 c8 00 00 	bnd jmp *0xc8f5(%rip)        # ef00 <_ZNSt7__cxx1112basic_stringIcSt11char_traitsIcESaIcEE12_M_constructEmc@GLIBCXX_3.4.21>
    260b:	0f 1f 44 00 00       	nopl   0x0(%rax,%rax,1)

0000000000002610 <fopen@plt>:
    2610:	f3 0f 1e fa          	endbr64 
    2614:	f2 ff 25 ed c8 00 00 	bnd jmp *0xc8ed(%rip)        # ef08 <fopen@GLIBC_2.2.5>
    261b:	0f 1f 44 00 00       	nopl   0x0(%rax,%rax,1)

0000000000002620 <free@plt>:
    2620:	f3 0f 1e fa          	endbr64 
    2624:	f2 ff 25 e5 c8 00 00 	bnd jmp *0xc8e5(%rip)        # ef10 <free@GLIBC_2.2.5>
    262b:	0f 1f 44 00 00       	nopl   0x0(%rax,%rax,1)

0000000000002630 <exit@plt>:
    2630:	f3 0f 1e fa          	endbr64 
    2634:	f2 ff 25 dd c8 00 00 	bnd jmp *0xc8dd(%rip)        # ef18 <exit@GLIBC_2.2.5>
    263b:	0f 1f 44 00 00       	nopl   0x0(%rax,%rax,1)

0000000000002640 <_ZSt16__throw_bad_castv@plt>:
    2640:	f3 0f 1e fa          	endbr64 
    2644:	f2 ff 25 d5 c8 00 00 	bnd jmp *0xc8d5(%rip)        # ef20 <_ZSt16__throw_bad_castv@GLIBCXX_3.4>
    264b:	0f 1f 44 00 00       	nopl   0x0(%rax,%rax,1)

0000000000002650 <malloc@plt>:
    2650:	f3 0f 1e fa          	endbr64 
    2654:	f2 ff 25 cd c8 00 00 	bnd jmp *0xc8cd(%rip)        # ef28 <malloc@GLIBC_2.2.5>
    265b:	0f 1f 44 00 00       	nopl   0x0(%rax,%rax,1)

0000000000002660 <_ZNSt9basic_iosIcSt11char_traitsIcEE4initEPSt15basic_streambufIcS1_E@plt>:
    2660:	f3 0f 1e fa          	endbr64 
    2664:	f2 ff 25 c5 c8 00 00 	bnd jmp *0xc8c5(%rip)        # ef30 <_ZNSt9basic_iosIcSt11char_traitsIcEE4initEPSt15basic_streambufIcS1_E@GLIBCXX_3.4>
    266b:	0f 1f 44 00 00       	nopl   0x0(%rax,%rax,1)

0000000000002670 <_ZNSt6localeD1Ev@plt>:
    2670:	f3 0f 1e fa          	endbr64 
    2674:	f2 ff 25 bd c8 00 00 	bnd jmp *0xc8bd(%rip)        # ef38 <_ZNSt6localeD1Ev@GLIBCXX_3.4>
    267b:	0f 1f 44 00 00       	nopl   0x0(%rax,%rax,1)

0000000000002680 <__cxa_throw_bad_array_new_length@plt>:
    2680:	f3 0f 1e fa          	endbr64 
    2684:	f2 ff 25 b5 c8 00 00 	bnd jmp *0xc8b5(%rip)        # ef40 <__cxa_throw_bad_array_new_length@CXXABI_1.3.8>
    268b:	0f 1f 44 00 00       	nopl   0x0(%rax,%rax,1)

0000000000002690 <_ZNSt14basic_ofstreamIcSt11char_traitsIcEED1Ev@plt>:
    2690:	f3 0f 1e fa          	endbr64 
    2694:	f2 ff 25 ad c8 00 00 	bnd jmp *0xc8ad(%rip)        # ef48 <_ZNSt14basic_ofstreamIcSt11char_traitsIcEED1Ev@GLIBCXX_3.4>
    269b:	0f 1f 44 00 00       	nopl   0x0(%rax,%rax,1)

00000000000026a0 <_ZNSt8ios_base4InitC1Ev@plt>:
    26a0:	f3 0f 1e fa          	endbr64 
    26a4:	f2 ff 25 a5 c8 00 00 	bnd jmp *0xc8a5(%rip)        # ef50 <_ZNSt8ios_base4InitC1Ev@GLIBCXX_3.4>
    26ab:	0f 1f 44 00 00       	nopl   0x0(%rax,%rax,1)

00000000000026b0 <_ZNSt7__cxx1112basic_stringIcSt11char_traitsIcESaIcEE10_M_replaceEmmPKcm@plt>:
    26b0:	f3 0f 1e fa          	endbr64 
    26b4:	f2 ff 25 9d c8 00 00 	bnd jmp *0xc89d(%rip)        # ef58 <_ZNSt7__cxx1112basic_stringIcSt11char_traitsIcESaIcEE10_M_replaceEmmPKcm@GLIBCXX_3.4.21>
    26bb:	0f 1f 44 00 00       	nopl   0x0(%rax,%rax,1)

00000000000026c0 <_ZNSt13basic_filebufIcSt11char_traitsIcEED1Ev@plt>:
    26c0:	f3 0f 1e fa          	endbr64 
    26c4:	f2 ff 25 95 c8 00 00 	bnd jmp *0xc895(%rip)        # ef60 <_ZNSt13basic_filebufIcSt11char_traitsIcEED1Ev@GLIBCXX_3.4>
    26cb:	0f 1f 44 00 00       	nopl   0x0(%rax,%rax,1)

00000000000026d0 <_ZNSo9_M_insertIdEERSoT_@plt>:
    26d0:	f3 0f 1e fa          	endbr64 
    26d4:	f2 ff 25 8d c8 00 00 	bnd jmp *0xc88d(%rip)        # ef68 <_ZNSo9_M_insertIdEERSoT_@GLIBCXX_3.4.9>
    26db:	0f 1f 44 00 00       	nopl   0x0(%rax,%rax,1)

00000000000026e0 <memmove@plt>:
    26e0:	f3 0f 1e fa          	endbr64 
    26e4:	f2 ff 25 85 c8 00 00 	bnd jmp *0xc885(%rip)        # ef70 <memmove@GLIBC_2.2.5>
    26eb:	0f 1f 44 00 00       	nopl   0x0(%rax,%rax,1)

00000000000026f0 <__cxa_end_catch@plt>:
    26f0:	f3 0f 1e fa          	endbr64 
    26f4:	f2 ff 25 7d c8 00 00 	bnd jmp *0xc87d(%rip)        # ef78 <__cxa_end_catch@CXXABI_1.3>
    26fb:	0f 1f 44 00 00       	nopl   0x0(%rax,%rax,1)

0000000000002700 <_ZNSt9basic_iosIcSt11char_traitsIcEE5clearESt12_Ios_Iostate@plt>:
    2700:	f3 0f 1e fa          	endbr64 
    2704:	f2 ff 25 75 c8 00 00 	bnd jmp *0xc875(%rip)        # ef80 <_ZNSt9basic_iosIcSt11char_traitsIcEE5clearESt12_Ios_Iostate@GLIBCXX_3.4>
    270b:	0f 1f 44 00 00       	nopl   0x0(%rax,%rax,1)

0000000000002710 <__cxa_throw@plt>:
    2710:	f3 0f 1e fa          	endbr64 
    2714:	f2 ff 25 6d c8 00 00 	bnd jmp *0xc86d(%rip)        # ef88 <__cxa_throw@CXXABI_1.3>
    271b:	0f 1f 44 00 00       	nopl   0x0(%rax,%rax,1)

0000000000002720 <_ZNSolsEi@plt>:
    2720:	f3 0f 1e fa          	endbr64 
    2724:	f2 ff 25 65 c8 00 00 	bnd jmp *0xc865(%rip)        # ef90 <_ZNSolsEi@GLIBCXX_3.4>
    272b:	0f 1f 44 00 00       	nopl   0x0(%rax,%rax,1)

0000000000002730 <_Unwind_Resume@plt>:
    2730:	f3 0f 1e fa          	endbr64 
    2734:	f2 ff 25 5d c8 00 00 	bnd jmp *0xc85d(%rip)        # ef98 <_Unwind_Resume@GCC_3.0>
    273b:	0f 1f 44 00 00       	nopl   0x0(%rax,%rax,1)

0000000000002740 <_ZNSt7__cxx1112basic_stringIcSt11char_traitsIcESaIcEE9_M_createERmm@plt>:
    2740:	f3 0f 1e fa          	endbr64 
    2744:	f2 ff 25 55 c8 00 00 	bnd jmp *0xc855(%rip)        # efa0 <_ZNSt7__cxx1112basic_stringIcSt11char_traitsIcESaIcEE9_M_createERmm@GLIBCXX_3.4.21>
    274b:	0f 1f 44 00 00       	nopl   0x0(%rax,%rax,1)

0000000000002750 <__isoc99_fscanf@plt>:
    2750:	f3 0f 1e fa          	endbr64 
    2754:	f2 ff 25 4d c8 00 00 	bnd jmp *0xc84d(%rip)        # efa8 <__isoc99_fscanf@GLIBC_2.7>
    275b:	0f 1f 44 00 00       	nopl   0x0(%rax,%rax,1)

0000000000002760 <_ZNSt12__basic_fileIcED1Ev@plt>:
    2760:	f3 0f 1e fa          	endbr64 
    2764:	f2 ff 25 45 c8 00 00 	bnd jmp *0xc845(%rip)        # efb0 <_ZNSt12__basic_fileIcED1Ev@GLIBCXX_3.4>
    276b:	0f 1f 44 00 00       	nopl   0x0(%rax,%rax,1)

0000000000002770 <cos@plt>:
    2770:	f3 0f 1e fa          	endbr64 
    2774:	f2 ff 25 3d c8 00 00 	bnd jmp *0xc83d(%rip)        # efb8 <cos@GLIBC_2.2.5>
    277b:	0f 1f 44 00 00       	nopl   0x0(%rax,%rax,1)

Disassembly of section .text:

0000000000002780 <_ZN5Eigen8internal19throw_std_bad_allocEv>:
    2780:	f3 0f 1e fa          	endbr64 
    2784:	50                   	push   %rax
    2785:	58                   	pop    %rax
    2786:	bf 08 00 00 00       	mov    $0x8,%edi
    278b:	50                   	push   %rax
    278c:	e8 ef fc ff ff       	call   2480 <__cxa_allocate_exception@plt>
    2791:	48 8b 15 30 c8 00 00 	mov    0xc830(%rip),%rdx        # efc8 <_ZNSt9bad_allocD1Ev@GLIBCXX_3.4>
    2798:	48 8d 35 29 c3 00 00 	lea    0xc329(%rip),%rsi        # eac8 <_ZTISt9bad_alloc@GLIBCXX_3.4>
    279f:	48 89 c7             	mov    %rax,%rdi
    27a2:	48 8d 05 07 c3 00 00 	lea    0xc307(%rip),%rax        # eab0 <_ZTVSt9bad_alloc@GLIBCXX_3.4+0x10>
    27a9:	48 89 07             	mov    %rax,(%rdi)
    27ac:	e8 5f ff ff ff       	call   2710 <__cxa_throw@plt>

00000000000027b1 <main.cold>:
    27b1:	48 8b 7d a0          	mov    -0x60(%rbp),%rdi
    27b5:	48 3b bd c8 fe ff ff 	cmp    -0x138(%rbp),%rdi
    27bc:	74 0d                	je     27cb <main.cold+0x1a>
    27be:	48 8b 45 b0          	mov    -0x50(%rbp),%rax
    27c2:	48 8d 70 01          	lea    0x1(%rax),%rsi
    27c6:	e8 e5 fd ff ff       	call   25b0 <_ZdlPvm@plt>
    27cb:	48 8b bd 60 ff ff ff 	mov    -0xa0(%rbp),%rdi
    27d2:	48 8b b5 70 ff ff ff 	mov    -0x90(%rbp),%rsi
    27d9:	48 29 fe             	sub    %rdi,%rsi
    27dc:	48 85 ff             	test   %rdi,%rdi
    27df:	74 05                	je     27e6 <main.cold+0x35>
    27e1:	e8 ca fd ff ff       	call   25b0 <_ZdlPvm@plt>
    27e6:	48 89 df             	mov    %rbx,%rdi
    27e9:	e8 42 ff ff ff       	call   2730 <_Unwind_Resume@plt>
    27ee:	48 8b 7d a0          	mov    -0x60(%rbp),%rdi
    27f2:	48 3b bd c8 fe ff ff 	cmp    -0x138(%rbp),%rdi
    27f9:	74 0d                	je     2808 <main.cold+0x57>
    27fb:	48 8b 45 b0          	mov    -0x50(%rbp),%rax
    27ff:	48 8d 70 01          	lea    0x1(%rax),%rsi
    2803:	e8 a8 fd ff ff       	call   25b0 <_ZdlPvm@plt>
    2808:	48 89 df             	mov    %rbx,%rdi
    280b:	e8 20 ff ff ff       	call   2730 <_Unwind_Resume@plt>
    2810:	48 8b 7d a0          	mov    -0x60(%rbp),%rdi
    2814:	48 3b bd c8 fe ff ff 	cmp    -0x138(%rbp),%rdi
    281b:	74 0d                	je     282a <main.cold+0x79>
    281d:	48 8b 45 b0          	mov    -0x50(%rbp),%rax
    2821:	48 8d 70 01          	lea    0x1(%rax),%rsi
    2825:	e8 86 fd ff ff       	call   25b0 <_ZdlPvm@plt>
    282a:	48 89 df             	mov    %rbx,%rdi
    282d:	e8 fe fe ff ff       	call   2730 <_Unwind_Resume@plt>
    2832:	48 8b 7d a0          	mov    -0x60(%rbp),%rdi
    2836:	48 3b bd c8 fe ff ff 	cmp    -0x138(%rbp),%rdi
    283d:	74 0d                	je     284c <main.cold+0x9b>
    283f:	48 8b 45 b0          	mov    -0x50(%rbp),%rax
    2843:	48 8d 70 01          	lea    0x1(%rax),%rsi
    2847:	e8 64 fd ff ff       	call   25b0 <_ZdlPvm@plt>
    284c:	48 89 df             	mov    %rbx,%rdi
    284f:	e8 dc fe ff ff       	call   2730 <_Unwind_Resume@plt>
    2854:	48 8b 7d a0          	mov    -0x60(%rbp),%rdi
    2858:	48 3b bd c8 fe ff ff 	cmp    -0x138(%rbp),%rdi
    285f:	74 0d                	je     286e <main.cold+0xbd>
    2861:	48 8b 45 b0          	mov    -0x50(%rbp),%rax
    2865:	48 8d 70 01          	lea    0x1(%rax),%rsi
    2869:	e8 42 fd ff ff       	call   25b0 <_ZdlPvm@plt>
    286e:	48 89 df             	mov    %rbx,%rdi
    2871:	e8 ba fe ff ff       	call   2730 <_Unwind_Resume@plt>
    2876:	48 8b 7d a0          	mov    -0x60(%rbp),%rdi
    287a:	48 8d 45 b0          	lea    -0x50(%rbp),%rax
    287e:	48 39 c7             	cmp    %rax,%rdi
    2881:	74 0d                	je     2890 <main.cold+0xdf>
    2883:	48 8b 45 b0          	mov    -0x50(%rbp),%rax
    2887:	48 8d 70 01          	lea    0x1(%rax),%rsi
    288b:	e8 20 fd ff ff       	call   25b0 <_ZdlPvm@plt>
    2890:	48 89 df             	mov    %rbx,%rdi
    2893:	e8 98 fe ff ff       	call   2730 <_Unwind_Resume@plt>

0000000000002898 <_Z7blearghv.cold>:
    2898:	e8 e3 fe ff ff       	call   2780 <_ZN5Eigen8internal19throw_std_bad_allocEv>
    289d:	e8 de fe ff ff       	call   2780 <_ZN5Eigen8internal19throw_std_bad_allocEv>
    28a2:	e8 d9 fe ff ff       	call   2780 <_ZN5Eigen8internal19throw_std_bad_allocEv>
    28a7:	f3 0f 1e fa          	endbr64 
    28ab:	48 89 c3             	mov    %rax,%rbx
    28ae:	48 8b bd 20 ff ff ff 	mov    -0xe0(%rbp),%rdi
    28b5:	48 8b b5 30 ff ff ff 	mov    -0xd0(%rbp),%rsi
    28bc:	48 29 fe             	sub    %rdi,%rsi
    28bf:	48 85 ff             	test   %rdi,%rdi
    28c2:	74 05                	je     28c9 <_Z7blearghv.cold+0x31>
    28c4:	e8 e7 fc ff ff       	call   25b0 <_ZdlPvm@plt>
    28c9:	48 89 df             	mov    %rbx,%rdi
    28cc:	e8 5f fe ff ff       	call   2730 <_Unwind_Resume@plt>
    28d1:	f3 0f 1e fa          	endbr64 
    28d5:	48 89 c3             	mov    %rax,%rbx
    28d8:	eb 0c                	jmp    28e6 <_Z7blearghv.cold+0x4e>
    28da:	48 8b bd 40 fe ff ff 	mov    -0x1c0(%rbp),%rdi
    28e1:	e8 3a fd ff ff       	call   2620 <free@plt>
    28e6:	48 8b bd 80 fe ff ff 	mov    -0x180(%rbp),%rdi
    28ed:	e8 2e fd ff ff       	call   2620 <free@plt>
    28f2:	eb ba                	jmp    28ae <_Z7blearghv.cold+0x16>

00000000000028f4 <_Z10allocate3djjj.cold>:
    28f4:	e8 87 fd ff ff       	call   2680 <__cxa_throw_bad_array_new_length@plt>

00000000000028f9 <_Z11allocate3dtjjj.cold>:
    28f9:	e8 82 fd ff ff       	call   2680 <__cxa_throw_bad_array_new_length@plt>

00000000000028fe <_Z12writeVTKFileiPPPPdiiiddd.cold>:
    28fe:	e8 4d fb ff ff       	call   2450 <__cxa_begin_catch@plt>
    2903:	e8 e8 fd ff ff       	call   26f0 <__cxa_end_catch@plt>
    2908:	e9 2b 7c 00 00       	jmp    a538 <_Z12writeVTKFileiPPPPdiiiddd+0x7f8>
    290d:	48 8b 7c 24 30       	mov    0x30(%rsp),%rdi
    2912:	e8 a9 fd ff ff       	call   26c0 <_ZNSt13basic_filebufIcSt11char_traitsIcEED1Ev@plt>
    2917:	48 8b 05 6a c1 00 00 	mov    0xc16a(%rip),%rax        # ea88 <_ZTTSt14basic_ofstreamIcSt11char_traitsIcEE@GLIBCXX_3.4+0x8>
    291e:	48 8b 0d 6b c1 00 00 	mov    0xc16b(%rip),%rcx        # ea90 <_ZTTSt14basic_ofstreamIcSt11char_traitsIcEE@GLIBCXX_3.4+0x10>
    2925:	48 89 84 24 b0 00 00 	mov    %rax,0xb0(%rsp)
    292c:	00 
    292d:	48 8b 40 e8          	mov    -0x18(%rax),%rax
    2931:	48 89 8c 04 b0 00 00 	mov    %rcx,0xb0(%rsp,%rax,1)
    2938:	00 
    2939:	48 8b 7c 24 38       	mov    0x38(%rsp),%rdi
    293e:	48 8d 05 ab c0 00 00 	lea    0xc0ab(%rip),%rax        # e9f0 <_ZTVSt9basic_iosIcSt11char_traitsIcEE@GLIBCXX_3.4+0x10>
    2945:	48 89 84 24 a8 01 00 	mov    %rax,0x1a8(%rsp)
    294c:	00 
    294d:	e8 ee fa ff ff       	call   2440 <_ZNSt8ios_baseD2Ev@plt>
    2952:	48 89 ef             	mov    %rbp,%rdi
    2955:	e8 d6 fd ff ff       	call   2730 <_Unwind_Resume@plt>
    295a:	48 8b 7c 24 50       	mov    0x50(%rsp),%rdi
    295f:	48 3b 7c 24 40       	cmp    0x40(%rsp),%rdi
    2964:	74 0e                	je     2974 <_Z12writeVTKFileiPPPPdiiiddd.cold+0x76>
    2966:	48 8b 44 24 60       	mov    0x60(%rsp),%rax
    296b:	48 8d 70 01          	lea    0x1(%rax),%rsi
    296f:	e8 3c fc ff ff       	call   25b0 <_ZdlPvm@plt>
    2974:	48 8b 7c 24 10       	mov    0x10(%rsp),%rdi
    2979:	e8 12 fd ff ff       	call   2690 <_ZNSt14basic_ofstreamIcSt11char_traitsIcEED1Ev@plt>
    297e:	48 89 ef             	mov    %rbp,%rdi
    2981:	e8 aa fd ff ff       	call   2730 <_Unwind_Resume@plt>
    2986:	48 8b bc 24 90 00 00 	mov    0x90(%rsp),%rdi
    298d:	00 
    298e:	48 39 df             	cmp    %rbx,%rdi
    2991:	74 11                	je     29a4 <_Z12writeVTKFileiPPPPdiiiddd.cold+0xa6>
    2993:	48 8b 84 24 a0 00 00 	mov    0xa0(%rsp),%rax
    299a:	00 
    299b:	48 8d 70 01          	lea    0x1(%rax),%rsi
    299f:	e8 0c fc ff ff       	call   25b0 <_ZdlPvm@plt>
    29a4:	48 8b 7c 24 70       	mov    0x70(%rsp),%rdi
    29a9:	4c 39 f7             	cmp    %r14,%rdi
    29ac:	74 c6                	je     2974 <_Z12writeVTKFileiPPPPdiiiddd.cold+0x76>
    29ae:	48 8b 84 24 80 00 00 	mov    0x80(%rsp),%rax
    29b5:	00 
    29b6:	48 8d 70 01          	lea    0x1(%rax),%rsi
    29ba:	e8 f1 fb ff ff       	call   25b0 <_ZdlPvm@plt>
    29bf:	eb b3                	jmp    2974 <_Z12writeVTKFileiPPPPdiiiddd.cold+0x76>

00000000000029c1 <_Z14writeVTKFile3DRKNSt7__cxx1112basic_stringIcSt11char_traitsIcESaIcEEERKSt6vectorIS7_IS7_IdSaIdEESaIS9_EESaISB_EESF_SF_SF_ddd.cold>:
    29c1:	48 8b 7c 24 70       	mov    0x70(%rsp),%rdi
    29c6:	e8 f5 fc ff ff       	call   26c0 <_ZNSt13basic_filebufIcSt11char_traitsIcEED1Ev@plt>
    29cb:	48 8b 05 b6 c0 00 00 	mov    0xc0b6(%rip),%rax        # ea88 <_ZTTSt14basic_ofstreamIcSt11char_traitsIcEE@GLIBCXX_3.4+0x8>
    29d2:	48 8b 0d b7 c0 00 00 	mov    0xc0b7(%rip),%rcx        # ea90 <_ZTTSt14basic_ofstreamIcSt11char_traitsIcEE@GLIBCXX_3.4+0x10>
    29d9:	48 89 84 24 80 00 00 	mov    %rax,0x80(%rsp)
    29e0:	00 
    29e1:	48 8b 40 e8          	mov    -0x18(%rax),%rax
    29e5:	48 89 8c 04 80 00 00 	mov    %rcx,0x80(%rsp,%rax,1)
    29ec:	00 
    29ed:	48 8b 7c 24 68       	mov    0x68(%rsp),%rdi
    29f2:	48 8d 05 f7 bf 00 00 	lea    0xbff7(%rip),%rax        # e9f0 <_ZTVSt9basic_iosIcSt11char_traitsIcEE@GLIBCXX_3.4+0x10>
    29f9:	48 89 84 24 78 01 00 	mov    %rax,0x178(%rsp)
    2a00:	00 
    2a01:	e8 3a fa ff ff       	call   2440 <_ZNSt8ios_baseD2Ev@plt>
    2a06:	48 89 ef             	mov    %rbp,%rdi
    2a09:	e8 22 fd ff ff       	call   2730 <_Unwind_Resume@plt>
    2a0e:	e8 3d fa ff ff       	call   2450 <__cxa_begin_catch@plt>
    2a13:	e8 d8 fc ff ff       	call   26f0 <__cxa_end_catch@plt>
    2a18:	e9 e7 82 00 00       	jmp    ad04 <_Z14writeVTKFile3DRKNSt7__cxx1112basic_stringIcSt11char_traitsIcESaIcEEERKSt6vectorIS7_IS7_IdSaIdEESaIS9_EESaISB_EESF_SF_SF_ddd+0x634>
    2a1d:	4c 89 f7             	mov    %r14,%rdi
    2a20:	e8 6b fc ff ff       	call   2690 <_ZNSt14basic_ofstreamIcSt11char_traitsIcEED1Ev@plt>
    2a25:	48 89 ef             	mov    %rbp,%rdi
    2a28:	e8 03 fd ff ff       	call   2730 <_Unwind_Resume@plt>

0000000000002a2d <_Z12writeVTKFileRKNSt7__cxx1112basic_stringIcSt11char_traitsIcESaIcEEERKSt6vectorIS7_IdSaIdEESaIS9_EESD_SD_dd.cold>:
    2a2d:	48 8b 7c 24 28       	mov    0x28(%rsp),%rdi
    2a32:	e8 89 fc ff ff       	call   26c0 <_ZNSt13basic_filebufIcSt11char_traitsIcEED1Ev@plt>
    2a37:	48 8b 05 4a c0 00 00 	mov    0xc04a(%rip),%rax        # ea88 <_ZTTSt14basic_ofstreamIcSt11char_traitsIcEE@GLIBCXX_3.4+0x8>
    2a3e:	48 8b 0d 4b c0 00 00 	mov    0xc04b(%rip),%rcx        # ea90 <_ZTTSt14basic_ofstreamIcSt11char_traitsIcEE@GLIBCXX_3.4+0x10>
    2a45:	48 89 44 24 50       	mov    %rax,0x50(%rsp)
    2a4a:	48 8b 40 e8          	mov    -0x18(%rax),%rax
    2a4e:	48 89 4c 04 50       	mov    %rcx,0x50(%rsp,%rax,1)
    2a53:	48 8b 7c 24 48       	mov    0x48(%rsp),%rdi
    2a58:	48 8d 05 91 bf 00 00 	lea    0xbf91(%rip),%rax        # e9f0 <_ZTVSt9basic_iosIcSt11char_traitsIcEE@GLIBCXX_3.4+0x10>
    2a5f:	48 89 84 24 48 01 00 	mov    %rax,0x148(%rsp)
    2a66:	00 
    2a67:	e8 d4 f9 ff ff       	call   2440 <_ZNSt8ios_baseD2Ev@plt>
    2a6c:	48 89 ef             	mov    %rbp,%rdi
    2a6f:	e8 bc fc ff ff       	call   2730 <_Unwind_Resume@plt>
    2a74:	4c 89 f7             	mov    %r14,%rdi
    2a77:	e8 14 fc ff ff       	call   2690 <_ZNSt14basic_ofstreamIcSt11char_traitsIcEED1Ev@plt>
    2a7c:	48 89 ef             	mov    %rbp,%rdi
    2a7f:	e8 ac fc ff ff       	call   2730 <_Unwind_Resume@plt>
    2a84:	e8 c7 f9 ff ff       	call   2450 <__cxa_begin_catch@plt>
    2a89:	e8 62 fc ff ff       	call   26f0 <__cxa_end_catch@plt>
    2a8e:	e9 15 88 00 00       	jmp    b2a8 <_Z12writeVTKFileRKNSt7__cxx1112basic_stringIcSt11char_traitsIcESaIcEEERKSt6vectorIS7_IdSaIdEESaIS9_EESD_SD_dd+0x4c8>
    2a93:	66 2e 0f 1f 84 00 00 	cs nopw 0x0(%rax,%rax,1)
    2a9a:	00 00 00 
    2a9d:	0f 1f 00             	nopl   (%rax)

0000000000002aa0 <main>:
    2aa0:	f3 0f 1e fa          	endbr64 
    2aa4:	55                   	push   %rbp
    2aa5:	48 8d 35 b4 9c 00 00 	lea    0x9cb4(%rip),%rsi        # c760 <_IO_stdin_used+0x760>
    2aac:	48 89 e5             	mov    %rsp,%rbp
    2aaf:	41 57                	push   %r15
    2ab1:	41 56                	push   %r14
    2ab3:	41 55                	push   %r13
    2ab5:	41 54                	push   %r12
    2ab7:	53                   	push   %rbx
    2ab8:	48 81 ec 48 01 00 00 	sub    $0x148,%rsp
    2abf:	64 48 8b 04 25 28 00 	mov    %fs:0x28,%rax
    2ac6:	00 00 
    2ac8:	48 89 45 c8          	mov    %rax,-0x38(%rbp)
    2acc:	31 c0                	xor    %eax,%eax
    2ace:	48 8d 45 a0          	lea    -0x60(%rbp),%rax
    2ad2:	48 89 c3             	mov    %rax,%rbx
    2ad5:	48 89 c7             	mov    %rax,%rdi
    2ad8:	48 89 85 c0 fe ff ff 	mov    %rax,-0x140(%rbp)
    2adf:	e8 1c 17 00 00       	call   4200 <_ZNSt7__cxx1112basic_stringIcSt11char_traitsIcESaIcEEC2IS3_EEPKcRKS3_.constprop.0>
    2ae4:	48 89 df             	mov    %rbx,%rdi
    2ae7:	e8 74 5f 00 00       	call   8a60 <_Z16print_rss_memoryRKNSt7__cxx1112basic_stringIcSt11char_traitsIcESaIcEEE>
    2aec:	48 8b 7d a0          	mov    -0x60(%rbp),%rdi
    2af0:	48 8d 45 b0          	lea    -0x50(%rbp),%rax
    2af4:	48 89 85 c8 fe ff ff 	mov    %rax,-0x138(%rbp)
    2afb:	48 39 c7             	cmp    %rax,%rdi
    2afe:	74 0d                	je     2b0d <main+0x6d>
    2b00:	48 8b 45 b0          	mov    -0x50(%rbp),%rax
    2b04:	48 8d 70 01          	lea    0x1(%rax),%rsi
    2b08:	e8 a3 fa ff ff       	call   25b0 <_ZdlPvm@plt>
    2b0d:	48 8b 05 9c 9d 00 00 	mov    0x9d9c(%rip),%rax        # c8b0 <_IO_stdin_used+0x8b0>
    2b14:	31 f6                	xor    %esi,%esi
    2b16:	bf 61 00 00 00       	mov    $0x61,%edi
    2b1b:	66 48 0f 6e c0       	movq   %rax,%xmm0
    2b20:	e8 bb 1a 00 00       	call   45e0 <_Z13compute_cubesdjPPd>
    2b25:	48 8b 9d c0 fe ff ff 	mov    -0x140(%rbp),%rbx
    2b2c:	48 8d 35 3b 9c 00 00 	lea    0x9c3b(%rip),%rsi        # c76e <_IO_stdin_used+0x76e>
    2b33:	48 89 85 f8 fe ff ff 	mov    %rax,-0x108(%rbp)
    2b3a:	48 89 df             	mov    %rbx,%rdi
    2b3d:	e8 be 16 00 00       	call   4200 <_ZNSt7__cxx1112basic_stringIcSt11char_traitsIcESaIcEEC2IS3_EEPKcRKS3_.constprop.0>
    2b42:	48 89 df             	mov    %rbx,%rdi
    2b45:	e8 16 5f 00 00       	call   8a60 <_Z16print_rss_memoryRKNSt7__cxx1112basic_stringIcSt11char_traitsIcESaIcEEE>
    2b4a:	48 8b 7d a0          	mov    -0x60(%rbp),%rdi
    2b4e:	48 3b bd c8 fe ff ff 	cmp    -0x138(%rbp),%rdi
    2b55:	74 0d                	je     2b64 <main+0xc4>
    2b57:	48 8b 45 b0          	mov    -0x50(%rbp),%rax
    2b5b:	48 8d 70 01          	lea    0x1(%rax),%rsi
    2b5f:	e8 4c fa ff ff       	call   25b0 <_ZdlPvm@plt>
    2b64:	b9 c2 00 00 00       	mov    $0xc2,%ecx
    2b69:	ba c2 00 00 00       	mov    $0xc2,%edx
    2b6e:	be c2 00 00 00       	mov    $0xc2,%esi
    2b73:	bf 04 00 00 00       	mov    $0x4,%edi
    2b78:	e8 53 64 00 00       	call   8fd0 <_Z10allocate4djjjj>
    2b7d:	48 8b 9d c0 fe ff ff 	mov    -0x140(%rbp),%rbx
    2b84:	48 8d 35 f7 9b 00 00 	lea    0x9bf7(%rip),%rsi        # c782 <_IO_stdin_used+0x782>
    2b8b:	49 89 c4             	mov    %rax,%r12
    2b8e:	48 89 df             	mov    %rbx,%rdi
    2b91:	e8 6a 16 00 00       	call   4200 <_ZNSt7__cxx1112basic_stringIcSt11char_traitsIcESaIcEEC2IS3_EEPKcRKS3_.constprop.0>
    2b96:	48 89 df             	mov    %rbx,%rdi
    2b99:	e8 c2 5e 00 00       	call   8a60 <_Z16print_rss_memoryRKNSt7__cxx1112basic_stringIcSt11char_traitsIcESaIcEEE>
    2b9e:	48 8b 7d a0          	mov    -0x60(%rbp),%rdi
    2ba2:	48 3b bd c8 fe ff ff 	cmp    -0x138(%rbp),%rdi
    2ba9:	74 0d                	je     2bb8 <main+0x118>
    2bab:	48 8b 45 b0          	mov    -0x50(%rbp),%rax
    2baf:	48 8d 70 01          	lea    0x1(%rax),%rsi
    2bb3:	e8 f8 f9 ff ff       	call   25b0 <_ZdlPvm@plt>
    2bb8:	48 c7 85 38 ff ff ff 	movq   $0x0,-0xc8(%rbp)
    2bbf:	00 00 00 00 
    2bc3:	4c 8d 6d 80          	lea    -0x80(%rbp),%r13
    2bc7:	48 c7 85 40 ff ff ff 	movq   $0x0,-0xc0(%rbp)
    2bce:	00 00 00 00 
    2bd2:	48 8b 85 38 ff ff ff 	mov    -0xc8(%rbp),%rax
    2bd9:	66 0f ef c0          	pxor   %xmm0,%xmm0
    2bdd:	48 c7 85 48 ff ff ff 	movq   $0x0,-0xb8(%rbp)
    2be4:	00 00 00 00 
    2be8:	48 c1 e0 03          	shl    $0x3,%rax
    2bec:	48 89 85 58 ff ff ff 	mov    %rax,-0xa8(%rbp)
    2bf3:	0f 1f 44 00 00       	nopl   0x0(%rax,%rax,1)
    2bf8:	f2 0f 59 05 d0 9c 00 	mulsd  0x9cd0(%rip),%xmm0        # c8d0 <_IO_stdin_used+0x8d0>
    2bff:	00 
    2c00:	48 8b 85 48 ff ff ff 	mov    -0xb8(%rbp),%rax
    2c07:	45 31 ff             	xor    %r15d,%r15d
    2c0a:	f2 0f 58 85 40 ff ff 	addsd  -0xc0(%rbp),%xmm0
    2c11:	ff 
    2c12:	48 8d 1c c5 00 00 00 	lea    0x0(,%rax,8),%rbx
    2c19:	00 
    2c1a:	f2 0f 11 85 50 ff ff 	movsd  %xmm0,-0xb0(%rbp)
    2c21:	ff 
    2c22:	66 0f ef c0          	pxor   %xmm0,%xmm0
    2c26:	66 2e 0f 1f 84 00 00 	cs nopw 0x0(%rax,%rax,1)
    2c2d:	00 00 00 
    2c30:	f2 0f 59 05 98 9c 00 	mulsd  0x9c98(%rip),%xmm0        # c8d0 <_IO_stdin_used+0x8d0>
    2c37:	00 
    2c38:	48 8b 85 f8 fe ff ff 	mov    -0x108(%rbp),%rax
    2c3f:	4c 89 ef             	mov    %r13,%rdi
    2c42:	f2 0f 59 05 86 9c 00 	mulsd  0x9c86(%rip),%xmm0        # c8d0 <_IO_stdin_used+0x8d0>
    2c49:	00 
    2c4a:	f2 0f 58 85 50 ff ff 	addsd  -0xb0(%rbp),%xmm0
    2c51:	ff 
    2c52:	f2 0f 2c c8          	cvttsd2si %xmm0,%ecx
    2c56:	48 63 c9             	movslq %ecx,%rcx
    2c59:	4c 8d 34 c8          	lea    (%rax,%rcx,8),%r14
    2c5d:	49 8b 36             	mov    (%r14),%rsi
    2c60:	f2 0f 10 56 10       	movsd  0x10(%rsi),%xmm2
    2c65:	f2 0f 10 4e 08       	movsd  0x8(%rsi),%xmm1
    2c6a:	f2 0f 10 06          	movsd  (%rsi),%xmm0
    2c6e:	e8 cd 6f 00 00       	call   9c40 <_Z8velocityddd>
    2c73:	49 8b 34 24          	mov    (%r12),%rsi
    2c77:	f2 0f 10 45 80       	movsd  -0x80(%rbp),%xmm0
    2c7c:	4c 89 ef             	mov    %r13,%rdi
    2c7f:	48 8b 85 58 ff ff ff 	mov    -0xa8(%rbp),%rax
    2c86:	48 8b 34 06          	mov    (%rsi,%rax,1),%rsi
    2c8a:	48 8b 34 1e          	mov    (%rsi,%rbx,1),%rsi
    2c8e:	f2 42 0f 11 04 fe    	movsd  %xmm0,(%rsi,%r15,8)
    2c94:	49 8b 36             	mov    (%r14),%rsi
    2c97:	f2 0f 10 56 10       	movsd  0x10(%rsi),%xmm2
    2c9c:	f2 0f 10 4e 08       	movsd  0x8(%rsi),%xmm1
    2ca1:	f2 0f 10 06          	movsd  (%rsi),%xmm0
    2ca5:	e8 96 6f 00 00       	call   9c40 <_Z8velocityddd>
    2caa:	49 8b 74 24 08       	mov    0x8(%r12),%rsi
    2caf:	49 8b 0e             	mov    (%r14),%rcx
    2cb2:	4c 89 ef             	mov    %r13,%rdi
    2cb5:	48 8b 85 58 ff ff ff 	mov    -0xa8(%rbp),%rax
    2cbc:	f2 0f 10 45 88       	movsd  -0x78(%rbp),%xmm0
    2cc1:	48 8b 34 06          	mov    (%rsi,%rax,1),%rsi
    2cc5:	48 8b 34 1e          	mov    (%rsi,%rbx,1),%rsi
    2cc9:	f2 42 0f 11 04 fe    	movsd  %xmm0,(%rsi,%r15,8)
    2ccf:	f2 0f 10 01          	movsd  (%rcx),%xmm0
    2cd3:	f2 0f 10 51 10       	movsd  0x10(%rcx),%xmm2
    2cd8:	f2 0f 10 49 08       	movsd  0x8(%rcx),%xmm1
    2cdd:	e8 5e 6f 00 00       	call   9c40 <_Z8velocityddd>
    2ce2:	49 8b 4c 24 10       	mov    0x10(%r12),%rcx
    2ce7:	f2 0f 10 45 90       	movsd  -0x70(%rbp),%xmm0
    2cec:	48 8b 85 58 ff ff ff 	mov    -0xa8(%rbp),%rax
    2cf3:	48 8b 0c 01          	mov    (%rcx,%rax,1),%rcx
    2cf7:	48 8b 0c 19          	mov    (%rcx,%rbx,1),%rcx
    2cfb:	f2 42 0f 11 04 f9    	movsd  %xmm0,(%rcx,%r15,8)
    2d01:	49 8b 4c 24 18       	mov    0x18(%r12),%rcx
    2d06:	66 0f ef c0          	pxor   %xmm0,%xmm0
    2d0a:	48 8b 0c 01          	mov    (%rcx,%rax,1),%rcx
    2d0e:	48 8b 05 ab 9b 00 00 	mov    0x9bab(%rip),%rax        # c8c0 <_IO_stdin_used+0x8c0>
    2d15:	48 8b 0c 19          	mov    (%rcx,%rbx,1),%rcx
    2d19:	4a 89 04 f9          	mov    %rax,(%rcx,%r15,8)
    2d1d:	41 8d 4f 01          	lea    0x1(%r15),%ecx
    2d21:	49 83 c7 01          	add    $0x1,%r15
    2d25:	f2 0f 2a c1          	cvtsi2sd %ecx,%xmm0
    2d29:	49 81 ff c2 00 00 00 	cmp    $0xc2,%r15
    2d30:	0f 85 fa fe ff ff    	jne    2c30 <main+0x190>
    2d36:	48 8b 9d 48 ff ff ff 	mov    -0xb8(%rbp),%rbx
    2d3d:	66 0f ef c0          	pxor   %xmm0,%xmm0
    2d41:	89 d8                	mov    %ebx,%eax
    2d43:	48 83 c3 01          	add    $0x1,%rbx
    2d47:	83 c0 01             	add    $0x1,%eax
    2d4a:	48 89 9d 48 ff ff ff 	mov    %rbx,-0xb8(%rbp)
    2d51:	f2 0f 2a c0          	cvtsi2sd %eax,%xmm0
    2d55:	48 81 fb c2 00 00 00 	cmp    $0xc2,%rbx
    2d5c:	0f 85 96 fe ff ff    	jne    2bf8 <main+0x158>
    2d62:	48 8b 9d 38 ff ff ff 	mov    -0xc8(%rbp),%rbx
    2d69:	66 0f ef ff          	pxor   %xmm7,%xmm7
    2d6d:	89 d8                	mov    %ebx,%eax
    2d6f:	48 83 c3 01          	add    $0x1,%rbx
    2d73:	83 c0 01             	add    $0x1,%eax
    2d76:	48 89 9d 38 ff ff ff 	mov    %rbx,-0xc8(%rbp)
    2d7d:	f2 0f 2a f8          	cvtsi2sd %eax,%xmm7
    2d81:	f2 0f 11 bd 40 ff ff 	movsd  %xmm7,-0xc0(%rbp)
    2d88:	ff 
    2d89:	48 81 fb c2 00 00 00 	cmp    $0xc2,%rbx
    2d90:	0f 85 3c fe ff ff    	jne    2bd2 <main+0x132>
    2d96:	48 8b 05 3b 9b 00 00 	mov    0x9b3b(%rip),%rax        # c8d8 <_IO_stdin_used+0x8d8>
    2d9d:	be 46 00 00 00       	mov    $0x46,%esi
    2da2:	bf 46 00 00 00       	mov    $0x46,%edi
    2da7:	66 48 0f 6e c0       	movq   %rax,%xmm0
    2dac:	e8 ff 15 00 00       	call   43b0 <_Z18compute_spheremeshdjj>
    2db1:	48 8b 9d c0 fe ff ff 	mov    -0x140(%rbp),%rbx
    2db8:	48 8d 35 d4 99 00 00 	lea    0x99d4(%rip),%rsi        # c793 <_IO_stdin_used+0x793>
    2dbf:	48 89 85 a8 fe ff ff 	mov    %rax,-0x158(%rbp)
    2dc6:	48 89 df             	mov    %rbx,%rdi
    2dc9:	e8 32 14 00 00       	call   4200 <_ZNSt7__cxx1112basic_stringIcSt11char_traitsIcESaIcEEC2IS3_EEPKcRKS3_.constprop.0>
    2dce:	48 89 df             	mov    %rbx,%rdi
    2dd1:	e8 8a 5c 00 00       	call   8a60 <_Z16print_rss_memoryRKNSt7__cxx1112basic_stringIcSt11char_traitsIcESaIcEEE>
    2dd6:	48 8b 7d a0          	mov    -0x60(%rbp),%rdi
    2dda:	48 3b bd c8 fe ff ff 	cmp    -0x138(%rbp),%rdi
    2de1:	74 0d                	je     2df0 <main+0x350>
    2de3:	48 8b 45 b0          	mov    -0x50(%rbp),%rax
    2de7:	48 8d 70 01          	lea    0x1(%rax),%rsi
    2deb:	e8 c0 f7 ff ff       	call   25b0 <_ZdlPvm@plt>
    2df0:	ba c2 00 00 00       	mov    $0xc2,%edx
    2df5:	be c2 00 00 00       	mov    $0xc2,%esi
    2dfa:	bf c2 00 00 00       	mov    $0xc2,%edi
    2dff:	e8 ec 5e 00 00       	call   8cf0 <_Z11allocate3dtjjj>
    2e04:	48 8b 9d c0 fe ff ff 	mov    -0x140(%rbp),%rbx
    2e0b:	48 8d 35 92 99 00 00 	lea    0x9992(%rip),%rsi        # c7a4 <_IO_stdin_used+0x7a4>
    2e12:	48 89 85 b0 fe ff ff 	mov    %rax,-0x150(%rbp)
    2e19:	48 89 df             	mov    %rbx,%rdi
    2e1c:	e8 df 13 00 00       	call   4200 <_ZNSt7__cxx1112basic_stringIcSt11char_traitsIcESaIcEEC2IS3_EEPKcRKS3_.constprop.0>
    2e21:	48 89 df             	mov    %rbx,%rdi
    2e24:	e8 37 5c 00 00       	call   8a60 <_Z16print_rss_memoryRKNSt7__cxx1112basic_stringIcSt11char_traitsIcESaIcEEE>
    2e29:	48 8b 7d a0          	mov    -0x60(%rbp),%rdi
    2e2d:	48 3b bd c8 fe ff ff 	cmp    -0x138(%rbp),%rdi
    2e34:	74 0d                	je     2e43 <main+0x3a3>
    2e36:	48 8b 45 b0          	mov    -0x50(%rbp),%rax
    2e3a:	48 8d 70 01          	lea    0x1(%rax),%rsi
    2e3e:	e8 6d f7 ff ff       	call   25b0 <_ZdlPvm@plt>
    2e43:	48 c7 85 b8 fe ff ff 	movq   $0x0,-0x148(%rbp)
    2e4a:	00 00 00 00 
    2e4e:	4c 8b b5 b0 fe ff ff 	mov    -0x150(%rbp),%r14
    2e55:	4d 89 e7             	mov    %r12,%r15
    2e58:	48 c7 85 d0 fe ff ff 	movq   $0x0,-0x130(%rbp)
    2e5f:	00 00 00 00 
    2e63:	4c 89 ad 98 fe ff ff 	mov    %r13,-0x168(%rbp)
    2e6a:	48 8b 85 b8 fe ff ff 	mov    -0x148(%rbp),%rax
    2e71:	66 0f ef c0          	pxor   %xmm0,%xmm0
    2e75:	48 c7 85 e8 fe ff ff 	movq   $0x0,-0x118(%rbp)
    2e7c:	00 00 00 00 
    2e80:	48 8d 1c c5 00 00 00 	lea    0x0(,%rax,8),%rbx
    2e87:	00 
    2e88:	89 85 a4 fe ff ff    	mov    %eax,-0x15c(%rbp)
    2e8e:	3d 93 00 00 00       	cmp    $0x93,%eax
    2e93:	41 89 c5             	mov    %eax,%r13d
    2e96:	48 89 9d f0 fe ff ff 	mov    %rbx,-0x110(%rbp)
    2e9d:	0f 94 85 06 ff ff ff 	sete   -0xfa(%rbp)
    2ea4:	0f 1f 40 00          	nopl   0x0(%rax)
    2ea8:	48 8b 85 e8 fe ff ff 	mov    -0x118(%rbp),%rax
    2eaf:	f2 0f 59 05 19 9a 00 	mulsd  0x9a19(%rip),%xmm0        # c8d0 <_IO_stdin_used+0x8d0>
    2eb6:	00 
    2eb7:	48 c7 85 08 ff ff ff 	movq   $0x0,-0xf8(%rbp)
    2ebe:	00 00 00 00 
    2ec2:	f2 0f 58 85 d0 fe ff 	addsd  -0x130(%rbp),%xmm0
    2ec9:	ff 
    2eca:	48 8d 14 c5 00 00 00 	lea    0x0(,%rax,8),%rdx
    2ed1:	00 
    2ed2:	89 85 00 ff ff ff    	mov    %eax,-0x100(%rbp)
    2ed8:	89 c3                	mov    %eax,%ebx
    2eda:	48 89 95 10 ff ff ff 	mov    %rdx,-0xf0(%rbp)
    2ee1:	48 83 ea 08          	sub    $0x8,%rdx
    2ee5:	83 f8 7c             	cmp    $0x7c,%eax
    2ee8:	41 0f 94 c4          	sete   %r12b
    2eec:	31 c0                	xor    %eax,%eax
    2eee:	44 22 a5 06 ff ff ff 	and    -0xfa(%rbp),%r12b
    2ef5:	48 89 95 e0 fe ff ff 	mov    %rdx,-0x120(%rbp)
    2efc:	44 88 a5 07 ff ff ff 	mov    %r12b,-0xf9(%rbp)
    2f03:	45 31 e4             	xor    %r12d,%r12d
    2f06:	48 89 85 58 ff ff ff 	mov    %rax,-0xa8(%rbp)
    2f0d:	f2 0f 11 85 d8 fe ff 	movsd  %xmm0,-0x128(%rbp)
    2f14:	ff 
    2f15:	eb 11                	jmp    2f28 <main+0x488>
    2f17:	66 0f 1f 84 00 00 00 	nopw   0x0(%rax,%rax,1)
    2f1e:	00 00 
    2f20:	48 83 85 58 ff ff ff 	addq   $0x48,-0xa8(%rbp)
    2f27:	48 
    2f28:	48 83 ec 08          	sub    $0x8,%rsp
    2f2c:	48 8b 05 ad 99 00 00 	mov    0x99ad(%rip),%rax        # c8e0 <_IO_stdin_used+0x8e0>
    2f33:	45 31 c9             	xor    %r9d,%r9d
    2f36:	89 da                	mov    %ebx,%edx
    2f38:	6a 00                	push   $0x0
    2f3a:	44 89 e1             	mov    %r12d,%ecx
    2f3d:	41 b8 c2 00 00 00    	mov    $0xc2,%r8d
    2f43:	44 89 ee             	mov    %r13d,%esi
    2f46:	66 48 0f 6e c0       	movq   %rax,%xmm0
    2f4b:	4c 89 ff             	mov    %r15,%rdi
    2f4e:	e8 8d 65 00 00       	call   94e0 <_Z7partdifPPPPdiiiidii>
    2f53:	44 89 e1             	mov    %r12d,%ecx
    2f56:	41 b9 01 00 00 00    	mov    $0x1,%r9d
    2f5c:	89 da                	mov    %ebx,%edx
    2f5e:	48 8b 05 7b 99 00 00 	mov    0x997b(%rip),%rax        # c8e0 <_IO_stdin_used+0x8e0>
    2f65:	41 b8 c2 00 00 00    	mov    $0xc2,%r8d
    2f6b:	44 89 ee             	mov    %r13d,%esi
    2f6e:	4c 89 ff             	mov    %r15,%rdi
    2f71:	f2 0f 11 85 18 ff ff 	movsd  %xmm0,-0xe8(%rbp)
    2f78:	ff 
    2f79:	66 48 0f 6e c0       	movq   %rax,%xmm0
    2f7e:	c7 04 24 00 00 00 00 	movl   $0x0,(%rsp)
    2f85:	e8 56 65 00 00       	call   94e0 <_Z7partdifPPPPdiiiidii>
    2f8a:	44 89 e1             	mov    %r12d,%ecx
    2f8d:	41 b9 02 00 00 00    	mov    $0x2,%r9d
    2f93:	89 da                	mov    %ebx,%edx
    2f95:	48 8b 05 44 99 00 00 	mov    0x9944(%rip),%rax        # c8e0 <_IO_stdin_used+0x8e0>
    2f9c:	41 b8 c2 00 00 00    	mov    $0xc2,%r8d
    2fa2:	44 89 ee             	mov    %r13d,%esi
    2fa5:	4c 89 ff             	mov    %r15,%rdi
    2fa8:	f2 0f 11 85 50 ff ff 	movsd  %xmm0,-0xb0(%rbp)
    2faf:	ff 
    2fb0:	66 48 0f 6e c0       	movq   %rax,%xmm0
    2fb5:	c7 04 24 00 00 00 00 	movl   $0x0,(%rsp)
    2fbc:	e8 1f 65 00 00       	call   94e0 <_Z7partdifPPPPdiiiidii>
    2fc1:	45 31 c9             	xor    %r9d,%r9d
    2fc4:	44 89 e1             	mov    %r12d,%ecx
    2fc7:	89 da                	mov    %ebx,%edx
    2fc9:	48 8b 05 10 99 00 00 	mov    0x9910(%rip),%rax        # c8e0 <_IO_stdin_used+0x8e0>
    2fd0:	41 b8 c2 00 00 00    	mov    $0xc2,%r8d
    2fd6:	44 89 ee             	mov    %r13d,%esi
    2fd9:	4c 89 ff             	mov    %r15,%rdi
    2fdc:	f2 0f 11 85 48 ff ff 	movsd  %xmm0,-0xb8(%rbp)
    2fe3:	ff 
    2fe4:	66 48 0f 6e c0       	movq   %rax,%xmm0
    2fe9:	c7 04 24 01 00 00 00 	movl   $0x1,(%rsp)
    2ff0:	e8 eb 64 00 00       	call   94e0 <_Z7partdifPPPPdiiiidii>
    2ff5:	44 89 e1             	mov    %r12d,%ecx
    2ff8:	41 b9 01 00 00 00    	mov    $0x1,%r9d
    2ffe:	89 da                	mov    %ebx,%edx
    3000:	48 8b 05 d9 98 00 00 	mov    0x98d9(%rip),%rax        # c8e0 <_IO_stdin_used+0x8e0>
    3007:	41 b8 c2 00 00 00    	mov    $0xc2,%r8d
    300d:	44 89 ee             	mov    %r13d,%esi
    3010:	4c 89 ff             	mov    %r15,%rdi
    3013:	f2 0f 11 85 40 ff ff 	movsd  %xmm0,-0xc0(%rbp)
    301a:	ff 
    301b:	66 48 0f 6e c0       	movq   %rax,%xmm0
    3020:	c7 04 24 01 00 00 00 	movl   $0x1,(%rsp)
    3027:	e8 b4 64 00 00       	call   94e0 <_Z7partdifPPPPdiiiidii>
    302c:	44 89 e1             	mov    %r12d,%ecx
    302f:	41 b9 02 00 00 00    	mov    $0x2,%r9d
    3035:	89 da                	mov    %ebx,%edx
    3037:	48 8b 05 a2 98 00 00 	mov    0x98a2(%rip),%rax        # c8e0 <_IO_stdin_used+0x8e0>
    303e:	41 b8 c2 00 00 00    	mov    $0xc2,%r8d
    3044:	44 89 ee             	mov    %r13d,%esi
    3047:	4c 89 ff             	mov    %r15,%rdi
    304a:	f2 0f 11 85 20 ff ff 	movsd  %xmm0,-0xe0(%rbp)
    3051:	ff 
    3052:	66 48 0f 6e c0       	movq   %rax,%xmm0
    3057:	c7 04 24 01 00 00 00 	movl   $0x1,(%rsp)
    305e:	e8 7d 64 00 00       	call   94e0 <_Z7partdifPPPPdiiiidii>
    3063:	45 31 c9             	xor    %r9d,%r9d
    3066:	44 89 e1             	mov    %r12d,%ecx
    3069:	89 da                	mov    %ebx,%edx
    306b:	48 8b 05 6e 98 00 00 	mov    0x986e(%rip),%rax        # c8e0 <_IO_stdin_used+0x8e0>
    3072:	41 b8 c2 00 00 00    	mov    $0xc2,%r8d
    3078:	44 89 ee             	mov    %r13d,%esi
    307b:	4c 89 ff             	mov    %r15,%rdi
    307e:	f2 0f 11 85 38 ff ff 	movsd  %xmm0,-0xc8(%rbp)
    3085:	ff 
    3086:	66 48 0f 6e c0       	movq   %rax,%xmm0
    308b:	c7 04 24 02 00 00 00 	movl   $0x2,(%rsp)
    3092:	e8 49 64 00 00       	call   94e0 <_Z7partdifPPPPdiiiidii>
    3097:	44 89 e1             	mov    %r12d,%ecx
    309a:	41 b9 01 00 00 00    	mov    $0x1,%r9d
    30a0:	89 da                	mov    %ebx,%edx
    30a2:	48 8b 05 37 98 00 00 	mov    0x9837(%rip),%rax        # c8e0 <_IO_stdin_used+0x8e0>
    30a9:	41 b8 c2 00 00 00    	mov    $0xc2,%r8d
    30af:	44 89 ee             	mov    %r13d,%esi
    30b2:	4c 89 ff             	mov    %r15,%rdi
    30b5:	f2 0f 11 85 30 ff ff 	movsd  %xmm0,-0xd0(%rbp)
    30bc:	ff 
    30bd:	66 48 0f 6e c0       	movq   %rax,%xmm0
    30c2:	c7 04 24 02 00 00 00 	movl   $0x2,(%rsp)
    30c9:	e8 12 64 00 00       	call   94e0 <_Z7partdifPPPPdiiiidii>
    30ce:	41 b8 c2 00 00 00    	mov    $0xc2,%r8d
    30d4:	44 89 e1             	mov    %r12d,%ecx
    30d7:	89 da                	mov    %ebx,%edx
    30d9:	48 8b 05 00 98 00 00 	mov    0x9800(%rip),%rax        # c8e0 <_IO_stdin_used+0x8e0>
    30e0:	4c 89 ff             	mov    %r15,%rdi
    30e3:	41 b9 02 00 00 00    	mov    $0x2,%r9d
    30e9:	f2 0f 11 85 28 ff ff 	movsd  %xmm0,-0xd8(%rbp)
    30f0:	ff 
    30f1:	44 89 ee             	mov    %r13d,%esi
    30f4:	c7 04 24 02 00 00 00 	movl   $0x2,(%rsp)
    30fb:	66 48 0f 6e c0       	movq   %rax,%xmm0
    3100:	e8 db 63 00 00       	call   94e0 <_Z7partdifPPPPdiiiidii>
    3105:	f2 0f 10 95 18 ff ff 	movsd  -0xe8(%rbp),%xmm2
    310c:	ff 
    310d:	f2 0f 10 ad 50 ff ff 	movsd  -0xb0(%rbp),%xmm5
    3114:	ff 
    3115:	f2 0f 10 8d 20 ff ff 	movsd  -0xe0(%rbp),%xmm1
    311c:	ff 
    311d:	49 8b 06             	mov    (%r14),%rax
    3120:	f2 0f 58 c0          	addsd  %xmm0,%xmm0
    3124:	f2 0f 58 ad 40 ff ff 	addsd  -0xc0(%rbp),%xmm5
    312b:	ff 
    312c:	f2 0f 58 d2          	addsd  %xmm2,%xmm2
    3130:	48 8b bd 10 ff ff ff 	mov    -0xf0(%rbp),%rdi
    3137:	f2 0f 5c 15 81 97 00 	subsd  0x9781(%rip),%xmm2        # c8c0 <_IO_stdin_used+0x8c0>
    313e:	00 
    313f:	f2 0f 10 9d 48 ff ff 	movsd  -0xb8(%rbp),%xmm3
    3146:	ff 
    3147:	f2 0f 58 c9          	addsd  %xmm1,%xmm1
    314b:	f2 0f 58 9d 30 ff ff 	addsd  -0xd0(%rbp),%xmm3
    3152:	ff 
    3153:	f2 0f 5c 0d 65 97 00 	subsd  0x9765(%rip),%xmm1        # c8c0 <_IO_stdin_used+0x8c0>
    315a:	00 
    315b:	f2 0f 10 a5 38 ff ff 	movsd  -0xc8(%rbp),%xmm4
    3162:	ff 
    3163:	f2 0f 58 a5 28 ff ff 	addsd  -0xd8(%rbp),%xmm4
    316a:	ff 
    316b:	66 0f 14 d5          	unpcklpd %xmm5,%xmm2
    316f:	f2 0f 5c 05 49 97 00 	subsd  0x9749(%rip),%xmm0        # c8c0 <_IO_stdin_used+0x8c0>
    3176:	00 
    3177:	48 8b 95 58 ff ff ff 	mov    -0xa8(%rbp),%rdx
    317e:	48 03 14 38          	add    (%rax,%rdi,1),%rdx
    3182:	41 83 fc 7d          	cmp    $0x7d,%r12d
    3186:	0f 11 12             	movups %xmm2,(%rdx)
    3189:	66 0f 28 d3          	movapd %xmm3,%xmm2
    318d:	66 0f 14 cc          	unpcklpd %xmm4,%xmm1
    3191:	66 0f 14 dc          	unpcklpd %xmm4,%xmm3
    3195:	66 0f 14 d5          	unpcklpd %xmm5,%xmm2
    3199:	0f 11 4a 20          	movups %xmm1,0x20(%rdx)
    319d:	0f 94 c0             	sete   %al
    31a0:	41 83 c4 01          	add    $0x1,%r12d
    31a4:	0f 11 52 10          	movups %xmm2,0x10(%rdx)
    31a8:	0f 11 5a 30          	movups %xmm3,0x30(%rdx)
    31ac:	f2 0f 11 42 40       	movsd  %xmm0,0x40(%rdx)
    31b1:	5f                   	pop    %rdi
    31b2:	41 58                	pop    %r8
    31b4:	84 85 07 ff ff ff    	test   %al,-0xf9(%rbp)
    31ba:	0f 85 90 01 00 00    	jne    3350 <main+0x8b0>
    31c0:	66 0f ef f6          	pxor   %xmm6,%xmm6
    31c4:	f2 41 0f 2a f4       	cvtsi2sd %r12d,%xmm6
    31c9:	f2 0f 11 b5 08 ff ff 	movsd  %xmm6,-0xf8(%rbp)
    31d0:	ff 
    31d1:	41 81 fc c2 00 00 00 	cmp    $0xc2,%r12d
    31d8:	0f 85 42 fd ff ff    	jne    2f20 <main+0x480>
    31de:	8b 85 00 ff ff ff    	mov    -0x100(%rbp),%eax
    31e4:	66 0f ef c0          	pxor   %xmm0,%xmm0
    31e8:	48 83 85 e8 fe ff ff 	addq   $0x1,-0x118(%rbp)
    31ef:	01 
    31f0:	83 c0 01             	add    $0x1,%eax
    31f3:	f2 0f 2a c0          	cvtsi2sd %eax,%xmm0
    31f7:	48 8b 85 e8 fe ff ff 	mov    -0x118(%rbp),%rax
    31fe:	48 3d c2 00 00 00    	cmp    $0xc2,%rax
    3204:	0f 85 9e fc ff ff    	jne    2ea8 <main+0x408>
    320a:	8b 85 a4 fe ff ff    	mov    -0x15c(%rbp),%eax
    3210:	66 0f ef ff          	pxor   %xmm7,%xmm7
    3214:	48 83 85 b8 fe ff ff 	addq   $0x1,-0x148(%rbp)
    321b:	01 
    321c:	49 83 c6 08          	add    $0x8,%r14
    3220:	83 c0 01             	add    $0x1,%eax
    3223:	f2 0f 2a f8          	cvtsi2sd %eax,%xmm7
    3227:	48 8b 85 b8 fe ff ff 	mov    -0x148(%rbp),%rax
    322e:	f2 0f 11 bd d0 fe ff 	movsd  %xmm7,-0x130(%rbp)
    3235:	ff 
    3236:	48 3d c2 00 00 00    	cmp    $0xc2,%rax
    323c:	0f 85 28 fc ff ff    	jne    2e6a <main+0x3ca>
    3242:	ba 42 00 00 00       	mov    $0x42,%edx
    3247:	48 8d 35 1a 8f 00 00 	lea    0x8f1a(%rip),%rsi        # c168 <_IO_stdin_used+0x168>
    324e:	48 8d 3d eb bd 00 00 	lea    0xbdeb(%rip),%rdi        # f040 <_ZSt4cout@GLIBCXX_3.4>
    3255:	31 db                	xor    %ebx,%ebx
    3257:	4c 8b ad 98 fe ff ff 	mov    -0x168(%rbp),%r13
    325e:	e8 7d f3 ff ff       	call   25e0 <_ZSt16__ostream_insertIcSt11char_traitsIcEERSt13basic_ostreamIT_T0_ES6_PKS3_l@plt>
    3263:	66 0f ef c0          	pxor   %xmm0,%xmm0
    3267:	48 8d 85 60 ff ff ff 	lea    -0xa0(%rbp),%rax
    326e:	48 c7 85 70 ff ff ff 	movq   $0x0,-0x90(%rbp)
    3275:	00 00 00 00 
    3279:	0f 29 85 60 ff ff ff 	movaps %xmm0,-0xa0(%rbp)
    3280:	49 89 c6             	mov    %rax,%r14
    3283:	eb 2c                	jmp    32b1 <main+0x811>
    3285:	89 1e                	mov    %ebx,(%rsi)
    3287:	48 83 c6 04          	add    $0x4,%rsi
    328b:	48 89 b5 68 ff ff ff 	mov    %rsi,-0x98(%rbp)
    3292:	48 83 c3 01          	add    $0x1,%rbx
    3296:	66 0f ef c0          	pxor   %xmm0,%xmm0
    329a:	f2 0f 10 3d 4e 96 00 	movsd  0x964e(%rip),%xmm7        # c8f0 <_IO_stdin_used+0x8f0>
    32a1:	00 
    32a2:	f2 48 0f 2a c3       	cvtsi2sd %rbx,%xmm0
    32a7:	66 0f 2f f8          	comisd %xmm0,%xmm7
    32ab:	0f 86 c2 06 00 00    	jbe    3973 <main+0xed3>
    32b1:	48 8b 85 f8 fe ff ff 	mov    -0x108(%rbp),%rax
    32b8:	66 0f ef ff          	pxor   %xmm7,%xmm7
    32bc:	48 8b 04 d8          	mov    (%rax,%rbx,8),%rax
    32c0:	f2 0f 10 48 08       	movsd  0x8(%rax),%xmm1
    32c5:	f2 0f 5c 0d 1b 96 00 	subsd  0x961b(%rip),%xmm1        # c8e8 <_IO_stdin_used+0x8e8>
    32cc:	00 
    32cd:	f2 0f 10 00          	movsd  (%rax),%xmm0
    32d1:	f2 0f 10 50 10       	movsd  0x10(%rax),%xmm2
    32d6:	f2 0f 59 c0          	mulsd  %xmm0,%xmm0
    32da:	f2 0f 59 c9          	mulsd  %xmm1,%xmm1
    32de:	f2 0f 59 d2          	mulsd  %xmm2,%xmm2
    32e2:	f2 0f 58 c8          	addsd  %xmm0,%xmm1
    32e6:	f2 0f 58 ca          	addsd  %xmm2,%xmm1
    32ea:	66 0f 2e f9          	ucomisd %xmm1,%xmm7
    32ee:	0f 87 bb 09 00 00    	ja     3caf <main+0x120f>
    32f4:	f2 0f 51 c9          	sqrtsd %xmm1,%xmm1
    32f8:	f2 0f 10 05 e0 95 00 	movsd  0x95e0(%rip),%xmm0        # c8e0 <_IO_stdin_used+0x8e0>
    32ff:	00 
    3300:	f2 0f 10 3d d0 95 00 	movsd  0x95d0(%rip),%xmm7        # c8d8 <_IO_stdin_used+0x8d8>
    3307:	00 
    3308:	f2 0f 58 c1          	addsd  %xmm1,%xmm0
    330c:	66 0f 2f f8          	comisd %xmm0,%xmm7
    3310:	77 80                	ja     3292 <main+0x7f2>
    3312:	f2 0f 5c 0d c6 95 00 	subsd  0x95c6(%rip),%xmm1        # c8e0 <_IO_stdin_used+0x8e0>
    3319:	00 
    331a:	66 0f 2f 0d b6 95 00 	comisd 0x95b6(%rip),%xmm1        # c8d8 <_IO_stdin_used+0x8d8>
    3321:	00 
    3322:	0f 87 6a ff ff ff    	ja     3292 <main+0x7f2>
    3328:	89 5d 80             	mov    %ebx,-0x80(%rbp)
    332b:	48 8b b5 68 ff ff ff 	mov    -0x98(%rbp),%rsi
    3332:	48 3b b5 70 ff ff ff 	cmp    -0x90(%rbp),%rsi
    3339:	0f 85 46 ff ff ff    	jne    3285 <main+0x7e5>
    333f:	4c 89 ea             	mov    %r13,%rdx
    3342:	4c 89 f7             	mov    %r14,%rdi
    3345:	e8 c6 55 00 00       	call   8910 <_ZNSt6vectorIiSaIiEE17_M_realloc_insertIJiEEEvN9__gnu_cxx17__normal_iteratorIPiS1_EEDpOT_>
    334a:	e9 43 ff ff ff       	jmp    3292 <main+0x7f2>
    334f:	90                   	nop
    3350:	ba 09 00 00 00       	mov    $0x9,%edx
    3355:	48 8d 35 57 94 00 00 	lea    0x9457(%rip),%rsi        # c7b3 <_IO_stdin_used+0x7b3>
    335c:	48 8d 3d dd bc 00 00 	lea    0xbcdd(%rip),%rdi        # f040 <_ZSt4cout@GLIBCXX_3.4>
    3363:	e8 78 f2 ff ff       	call   25e0 <_ZSt16__ostream_insertIcSt11char_traitsIcEERSt13basic_ostreamIT_T0_ES6_PKS3_l@plt>
    3368:	48 8b 95 f0 fe ff ff 	mov    -0x110(%rbp),%rdx
    336f:	49 8b 07             	mov    (%r15),%rax
    3372:	48 8d 3d c7 bc 00 00 	lea    0xbcc7(%rip),%rdi        # f040 <_ZSt4cout@GLIBCXX_3.4>
    3379:	48 8b b5 e0 fe ff ff 	mov    -0x120(%rbp),%rsi
    3380:	48 8b 04 10          	mov    (%rax,%rdx,1),%rax
    3384:	48 8b 04 30          	mov    (%rax,%rsi,1),%rax
    3388:	f2 0f 10 80 e8 03 00 	movsd  0x3e8(%rax),%xmm0
    338f:	00 
    3390:	e8 3b f3 ff ff       	call   26d0 <_ZNSo9_M_insertIdEERSoT_@plt>
    3395:	ba 01 00 00 00       	mov    $0x1,%edx
    339a:	48 8d 35 3a 94 00 00 	lea    0x943a(%rip),%rsi        # c7db <_IO_stdin_used+0x7db>
    33a1:	48 89 c7             	mov    %rax,%rdi
    33a4:	48 89 85 50 ff ff ff 	mov    %rax,-0xb0(%rbp)
    33ab:	e8 30 f2 ff ff       	call   25e0 <_ZSt16__ostream_insertIcSt11char_traitsIcEERSt13basic_ostreamIT_T0_ES6_PKS3_l@plt>
    33b0:	48 8b 95 f0 fe ff ff 	mov    -0x110(%rbp),%rdx
    33b7:	49 8b 47 08          	mov    0x8(%r15),%rax
    33bb:	48 8b b5 e0 fe ff ff 	mov    -0x120(%rbp),%rsi
    33c2:	48 8b bd 50 ff ff ff 	mov    -0xb0(%rbp),%rdi
    33c9:	48 8b 04 10          	mov    (%rax,%rdx,1),%rax
    33cd:	48 8b 04 30          	mov    (%rax,%rsi,1),%rax
    33d1:	f2 0f 10 80 e8 03 00 	movsd  0x3e8(%rax),%xmm0
    33d8:	00 
    33d9:	e8 f2 f2 ff ff       	call   26d0 <_ZNSo9_M_insertIdEERSoT_@plt>
    33de:	ba 01 00 00 00       	mov    $0x1,%edx
    33e3:	48 8d 35 f1 93 00 00 	lea    0x93f1(%rip),%rsi        # c7db <_IO_stdin_used+0x7db>
    33ea:	48 89 c7             	mov    %rax,%rdi
    33ed:	48 89 85 50 ff ff ff 	mov    %rax,-0xb0(%rbp)
    33f4:	e8 e7 f1 ff ff       	call   25e0 <_ZSt16__ostream_insertIcSt11char_traitsIcEERSt13basic_ostreamIT_T0_ES6_PKS3_l@plt>
    33f9:	48 8b 95 f0 fe ff ff 	mov    -0x110(%rbp),%rdx
    3400:	49 8b 47 10          	mov    0x10(%r15),%rax
    3404:	48 8b b5 e0 fe ff ff 	mov    -0x120(%rbp),%rsi
    340b:	48 8b bd 50 ff ff ff 	mov    -0xb0(%rbp),%rdi
    3412:	48 8b 04 10          	mov    (%rax,%rdx,1),%rax
    3416:	48 8b 04 30          	mov    (%rax,%rsi,1),%rax
    341a:	f2 0f 10 80 e8 03 00 	movsd  0x3e8(%rax),%xmm0
    3421:	00 
    3422:	e8 a9 f2 ff ff       	call   26d0 <_ZNSo9_M_insertIdEERSoT_@plt>
    3427:	48 8d 35 ad 93 00 00 	lea    0x93ad(%rip),%rsi        # c7db <_IO_stdin_used+0x7db>
    342e:	ba 01 00 00 00       	mov    $0x1,%edx
    3433:	48 89 c7             	mov    %rax,%rdi
    3436:	48 89 85 50 ff ff ff 	mov    %rax,-0xb0(%rbp)
    343d:	e8 9e f1 ff ff       	call   25e0 <_ZSt16__ostream_insertIcSt11char_traitsIcEERSt13basic_ostreamIT_T0_ES6_PKS3_l@plt>
    3442:	48 8b 95 f0 fe ff ff 	mov    -0x110(%rbp),%rdx
    3449:	49 8b 07             	mov    (%r15),%rax
    344c:	48 8b bd 50 ff ff ff 	mov    -0xb0(%rbp),%rdi
    3453:	48 8b 04 10          	mov    (%rax,%rdx,1),%rax
    3457:	48 8b 95 10 ff ff ff 	mov    -0xf0(%rbp),%rdx
    345e:	48 8b 04 10          	mov    (%rax,%rdx,1),%rax
    3462:	f2 0f 10 80 e8 03 00 	movsd  0x3e8(%rax),%xmm0
    3469:	00 
    346a:	e8 61 f2 ff ff       	call   26d0 <_ZNSo9_M_insertIdEERSoT_@plt>
    346f:	48 8d 35 65 93 00 00 	lea    0x9365(%rip),%rsi        # c7db <_IO_stdin_used+0x7db>
    3476:	ba 01 00 00 00       	mov    $0x1,%edx
    347b:	48 89 c7             	mov    %rax,%rdi
    347e:	48 89 85 50 ff ff ff 	mov    %rax,-0xb0(%rbp)
    3485:	e8 56 f1 ff ff       	call   25e0 <_ZSt16__ostream_insertIcSt11char_traitsIcEERSt13basic_ostreamIT_T0_ES6_PKS3_l@plt>
    348a:	48 8b bd f0 fe ff ff 	mov    -0x110(%rbp),%rdi
    3491:	49 8b 47 08          	mov    0x8(%r15),%rax
    3495:	48 8b 95 10 ff ff ff 	mov    -0xf0(%rbp),%rdx
    349c:	48 8b 04 38          	mov    (%rax,%rdi,1),%rax
    34a0:	48 8b bd 50 ff ff ff 	mov    -0xb0(%rbp),%rdi
    34a7:	48 8b 04 10          	mov    (%rax,%rdx,1),%rax
    34ab:	f2 0f 10 80 e8 03 00 	movsd  0x3e8(%rax),%xmm0
    34b2:	00 
    34b3:	e8 18 f2 ff ff       	call   26d0 <_ZNSo9_M_insertIdEERSoT_@plt>
    34b8:	48 8d 35 1c 93 00 00 	lea    0x931c(%rip),%rsi        # c7db <_IO_stdin_used+0x7db>
    34bf:	ba 01 00 00 00       	mov    $0x1,%edx
    34c4:	48 89 c7             	mov    %rax,%rdi
    34c7:	48 89 85 50 ff ff ff 	mov    %rax,-0xb0(%rbp)
    34ce:	e8 0d f1 ff ff       	call   25e0 <_ZSt16__ostream_insertIcSt11char_traitsIcEERSt13basic_ostreamIT_T0_ES6_PKS3_l@plt>
    34d3:	48 8b bd f0 fe ff ff 	mov    -0x110(%rbp),%rdi
    34da:	49 8b 47 10          	mov    0x10(%r15),%rax
    34de:	48 8b 95 10 ff ff ff 	mov    -0xf0(%rbp),%rdx
    34e5:	48 8b 04 38          	mov    (%rax,%rdi,1),%rax
    34e9:	48 8b bd 50 ff ff ff 	mov    -0xb0(%rbp),%rdi
    34f0:	48 8b 04 10          	mov    (%rax,%rdx,1),%rax
    34f4:	f2 0f 10 80 e8 03 00 	movsd  0x3e8(%rax),%xmm0
    34fb:	00 
    34fc:	e8 cf f1 ff ff       	call   26d0 <_ZNSo9_M_insertIdEERSoT_@plt>
    3501:	ba 01 00 00 00       	mov    $0x1,%edx
    3506:	48 8d 35 ce 92 00 00 	lea    0x92ce(%rip),%rsi        # c7db <_IO_stdin_used+0x7db>
    350d:	48 89 c7             	mov    %rax,%rdi
    3510:	48 89 85 50 ff ff ff 	mov    %rax,-0xb0(%rbp)
    3517:	e8 c4 f0 ff ff       	call   25e0 <_ZSt16__ostream_insertIcSt11char_traitsIcEERSt13basic_ostreamIT_T0_ES6_PKS3_l@plt>
    351c:	48 8b bd f0 fe ff ff 	mov    -0x110(%rbp),%rdi
    3523:	49 8b 07             	mov    (%r15),%rax
    3526:	48 8b 04 38          	mov    (%rax,%rdi,1),%rax
    352a:	48 8b bd 50 ff ff ff 	mov    -0xb0(%rbp),%rdi
    3531:	48 8b 80 e8 03 00 00 	mov    0x3e8(%rax),%rax
    3538:	f2 0f 10 80 e8 03 00 	movsd  0x3e8(%rax),%xmm0
    353f:	00 
    3540:	e8 8b f1 ff ff       	call   26d0 <_ZNSo9_M_insertIdEERSoT_@plt>
    3545:	ba 01 00 00 00       	mov    $0x1,%edx
    354a:	48 8d 35 8a 92 00 00 	lea    0x928a(%rip),%rsi        # c7db <_IO_stdin_used+0x7db>
    3551:	48 89 c7             	mov    %rax,%rdi
    3554:	48 89 85 50 ff ff ff 	mov    %rax,-0xb0(%rbp)
    355b:	e8 80 f0 ff ff       	call   25e0 <_ZSt16__ostream_insertIcSt11char_traitsIcEERSt13basic_ostreamIT_T0_ES6_PKS3_l@plt>
    3560:	48 8b bd f0 fe ff ff 	mov    -0x110(%rbp),%rdi
    3567:	49 8b 47 08          	mov    0x8(%r15),%rax
    356b:	48 8b 04 38          	mov    (%rax,%rdi,1),%rax
    356f:	48 8b bd 50 ff ff ff 	mov    -0xb0(%rbp),%rdi
    3576:	48 8b 80 e8 03 00 00 	mov    0x3e8(%rax),%rax
    357d:	f2 0f 10 80 e8 03 00 	movsd  0x3e8(%rax),%xmm0
    3584:	00 
    3585:	e8 46 f1 ff ff       	call   26d0 <_ZNSo9_M_insertIdEERSoT_@plt>
    358a:	ba 01 00 00 00       	mov    $0x1,%edx
    358f:	48 8d 35 45 92 00 00 	lea    0x9245(%rip),%rsi        # c7db <_IO_stdin_used+0x7db>
    3596:	48 89 c7             	mov    %rax,%rdi
    3599:	48 89 85 50 ff ff ff 	mov    %rax,-0xb0(%rbp)
    35a0:	e8 3b f0 ff ff       	call   25e0 <_ZSt16__ostream_insertIcSt11char_traitsIcEERSt13basic_ostreamIT_T0_ES6_PKS3_l@plt>
    35a5:	48 8b bd f0 fe ff ff 	mov    -0x110(%rbp),%rdi
    35ac:	49 8b 47 10          	mov    0x10(%r15),%rax
    35b0:	48 8b 04 38          	mov    (%rax,%rdi,1),%rax
    35b4:	48 8b bd 50 ff ff ff 	mov    -0xb0(%rbp),%rdi
    35bb:	48 8b 80 e8 03 00 00 	mov    0x3e8(%rax),%rax
    35c2:	f2 0f 10 80 e8 03 00 	movsd  0x3e8(%rax),%xmm0
    35c9:	00 
    35ca:	e8 01 f1 ff ff       	call   26d0 <_ZNSo9_M_insertIdEERSoT_@plt>
    35cf:	ba 01 00 00 00       	mov    $0x1,%edx
    35d4:	48 8d 35 3d 95 00 00 	lea    0x953d(%rip),%rsi        # cb18 <_IO_stdin_used+0xb18>
    35db:	48 89 c7             	mov    %rax,%rdi
    35de:	e8 fd ef ff ff       	call   25e0 <_ZSt16__ostream_insertIcSt11char_traitsIcEERSt13basic_ostreamIT_T0_ES6_PKS3_l@plt>
    35e3:	48 8d 35 d3 91 00 00 	lea    0x91d3(%rip),%rsi        # c7bd <_IO_stdin_used+0x7bd>
    35ea:	ba 07 00 00 00       	mov    $0x7,%edx
    35ef:	48 8d 3d 4a ba 00 00 	lea    0xba4a(%rip),%rdi        # f040 <_ZSt4cout@GLIBCXX_3.4>
    35f6:	e8 e5 ef ff ff       	call   25e0 <_ZSt16__ostream_insertIcSt11char_traitsIcEERSt13basic_ostreamIT_T0_ES6_PKS3_l@plt>
    35fb:	48 8b 95 10 ff ff ff 	mov    -0xf0(%rbp),%rdx
    3602:	49 8b 06             	mov    (%r14),%rax
    3605:	48 8b bd 58 ff ff ff 	mov    -0xa8(%rbp),%rdi
    360c:	48 8b 04 10          	mov    (%rax,%rdx,1),%rax
    3610:	f2 0f 10 04 38       	movsd  (%rax,%rdi,1),%xmm0
    3615:	48 8d 3d 24 ba 00 00 	lea    0xba24(%rip),%rdi        # f040 <_ZSt4cout@GLIBCXX_3.4>
    361c:	e8 af f0 ff ff       	call   26d0 <_ZNSo9_M_insertIdEERSoT_@plt>
    3621:	48 8d 35 b3 91 00 00 	lea    0x91b3(%rip),%rsi        # c7db <_IO_stdin_used+0x7db>
    3628:	ba 01 00 00 00       	mov    $0x1,%edx
    362d:	48 89 c7             	mov    %rax,%rdi
    3630:	48 89 85 50 ff ff ff 	mov    %rax,-0xb0(%rbp)
    3637:	e8 a4 ef ff ff       	call   25e0 <_ZSt16__ostream_insertIcSt11char_traitsIcEERSt13basic_ostreamIT_T0_ES6_PKS3_l@plt>
    363c:	48 8b 95 10 ff ff ff 	mov    -0xf0(%rbp),%rdx
    3643:	49 8b 06             	mov    (%r14),%rax
    3646:	48 8b bd 58 ff ff ff 	mov    -0xa8(%rbp),%rdi
    364d:	48 8b 04 10          	mov    (%rax,%rdx,1),%rax
    3651:	f2 0f 10 44 38 08    	movsd  0x8(%rax,%rdi,1),%xmm0
    3657:	48 8b bd 50 ff ff ff 	mov    -0xb0(%rbp),%rdi
    365e:	e8 6d f0 ff ff       	call   26d0 <_ZNSo9_M_insertIdEERSoT_@plt>
    3663:	48 8d 35 71 91 00 00 	lea    0x9171(%rip),%rsi        # c7db <_IO_stdin_used+0x7db>
    366a:	ba 01 00 00 00       	mov    $0x1,%edx
    366f:	48 89 c7             	mov    %rax,%rdi
    3672:	48 89 85 50 ff ff ff 	mov    %rax,-0xb0(%rbp)
    3679:	e8 62 ef ff ff       	call   25e0 <_ZSt16__ostream_insertIcSt11char_traitsIcEERSt13basic_ostreamIT_T0_ES6_PKS3_l@plt>
    367e:	48 8b 95 10 ff ff ff 	mov    -0xf0(%rbp),%rdx
    3685:	49 8b 06             	mov    (%r14),%rax
    3688:	48 8b bd 58 ff ff ff 	mov    -0xa8(%rbp),%rdi
    368f:	48 8b 04 10          	mov    (%rax,%rdx,1),%rax
    3693:	f2 0f 10 44 38 10    	movsd  0x10(%rax,%rdi,1),%xmm0
    3699:	48 8b bd 50 ff ff ff 	mov    -0xb0(%rbp),%rdi
    36a0:	e8 2b f0 ff ff       	call   26d0 <_ZNSo9_M_insertIdEERSoT_@plt>
    36a5:	48 8d 35 6c 94 00 00 	lea    0x946c(%rip),%rsi        # cb18 <_IO_stdin_used+0xb18>
    36ac:	ba 01 00 00 00       	mov    $0x1,%edx
    36b1:	48 89 c7             	mov    %rax,%rdi
    36b4:	e8 27 ef ff ff       	call   25e0 <_ZSt16__ostream_insertIcSt11char_traitsIcEERSt13basic_ostreamIT_T0_ES6_PKS3_l@plt>
    36b9:	48 8b 95 10 ff ff ff 	mov    -0xf0(%rbp),%rdx
    36c0:	49 8b 06             	mov    (%r14),%rax
    36c3:	48 8b bd 58 ff ff ff 	mov    -0xa8(%rbp),%rdi
    36ca:	48 8b 04 10          	mov    (%rax,%rdx,1),%rax
    36ce:	f2 0f 10 44 38 18    	movsd  0x18(%rax,%rdi,1),%xmm0
    36d4:	48 8d 3d 65 b9 00 00 	lea    0xb965(%rip),%rdi        # f040 <_ZSt4cout@GLIBCXX_3.4>
    36db:	e8 f0 ef ff ff       	call   26d0 <_ZNSo9_M_insertIdEERSoT_@plt>
    36e0:	48 8d 35 f4 90 00 00 	lea    0x90f4(%rip),%rsi        # c7db <_IO_stdin_used+0x7db>
    36e7:	ba 01 00 00 00       	mov    $0x1,%edx
    36ec:	48 89 c7             	mov    %rax,%rdi
    36ef:	48 89 85 50 ff ff ff 	mov    %rax,-0xb0(%rbp)
    36f6:	e8 e5 ee ff ff       	call   25e0 <_ZSt16__ostream_insertIcSt11char_traitsIcEERSt13basic_ostreamIT_T0_ES6_PKS3_l@plt>
    36fb:	48 8b 95 10 ff ff ff 	mov    -0xf0(%rbp),%rdx
    3702:	49 8b 06             	mov    (%r14),%rax
    3705:	48 8b bd 58 ff ff ff 	mov    -0xa8(%rbp),%rdi
    370c:	48 8b 04 10          	mov    (%rax,%rdx,1),%rax
    3710:	f2 0f 10 44 38 20    	movsd  0x20(%rax,%rdi,1),%xmm0
    3716:	48 8b bd 50 ff ff ff 	mov    -0xb0(%rbp),%rdi
    371d:	e8 ae ef ff ff       	call   26d0 <_ZNSo9_M_insertIdEERSoT_@plt>
    3722:	48 8d 35 b2 90 00 00 	lea    0x90b2(%rip),%rsi        # c7db <_IO_stdin_used+0x7db>
    3729:	ba 01 00 00 00       	mov    $0x1,%edx
    372e:	48 89 c7             	mov    %rax,%rdi
    3731:	48 89 85 50 ff ff ff 	mov    %rax,-0xb0(%rbp)
    3738:	e8 a3 ee ff ff       	call   25e0 <_ZSt16__ostream_insertIcSt11char_traitsIcEERSt13basic_ostreamIT_T0_ES6_PKS3_l@plt>
    373d:	48 8b 95 10 ff ff ff 	mov    -0xf0(%rbp),%rdx
    3744:	49 8b 06             	mov    (%r14),%rax
    3747:	48 8b bd 58 ff ff ff 	mov    -0xa8(%rbp),%rdi
    374e:	48 8b 04 10          	mov    (%rax,%rdx,1),%rax
    3752:	f2 0f 10 44 38 28    	movsd  0x28(%rax,%rdi,1),%xmm0
    3758:	48 8b bd 50 ff ff ff 	mov    -0xb0(%rbp),%rdi
    375f:	e8 6c ef ff ff       	call   26d0 <_ZNSo9_M_insertIdEERSoT_@plt>
    3764:	48 8d 35 ad 93 00 00 	lea    0x93ad(%rip),%rsi        # cb18 <_IO_stdin_used+0xb18>
    376b:	ba 01 00 00 00       	mov    $0x1,%edx
    3770:	48 89 c7             	mov    %rax,%rdi
    3773:	e8 68 ee ff ff       	call   25e0 <_ZSt16__ostream_insertIcSt11char_traitsIcEERSt13basic_ostreamIT_T0_ES6_PKS3_l@plt>
    3778:	48 8b 95 10 ff ff ff 	mov    -0xf0(%rbp),%rdx
    377f:	49 8b 06             	mov    (%r14),%rax
    3782:	48 8b bd 58 ff ff ff 	mov    -0xa8(%rbp),%rdi
    3789:	48 8b 04 10          	mov    (%rax,%rdx,1),%rax
    378d:	f2 0f 10 44 38 30    	movsd  0x30(%rax,%rdi,1),%xmm0
    3793:	48 8d 3d a6 b8 00 00 	lea    0xb8a6(%rip),%rdi        # f040 <_ZSt4cout@GLIBCXX_3.4>
    379a:	e8 31 ef ff ff       	call   26d0 <_ZNSo9_M_insertIdEERSoT_@plt>
    379f:	48 8d 35 35 90 00 00 	lea    0x9035(%rip),%rsi        # c7db <_IO_stdin_used+0x7db>
    37a6:	ba 01 00 00 00       	mov    $0x1,%edx
    37ab:	48 89 c7             	mov    %rax,%rdi
    37ae:	48 89 85 50 ff ff ff 	mov    %rax,-0xb0(%rbp)
    37b5:	e8 26 ee ff ff       	call   25e0 <_ZSt16__ostream_insertIcSt11char_traitsIcEERSt13basic_ostreamIT_T0_ES6_PKS3_l@plt>
    37ba:	48 8b 95 10 ff ff ff 	mov    -0xf0(%rbp),%rdx
    37c1:	49 8b 06             	mov    (%r14),%rax
    37c4:	48 8b bd 58 ff ff ff 	mov    -0xa8(%rbp),%rdi
    37cb:	48 8b 04 10          	mov    (%rax,%rdx,1),%rax
    37cf:	f2 0f 10 44 38 38    	movsd  0x38(%rax,%rdi,1),%xmm0
    37d5:	48 8b bd 50 ff ff ff 	mov    -0xb0(%rbp),%rdi
    37dc:	e8 ef ee ff ff       	call   26d0 <_ZNSo9_M_insertIdEERSoT_@plt>
    37e1:	48 8d 35 f3 8f 00 00 	lea    0x8ff3(%rip),%rsi        # c7db <_IO_stdin_used+0x7db>
    37e8:	ba 01 00 00 00       	mov    $0x1,%edx
    37ed:	48 89 c7             	mov    %rax,%rdi
    37f0:	48 89 85 50 ff ff ff 	mov    %rax,-0xb0(%rbp)
    37f7:	e8 e4 ed ff ff       	call   25e0 <_ZSt16__ostream_insertIcSt11char_traitsIcEERSt13basic_ostreamIT_T0_ES6_PKS3_l@plt>
    37fc:	48 8b 95 10 ff ff ff 	mov    -0xf0(%rbp),%rdx
    3803:	49 8b 06             	mov    (%r14),%rax
    3806:	48 8b bd 58 ff ff ff 	mov    -0xa8(%rbp),%rdi
    380d:	48 8b 04 10          	mov    (%rax,%rdx,1),%rax
    3811:	f2 0f 10 44 38 40    	movsd  0x40(%rax,%rdi,1),%xmm0
    3817:	48 8b bd 50 ff ff ff 	mov    -0xb0(%rbp),%rdi
    381e:	e8 ad ee ff ff       	call   26d0 <_ZNSo9_M_insertIdEERSoT_@plt>
    3823:	ba 01 00 00 00       	mov    $0x1,%edx
    3828:	48 8d 35 e9 92 00 00 	lea    0x92e9(%rip),%rsi        # cb18 <_IO_stdin_used+0xb18>
    382f:	48 89 c7             	mov    %rax,%rdi
    3832:	e8 a9 ed ff ff       	call   25e0 <_ZSt16__ostream_insertIcSt11char_traitsIcEERSt13basic_ostreamIT_T0_ES6_PKS3_l@plt>
    3837:	48 8d 35 87 8f 00 00 	lea    0x8f87(%rip),%rsi        # c7c5 <_IO_stdin_used+0x7c5>
    383e:	ba 09 00 00 00       	mov    $0x9,%edx
    3843:	48 8d 3d f6 b7 00 00 	lea    0xb7f6(%rip),%rdi        # f040 <_ZSt4cout@GLIBCXX_3.4>
    384a:	e8 91 ed ff ff       	call   25e0 <_ZSt16__ostream_insertIcSt11char_traitsIcEERSt13basic_ostreamIT_T0_ES6_PKS3_l@plt>
    384f:	f2 0f 10 05 79 90 00 	movsd  0x9079(%rip),%xmm0        # c8d0 <_IO_stdin_used+0x8d0>
    3856:	00 
    3857:	f2 0f 59 85 08 ff ff 	mulsd  -0xf8(%rbp),%xmm0
    385e:	ff 
    385f:	48 8d 3d da b7 00 00 	lea    0xb7da(%rip),%rdi        # f040 <_ZSt4cout@GLIBCXX_3.4>
    3866:	f2 0f 59 05 62 90 00 	mulsd  0x9062(%rip),%xmm0        # c8d0 <_IO_stdin_used+0x8d0>
    386d:	00 
    386e:	48 8b 95 f8 fe ff ff 	mov    -0x108(%rbp),%rdx
    3875:	f2 0f 58 85 d8 fe ff 	addsd  -0x128(%rbp),%xmm0
    387c:	ff 
    387d:	f2 0f 2c c0          	cvttsd2si %xmm0,%eax
    3881:	48 98                	cltq   
    3883:	4c 8d 04 c2          	lea    (%rdx,%rax,8),%r8
    3887:	49 8b 00             	mov    (%r8),%rax
    388a:	4c 89 85 48 ff ff ff 	mov    %r8,-0xb8(%rbp)
    3891:	f2 0f 10 00          	movsd  (%rax),%xmm0
    3895:	e8 36 ee ff ff       	call   26d0 <_ZNSo9_M_insertIdEERSoT_@plt>
    389a:	ba 01 00 00 00       	mov    $0x1,%edx
    389f:	48 8d 35 35 8f 00 00 	lea    0x8f35(%rip),%rsi        # c7db <_IO_stdin_used+0x7db>
    38a6:	48 89 c7             	mov    %rax,%rdi
    38a9:	48 89 85 50 ff ff ff 	mov    %rax,-0xb0(%rbp)
    38b0:	e8 2b ed ff ff       	call   25e0 <_ZSt16__ostream_insertIcSt11char_traitsIcEERSt13basic_ostreamIT_T0_ES6_PKS3_l@plt>
    38b5:	4c 8b 85 48 ff ff ff 	mov    -0xb8(%rbp),%r8
    38bc:	48 8b bd 50 ff ff ff 	mov    -0xb0(%rbp),%rdi
    38c3:	49 8b 00             	mov    (%r8),%rax
    38c6:	f2 0f 10 40 08       	movsd  0x8(%rax),%xmm0
    38cb:	e8 00 ee ff ff       	call   26d0 <_ZNSo9_M_insertIdEERSoT_@plt>
    38d0:	ba 01 00 00 00       	mov    $0x1,%edx
    38d5:	48 8d 35 ff 8e 00 00 	lea    0x8eff(%rip),%rsi        # c7db <_IO_stdin_used+0x7db>
    38dc:	48 89 c7             	mov    %rax,%rdi
    38df:	48 89 85 50 ff ff ff 	mov    %rax,-0xb0(%rbp)
    38e6:	e8 f5 ec ff ff       	call   25e0 <_ZSt16__ostream_insertIcSt11char_traitsIcEERSt13basic_ostreamIT_T0_ES6_PKS3_l@plt>
    38eb:	4c 8b 85 48 ff ff ff 	mov    -0xb8(%rbp),%r8
    38f2:	48 8b bd 50 ff ff ff 	mov    -0xb0(%rbp),%rdi
    38f9:	49 8b 00             	mov    (%r8),%rax
    38fc:	f2 0f 10 40 10       	movsd  0x10(%rax),%xmm0
    3901:	e8 ca ed ff ff       	call   26d0 <_ZNSo9_M_insertIdEERSoT_@plt>
    3906:	ba 01 00 00 00       	mov    $0x1,%edx
    390b:	48 8d 35 06 92 00 00 	lea    0x9206(%rip),%rsi        # cb18 <_IO_stdin_used+0xb18>
    3912:	48 89 c7             	mov    %rax,%rdi
    3915:	e8 c6 ec ff ff       	call   25e0 <_ZSt16__ostream_insertIcSt11char_traitsIcEERSt13basic_ostreamIT_T0_ES6_PKS3_l@plt>
    391a:	ba 0a 00 00 00       	mov    $0xa,%edx
    391f:	48 8d 35 a9 8e 00 00 	lea    0x8ea9(%rip),%rsi        # c7cf <_IO_stdin_used+0x7cf>
    3926:	48 8d 3d 13 b7 00 00 	lea    0xb713(%rip),%rdi        # f040 <_ZSt4cout@GLIBCXX_3.4>
    392d:	e8 ae ec ff ff       	call   25e0 <_ZSt16__ostream_insertIcSt11char_traitsIcEERSt13basic_ostreamIT_T0_ES6_PKS3_l@plt>
    3932:	48 8b 05 a7 8f 00 00 	mov    0x8fa7(%rip),%rax        # c8e0 <_IO_stdin_used+0x8e0>
    3939:	48 8d 3d 00 b7 00 00 	lea    0xb700(%rip),%rdi        # f040 <_ZSt4cout@GLIBCXX_3.4>
    3940:	66 48 0f 6e c0       	movq   %rax,%xmm0
    3945:	e8 86 ed ff ff       	call   26d0 <_ZNSo9_M_insertIdEERSoT_@plt>
    394a:	ba 01 00 00 00       	mov    $0x1,%edx
    394f:	48 8d 35 c2 91 00 00 	lea    0x91c2(%rip),%rsi        # cb18 <_IO_stdin_used+0xb18>
    3956:	48 89 c7             	mov    %rax,%rdi
    3959:	e8 82 ec ff ff       	call   25e0 <_ZSt16__ostream_insertIcSt11char_traitsIcEERSt13basic_ostreamIT_T0_ES6_PKS3_l@plt>
    395e:	f2 0f 10 3d 62 8f 00 	movsd  0x8f62(%rip),%xmm7        # c8c8 <_IO_stdin_used+0x8c8>
    3965:	00 
    3966:	f2 0f 11 bd 08 ff ff 	movsd  %xmm7,-0xf8(%rbp)
    396d:	ff 
    396e:	e9 ad f5 ff ff       	jmp    2f20 <main+0x480>
    3973:	48 8b 05 46 8f 00 00 	mov    0x8f46(%rip),%rax        # c8c0 <_IO_stdin_used+0x8c0>
    397a:	ff b5 b0 fe ff ff    	push   -0x150(%rbp)
    3980:	4d 89 f1             	mov    %r14,%r9
    3983:	4c 89 ef             	mov    %r13,%rdi
    3986:	4c 8b a5 a8 fe ff ff 	mov    -0x158(%rbp),%r12
    398d:	b9 61 00 00 00       	mov    $0x61,%ecx
    3992:	ba 46 00 00 00       	mov    $0x46,%edx
    3997:	be 46 00 00 00       	mov    $0x46,%esi
    399c:	66 48 0f 6e e8       	movq   %rax,%xmm5
    39a1:	48 8b 05 08 8f 00 00 	mov    0x8f08(%rip),%rax        # c8b0 <_IO_stdin_used+0x8b0>
    39a8:	66 0f ef d2          	pxor   %xmm2,%xmm2
    39ac:	66 0f ef c0          	pxor   %xmm0,%xmm0
    39b0:	41 54                	push   %r12
    39b2:	48 8b 9d f8 fe ff ff 	mov    -0x108(%rbp),%rbx
    39b9:	66 48 0f 6e e0       	movq   %rax,%xmm4
    39be:	48 8b 05 13 8f 00 00 	mov    0x8f13(%rip),%rax        # c8d8 <_IO_stdin_used+0x8d8>
    39c5:	49 89 d8             	mov    %rbx,%r8
    39c8:	66 48 0f 6e d8       	movq   %rax,%xmm3
    39cd:	48 8b 05 14 8f 00 00 	mov    0x8f14(%rip),%rax        # c8e8 <_IO_stdin_used+0x8e8>
    39d4:	66 48 0f 6e c8       	movq   %rax,%xmm1
    39d9:	e8 32 27 00 00       	call   6110 <_Z6torquedddjjddidPPdRKSt6vectorIiSaIiEEPS0_PPP6tensor>
    39de:	48 8b 05 db 8e 00 00 	mov    0x8edb(%rip),%rax        # c8c0 <_IO_stdin_used+0x8c0>
    39e5:	59                   	pop    %rcx
    39e6:	4d 89 f1             	mov    %r14,%r9
    39e9:	f2 0f 10 7d 88       	movsd  -0x78(%rbp),%xmm7
    39ee:	5e                   	pop    %rsi
    39ef:	ff b5 b0 fe ff ff    	push   -0x150(%rbp)
    39f5:	66 0f ef d2          	pxor   %xmm2,%xmm2
    39f9:	66 48 0f 6e e8       	movq   %rax,%xmm5
    39fe:	41 54                	push   %r12
    3a00:	49 89 d8             	mov    %rbx,%r8
    3a03:	b9 61 00 00 00       	mov    $0x61,%ecx
    3a08:	ba 46 00 00 00       	mov    $0x46,%edx
    3a0d:	66 0f 28 c2          	movapd %xmm2,%xmm0
    3a11:	4c 89 ef             	mov    %r13,%rdi
    3a14:	4c 8b 7d 80          	mov    -0x80(%rbp),%r15
    3a18:	48 8b 05 91 8e 00 00 	mov    0x8e91(%rip),%rax        # c8b0 <_IO_stdin_used+0x8b0>
    3a1f:	f2 0f 11 bd 50 ff ff 	movsd  %xmm7,-0xb0(%rbp)
    3a26:	ff 
    3a27:	f2 0f 10 7d 90       	movsd  -0x70(%rbp),%xmm7
    3a2c:	be 46 00 00 00       	mov    $0x46,%esi
    3a31:	66 48 0f 6e e0       	movq   %rax,%xmm4
    3a36:	48 8b 05 9b 8e 00 00 	mov    0x8e9b(%rip),%rax        # c8d8 <_IO_stdin_used+0x8d8>
    3a3d:	f2 0f 11 bd 58 ff ff 	movsd  %xmm7,-0xa8(%rbp)
    3a44:	ff 
    3a45:	66 48 0f 6e d8       	movq   %rax,%xmm3
    3a4a:	48 8b 05 97 8e 00 00 	mov    0x8e97(%rip),%rax        # c8e8 <_IO_stdin_used+0x8e8>
    3a51:	66 48 0f 6e c8       	movq   %rax,%xmm1
    3a56:	e8 a5 10 00 00       	call   4b00 <_Z5forcedddjjddidPPdRKSt6vectorIiSaIiEEPS0_PPP6tensor>
    3a5b:	58                   	pop    %rax
    3a5c:	48 8b 5d 80          	mov    -0x80(%rbp),%rbx
    3a60:	4c 8b 6d 88          	mov    -0x78(%rbp),%r13
    3a64:	4c 8b 75 90          	mov    -0x70(%rbp),%r14
    3a68:	48 8b 85 60 ff ff ff 	mov    -0xa0(%rbp),%rax
    3a6f:	5a                   	pop    %rdx
    3a70:	48 3b 85 68 ff ff ff 	cmp    -0x98(%rbp),%rax
    3a77:	74 07                	je     3a80 <main+0xfe0>
    3a79:	48 89 85 68 ff ff ff 	mov    %rax,-0x98(%rbp)
    3a80:	48 8b 05 51 8e 00 00 	mov    0x8e51(%rip),%rax        # c8d8 <_IO_stdin_used+0x8d8>
    3a87:	48 8d 3d b2 b5 00 00 	lea    0xb5b2(%rip),%rdi        # f040 <_ZSt4cout@GLIBCXX_3.4>
    3a8e:	66 48 0f 6e c0       	movq   %rax,%xmm0
    3a93:	e8 38 ec ff ff       	call   26d0 <_ZNSo9_M_insertIdEERSoT_@plt>
    3a98:	ba 01 00 00 00       	mov    $0x1,%edx
    3a9d:	48 8d 35 37 8d 00 00 	lea    0x8d37(%rip),%rsi        # c7db <_IO_stdin_used+0x7db>
    3aa4:	48 89 c7             	mov    %rax,%rdi
    3aa7:	49 89 c4             	mov    %rax,%r12
    3aaa:	e8 31 eb ff ff       	call   25e0 <_ZSt16__ostream_insertIcSt11char_traitsIcEERSt13basic_ostreamIT_T0_ES6_PKS3_l@plt>
    3aaf:	66 48 0f 6e c3       	movq   %rbx,%xmm0
    3ab4:	4c 89 e7             	mov    %r12,%rdi
    3ab7:	e8 14 ec ff ff       	call   26d0 <_ZNSo9_M_insertIdEERSoT_@plt>
    3abc:	ba 01 00 00 00       	mov    $0x1,%edx
    3ac1:	48 8d 35 13 8d 00 00 	lea    0x8d13(%rip),%rsi        # c7db <_IO_stdin_used+0x7db>
    3ac8:	48 89 c7             	mov    %rax,%rdi
    3acb:	49 89 c4             	mov    %rax,%r12
    3ace:	e8 0d eb ff ff       	call   25e0 <_ZSt16__ostream_insertIcSt11char_traitsIcEERSt13basic_ostreamIT_T0_ES6_PKS3_l@plt>
    3ad3:	66 49 0f 6e c5       	movq   %r13,%xmm0
    3ad8:	4c 89 e7             	mov    %r12,%rdi
    3adb:	e8 f0 eb ff ff       	call   26d0 <_ZNSo9_M_insertIdEERSoT_@plt>
    3ae0:	ba 01 00 00 00       	mov    $0x1,%edx
    3ae5:	48 8d 35 ef 8c 00 00 	lea    0x8cef(%rip),%rsi        # c7db <_IO_stdin_used+0x7db>
    3aec:	48 89 c7             	mov    %rax,%rdi
    3aef:	49 89 c4             	mov    %rax,%r12
    3af2:	e8 e9 ea ff ff       	call   25e0 <_ZSt16__ostream_insertIcSt11char_traitsIcEERSt13basic_ostreamIT_T0_ES6_PKS3_l@plt>
    3af7:	66 49 0f 6e c6       	movq   %r14,%xmm0
    3afc:	4c 89 e7             	mov    %r12,%rdi
    3aff:	e8 cc eb ff ff       	call   26d0 <_ZNSo9_M_insertIdEERSoT_@plt>
    3b04:	ba 02 00 00 00       	mov    $0x2,%edx
    3b09:	48 8d 35 ca 8c 00 00 	lea    0x8cca(%rip),%rsi        # c7da <_IO_stdin_used+0x7da>
    3b10:	48 89 c7             	mov    %rax,%rdi
    3b13:	49 89 c4             	mov    %rax,%r12
    3b16:	e8 c5 ea ff ff       	call   25e0 <_ZSt16__ostream_insertIcSt11char_traitsIcEERSt13basic_ostreamIT_T0_ES6_PKS3_l@plt>
    3b1b:	66 49 0f 6e c7       	movq   %r15,%xmm0
    3b20:	4c 89 e7             	mov    %r12,%rdi
    3b23:	e8 a8 eb ff ff       	call   26d0 <_ZNSo9_M_insertIdEERSoT_@plt>
    3b28:	ba 01 00 00 00       	mov    $0x1,%edx
    3b2d:	48 8d 35 a7 8c 00 00 	lea    0x8ca7(%rip),%rsi        # c7db <_IO_stdin_used+0x7db>
    3b34:	48 89 c7             	mov    %rax,%rdi
    3b37:	49 89 c4             	mov    %rax,%r12
    3b3a:	e8 a1 ea ff ff       	call   25e0 <_ZSt16__ostream_insertIcSt11char_traitsIcEERSt13basic_ostreamIT_T0_ES6_PKS3_l@plt>
    3b3f:	f2 0f 10 85 50 ff ff 	movsd  -0xb0(%rbp),%xmm0
    3b46:	ff 
    3b47:	4c 89 e7             	mov    %r12,%rdi
    3b4a:	e8 81 eb ff ff       	call   26d0 <_ZNSo9_M_insertIdEERSoT_@plt>
    3b4f:	ba 01 00 00 00       	mov    $0x1,%edx
    3b54:	48 8d 35 80 8c 00 00 	lea    0x8c80(%rip),%rsi        # c7db <_IO_stdin_used+0x7db>
    3b5b:	48 89 c7             	mov    %rax,%rdi
    3b5e:	49 89 c4             	mov    %rax,%r12
    3b61:	e8 7a ea ff ff       	call   25e0 <_ZSt16__ostream_insertIcSt11char_traitsIcEERSt13basic_ostreamIT_T0_ES6_PKS3_l@plt>
    3b66:	f2 0f 10 85 58 ff ff 	movsd  -0xa8(%rbp),%xmm0
    3b6d:	ff 
    3b6e:	4c 89 e7             	mov    %r12,%rdi
    3b71:	e8 5a eb ff ff       	call   26d0 <_ZNSo9_M_insertIdEERSoT_@plt>
    3b76:	ba 01 00 00 00       	mov    $0x1,%edx
    3b7b:	48 8d 35 59 8c 00 00 	lea    0x8c59(%rip),%rsi        # c7db <_IO_stdin_used+0x7db>
    3b82:	48 89 c7             	mov    %rax,%rdi
    3b85:	49 89 c4             	mov    %rax,%r12
    3b88:	e8 53 ea ff ff       	call   25e0 <_ZSt16__ostream_insertIcSt11char_traitsIcEERSt13basic_ostreamIT_T0_ES6_PKS3_l@plt>
    3b8d:	f2 0f 10 05 2b 8d 00 	movsd  0x8d2b(%rip),%xmm0        # c8c0 <_IO_stdin_used+0x8c0>
    3b94:	00 
    3b95:	66 48 0f 6e cb       	movq   %rbx,%xmm1
    3b9a:	4c 89 e7             	mov    %r12,%rdi
    3b9d:	f2 0f 5e 0d 53 8d 00 	divsd  0x8d53(%rip),%xmm1        # c8f8 <_IO_stdin_used+0x8f8>
    3ba4:	00 
    3ba5:	f2 0f 5c c1          	subsd  %xmm1,%xmm0
    3ba9:	66 0f 54 05 8f 8d 00 	andpd  0x8d8f(%rip),%xmm0        # c940 <_IO_stdin_used+0x940>
    3bb0:	00 
    3bb1:	f2 0f 59 05 47 8d 00 	mulsd  0x8d47(%rip),%xmm0        # c900 <_IO_stdin_used+0x900>
    3bb8:	00 
    3bb9:	e8 12 eb ff ff       	call   26d0 <_ZNSo9_M_insertIdEERSoT_@plt>
    3bbe:	ba 01 00 00 00       	mov    $0x1,%edx
    3bc3:	48 8d 35 11 8c 00 00 	lea    0x8c11(%rip),%rsi        # c7db <_IO_stdin_used+0x7db>
    3bca:	48 89 c7             	mov    %rax,%rdi
    3bcd:	49 89 c4             	mov    %rax,%r12
    3bd0:	e8 0b ea ff ff       	call   25e0 <_ZSt16__ostream_insertIcSt11char_traitsIcEERSt13basic_ostreamIT_T0_ES6_PKS3_l@plt>
    3bd5:	f2 0f 10 85 58 ff ff 	movsd  -0xa8(%rbp),%xmm0
    3bdc:	ff 
    3bdd:	f2 0f 5e 05 23 8d 00 	divsd  0x8d23(%rip),%xmm0        # c908 <_IO_stdin_used+0x908>
    3be4:	00 
    3be5:	4c 89 e7             	mov    %r12,%rdi
    3be8:	f2 0f 58 05 d0 8c 00 	addsd  0x8cd0(%rip),%xmm0        # c8c0 <_IO_stdin_used+0x8c0>
    3bef:	00 
    3bf0:	66 0f 54 05 48 8d 00 	andpd  0x8d48(%rip),%xmm0        # c940 <_IO_stdin_used+0x940>
    3bf7:	00 
    3bf8:	f2 0f 59 05 00 8d 00 	mulsd  0x8d00(%rip),%xmm0        # c900 <_IO_stdin_used+0x900>
    3bff:	00 
    3c00:	e8 cb ea ff ff       	call   26d0 <_ZNSo9_M_insertIdEERSoT_@plt>
    3c05:	48 89 c7             	mov    %rax,%rdi
    3c08:	ba 01 00 00 00       	mov    $0x1,%edx
    3c0d:	48 8d 35 04 8f 00 00 	lea    0x8f04(%rip),%rsi        # cb18 <_IO_stdin_used+0xb18>
    3c14:	e8 c7 e9 ff ff       	call   25e0 <_ZSt16__ostream_insertIcSt11char_traitsIcEERSt13basic_ostreamIT_T0_ES6_PKS3_l@plt>
    3c19:	48 8b bd a8 fe ff ff 	mov    -0x158(%rbp),%rdi
    3c20:	e8 fb e9 ff ff       	call   2620 <free@plt>
    3c25:	be 46 00 00 00       	mov    $0x46,%esi
    3c2a:	bf 46 00 00 00       	mov    $0x46,%edi
    3c2f:	f2 0f 10 05 d9 8c 00 	movsd  0x8cd9(%rip),%xmm0        # c910 <_IO_stdin_used+0x910>
    3c36:	00 
    3c37:	e8 74 07 00 00       	call   43b0 <_Z18compute_spheremeshdjj>
    3c3c:	48 8b 9d c0 fe ff ff 	mov    -0x140(%rbp),%rbx
    3c43:	48 8d 35 93 8b 00 00 	lea    0x8b93(%rip),%rsi        # c7dd <_IO_stdin_used+0x7dd>
    3c4a:	48 89 df             	mov    %rbx,%rdi
    3c4d:	e8 ae 05 00 00       	call   4200 <_ZNSt7__cxx1112basic_stringIcSt11char_traitsIcESaIcEEC2IS3_EEPKcRKS3_.constprop.0>
    3c52:	48 89 df             	mov    %rbx,%rdi
    3c55:	e8 06 4e 00 00       	call   8a60 <_Z16print_rss_memoryRKNSt7__cxx1112basic_stringIcSt11char_traitsIcESaIcEEE>
    3c5a:	48 8b 7d a0          	mov    -0x60(%rbp),%rdi
    3c5e:	48 3b bd c8 fe ff ff 	cmp    -0x138(%rbp),%rdi
    3c65:	74 0d                	je     3c74 <main+0x11d4>
    3c67:	48 8b 45 b0          	mov    -0x50(%rbp),%rax
    3c6b:	48 8d 70 01          	lea    0x1(%rax),%rsi
    3c6f:	e8 3c e9 ff ff       	call   25b0 <_ZdlPvm@plt>
    3c74:	48 8b bd 60 ff ff ff 	mov    -0xa0(%rbp),%rdi
    3c7b:	48 85 ff             	test   %rdi,%rdi
    3c7e:	74 0f                	je     3c8f <main+0x11ef>
    3c80:	48 8b b5 70 ff ff ff 	mov    -0x90(%rbp),%rsi
    3c87:	48 29 fe             	sub    %rdi,%rsi
    3c8a:	e8 21 e9 ff ff       	call   25b0 <_ZdlPvm@plt>
    3c8f:	48 8b 45 c8          	mov    -0x38(%rbp),%rax
    3c93:	64 48 2b 04 25 28 00 	sub    %fs:0x28,%rax
    3c9a:	00 00 
    3c9c:	75 56                	jne    3cf4 <main+0x1254>
    3c9e:	48 8d 65 d8          	lea    -0x28(%rbp),%rsp
    3ca2:	31 c0                	xor    %eax,%eax
    3ca4:	5b                   	pop    %rbx
    3ca5:	41 5c                	pop    %r12
    3ca7:	41 5d                	pop    %r13
    3ca9:	41 5e                	pop    %r14
    3cab:	41 5f                	pop    %r15
    3cad:	5d                   	pop    %rbp
    3cae:	c3                   	ret    
    3caf:	66 0f 28 c1          	movapd %xmm1,%xmm0
    3cb3:	f2 0f 11 8d 58 ff ff 	movsd  %xmm1,-0xa8(%rbp)
    3cba:	ff 
    3cbb:	e8 60 e8 ff ff       	call   2520 <sqrt@plt>
    3cc0:	f2 0f 58 05 18 8c 00 	addsd  0x8c18(%rip),%xmm0        # c8e0 <_IO_stdin_used+0x8e0>
    3cc7:	00 
    3cc8:	f2 0f 10 3d 08 8c 00 	movsd  0x8c08(%rip),%xmm7        # c8d8 <_IO_stdin_used+0x8d8>
    3ccf:	00 
    3cd0:	f2 0f 10 8d 58 ff ff 	movsd  -0xa8(%rbp),%xmm1
    3cd7:	ff 
    3cd8:	66 0f 2f f8          	comisd %xmm0,%xmm7
    3cdc:	0f 87 b0 f5 ff ff    	ja     3292 <main+0x7f2>
    3ce2:	66 0f 28 c1          	movapd %xmm1,%xmm0
    3ce6:	e8 35 e8 ff ff       	call   2520 <sqrt@plt>
    3ceb:	66 0f 28 c8          	movapd %xmm0,%xmm1
    3cef:	e9 1e f6 ff ff       	jmp    3312 <main+0x872>
    3cf4:	e8 d7 e8 ff ff       	call   25d0 <__stack_chk_fail@plt>
    3cf9:	f3 0f 1e fa          	endbr64 
    3cfd:	48 89 c3             	mov    %rax,%rbx
    3d00:	e9 c6 ea ff ff       	jmp    27cb <main.cold+0x1a>
    3d05:	f3 0f 1e fa          	endbr64 
    3d09:	48 89 c3             	mov    %rax,%rbx
    3d0c:	e9 dd ea ff ff       	jmp    27ee <main.cold+0x3d>
    3d11:	f3 0f 1e fa          	endbr64 
    3d15:	48 89 c3             	mov    %rax,%rbx
    3d18:	e9 94 ea ff ff       	jmp    27b1 <main.cold>
    3d1d:	f3 0f 1e fa          	endbr64 
    3d21:	48 89 c3             	mov    %rax,%rbx
    3d24:	e9 e7 ea ff ff       	jmp    2810 <main.cold+0x5f>
    3d29:	f3 0f 1e fa          	endbr64 
    3d2d:	48 89 c3             	mov    %rax,%rbx
    3d30:	e9 fd ea ff ff       	jmp    2832 <main.cold+0x81>
    3d35:	f3 0f 1e fa          	endbr64 
    3d39:	48 89 c3             	mov    %rax,%rbx
    3d3c:	e9 13 eb ff ff       	jmp    2854 <main.cold+0xa3>
    3d41:	f3 0f 1e fa          	endbr64 
    3d45:	48 89 c3             	mov    %rax,%rbx
    3d48:	e9 29 eb ff ff       	jmp    2876 <main.cold+0xc5>
    3d4d:	0f 1f 00             	nopl   (%rax)

0000000000003d50 <_GLOBAL__sub_I__Z7angleofdd>:
    3d50:	f3 0f 1e fa          	endbr64 
    3d54:	55                   	push   %rbp
    3d55:	48 8d 2d 1d b5 00 00 	lea    0xb51d(%rip),%rbp        # f279 <_ZStL8__ioinit>
    3d5c:	48 89 ef             	mov    %rbp,%rdi
    3d5f:	e8 3c e9 ff ff       	call   26a0 <_ZNSt8ios_base4InitC1Ev@plt>
    3d64:	48 8b 3d 85 b2 00 00 	mov    0xb285(%rip),%rdi        # eff0 <_ZNSt8ios_base4InitD1Ev@GLIBCXX_3.4>
    3d6b:	48 89 ee             	mov    %rbp,%rsi
    3d6e:	5d                   	pop    %rbp
    3d6f:	48 8d 15 92 b2 00 00 	lea    0xb292(%rip),%rdx        # f008 <__dso_handle>
    3d76:	e9 e5 e7 ff ff       	jmp    2560 <__cxa_atexit@plt>
    3d7b:	0f 1f 44 00 00       	nopl   0x0(%rax,%rax,1)

0000000000003d80 <_GLOBAL__sub_I__Z16print_rss_memoryRKNSt7__cxx1112basic_stringIcSt11char_traitsIcESaIcEEE>:
    3d80:	f3 0f 1e fa          	endbr64 
    3d84:	55                   	push   %rbp
    3d85:	48 8d 2d ee b4 00 00 	lea    0xb4ee(%rip),%rbp        # f27a <_ZStL8__ioinit>
    3d8c:	48 89 ef             	mov    %rbp,%rdi
    3d8f:	e8 0c e9 ff ff       	call   26a0 <_ZNSt8ios_base4InitC1Ev@plt>
    3d94:	48 8b 3d 55 b2 00 00 	mov    0xb255(%rip),%rdi        # eff0 <_ZNSt8ios_base4InitD1Ev@GLIBCXX_3.4>
    3d9b:	48 89 ee             	mov    %rbp,%rsi
    3d9e:	5d                   	pop    %rbp
    3d9f:	48 8d 15 62 b2 00 00 	lea    0xb262(%rip),%rdx        # f008 <__dso_handle>
    3da6:	e9 b5 e7 ff ff       	jmp    2560 <__cxa_atexit@plt>
    3dab:	0f 1f 44 00 00       	nopl   0x0(%rax,%rax,1)

0000000000003db0 <_GLOBAL__sub_I__Z5shearddd>:
    3db0:	f3 0f 1e fa          	endbr64 
    3db4:	55                   	push   %rbp
    3db5:	48 8d 2d bf b4 00 00 	lea    0xb4bf(%rip),%rbp        # f27b <_ZStL8__ioinit>
    3dbc:	48 89 ef             	mov    %rbp,%rdi
    3dbf:	e8 dc e8 ff ff       	call   26a0 <_ZNSt8ios_base4InitC1Ev@plt>
    3dc4:	48 8b 3d 25 b2 00 00 	mov    0xb225(%rip),%rdi        # eff0 <_ZNSt8ios_base4InitD1Ev@GLIBCXX_3.4>
    3dcb:	48 89 ee             	mov    %rbp,%rsi
    3dce:	5d                   	pop    %rbp
    3dcf:	48 8d 15 32 b2 00 00 	lea    0xb232(%rip),%rdx        # f008 <__dso_handle>
    3dd6:	e9 85 e7 ff ff       	jmp    2560 <__cxa_atexit@plt>
    3ddb:	0f 1f 44 00 00       	nopl   0x0(%rax,%rax,1)

0000000000003de0 <_GLOBAL__sub_I__Z12writeVTKFileiPPPPdiiiddd>:
    3de0:	f3 0f 1e fa          	endbr64 
    3de4:	55                   	push   %rbp
    3de5:	48 8d 2d 90 b4 00 00 	lea    0xb490(%rip),%rbp        # f27c <_ZStL8__ioinit>
    3dec:	48 89 ef             	mov    %rbp,%rdi
    3def:	e8 ac e8 ff ff       	call   26a0 <_ZNSt8ios_base4InitC1Ev@plt>
    3df4:	48 8b 3d f5 b1 00 00 	mov    0xb1f5(%rip),%rdi        # eff0 <_ZNSt8ios_base4InitD1Ev@GLIBCXX_3.4>
    3dfb:	48 89 ee             	mov    %rbp,%rsi
    3dfe:	5d                   	pop    %rbp
    3dff:	48 8d 15 02 b2 00 00 	lea    0xb202(%rip),%rdx        # f008 <__dso_handle>
    3e06:	e9 55 e7 ff ff       	jmp    2560 <__cxa_atexit@plt>
    3e0b:	0f 1f 44 00 00       	nopl   0x0(%rax,%rax,1)

0000000000003e10 <_start>:
    3e10:	f3 0f 1e fa          	endbr64 
    3e14:	31 ed                	xor    %ebp,%ebp
    3e16:	49 89 d1             	mov    %rdx,%r9
    3e19:	5e                   	pop    %rsi
    3e1a:	48 89 e2             	mov    %rsp,%rdx
    3e1d:	48 83 e4 f0          	and    $0xfffffffffffffff0,%rsp
    3e21:	50                   	push   %rax
    3e22:	54                   	push   %rsp
    3e23:	45 31 c0             	xor    %r8d,%r8d
    3e26:	31 c9                	xor    %ecx,%ecx
    3e28:	48 8d 3d 71 ec ff ff 	lea    -0x138f(%rip),%rdi        # 2aa0 <main>
    3e2f:	ff 15 9b b1 00 00    	call   *0xb19b(%rip)        # efd0 <__libc_start_main@GLIBC_2.34>
    3e35:	f4                   	hlt    
    3e36:	66 2e 0f 1f 84 00 00 	cs nopw 0x0(%rax,%rax,1)
    3e3d:	00 00 00 

0000000000003e40 <deregister_tm_clones>:
    3e40:	48 8d 3d d1 b1 00 00 	lea    0xb1d1(%rip),%rdi        # f018 <__TMC_END__>
    3e47:	48 8d 05 ca b1 00 00 	lea    0xb1ca(%rip),%rax        # f018 <__TMC_END__>
    3e4e:	48 39 f8             	cmp    %rdi,%rax
    3e51:	74 15                	je     3e68 <deregister_tm_clones+0x28>
    3e53:	48 8b 05 7e b1 00 00 	mov    0xb17e(%rip),%rax        # efd8 <_ITM_deregisterTMCloneTable@Base>
    3e5a:	48 85 c0             	test   %rax,%rax
    3e5d:	74 09                	je     3e68 <deregister_tm_clones+0x28>
    3e5f:	ff e0                	jmp    *%rax
    3e61:	0f 1f 80 00 00 00 00 	nopl   0x0(%rax)
    3e68:	c3                   	ret    
    3e69:	0f 1f 80 00 00 00 00 	nopl   0x0(%rax)

0000000000003e70 <register_tm_clones>:
    3e70:	48 8d 3d a1 b1 00 00 	lea    0xb1a1(%rip),%rdi        # f018 <__TMC_END__>
    3e77:	48 8d 35 9a b1 00 00 	lea    0xb19a(%rip),%rsi        # f018 <__TMC_END__>
    3e7e:	48 29 fe             	sub    %rdi,%rsi
    3e81:	48 89 f0             	mov    %rsi,%rax
    3e84:	48 c1 ee 3f          	shr    $0x3f,%rsi
    3e88:	48 c1 f8 03          	sar    $0x3,%rax
    3e8c:	48 01 c6             	add    %rax,%rsi
    3e8f:	48 d1 fe             	sar    %rsi
    3e92:	74 14                	je     3ea8 <register_tm_clones+0x38>
    3e94:	48 8b 05 4d b1 00 00 	mov    0xb14d(%rip),%rax        # efe8 <_ITM_registerTMCloneTable@Base>
    3e9b:	48 85 c0             	test   %rax,%rax
    3e9e:	74 08                	je     3ea8 <register_tm_clones+0x38>
    3ea0:	ff e0                	jmp    *%rax
    3ea2:	66 0f 1f 44 00 00    	nopw   0x0(%rax,%rax,1)
    3ea8:	c3                   	ret    
    3ea9:	0f 1f 80 00 00 00 00 	nopl   0x0(%rax)

0000000000003eb0 <__do_global_dtors_aux>:
    3eb0:	f3 0f 1e fa          	endbr64 
    3eb4:	80 3d bd b3 00 00 00 	cmpb   $0x0,0xb3bd(%rip)        # f278 <completed.0>
    3ebb:	75 2b                	jne    3ee8 <__do_global_dtors_aux+0x38>
    3ebd:	55                   	push   %rbp
    3ebe:	48 83 3d fa b0 00 00 	cmpq   $0x0,0xb0fa(%rip)        # efc0 <__cxa_finalize@GLIBC_2.2.5>
    3ec5:	00 
    3ec6:	48 89 e5             	mov    %rsp,%rbp
    3ec9:	74 0c                	je     3ed7 <__do_global_dtors_aux+0x27>
    3ecb:	48 8b 3d 36 b1 00 00 	mov    0xb136(%rip),%rdi        # f008 <__dso_handle>
    3ed2:	e8 f9 e4 ff ff       	call   23d0 <__cxa_finalize@plt>
    3ed7:	e8 64 ff ff ff       	call   3e40 <deregister_tm_clones>
    3edc:	c6 05 95 b3 00 00 01 	movb   $0x1,0xb395(%rip)        # f278 <completed.0>
    3ee3:	5d                   	pop    %rbp
    3ee4:	c3                   	ret    
    3ee5:	0f 1f 00             	nopl   (%rax)
    3ee8:	c3                   	ret    
    3ee9:	0f 1f 80 00 00 00 00 	nopl   0x0(%rax)

0000000000003ef0 <frame_dummy>:
    3ef0:	f3 0f 1e fa          	endbr64 
    3ef4:	e9 77 ff ff ff       	jmp    3e70 <register_tm_clones>
    3ef9:	0f 1f 80 00 00 00 00 	nopl   0x0(%rax)

0000000000003f00 <_ZSt13__adjust_heapIPdldN9__gnu_cxx5__ops15_Iter_less_iterEEvT_T0_S5_T1_T2_.isra.0>:
    3f00:	48 8d 42 ff          	lea    -0x1(%rdx),%rax
    3f04:	49 89 d3             	mov    %rdx,%r11
    3f07:	48 89 f9             	mov    %rdi,%rcx
    3f0a:	49 89 f0             	mov    %rsi,%r8
    3f0d:	49 89 c1             	mov    %rax,%r9
    3f10:	49 89 d2             	mov    %rdx,%r10
    3f13:	41 83 e3 01          	and    $0x1,%r11d
    3f17:	49 c1 e9 3f          	shr    $0x3f,%r9
    3f1b:	49 01 c1             	add    %rax,%r9
    3f1e:	49 d1 f9             	sar    %r9
    3f21:	4c 39 ce             	cmp    %r9,%rsi
    3f24:	0f 8d a6 00 00 00    	jge    3fd0 <_ZSt13__adjust_heapIPdldN9__gnu_cxx5__ops15_Iter_less_iterEEvT_T0_S5_T1_T2_.isra.0+0xd0>
    3f2a:	48 89 f7             	mov    %rsi,%rdi
    3f2d:	eb 1a                	jmp    3f49 <_ZSt13__adjust_heapIPdldN9__gnu_cxx5__ops15_Iter_less_iterEEvT_T0_S5_T1_T2_.isra.0+0x49>
    3f2f:	90                   	nop
    3f30:	48 83 e8 01          	sub    $0x1,%rax
    3f34:	48 8d 34 c1          	lea    (%rcx,%rax,8),%rsi
    3f38:	f2 0f 10 0e          	movsd  (%rsi),%xmm1
    3f3c:	f2 0f 11 0c f9       	movsd  %xmm1,(%rcx,%rdi,8)
    3f41:	4c 39 c8             	cmp    %r9,%rax
    3f44:	7d 2d                	jge    3f73 <_ZSt13__adjust_heapIPdldN9__gnu_cxx5__ops15_Iter_less_iterEEvT_T0_S5_T1_T2_.isra.0+0x73>
    3f46:	48 89 c7             	mov    %rax,%rdi
    3f49:	48 8d 57 01          	lea    0x1(%rdi),%rdx
    3f4d:	48 8d 04 12          	lea    (%rdx,%rdx,1),%rax
    3f51:	48 c1 e2 04          	shl    $0x4,%rdx
    3f55:	48 8d 34 11          	lea    (%rcx,%rdx,1),%rsi
    3f59:	f2 0f 10 54 11 f8    	movsd  -0x8(%rcx,%rdx,1),%xmm2
    3f5f:	f2 0f 10 0e          	movsd  (%rsi),%xmm1
    3f63:	66 0f 2f d1          	comisd %xmm1,%xmm2
    3f67:	77 c7                	ja     3f30 <_ZSt13__adjust_heapIPdldN9__gnu_cxx5__ops15_Iter_less_iterEEvT_T0_S5_T1_T2_.isra.0+0x30>
    3f69:	f2 0f 11 0c f9       	movsd  %xmm1,(%rcx,%rdi,8)
    3f6e:	4c 39 c8             	cmp    %r9,%rax
    3f71:	7c d3                	jl     3f46 <_ZSt13__adjust_heapIPdldN9__gnu_cxx5__ops15_Iter_less_iterEEvT_T0_S5_T1_T2_.isra.0+0x46>
    3f73:	4d 85 db             	test   %r11,%r11
    3f76:	74 68                	je     3fe0 <_ZSt13__adjust_heapIPdldN9__gnu_cxx5__ops15_Iter_less_iterEEvT_T0_S5_T1_T2_.isra.0+0xe0>
    3f78:	48 8d 50 ff          	lea    -0x1(%rax),%rdx
    3f7c:	48 89 d7             	mov    %rdx,%rdi
    3f7f:	48 c1 ef 3f          	shr    $0x3f,%rdi
    3f83:	48 01 d7             	add    %rdx,%rdi
    3f86:	48 d1 ff             	sar    %rdi
    3f89:	4c 39 c0             	cmp    %r8,%rax
    3f8c:	7f 25                	jg     3fb3 <_ZSt13__adjust_heapIPdldN9__gnu_cxx5__ops15_Iter_less_iterEEvT_T0_S5_T1_T2_.isra.0+0xb3>
    3f8e:	eb 36                	jmp    3fc6 <_ZSt13__adjust_heapIPdldN9__gnu_cxx5__ops15_Iter_less_iterEEvT_T0_S5_T1_T2_.isra.0+0xc6>
    3f90:	48 8d 57 ff          	lea    -0x1(%rdi),%rdx
    3f94:	f2 0f 11 0e          	movsd  %xmm1,(%rsi)
    3f98:	48 89 d0             	mov    %rdx,%rax
    3f9b:	48 c1 e8 3f          	shr    $0x3f,%rax
    3f9f:	48 01 d0             	add    %rdx,%rax
    3fa2:	48 d1 f8             	sar    %rax
    3fa5:	48 89 c2             	mov    %rax,%rdx
    3fa8:	48 89 f8             	mov    %rdi,%rax
    3fab:	49 39 f8             	cmp    %rdi,%r8
    3fae:	7d 68                	jge    4018 <_ZSt13__adjust_heapIPdldN9__gnu_cxx5__ops15_Iter_less_iterEEvT_T0_S5_T1_T2_.isra.0+0x118>
    3fb0:	48 89 d7             	mov    %rdx,%rdi
    3fb3:	4c 8d 0c f9          	lea    (%rcx,%rdi,8),%r9
    3fb7:	48 8d 34 c1          	lea    (%rcx,%rax,8),%rsi
    3fbb:	f2 41 0f 10 09       	movsd  (%r9),%xmm1
    3fc0:	66 0f 2f c1          	comisd %xmm1,%xmm0
    3fc4:	77 ca                	ja     3f90 <_ZSt13__adjust_heapIPdldN9__gnu_cxx5__ops15_Iter_less_iterEEvT_T0_S5_T1_T2_.isra.0+0x90>
    3fc6:	f2 0f 11 06          	movsd  %xmm0,(%rsi)
    3fca:	c3                   	ret    
    3fcb:	0f 1f 44 00 00       	nopl   0x0(%rax,%rax,1)
    3fd0:	48 8d 34 f7          	lea    (%rdi,%rsi,8),%rsi
    3fd4:	4d 85 db             	test   %r11,%r11
    3fd7:	75 ed                	jne    3fc6 <_ZSt13__adjust_heapIPdldN9__gnu_cxx5__ops15_Iter_less_iterEEvT_T0_S5_T1_T2_.isra.0+0xc6>
    3fd9:	4c 89 c0             	mov    %r8,%rax
    3fdc:	0f 1f 40 00          	nopl   0x0(%rax)
    3fe0:	49 83 ea 02          	sub    $0x2,%r10
    3fe4:	4c 89 d2             	mov    %r10,%rdx
    3fe7:	48 c1 ea 3f          	shr    $0x3f,%rdx
    3feb:	4c 01 d2             	add    %r10,%rdx
    3fee:	48 d1 fa             	sar    %rdx
    3ff1:	48 39 d0             	cmp    %rdx,%rax
    3ff4:	75 82                	jne    3f78 <_ZSt13__adjust_heapIPdldN9__gnu_cxx5__ops15_Iter_less_iterEEvT_T0_S5_T1_T2_.isra.0+0x78>
    3ff6:	48 8d 44 00 02       	lea    0x2(%rax,%rax,1),%rax
    3ffb:	f2 0f 10 4c c1 f8    	movsd  -0x8(%rcx,%rax,8),%xmm1
    4001:	48 83 e8 01          	sub    $0x1,%rax
    4005:	f2 0f 11 0e          	movsd  %xmm1,(%rsi)
    4009:	48 8d 34 c1          	lea    (%rcx,%rax,8),%rsi
    400d:	e9 66 ff ff ff       	jmp    3f78 <_ZSt13__adjust_heapIPdldN9__gnu_cxx5__ops15_Iter_less_iterEEvT_T0_S5_T1_T2_.isra.0+0x78>
    4012:	66 0f 1f 44 00 00    	nopw   0x0(%rax,%rax,1)
    4018:	4c 89 ce             	mov    %r9,%rsi
    401b:	f2 0f 11 06          	movsd  %xmm0,(%rsi)
    401f:	c3                   	ret    

0000000000004020 <_ZSt16__introsort_loopIPdlN9__gnu_cxx5__ops15_Iter_less_iterEEvT_S4_T0_T1_.isra.0>:
    4020:	48 89 f0             	mov    %rsi,%rax
    4023:	48 29 f8             	sub    %rdi,%rax
    4026:	48 3d 80 00 00 00    	cmp    $0x80,%rax
    402c:	0f 8e bf 01 00 00    	jle    41f1 <_ZSt16__introsort_loopIPdlN9__gnu_cxx5__ops15_Iter_less_iterEEvT_S4_T0_T1_.isra.0+0x1d1>
    4032:	41 55                	push   %r13
    4034:	49 89 d5             	mov    %rdx,%r13
    4037:	41 54                	push   %r12
    4039:	4c 8d 67 08          	lea    0x8(%rdi),%r12
    403d:	55                   	push   %rbp
    403e:	48 89 fd             	mov    %rdi,%rbp
    4041:	53                   	push   %rbx
    4042:	48 83 ec 08          	sub    $0x8,%rsp
    4046:	48 85 d2             	test   %rdx,%rdx
    4049:	0f 84 20 01 00 00    	je     416f <_ZSt16__introsort_loopIPdlN9__gnu_cxx5__ops15_Iter_less_iterEEvT_S4_T0_T1_.isra.0+0x14f>
    404f:	66 0f 10 45 00       	movupd 0x0(%rbp),%xmm0
    4054:	48 c1 f8 04          	sar    $0x4,%rax
    4058:	49 83 ed 01          	sub    $0x1,%r13
    405c:	f2 0f 10 5e f8       	movsd  -0x8(%rsi),%xmm3
    4061:	48 8d 44 c5 00       	lea    0x0(%rbp,%rax,8),%rax
    4066:	66 0f 28 e0          	movapd %xmm0,%xmm4
    406a:	f2 0f 10 10          	movsd  (%rax),%xmm2
    406e:	66 0f 28 c8          	movapd %xmm0,%xmm1
    4072:	66 0f c6 e0 01       	shufpd $0x1,%xmm0,%xmm4
    4077:	66 0f 15 c0          	unpckhpd %xmm0,%xmm0
    407b:	66 0f 2f d0          	comisd %xmm0,%xmm2
    407f:	76 77                	jbe    40f8 <_ZSt16__introsort_loopIPdlN9__gnu_cxx5__ops15_Iter_less_iterEEvT_S4_T0_T1_.isra.0+0xd8>
    4081:	66 0f 2f da          	comisd %xmm2,%xmm3
    4085:	0f 87 c7 00 00 00    	ja     4152 <_ZSt16__introsort_loopIPdlN9__gnu_cxx5__ops15_Iter_less_iterEEvT_S4_T0_T1_.isra.0+0x132>
    408b:	66 0f 2f d8          	comisd %xmm0,%xmm3
    408f:	77 73                	ja     4104 <_ZSt16__introsort_loopIPdlN9__gnu_cxx5__ops15_Iter_less_iterEEvT_S4_T0_T1_.isra.0+0xe4>
    4091:	0f 11 65 00          	movups %xmm4,0x0(%rbp)
    4095:	f2 0f 10 56 f8       	movsd  -0x8(%rsi),%xmm2
    409a:	48 89 f0             	mov    %rsi,%rax
    409d:	4c 89 e3             	mov    %r12,%rbx
    40a0:	eb 0f                	jmp    40b1 <_ZSt16__introsort_loopIPdlN9__gnu_cxx5__ops15_Iter_less_iterEEvT_S4_T0_T1_.isra.0+0x91>
    40a2:	66 0f 1f 44 00 00    	nopw   0x0(%rax,%rax,1)
    40a8:	f2 0f 10 4b 08       	movsd  0x8(%rbx),%xmm1
    40ad:	48 83 c3 08          	add    $0x8,%rbx
    40b1:	66 0f 2f c1          	comisd %xmm1,%xmm0
    40b5:	77 f1                	ja     40a8 <_ZSt16__introsort_loopIPdlN9__gnu_cxx5__ops15_Iter_less_iterEEvT_S4_T0_T1_.isra.0+0x88>
    40b7:	48 83 e8 08          	sub    $0x8,%rax
    40bb:	66 0f 2f d0          	comisd %xmm0,%xmm2
    40bf:	76 16                	jbe    40d7 <_ZSt16__introsort_loopIPdlN9__gnu_cxx5__ops15_Iter_less_iterEEvT_S4_T0_T1_.isra.0+0xb7>
    40c1:	0f 1f 80 00 00 00 00 	nopl   0x0(%rax)
    40c8:	f2 0f 10 50 f8       	movsd  -0x8(%rax),%xmm2
    40cd:	48 83 e8 08          	sub    $0x8,%rax
    40d1:	66 0f 2f d0          	comisd %xmm0,%xmm2
    40d5:	77 f1                	ja     40c8 <_ZSt16__introsort_loopIPdlN9__gnu_cxx5__ops15_Iter_less_iterEEvT_S4_T0_T1_.isra.0+0xa8>
    40d7:	48 39 d8             	cmp    %rbx,%rax
    40da:	76 4c                	jbe    4128 <_ZSt16__introsort_loopIPdlN9__gnu_cxx5__ops15_Iter_less_iterEEvT_S4_T0_T1_.isra.0+0x108>
    40dc:	f2 0f 11 13          	movsd  %xmm2,(%rbx)
    40e0:	48 83 c3 08          	add    $0x8,%rbx
    40e4:	f2 0f 10 50 f8       	movsd  -0x8(%rax),%xmm2
    40e9:	f2 0f 11 08          	movsd  %xmm1,(%rax)
    40ed:	f2 0f 10 0b          	movsd  (%rbx),%xmm1
    40f1:	f2 0f 10 45 00       	movsd  0x0(%rbp),%xmm0
    40f6:	eb b9                	jmp    40b1 <_ZSt16__introsort_loopIPdlN9__gnu_cxx5__ops15_Iter_less_iterEEvT_S4_T0_T1_.isra.0+0x91>
    40f8:	66 0f 2f d8          	comisd %xmm0,%xmm3
    40fc:	77 93                	ja     4091 <_ZSt16__introsort_loopIPdlN9__gnu_cxx5__ops15_Iter_less_iterEEvT_S4_T0_T1_.isra.0+0x71>
    40fe:	66 0f 2f da          	comisd %xmm2,%xmm3
    4102:	76 4e                	jbe    4152 <_ZSt16__introsort_loopIPdlN9__gnu_cxx5__ops15_Iter_less_iterEEvT_S4_T0_T1_.isra.0+0x132>
    4104:	f2 0f 11 5d 00       	movsd  %xmm3,0x0(%rbp)
    4109:	66 0f 28 d1          	movapd %xmm1,%xmm2
    410d:	f2 0f 11 4e f8       	movsd  %xmm1,-0x8(%rsi)
    4112:	f2 0f 10 45 00       	movsd  0x0(%rbp),%xmm0
    4117:	f2 0f 10 4d 08       	movsd  0x8(%rbp),%xmm1
    411c:	e9 79 ff ff ff       	jmp    409a <_ZSt16__introsort_loopIPdlN9__gnu_cxx5__ops15_Iter_less_iterEEvT_S4_T0_T1_.isra.0+0x7a>
    4121:	0f 1f 80 00 00 00 00 	nopl   0x0(%rax)
    4128:	4c 89 ea             	mov    %r13,%rdx
    412b:	48 89 df             	mov    %rbx,%rdi
    412e:	e8 ed fe ff ff       	call   4020 <_ZSt16__introsort_loopIPdlN9__gnu_cxx5__ops15_Iter_less_iterEEvT_S4_T0_T1_.isra.0>
    4133:	48 89 d8             	mov    %rbx,%rax
    4136:	48 29 e8             	sub    %rbp,%rax
    4139:	48 3d 80 00 00 00    	cmp    $0x80,%rax
    413f:	0f 8e a1 00 00 00    	jle    41e6 <_ZSt16__introsort_loopIPdlN9__gnu_cxx5__ops15_Iter_less_iterEEvT_S4_T0_T1_.isra.0+0x1c6>
    4145:	4d 85 ed             	test   %r13,%r13
    4148:	74 28                	je     4172 <_ZSt16__introsort_loopIPdlN9__gnu_cxx5__ops15_Iter_less_iterEEvT_S4_T0_T1_.isra.0+0x152>
    414a:	48 89 de             	mov    %rbx,%rsi
    414d:	e9 fd fe ff ff       	jmp    404f <_ZSt16__introsort_loopIPdlN9__gnu_cxx5__ops15_Iter_less_iterEEvT_S4_T0_T1_.isra.0+0x2f>
    4152:	f2 0f 11 55 00       	movsd  %xmm2,0x0(%rbp)
    4157:	f2 0f 11 08          	movsd  %xmm1,(%rax)
    415b:	f2 0f 10 4d 08       	movsd  0x8(%rbp),%xmm1
    4160:	f2 0f 10 45 00       	movsd  0x0(%rbp),%xmm0
    4165:	f2 0f 10 56 f8       	movsd  -0x8(%rsi),%xmm2
    416a:	e9 2b ff ff ff       	jmp    409a <_ZSt16__introsort_loopIPdlN9__gnu_cxx5__ops15_Iter_less_iterEEvT_S4_T0_T1_.isra.0+0x7a>
    416f:	48 89 f3             	mov    %rsi,%rbx
    4172:	48 c1 f8 03          	sar    $0x3,%rax
    4176:	48 89 ef             	mov    %rbp,%rdi
    4179:	4c 8d 68 fe          	lea    -0x2(%rax),%r13
    417d:	48 89 c2             	mov    %rax,%rdx
    4180:	49 89 c4             	mov    %rax,%r12
    4183:	49 d1 fd             	sar    %r13
    4186:	f2 42 0f 10 44 ed 00 	movsd  0x0(%rbp,%r13,8),%xmm0
    418d:	4c 89 ee             	mov    %r13,%rsi
    4190:	e8 6b fd ff ff       	call   3f00 <_ZSt13__adjust_heapIPdldN9__gnu_cxx5__ops15_Iter_less_iterEEvT_T0_S5_T1_T2_.isra.0>
    4195:	49 83 ed 01          	sub    $0x1,%r13
    4199:	4c 89 e2             	mov    %r12,%rdx
    419c:	48 89 ef             	mov    %rbp,%rdi
    419f:	f2 42 0f 10 44 ed 00 	movsd  0x0(%rbp,%r13,8),%xmm0
    41a6:	4c 89 ee             	mov    %r13,%rsi
    41a9:	e8 52 fd ff ff       	call   3f00 <_ZSt13__adjust_heapIPdldN9__gnu_cxx5__ops15_Iter_less_iterEEvT_T0_S5_T1_T2_.isra.0>
    41ae:	4d 85 ed             	test   %r13,%r13
    41b1:	75 e2                	jne    4195 <_ZSt16__introsort_loopIPdlN9__gnu_cxx5__ops15_Iter_less_iterEEvT_S4_T0_T1_.isra.0+0x175>
    41b3:	0f 1f 44 00 00       	nopl   0x0(%rax,%rax,1)
    41b8:	48 83 eb 08          	sub    $0x8,%rbx
    41bc:	f2 0f 10 4d 00       	movsd  0x0(%rbp),%xmm1
    41c1:	f2 0f 10 03          	movsd  (%rbx),%xmm0
    41c5:	31 f6                	xor    %esi,%esi
    41c7:	49 89 dc             	mov    %rbx,%r12
    41ca:	48 89 ef             	mov    %rbp,%rdi
    41cd:	49 29 ec             	sub    %rbp,%r12
    41d0:	f2 0f 11 0b          	movsd  %xmm1,(%rbx)
    41d4:	4c 89 e2             	mov    %r12,%rdx
    41d7:	48 c1 fa 03          	sar    $0x3,%rdx
    41db:	e8 20 fd ff ff       	call   3f00 <_ZSt13__adjust_heapIPdldN9__gnu_cxx5__ops15_Iter_less_iterEEvT_T0_S5_T1_T2_.isra.0>
    41e0:	49 83 fc 08          	cmp    $0x8,%r12
    41e4:	7f d2                	jg     41b8 <_ZSt16__introsort_loopIPdlN9__gnu_cxx5__ops15_Iter_less_iterEEvT_S4_T0_T1_.isra.0+0x198>
    41e6:	48 83 c4 08          	add    $0x8,%rsp
    41ea:	5b                   	pop    %rbx
    41eb:	5d                   	pop    %rbp
    41ec:	41 5c                	pop    %r12
    41ee:	41 5d                	pop    %r13
    41f0:	c3                   	ret    
    41f1:	c3                   	ret    
    41f2:	66 66 2e 0f 1f 84 00 	data16 cs nopw 0x0(%rax,%rax,1)
    41f9:	00 00 00 00 
    41fd:	0f 1f 00             	nopl   (%rax)

0000000000004200 <_ZNSt7__cxx1112basic_stringIcSt11char_traitsIcESaIcEEC2IS3_EEPKcRKS3_.constprop.0>:
    4200:	41 55                	push   %r13
    4202:	41 54                	push   %r12
    4204:	4c 8d 67 10          	lea    0x10(%rdi),%r12
    4208:	55                   	push   %rbp
    4209:	53                   	push   %rbx
    420a:	48 83 ec 18          	sub    $0x18,%rsp
    420e:	64 48 8b 04 25 28 00 	mov    %fs:0x28,%rax
    4215:	00 00 
    4217:	48 89 44 24 08       	mov    %rax,0x8(%rsp)
    421c:	31 c0                	xor    %eax,%eax
    421e:	4c 89 27             	mov    %r12,(%rdi)
    4221:	48 85 f6             	test   %rsi,%rsi
    4224:	0f 84 9d 00 00 00    	je     42c7 <_ZNSt7__cxx1112basic_stringIcSt11char_traitsIcESaIcEEC2IS3_EEPKcRKS3_.constprop.0+0xc7>
    422a:	48 89 fb             	mov    %rdi,%rbx
    422d:	48 89 f7             	mov    %rsi,%rdi
    4230:	48 89 f5             	mov    %rsi,%rbp
    4233:	e8 38 e2 ff ff       	call   2470 <strlen@plt>
    4238:	48 89 04 24          	mov    %rax,(%rsp)
    423c:	49 89 c5             	mov    %rax,%r13
    423f:	48 83 f8 0f          	cmp    $0xf,%rax
    4243:	77 4b                	ja     4290 <_ZNSt7__cxx1112basic_stringIcSt11char_traitsIcESaIcEEC2IS3_EEPKcRKS3_.constprop.0+0x90>
    4245:	48 83 f8 01          	cmp    $0x1,%rax
    4249:	75 35                	jne    4280 <_ZNSt7__cxx1112basic_stringIcSt11char_traitsIcESaIcEEC2IS3_EEPKcRKS3_.constprop.0+0x80>
    424b:	0f b6 55 00          	movzbl 0x0(%rbp),%edx
    424f:	88 53 10             	mov    %dl,0x10(%rbx)
    4252:	48 89 43 08          	mov    %rax,0x8(%rbx)
    4256:	41 c6 04 04 00       	movb   $0x0,(%r12,%rax,1)
    425b:	48 8b 44 24 08       	mov    0x8(%rsp),%rax
    4260:	64 48 2b 04 25 28 00 	sub    %fs:0x28,%rax
    4267:	00 00 
    4269:	75 57                	jne    42c2 <_ZNSt7__cxx1112basic_stringIcSt11char_traitsIcESaIcEEC2IS3_EEPKcRKS3_.constprop.0+0xc2>
    426b:	48 83 c4 18          	add    $0x18,%rsp
    426f:	5b                   	pop    %rbx
    4270:	5d                   	pop    %rbp
    4271:	41 5c                	pop    %r12
    4273:	41 5d                	pop    %r13
    4275:	c3                   	ret    
    4276:	66 2e 0f 1f 84 00 00 	cs nopw 0x0(%rax,%rax,1)
    427d:	00 00 00 
    4280:	48 85 c0             	test   %rax,%rax
    4283:	74 cd                	je     4252 <_ZNSt7__cxx1112basic_stringIcSt11char_traitsIcESaIcEEC2IS3_EEPKcRKS3_.constprop.0+0x52>
    4285:	eb 24                	jmp    42ab <_ZNSt7__cxx1112basic_stringIcSt11char_traitsIcESaIcEEC2IS3_EEPKcRKS3_.constprop.0+0xab>
    4287:	66 0f 1f 84 00 00 00 	nopw   0x0(%rax,%rax,1)
    428e:	00 00 
    4290:	48 89 e6             	mov    %rsp,%rsi
    4293:	31 d2                	xor    %edx,%edx
    4295:	48 89 df             	mov    %rbx,%rdi
    4298:	e8 a3 e4 ff ff       	call   2740 <_ZNSt7__cxx1112basic_stringIcSt11char_traitsIcESaIcEE9_M_createERmm@plt>
    429d:	48 89 03             	mov    %rax,(%rbx)
    42a0:	49 89 c4             	mov    %rax,%r12
    42a3:	48 8b 04 24          	mov    (%rsp),%rax
    42a7:	48 89 43 10          	mov    %rax,0x10(%rbx)
    42ab:	4c 89 e7             	mov    %r12,%rdi
    42ae:	4c 89 ea             	mov    %r13,%rdx
    42b1:	48 89 ee             	mov    %rbp,%rsi
    42b4:	e8 77 e2 ff ff       	call   2530 <memcpy@plt>
    42b9:	48 8b 04 24          	mov    (%rsp),%rax
    42bd:	4c 8b 23             	mov    (%rbx),%r12
    42c0:	eb 90                	jmp    4252 <_ZNSt7__cxx1112basic_stringIcSt11char_traitsIcESaIcEEC2IS3_EEPKcRKS3_.constprop.0+0x52>
    42c2:	e8 09 e3 ff ff       	call   25d0 <__stack_chk_fail@plt>
    42c7:	48 8d 3d 3a 7d 00 00 	lea    0x7d3a(%rip),%rdi        # c008 <_IO_stdin_used+0x8>
    42ce:	e8 3d e2 ff ff       	call   2510 <_ZSt19__throw_logic_errorPKc@plt>
    42d3:	66 66 2e 0f 1f 84 00 	data16 cs nopw 0x0(%rax,%rax,1)
    42da:	00 00 00 00 
    42de:	66 90                	xchg   %ax,%ax

00000000000042e0 <_Z7angleofdd>:
    42e0:	f3 0f 1e fa          	endbr64 
    42e4:	66 0f ef db          	pxor   %xmm3,%xmm3
    42e8:	66 0f 28 d0          	movapd %xmm0,%xmm2
    42ec:	66 0f 2e c3          	ucomisd %xmm3,%xmm0
    42f0:	7a 16                	jp     4308 <_Z7angleofdd+0x28>
    42f2:	75 14                	jne    4308 <_Z7angleofdd+0x28>
    42f4:	66 0f 2f cb          	comisd %xmm3,%xmm1
    42f8:	f2 0f 10 05 90 85 00 	movsd  0x8590(%rip),%xmm0        # c890 <_IO_stdin_used+0x890>
    42ff:	00 
    4300:	76 66                	jbe    4368 <_Z7angleofdd+0x88>
    4302:	c3                   	ret    
    4303:	0f 1f 44 00 00       	nopl   0x0(%rax,%rax,1)
    4308:	66 0f 28 c1          	movapd %xmm1,%xmm0
    430c:	48 83 ec 18          	sub    $0x18,%rsp
    4310:	f2 0f 5e c2          	divsd  %xmm2,%xmm0
    4314:	f2 0f 11 4c 24 08    	movsd  %xmm1,0x8(%rsp)
    431a:	f2 0f 11 14 24       	movsd  %xmm2,(%rsp)
    431f:	e8 1c e2 ff ff       	call   2540 <atan@plt>
    4324:	f2 0f 10 4c 24 08    	movsd  0x8(%rsp),%xmm1
    432a:	66 0f ef db          	pxor   %xmm3,%xmm3
    432e:	f2 0f 10 14 24       	movsd  (%rsp),%xmm2
    4333:	66 0f 2f d9          	comisd %xmm1,%xmm3
    4337:	77 17                	ja     4350 <_Z7angleofdd+0x70>
    4339:	66 0f 2f cb          	comisd %xmm3,%xmm1
    433d:	76 41                	jbe    4380 <_Z7angleofdd+0xa0>
    433f:	66 0f 2f da          	comisd %xmm2,%xmm3
    4343:	77 53                	ja     4398 <_Z7angleofdd+0xb8>
    4345:	48 83 c4 18          	add    $0x18,%rsp
    4349:	c3                   	ret    
    434a:	66 0f 1f 44 00 00    	nopw   0x0(%rax,%rax,1)
    4350:	66 0f 2f d3          	comisd %xmm3,%xmm2
    4354:	76 42                	jbe    4398 <_Z7angleofdd+0xb8>
    4356:	f2 0f 58 05 4a 85 00 	addsd  0x854a(%rip),%xmm0        # c8a8 <_IO_stdin_used+0x8a8>
    435d:	00 
    435e:	48 83 c4 18          	add    $0x18,%rsp
    4362:	c3                   	ret    
    4363:	0f 1f 44 00 00       	nopl   0x0(%rax,%rax,1)
    4368:	f2 0f c2 cb 01       	cmpltsd %xmm3,%xmm1
    436d:	f2 0f 10 05 23 85 00 	movsd  0x8523(%rip),%xmm0        # c898 <_IO_stdin_used+0x898>
    4374:	00 
    4375:	66 0f 54 c1          	andpd  %xmm1,%xmm0
    4379:	c3                   	ret    
    437a:	66 0f 1f 44 00 00    	nopw   0x0(%rax,%rax,1)
    4380:	66 0f 2f d3          	comisd %xmm3,%xmm2
    4384:	66 0f 28 c3          	movapd %xmm3,%xmm0
    4388:	77 bb                	ja     4345 <_Z7angleofdd+0x65>
    438a:	f2 0f 10 05 0e 85 00 	movsd  0x850e(%rip),%xmm0        # c8a0 <_IO_stdin_used+0x8a0>
    4391:	00 
    4392:	eb b1                	jmp    4345 <_Z7angleofdd+0x65>
    4394:	0f 1f 40 00          	nopl   0x0(%rax)
    4398:	f2 0f 58 05 00 85 00 	addsd  0x8500(%rip),%xmm0        # c8a0 <_IO_stdin_used+0x8a0>
    439f:	00 
    43a0:	48 83 c4 18          	add    $0x18,%rsp
    43a4:	c3                   	ret    
    43a5:	66 66 2e 0f 1f 84 00 	data16 cs nopw 0x0(%rax,%rax,1)
    43ac:	00 00 00 00 

00000000000043b0 <_Z18compute_spheremeshdjj>:
    43b0:	f3 0f 1e fa          	endbr64 
    43b4:	41 57                	push   %r15
    43b6:	ba 04 00 00 00       	mov    $0x4,%edx
    43bb:	41 56                	push   %r14
    43bd:	41 89 f6             	mov    %esi,%r14d
    43c0:	41 55                	push   %r13
    43c2:	41 54                	push   %r12
    43c4:	55                   	push   %rbp
    43c5:	53                   	push   %rbx
    43c6:	89 fb                	mov    %edi,%ebx
    43c8:	89 df                	mov    %ebx,%edi
    43ca:	48 81 ec 88 00 00 00 	sub    $0x88,%rsp
    43d1:	f2 0f 11 44 24 40    	movsd  %xmm0,0x40(%rsp)
    43d7:	e8 14 48 00 00       	call   8bf0 <_Z10allocate3djjj>
    43dc:	66 0f ef c9          	pxor   %xmm1,%xmm1
    43e0:	f2 0f 10 05 b8 84 00 	movsd  0x84b8(%rip),%xmm0        # c8a0 <_IO_stdin_used+0x8a0>
    43e7:	00 
    43e8:	48 89 44 24 68       	mov    %rax,0x68(%rsp)
    43ed:	48 89 c1             	mov    %rax,%rcx
    43f0:	8d 04 1b             	lea    (%rbx,%rbx,1),%eax
    43f3:	f2 48 0f 2a c8       	cvtsi2sd %rax,%xmm1
    43f8:	66 0f 28 d8          	movapd %xmm0,%xmm3
    43fc:	f2 0f 5e d9          	divsd  %xmm1,%xmm3
    4400:	f2 0f 11 5c 24 30    	movsd  %xmm3,0x30(%rsp)
    4406:	85 db                	test   %ebx,%ebx
    4408:	0f 84 b7 01 00 00    	je     45c5 <_Z18compute_spheremeshdjj+0x215>
    440e:	f2 0f 10 54 24 40    	movsd  0x40(%rsp),%xmm2
    4414:	66 0f ef c9          	pxor   %xmm1,%xmm1
    4418:	44 89 f0             	mov    %r14d,%eax
    441b:	f2 48 0f 2a cb       	cvtsi2sd %rbx,%xmm1
    4420:	66 0f 28 da          	movapd %xmm2,%xmm3
    4424:	f2 0f 59 da          	mulsd  %xmm2,%xmm3
    4428:	f2 0f 10 15 60 84 00 	movsd  0x8460(%rip),%xmm2        # c890 <_IO_stdin_used+0x890>
    442f:	00 
    4430:	f2 0f 5e d1          	divsd  %xmm1,%xmm2
    4434:	f2 0f 11 5c 24 48    	movsd  %xmm3,0x48(%rsp)
    443a:	f2 0f 10 1d 66 84 00 	movsd  0x8466(%rip),%xmm3        # c8a8 <_IO_stdin_used+0x8a8>
    4441:	00 
    4442:	f2 0f 5e c1          	divsd  %xmm1,%xmm0
    4446:	f2 0f 11 54 24 38    	movsd  %xmm2,0x38(%rsp)
    444c:	66 0f ef d2          	pxor   %xmm2,%xmm2
    4450:	f2 48 0f 2a d0       	cvtsi2sd %rax,%xmm2
    4455:	f2 0f 5e da          	divsd  %xmm2,%xmm3
    4459:	f2 0f 11 44 24 50    	movsd  %xmm0,0x50(%rsp)
    445f:	f2 0f 11 5c 24 08    	movsd  %xmm3,0x8(%rsp)
    4465:	45 85 f6             	test   %r14d,%r14d
    4468:	0f 84 57 01 00 00    	je     45c5 <_Z18compute_spheremeshdjj+0x215>
    446e:	48 8d 04 d9          	lea    (%rcx,%rbx,8),%rax
    4472:	49 89 cd             	mov    %rcx,%r13
    4475:	4c 8d 64 24 78       	lea    0x78(%rsp),%r12
    447a:	48 89 44 24 58       	mov    %rax,0x58(%rsp)
    447f:	41 8d 46 fe          	lea    -0x2(%r14),%eax
    4483:	48 8d 6c 24 70       	lea    0x70(%rsp),%rbp
    4488:	48 8d 04 c5 10 00 00 	lea    0x10(,%rax,8),%rax
    448f:	00 
    4490:	48 89 44 24 60       	mov    %rax,0x60(%rsp)
    4495:	0f 1f 00             	nopl   (%rax)
    4498:	f2 0f 10 44 24 30    	movsd  0x30(%rsp),%xmm0
    449e:	48 89 ee             	mov    %rbp,%rsi
    44a1:	4c 89 e7             	mov    %r12,%rdi
    44a4:	e8 f7 df ff ff       	call   24a0 <sincos@plt>
    44a9:	f2 0f 10 44 24 30    	movsd  0x30(%rsp),%xmm0
    44af:	f2 0f 5c 44 24 38    	subsd  0x38(%rsp),%xmm0
    44b5:	e8 b6 e2 ff ff       	call   2770 <cos@plt>
    44ba:	f2 0f 10 54 24 38    	movsd  0x38(%rsp),%xmm2
    44c0:	f2 0f 58 54 24 30    	addsd  0x30(%rsp),%xmm2
    44c6:	66 48 0f 7e c3       	movq   %xmm0,%rbx
    44cb:	66 0f 28 c2          	movapd %xmm2,%xmm0
    44cf:	e8 9c e2 ff ff       	call   2770 <cos@plt>
    44d4:	f2 0f 10 4c 24 70    	movsd  0x70(%rsp),%xmm1
    44da:	f2 0f 10 5c 24 40    	movsd  0x40(%rsp),%xmm3
    44e0:	66 0f 28 d0          	movapd %xmm0,%xmm2
    44e4:	66 48 0f 6e c3       	movq   %rbx,%xmm0
    44e9:	f2 0f 10 64 24 08    	movsd  0x8(%rsp),%xmm4
    44ef:	49 8b 5d 00          	mov    0x0(%r13),%rbx
    44f3:	f2 0f 59 cb          	mulsd  %xmm3,%xmm1
    44f7:	f2 0f 5c c2          	subsd  %xmm2,%xmm0
    44fb:	f2 0f 59 44 24 48    	mulsd  0x48(%rsp),%xmm0
    4501:	48 8b 03             	mov    (%rbx),%rax
    4504:	4c 8d 7b 08          	lea    0x8(%rbx),%r15
    4508:	f2 0f 59 5c 24 78    	mulsd  0x78(%rsp),%xmm3
    450e:	48 03 5c 24 60       	add    0x60(%rsp),%rbx
    4513:	66 0f 28 f9          	movapd %xmm1,%xmm7
    4517:	66 0f ef c9          	pxor   %xmm1,%xmm1
    451b:	f2 0f 59 c4          	mulsd  %xmm4,%xmm0
    451f:	f2 0f 59 cb          	mulsd  %xmm3,%xmm1
    4523:	66 0f 28 d3          	movapd %xmm3,%xmm2
    4527:	66 0f 14 d2          	unpcklpd %xmm2,%xmm2
    452b:	0f 29 54 24 20       	movaps %xmm2,0x20(%rsp)
    4530:	66 0f 14 f8          	unpcklpd %xmm0,%xmm7
    4534:	66 0f 28 c3          	movapd %xmm3,%xmm0
    4538:	66 0f 14 c1          	unpcklpd %xmm1,%xmm0
    453c:	66 0f ef c9          	pxor   %xmm1,%xmm1
    4540:	0f 29 7c 24 10       	movaps %xmm7,0x10(%rsp)
    4545:	f2 0f 58 cc          	addsd  %xmm4,%xmm1
    4549:	0f 11 00             	movups %xmm0,(%rax)
    454c:	0f 11 78 10          	movups %xmm7,0x10(%rax)
    4550:	41 83 fe 01          	cmp    $0x1,%r14d
    4554:	74 4e                	je     45a4 <_Z18compute_spheremeshdjj+0x1f4>
    4556:	66 2e 0f 1f 84 00 00 	cs nopw 0x0(%rax,%rax,1)
    455d:	00 00 00 
    4560:	66 0f 28 c1          	movapd %xmm1,%xmm0
    4564:	48 89 ee             	mov    %rbp,%rsi
    4567:	4c 89 e7             	mov    %r12,%rdi
    456a:	f2 0f 11 0c 24       	movsd  %xmm1,(%rsp)
    456f:	e8 2c df ff ff       	call   24a0 <sincos@plt>
    4574:	66 0f 10 44 24 70    	movupd 0x70(%rsp),%xmm0
    457a:	49 8b 17             	mov    (%r15),%rdx
    457d:	49 83 c7 08          	add    $0x8,%r15
    4581:	66 0f 59 44 24 20    	mulpd  0x20(%rsp),%xmm0
    4587:	66 0f 28 6c 24 10    	movapd 0x10(%rsp),%xmm5
    458d:	f2 0f 10 0c 24       	movsd  (%rsp),%xmm1
    4592:	f2 0f 58 4c 24 08    	addsd  0x8(%rsp),%xmm1
    4598:	0f 11 6a 10          	movups %xmm5,0x10(%rdx)
    459c:	0f 11 02             	movups %xmm0,(%rdx)
    459f:	4c 39 fb             	cmp    %r15,%rbx
    45a2:	75 bc                	jne    4560 <_Z18compute_spheremeshdjj+0x1b0>
    45a4:	f2 0f 10 5c 24 30    	movsd  0x30(%rsp),%xmm3
    45aa:	f2 0f 58 5c 24 50    	addsd  0x50(%rsp),%xmm3
    45b0:	49 83 c5 08          	add    $0x8,%r13
    45b4:	f2 0f 11 5c 24 30    	movsd  %xmm3,0x30(%rsp)
    45ba:	4c 39 6c 24 58       	cmp    %r13,0x58(%rsp)
    45bf:	0f 85 d3 fe ff ff    	jne    4498 <_Z18compute_spheremeshdjj+0xe8>
    45c5:	48 8b 44 24 68       	mov    0x68(%rsp),%rax
    45ca:	48 81 c4 88 00 00 00 	add    $0x88,%rsp
    45d1:	5b                   	pop    %rbx
    45d2:	5d                   	pop    %rbp
    45d3:	41 5c                	pop    %r12
    45d5:	41 5d                	pop    %r13
    45d7:	41 5e                	pop    %r14
    45d9:	41 5f                	pop    %r15
    45db:	c3                   	ret    
    45dc:	0f 1f 40 00          	nopl   0x0(%rax)

00000000000045e0 <_Z13compute_cubesdjPPd>:
    45e0:	f3 0f 1e fa          	endbr64 
    45e4:	53                   	push   %rbx
    45e5:	89 fb                	mov    %edi,%ebx
    45e7:	0f af ff             	imul   %edi,%edi
    45ea:	48 89 f2             	mov    %rsi,%rdx
    45ed:	be 03 00 00 00       	mov    $0x3,%esi
    45f2:	0f af fb             	imul   %ebx,%edi
    45f5:	48 83 ec 10          	sub    $0x10,%rsp
    45f9:	f2 0f 11 44 24 08    	movsd  %xmm0,0x8(%rsp)
    45ff:	c1 e7 03             	shl    $0x3,%edi
    4602:	e8 89 45 00 00       	call   8b90 <_Z10allocate2djjPPd>
    4607:	66 0f ef c0          	pxor   %xmm0,%xmm0
    460b:	f2 0f 10 54 24 08    	movsd  0x8(%rsp),%xmm2
    4611:	f2 0f 10 3d 97 82 00 	movsd  0x8297(%rip),%xmm7        # c8b0 <_IO_stdin_used+0x8b0>
    4618:	00 
    4619:	49 89 c1             	mov    %rax,%r9
    461c:	89 d8                	mov    %ebx,%eax
    461e:	44 8d 04 1b          	lea    (%rbx,%rbx,1),%r8d
    4622:	f2 48 0f 2a c0       	cvtsi2sd %rax,%xmm0
    4627:	66 0f 28 da          	movapd %xmm2,%xmm3
    462b:	f2 0f 5e d8          	divsd  %xmm0,%xmm3
    462f:	f2 0f 59 fb          	mulsd  %xmm3,%xmm7
    4633:	45 85 c0             	test   %r8d,%r8d
    4636:	0f 8e 84 00 00 00    	jle    46c0 <_Z13compute_cubesdjPPd+0xe0>
    463c:	66 44 0f 28 c7       	movapd %xmm7,%xmm8
    4641:	31 db                	xor    %ebx,%ebx
    4643:	4d 8d 59 08          	lea    0x8(%r9),%r11
    4647:	31 ff                	xor    %edi,%edi
    4649:	45 8d 50 ff          	lea    -0x1(%r8),%r10d
    464d:	0f 1f 00             	nopl   (%rax)
    4650:	66 41 0f 28 e8       	movapd %xmm8,%xmm5
    4655:	66 0f 28 f7          	movapd %xmm7,%xmm6
    4659:	31 f6                	xor    %esi,%esi
    465b:	f2 0f 5c ea          	subsd  %xmm2,%xmm5
    465f:	90                   	nop
    4660:	66 0f 28 e6          	movapd %xmm6,%xmm4
    4664:	48 63 d7             	movslq %edi,%rdx
    4667:	66 0f 28 cf          	movapd %xmm7,%xmm1
    466b:	f2 0f 5c e2          	subsd  %xmm2,%xmm4
    466f:	49 8d 04 d1          	lea    (%r9,%rdx,8),%rax
    4673:	4c 01 d2             	add    %r10,%rdx
    4676:	49 8d 0c d3          	lea    (%r11,%rdx,8),%rcx
    467a:	66 0f 1f 44 00 00    	nopw   0x0(%rax,%rax,1)
    4680:	66 0f 28 c1          	movapd %xmm1,%xmm0
    4684:	48 8b 10             	mov    (%rax),%rdx
    4687:	48 83 c0 08          	add    $0x8,%rax
    468b:	f2 0f 58 cb          	addsd  %xmm3,%xmm1
    468f:	f2 0f 5c c2          	subsd  %xmm2,%xmm0
    4693:	f2 0f 11 6a 10       	movsd  %xmm5,0x10(%rdx)
    4698:	66 0f 14 c4          	unpcklpd %xmm4,%xmm0
    469c:	0f 11 02             	movups %xmm0,(%rdx)
    469f:	48 39 c8             	cmp    %rcx,%rax
    46a2:	75 dc                	jne    4680 <_Z13compute_cubesdjPPd+0xa0>
    46a4:	83 c6 01             	add    $0x1,%esi
    46a7:	f2 0f 58 f3          	addsd  %xmm3,%xmm6
    46ab:	44 01 c7             	add    %r8d,%edi
    46ae:	44 39 c6             	cmp    %r8d,%esi
    46b1:	75 ad                	jne    4660 <_Z13compute_cubesdjPPd+0x80>
    46b3:	83 c3 01             	add    $0x1,%ebx
    46b6:	f2 44 0f 58 c3       	addsd  %xmm3,%xmm8
    46bb:	44 39 c3             	cmp    %r8d,%ebx
    46be:	75 90                	jne    4650 <_Z13compute_cubesdjPPd+0x70>
    46c0:	48 83 c4 10          	add    $0x10,%rsp
    46c4:	4c 89 c8             	mov    %r9,%rax
    46c7:	5b                   	pop    %rbx
    46c8:	c3                   	ret    
    46c9:	0f 1f 80 00 00 00 00 	nopl   0x0(%rax)

00000000000046d0 <_Z8pressureddd>:
    46d0:	f3 0f 1e fa          	endbr64 
    46d4:	f2 0f 58 c1          	addsd  %xmm1,%xmm0
    46d8:	f2 0f 58 c2          	addsd  %xmm2,%xmm0
    46dc:	c3                   	ret    
    46dd:	0f 1f 00             	nopl   (%rax)

00000000000046e0 <_Z5pgradddd>:
    46e0:	f3 0f 1e fa          	endbr64 
    46e4:	66 0f 28 d8          	movapd %xmm0,%xmm3
    46e8:	66 0f 28 e8          	movapd %xmm0,%xmm5
    46ec:	66 0f 14 c1          	unpcklpd %xmm1,%xmm0
    46f0:	48 89 f8             	mov    %rdi,%rax
    46f3:	66 0f 28 35 25 82 00 	movapd 0x8225(%rip),%xmm6        # c920 <_IO_stdin_used+0x920>
    46fa:	00 
    46fb:	f2 0f 58 e9          	addsd  %xmm1,%xmm5
    46ff:	66 0f 14 cb          	unpcklpd %xmm3,%xmm1
    4703:	66 0f 28 e2          	movapd %xmm2,%xmm4
    4707:	66 0f 58 c6          	addpd  %xmm6,%xmm0
    470b:	f2 0f 58 e5          	addsd  %xmm5,%xmm4
    470f:	66 0f 58 c1          	addpd  %xmm1,%xmm0
    4713:	66 0f 28 ca          	movapd %xmm2,%xmm1
    4717:	66 0f 14 c9          	unpcklpd %xmm1,%xmm1
    471b:	66 0f 58 c1          	addpd  %xmm1,%xmm0
    471f:	66 0f 28 cc          	movapd %xmm4,%xmm1
    4723:	66 0f 14 c9          	unpcklpd %xmm1,%xmm1
    4727:	66 0f 5c c1          	subpd  %xmm1,%xmm0
    472b:	66 0f 5e c6          	divpd  %xmm6,%xmm0
    472f:	0f 11 07             	movups %xmm0,(%rdi)
    4732:	f2 0f 10 05 e6 81 00 	movsd  0x81e6(%rip),%xmm0        # c920 <_IO_stdin_used+0x920>
    4739:	00 
    473a:	f2 0f 58 d0          	addsd  %xmm0,%xmm2
    473e:	f2 0f 58 d5          	addsd  %xmm5,%xmm2
    4742:	f2 0f 5c d4          	subsd  %xmm4,%xmm2
    4746:	f2 0f 5e d0          	divsd  %xmm0,%xmm2
    474a:	f2 0f 11 57 10       	movsd  %xmm2,0x10(%rdi)
    474f:	c3                   	ret    

0000000000004750 <_Z8plaplacedddd>:
    4750:	f3 0f 1e fa          	endbr64 
    4754:	66 0f 28 f0          	movapd %xmm0,%xmm6
    4758:	66 0f 28 e8          	movapd %xmm0,%xmm5
    475c:	f2 0f 5c c3          	subsd  %xmm3,%xmm0
    4760:	66 0f 28 fe          	movapd %xmm6,%xmm7
    4764:	f2 0f 58 e9          	addsd  %xmm1,%xmm5
    4768:	66 0f 28 e2          	movapd %xmm2,%xmm4
    476c:	f2 0f 58 fb          	addsd  %xmm3,%xmm7
    4770:	f2 0f 58 c1          	addsd  %xmm1,%xmm0
    4774:	f2 0f 58 e5          	addsd  %xmm5,%xmm4
    4778:	f2 0f 58 f9          	addsd  %xmm1,%xmm7
    477c:	f2 0f 58 c2          	addsd  %xmm2,%xmm0
    4780:	f2 0f 58 e4          	addsd  %xmm4,%xmm4
    4784:	f2 0f 58 fa          	addsd  %xmm2,%xmm7
    4788:	f2 0f 58 c7          	addsd  %xmm7,%xmm0
    478c:	66 0f 28 fb          	movapd %xmm3,%xmm7
    4790:	f2 0f 58 f9          	addsd  %xmm1,%xmm7
    4794:	f2 0f 5c cb          	subsd  %xmm3,%xmm1
    4798:	f2 0f 5c c4          	subsd  %xmm4,%xmm0
    479c:	f2 0f 58 fe          	addsd  %xmm6,%xmm7
    47a0:	f2 0f 58 ce          	addsd  %xmm6,%xmm1
    47a4:	f2 0f 58 fa          	addsd  %xmm2,%xmm7
    47a8:	f2 0f 58 ca          	addsd  %xmm2,%xmm1
    47ac:	f2 0f 58 c7          	addsd  %xmm7,%xmm0
    47b0:	f2 0f 58 c1          	addsd  %xmm1,%xmm0
    47b4:	66 0f 28 cb          	movapd %xmm3,%xmm1
    47b8:	f2 0f 58 ca          	addsd  %xmm2,%xmm1
    47bc:	f2 0f 5c d3          	subsd  %xmm3,%xmm2
    47c0:	f2 0f 5c c4          	subsd  %xmm4,%xmm0
    47c4:	f2 0f 58 cd          	addsd  %xmm5,%xmm1
    47c8:	f2 0f 58 d5          	addsd  %xmm5,%xmm2
    47cc:	f2 0f 58 c1          	addsd  %xmm1,%xmm0
    47d0:	f2 0f 58 c2          	addsd  %xmm2,%xmm0
    47d4:	f2 0f 5c c4          	subsd  %xmm4,%xmm0
    47d8:	f2 0f 5e c3          	divsd  %xmm3,%xmm0
    47dc:	f2 0f 5e c3          	divsd  %xmm3,%xmm0
    47e0:	c3                   	ret    
    47e1:	66 66 2e 0f 1f 84 00 	data16 cs nopw 0x0(%rax,%rax,1)
    47e8:	00 00 00 00 
    47ec:	0f 1f 40 00          	nopl   0x0(%rax)

00000000000047f0 <_Z9checkcubedddddddd>:
    47f0:	f3 0f 1e fa          	endbr64 
    47f4:	f2 0f 5c de          	subsd  %xmm6,%xmm3
    47f8:	f2 0f 5c d5          	subsd  %xmm5,%xmm2
    47fc:	66 44 0f 28 c0       	movapd %xmm0,%xmm8
    4801:	48 83 ec 28          	sub    $0x28,%rsp
    4805:	f2 0f 5c e7          	subsd  %xmm7,%xmm4
    4809:	66 0f ef c0          	pxor   %xmm0,%xmm0
    480d:	f2 0f 59 d2          	mulsd  %xmm2,%xmm2
    4811:	f2 0f 59 db          	mulsd  %xmm3,%xmm3
    4815:	f2 0f 59 e4          	mulsd  %xmm4,%xmm4
    4819:	f2 0f 58 d3          	addsd  %xmm3,%xmm2
    481d:	f2 0f 58 e2          	addsd  %xmm2,%xmm4
    4821:	66 0f 2e c4          	ucomisd %xmm4,%xmm0
    4825:	77 30                	ja     4857 <_Z9checkcubedddddddd+0x67>
    4827:	f2 0f 51 e4          	sqrtsd %xmm4,%xmm4
    482b:	66 0f 28 c1          	movapd %xmm1,%xmm0
    482f:	f2 0f 58 c4          	addsd  %xmm4,%xmm0
    4833:	66 44 0f 2f c0       	comisd %xmm0,%xmm8
    4838:	77 16                	ja     4850 <_Z9checkcubedddddddd+0x60>
    483a:	f2 0f 5c e1          	subsd  %xmm1,%xmm4
    483e:	31 c0                	xor    %eax,%eax
    4840:	66 41 0f 2f e0       	comisd %xmm8,%xmm4
    4845:	0f 97 c0             	seta   %al
    4848:	f7 d8                	neg    %eax
    484a:	48 83 c4 28          	add    $0x28,%rsp
    484e:	c3                   	ret    
    484f:	90                   	nop
    4850:	b8 ff ff ff ff       	mov    $0xffffffff,%eax
    4855:	eb f3                	jmp    484a <_Z9checkcubedddddddd+0x5a>
    4857:	66 0f 28 c4          	movapd %xmm4,%xmm0
    485b:	f2 0f 11 4c 24 18    	movsd  %xmm1,0x18(%rsp)
    4861:	f2 44 0f 11 44 24 10 	movsd  %xmm8,0x10(%rsp)
    4868:	f2 0f 11 64 24 08    	movsd  %xmm4,0x8(%rsp)
    486e:	e8 ad dc ff ff       	call   2520 <sqrt@plt>
    4873:	f2 0f 10 4c 24 18    	movsd  0x18(%rsp),%xmm1
    4879:	f2 44 0f 10 44 24 10 	movsd  0x10(%rsp),%xmm8
    4880:	f2 0f 10 64 24 08    	movsd  0x8(%rsp),%xmm4
    4886:	f2 0f 58 c1          	addsd  %xmm1,%xmm0
    488a:	66 44 0f 2f c0       	comisd %xmm0,%xmm8
    488f:	77 bf                	ja     4850 <_Z9checkcubedddddddd+0x60>
    4891:	66 0f 28 c4          	movapd %xmm4,%xmm0
    4895:	f2 0f 11 4c 24 10    	movsd  %xmm1,0x10(%rsp)
    489b:	f2 44 0f 11 44 24 08 	movsd  %xmm8,0x8(%rsp)
    48a2:	e8 79 dc ff ff       	call   2520 <sqrt@plt>
    48a7:	f2 44 0f 10 44 24 08 	movsd  0x8(%rsp),%xmm8
    48ae:	f2 0f 10 4c 24 10    	movsd  0x10(%rsp),%xmm1
    48b4:	66 0f 28 e0          	movapd %xmm0,%xmm4
    48b8:	eb 80                	jmp    483a <_Z9checkcubedddddddd+0x4a>
    48ba:	66 0f 1f 44 00 00    	nopw   0x0(%rax,%rax,1)

00000000000048c0 <_Z5gradvdddidPPPPd>:
    48c0:	f3 0f 1e fa          	endbr64 
    48c4:	41 57                	push   %r15
    48c6:	41 89 f0             	mov    %esi,%r8d
    48c9:	49 89 ff             	mov    %rdi,%r15
    48cc:	45 31 c9             	xor    %r9d,%r9d
    48cf:	41 56                	push   %r14
    48d1:	f2 44 0f 2c f2       	cvttsd2si %xmm2,%r14d
    48d6:	41 55                	push   %r13
    48d8:	f2 44 0f 2c e9       	cvttsd2si %xmm1,%r13d
    48dd:	41 54                	push   %r12
    48df:	f2 44 0f 2c e0       	cvttsd2si %xmm0,%r12d
    48e4:	66 0f 28 c3          	movapd %xmm3,%xmm0
    48e8:	55                   	push   %rbp
    48e9:	48 89 d5             	mov    %rdx,%rbp
    48ec:	53                   	push   %rbx
    48ed:	44 89 f1             	mov    %r14d,%ecx
    48f0:	89 f3                	mov    %esi,%ebx
    48f2:	48 89 ef             	mov    %rbp,%rdi
    48f5:	44 89 ea             	mov    %r13d,%edx
    48f8:	44 89 e6             	mov    %r12d,%esi
    48fb:	48 83 ec 60          	sub    $0x60,%rsp
    48ff:	6a 00                	push   $0x0
    4901:	f2 0f 11 5c 24 10    	movsd  %xmm3,0x10(%rsp)
    4907:	e8 d4 4b 00 00       	call   94e0 <_Z7partdifPPPPdiiiidii>
    490c:	41 89 d8             	mov    %ebx,%r8d
    490f:	44 89 f1             	mov    %r14d,%ecx
    4912:	44 89 ea             	mov    %r13d,%edx
    4915:	f2 0f 10 5c 24 10    	movsd  0x10(%rsp),%xmm3
    491b:	f2 0f 11 44 24 28    	movsd  %xmm0,0x28(%rsp)
    4921:	44 89 e6             	mov    %r12d,%esi
    4924:	48 89 ef             	mov    %rbp,%rdi
    4927:	41 b9 01 00 00 00    	mov    $0x1,%r9d
    492d:	c7 04 24 00 00 00 00 	movl   $0x0,(%rsp)
    4934:	66 0f 28 c3          	movapd %xmm3,%xmm0
    4938:	e8 a3 4b 00 00       	call   94e0 <_Z7partdifPPPPdiiiidii>
    493d:	41 89 d8             	mov    %ebx,%r8d
    4940:	44 89 f1             	mov    %r14d,%ecx
    4943:	44 89 ea             	mov    %r13d,%edx
    4946:	f2 0f 10 5c 24 10    	movsd  0x10(%rsp),%xmm3
    494c:	f2 0f 10 6c 24 28    	movsd  0x28(%rsp),%xmm5
    4952:	44 89 e6             	mov    %r12d,%esi
    4955:	48 89 ef             	mov    %rbp,%rdi
    4958:	41 b9 02 00 00 00    	mov    $0x2,%r9d
    495e:	c7 04 24 00 00 00 00 	movl   $0x0,(%rsp)
    4965:	66 0f 14 e8          	unpcklpd %xmm0,%xmm5
    4969:	66 0f 28 c3          	movapd %xmm3,%xmm0
    496d:	0f 29 6c 24 50       	movaps %xmm5,0x50(%rsp)
    4972:	e8 69 4b 00 00       	call   94e0 <_Z7partdifPPPPdiiiidii>
    4977:	41 89 d8             	mov    %ebx,%r8d
    497a:	44 89 f1             	mov    %r14d,%ecx
    497d:	44 89 ea             	mov    %r13d,%edx
    4980:	f2 0f 10 5c 24 10    	movsd  0x10(%rsp),%xmm3
    4986:	44 89 e6             	mov    %r12d,%esi
    4989:	48 89 ef             	mov    %rbp,%rdi
    498c:	45 31 c9             	xor    %r9d,%r9d
    498f:	f2 0f 11 44 24 28    	movsd  %xmm0,0x28(%rsp)
    4995:	66 0f 28 c3          	movapd %xmm3,%xmm0
    4999:	c7 04 24 01 00 00 00 	movl   $0x1,(%rsp)
    49a0:	e8 3b 4b 00 00       	call   94e0 <_Z7partdifPPPPdiiiidii>
    49a5:	41 89 d8             	mov    %ebx,%r8d
    49a8:	44 89 f1             	mov    %r14d,%ecx
    49ab:	44 89 ea             	mov    %r13d,%edx
    49ae:	f2 0f 10 5c 24 10    	movsd  0x10(%rsp),%xmm3
    49b4:	f2 0f 10 64 24 28    	movsd  0x28(%rsp),%xmm4
    49ba:	44 89 e6             	mov    %r12d,%esi
    49bd:	48 89 ef             	mov    %rbp,%rdi
    49c0:	41 b9 01 00 00 00    	mov    $0x1,%r9d
    49c6:	c7 04 24 01 00 00 00 	movl   $0x1,(%rsp)
    49cd:	66 0f 14 e0          	unpcklpd %xmm0,%xmm4
    49d1:	66 0f 28 c3          	movapd %xmm3,%xmm0
    49d5:	0f 29 64 24 40       	movaps %xmm4,0x40(%rsp)
    49da:	e8 01 4b 00 00       	call   94e0 <_Z7partdifPPPPdiiiidii>
    49df:	41 89 d8             	mov    %ebx,%r8d
    49e2:	44 89 f1             	mov    %r14d,%ecx
    49e5:	44 89 ea             	mov    %r13d,%edx
    49e8:	f2 0f 10 5c 24 10    	movsd  0x10(%rsp),%xmm3
    49ee:	f2 0f 11 44 24 28    	movsd  %xmm0,0x28(%rsp)
    49f4:	44 89 e6             	mov    %r12d,%esi
    49f7:	48 89 ef             	mov    %rbp,%rdi
    49fa:	41 b9 02 00 00 00    	mov    $0x2,%r9d
    4a00:	c7 04 24 01 00 00 00 	movl   $0x1,(%rsp)
    4a07:	66 0f 28 c3          	movapd %xmm3,%xmm0
    4a0b:	e8 d0 4a 00 00       	call   94e0 <_Z7partdifPPPPdiiiidii>
    4a10:	41 89 d8             	mov    %ebx,%r8d
    4a13:	44 89 f1             	mov    %r14d,%ecx
    4a16:	44 89 ea             	mov    %r13d,%edx
    4a19:	f2 0f 10 5c 24 10    	movsd  0x10(%rsp),%xmm3
    4a1f:	44 89 e6             	mov    %r12d,%esi
    4a22:	48 89 ef             	mov    %rbp,%rdi
    4a25:	45 31 c9             	xor    %r9d,%r9d
    4a28:	f2 0f 10 54 24 28    	movsd  0x28(%rsp),%xmm2
    4a2e:	c7 04 24 02 00 00 00 	movl   $0x2,(%rsp)
    4a35:	f2 0f 11 5c 24 28    	movsd  %xmm3,0x28(%rsp)
    4a3b:	66 0f 14 d0          	unpcklpd %xmm0,%xmm2
    4a3f:	66 0f 28 c3          	movapd %xmm3,%xmm0
    4a43:	0f 29 54 24 30       	movaps %xmm2,0x30(%rsp)
    4a48:	e8 93 4a 00 00       	call   94e0 <_Z7partdifPPPPdiiiidii>
    4a4d:	41 89 d8             	mov    %ebx,%r8d
    4a50:	44 89 f1             	mov    %r14d,%ecx
    4a53:	44 89 ea             	mov    %r13d,%edx
    4a56:	f2 0f 10 5c 24 28    	movsd  0x28(%rsp),%xmm3
    4a5c:	f2 0f 11 44 24 10    	movsd  %xmm0,0x10(%rsp)
    4a62:	44 89 e6             	mov    %r12d,%esi
    4a65:	48 89 ef             	mov    %rbp,%rdi
    4a68:	41 b9 01 00 00 00    	mov    $0x1,%r9d
    4a6e:	c7 04 24 02 00 00 00 	movl   $0x2,(%rsp)
    4a75:	66 0f 28 c3          	movapd %xmm3,%xmm0
    4a79:	e8 62 4a 00 00       	call   94e0 <_Z7partdifPPPPdiiiidii>
    4a7e:	41 89 d8             	mov    %ebx,%r8d
    4a81:	44 89 f1             	mov    %r14d,%ecx
    4a84:	44 89 ea             	mov    %r13d,%edx
    4a87:	f2 0f 10 4c 24 10    	movsd  0x10(%rsp),%xmm1
    4a8d:	f2 0f 10 5c 24 28    	movsd  0x28(%rsp),%xmm3
    4a93:	44 89 e6             	mov    %r12d,%esi
    4a96:	48 89 ef             	mov    %rbp,%rdi
    4a99:	41 b9 02 00 00 00    	mov    $0x2,%r9d
    4a9f:	c7 04 24 02 00 00 00 	movl   $0x2,(%rsp)
    4aa6:	66 0f 14 c8          	unpcklpd %xmm0,%xmm1
    4aaa:	66 0f 28 c3          	movapd %xmm3,%xmm0
    4aae:	0f 29 4c 24 10       	movaps %xmm1,0x10(%rsp)
    4ab3:	e8 28 4a 00 00       	call   94e0 <_Z7partdifPPPPdiiiidii>
    4ab8:	66 0f 28 6c 24 50    	movapd 0x50(%rsp),%xmm5
    4abe:	4c 89 f8             	mov    %r15,%rax
    4ac1:	66 0f 28 64 24 40    	movapd 0x40(%rsp),%xmm4
    4ac7:	66 0f 28 54 24 30    	movapd 0x30(%rsp),%xmm2
    4acd:	66 0f 28 4c 24 10    	movapd 0x10(%rsp),%xmm1
    4ad3:	f2 41 0f 11 47 40    	movsd  %xmm0,0x40(%r15)
    4ad9:	41 0f 11 2f          	movups %xmm5,(%r15)
    4add:	41 0f 11 67 10       	movups %xmm4,0x10(%r15)
    4ae2:	41 0f 11 57 20       	movups %xmm2,0x20(%r15)
    4ae7:	41 0f 11 4f 30       	movups %xmm1,0x30(%r15)
    4aec:	48 83 c4 68          	add    $0x68,%rsp
    4af0:	5b                   	pop    %rbx
    4af1:	5d                   	pop    %rbp
    4af2:	41 5c                	pop    %r12
    4af4:	41 5d                	pop    %r13
    4af6:	41 5e                	pop    %r14
    4af8:	41 5f                	pop    %r15
    4afa:	c3                   	ret    
    4afb:	0f 1f 44 00 00       	nopl   0x0(%rax,%rax,1)

0000000000004b00 <_Z5forcedddjjddidPPdRKSt6vectorIiSaIiEEPS0_PPP6tensor>:
    4b00:	f3 0f 1e fa          	endbr64 
    4b04:	41 57                	push   %r15
    4b06:	66 0f 28 fb          	movapd %xmm3,%xmm7
    4b0a:	41 56                	push   %r14
    4b0c:	66 0f 14 ff          	unpcklpd %xmm7,%xmm7
    4b10:	41 55                	push   %r13
    4b12:	41 54                	push   %r12
    4b14:	49 89 fc             	mov    %rdi,%r12
    4b17:	55                   	push   %rbp
    4b18:	53                   	push   %rbx
    4b19:	48 81 ec b8 01 00 00 	sub    $0x1b8,%rsp
    4b20:	48 8b 84 24 f8 01 00 	mov    0x1f8(%rsp),%rax
    4b27:	00 
    4b28:	48 8b bc 24 f0 01 00 	mov    0x1f0(%rsp),%rdi
    4b2f:	00 
    4b30:	89 54 24 7c          	mov    %edx,0x7c(%rsp)
    4b34:	89 b4 24 d4 00 00 00 	mov    %esi,0xd4(%rsp)
    4b3b:	4c 89 84 24 a0 00 00 	mov    %r8,0xa0(%rsp)
    4b42:	00 
    4b43:	48 89 bc 24 68 01 00 	mov    %rdi,0x168(%rsp)
    4b4a:	00 
    4b4b:	48 89 84 24 48 01 00 	mov    %rax,0x148(%rsp)
    4b52:	00 
    4b53:	f2 0f 11 84 24 b0 00 	movsd  %xmm0,0xb0(%rsp)
    4b5a:	00 00 
    4b5c:	66 0f ef c0          	pxor   %xmm0,%xmm0
    4b60:	f2 0f 11 8c 24 c8 00 	movsd  %xmm1,0xc8(%rsp)
    4b67:	00 00 
    4b69:	f2 0f 11 94 24 80 00 	movsd  %xmm2,0x80(%rsp)
    4b70:	00 00 
    4b72:	f2 0f 11 5c 24 40    	movsd  %xmm3,0x40(%rsp)
    4b78:	64 48 8b 04 25 28 00 	mov    %fs:0x28,%rax
    4b7f:	00 00 
    4b81:	48 89 84 24 a8 01 00 	mov    %rax,0x1a8(%rsp)
    4b88:	00 
    4b89:	31 c0                	xor    %eax,%eax
    4b8b:	0f 29 bc 24 30 01 00 	movaps %xmm7,0x130(%rsp)
    4b92:	00 
    4b93:	66 0f ef ff          	pxor   %xmm7,%xmm7
    4b97:	f2 0f 2a f9          	cvtsi2sd %ecx,%xmm7
    4b9b:	41 0f 11 04 24       	movups %xmm0,(%r12)
    4ba0:	49 c7 44 24 10 00 00 	movq   $0x0,0x10(%r12)
    4ba7:	00 00 
    4ba9:	f2 0f 11 bc 24 a8 00 	movsd  %xmm7,0xa8(%rsp)
    4bb0:	00 00 
    4bb2:	f2 0f 5e e7          	divsd  %xmm7,%xmm4
    4bb6:	f2 0f 59 25 f2 7c 00 	mulsd  0x7cf2(%rip),%xmm4        # c8b0 <_IO_stdin_used+0x8b0>
    4bbd:	00 
    4bbe:	f2 0f 11 64 24 70    	movsd  %xmm4,0x70(%rsp)
    4bc4:	48 85 ff             	test   %rdi,%rdi
    4bc7:	0f 84 19 15 00 00    	je     60e6 <_Z5forcedddjjddidPPdRKSt6vectorIiSaIiEEPS0_PPP6tensor+0x15e6>
    4bcd:	49 8b 41 08          	mov    0x8(%r9),%rax
    4bd1:	49 8b 19             	mov    (%r9),%rbx
    4bd4:	48 89 84 24 88 00 00 	mov    %rax,0x88(%rsp)
    4bdb:	00 
    4bdc:	48 39 d8             	cmp    %rbx,%rax
    4bdf:	0f 84 19 02 00 00    	je     4dfe <_Z5forcedddjjddidPPdRKSt6vectorIiSaIiEEPS0_PPP6tensor+0x2fe>
    4be5:	48 c7 44 24 48 00 00 	movq   $0x0,0x48(%rsp)
    4bec:	00 00 
    4bee:	89 d0                	mov    %edx,%eax
    4bf0:	66 0f 28 fb          	movapd %xmm3,%xmm7
    4bf4:	66 0f 57 3d 34 7d 00 	xorpd  0x7d34(%rip),%xmm7        # c930 <_IO_stdin_used+0x930>
    4bfb:	00 
    4bfc:	01 c0                	add    %eax,%eax
    4bfe:	89 84 24 d0 00 00 00 	mov    %eax,0xd0(%rsp)
    4c05:	f2 0f 11 7c 24 60    	movsd  %xmm7,0x60(%rsp)
    4c0b:	66 0f ef ff          	pxor   %xmm7,%xmm7
    4c0f:	0f 29 7c 24 50       	movaps %xmm7,0x50(%rsp)
    4c14:	0f 1f 40 00          	nopl   0x0(%rax)
    4c18:	48 63 03             	movslq (%rbx),%rax
    4c1b:	f2 0f 10 6c 24 70    	movsd  0x70(%rsp),%xmm5
    4c21:	48 8b 8c 24 a0 00 00 	mov    0xa0(%rsp),%rcx
    4c28:	00 
    4c29:	8b 6c 24 7c          	mov    0x7c(%rsp),%ebp
    4c2d:	f2 0f 10 a4 24 80 00 	movsd  0x80(%rsp),%xmm4
    4c34:	00 00 
    4c36:	48 8b 04 c1          	mov    (%rcx,%rax,8),%rax
    4c3a:	f2 0f 10 40 10       	movsd  0x10(%rax),%xmm0
    4c3f:	4c 8b 30             	mov    (%rax),%r14
    4c42:	f2 0f 10 78 08       	movsd  0x8(%rax),%xmm7
    4c47:	66 0f 28 c8          	movapd %xmm0,%xmm1
    4c4b:	f2 0f 58 c5          	addsd  %xmm5,%xmm0
    4c4f:	f2 0f 5c cd          	subsd  %xmm5,%xmm1
    4c53:	f2 0f 5c c4          	subsd  %xmm4,%xmm0
    4c57:	66 0f 28 f1          	movapd %xmm1,%xmm6
    4c5b:	f2 0f 5c f4          	subsd  %xmm4,%xmm6
    4c5f:	66 0f 2f 74 24 60    	comisd 0x60(%rsp),%xmm6
    4c65:	f2 0f 11 44 24 10    	movsd  %xmm0,0x10(%rsp)
    4c6b:	f2 0f 11 74 24 38    	movsd  %xmm6,0x38(%rsp)
    4c71:	0f 87 71 02 00 00    	ja     4ee8 <_Z5forcedddjjddidPPdRKSt6vectorIiSaIiEEPS0_PPP6tensor+0x3e8>
    4c77:	f2 0f 10 74 24 40    	movsd  0x40(%rsp),%xmm6
    4c7d:	45 31 ed             	xor    %r13d,%r13d
    4c80:	66 0f 2f 74 24 10    	comisd 0x10(%rsp),%xmm6
    4c86:	0f 87 a4 01 00 00    	ja     4e30 <_Z5forcedddjjddidPPdRKSt6vectorIiSaIiEEPS0_PPP6tensor+0x330>
    4c8c:	f2 0f 10 74 24 60    	movsd  0x60(%rsp),%xmm6
    4c92:	66 0f 2f 74 24 10    	comisd 0x10(%rsp),%xmm6
    4c98:	0f 87 1a 01 00 00    	ja     4db8 <_Z5forcedddjjddidPPdRKSt6vectorIiSaIiEEPS0_PPP6tensor+0x2b8>
    4c9e:	f2 0f 10 6c 24 38    	movsd  0x38(%rsp),%xmm5
    4ca4:	66 0f 2f 6c 24 40    	comisd 0x40(%rsp),%xmm5
    4caa:	0f 87 08 01 00 00    	ja     4db8 <_Z5forcedddjjddidPPdRKSt6vectorIiSaIiEEPS0_PPP6tensor+0x2b8>
    4cb0:	f2 0f 10 64 24 70    	movsd  0x70(%rsp),%xmm4
    4cb6:	66 0f 28 f7          	movapd %xmm7,%xmm6
    4cba:	66 49 0f 6e d6       	movq   %r14,%xmm2
    4cbf:	f2 0f 10 ac 24 c8 00 	movsd  0xc8(%rsp),%xmm5
    4cc6:	00 00 
    4cc8:	f2 0f 5c f4          	subsd  %xmm4,%xmm6
    4ccc:	f2 0f 58 fc          	addsd  %xmm4,%xmm7
    4cd0:	f2 0f 5c d4          	subsd  %xmm4,%xmm2
    4cd4:	f2 0f 5c 94 24 b0 00 	subsd  0xb0(%rsp),%xmm2
    4cdb:	00 00 
    4cdd:	f2 0f 5c f5          	subsd  %xmm5,%xmm6
    4ce1:	f2 0f 5c fd          	subsd  %xmm5,%xmm7
    4ce5:	66 0f ef ed          	pxor   %xmm5,%xmm5
    4ce9:	66 0f 2e d5          	ucomisd %xmm5,%xmm2
    4ced:	7a 06                	jp     4cf5 <_Z5forcedddjjddidPPdRKSt6vectorIiSaIiEEPS0_PPP6tensor+0x1f5>
    4cef:	0f 84 a3 02 00 00    	je     4f98 <_Z5forcedddjjddidPPdRKSt6vectorIiSaIiEEPS0_PPP6tensor+0x498>
    4cf5:	66 0f 28 c6          	movapd %xmm6,%xmm0
    4cf9:	f2 0f 11 7c 24 20    	movsd  %xmm7,0x20(%rsp)
    4cff:	f2 0f 5e c2          	divsd  %xmm2,%xmm0
    4d03:	f2 0f 11 74 24 30    	movsd  %xmm6,0x30(%rsp)
    4d09:	f2 0f 11 14 24       	movsd  %xmm2,(%rsp)
    4d0e:	e8 2d d8 ff ff       	call   2540 <atan@plt>
    4d13:	f2 0f 10 74 24 30    	movsd  0x30(%rsp),%xmm6
    4d19:	66 0f ef ff          	pxor   %xmm7,%xmm7
    4d1d:	f2 0f 10 14 24       	movsd  (%rsp),%xmm2
    4d22:	66 0f ef ed          	pxor   %xmm5,%xmm5
    4d26:	66 0f 2f fe          	comisd %xmm6,%xmm7
    4d2a:	f2 0f 10 7c 24 20    	movsd  0x20(%rsp),%xmm7
    4d30:	0f 87 6b 0b 00 00    	ja     58a1 <_Z5forcedddjjddidPPdRKSt6vectorIiSaIiEEPS0_PPP6tensor+0xda1>
    4d36:	66 0f 2f f5          	comisd %xmm5,%xmm6
    4d3a:	0f 86 75 0a 00 00    	jbe    57b5 <_Z5forcedddjjddidPPdRKSt6vectorIiSaIiEEPS0_PPP6tensor+0xcb5>
    4d40:	66 0f 2f ea          	comisd %xmm2,%xmm5
    4d44:	0f 87 92 0b 00 00    	ja     58dc <_Z5forcedddjjddidPPdRKSt6vectorIiSaIiEEPS0_PPP6tensor+0xddc>
    4d4a:	f2 0f 11 84 24 80 01 	movsd  %xmm0,0x180(%rsp)
    4d51:	00 00 
    4d53:	66 0f 28 c7          	movapd %xmm7,%xmm0
    4d57:	f2 0f 5e c2          	divsd  %xmm2,%xmm0
    4d5b:	f2 0f 11 74 24 20    	movsd  %xmm6,0x20(%rsp)
    4d61:	f2 0f 11 7c 24 30    	movsd  %xmm7,0x30(%rsp)
    4d67:	f2 0f 11 14 24       	movsd  %xmm2,(%rsp)
    4d6c:	e8 cf d7 ff ff       	call   2540 <atan@plt>
    4d71:	f2 0f 10 7c 24 30    	movsd  0x30(%rsp),%xmm7
    4d77:	66 0f ef f6          	pxor   %xmm6,%xmm6
    4d7b:	f2 0f 10 14 24       	movsd  (%rsp),%xmm2
    4d80:	66 0f 2f f7          	comisd %xmm7,%xmm6
    4d84:	f2 0f 10 74 24 20    	movsd  0x20(%rsp),%xmm6
    4d8a:	0f 87 59 0b 00 00    	ja     58e9 <_Z5forcedddjjddidPPdRKSt6vectorIiSaIiEEPS0_PPP6tensor+0xde9>
    4d90:	66 0f ef ed          	pxor   %xmm5,%xmm5
    4d94:	66 0f 2f fd          	comisd %xmm5,%xmm7
    4d98:	0f 86 98 0b 00 00    	jbe    5936 <_Z5forcedddjjddidPPdRKSt6vectorIiSaIiEEPS0_PPP6tensor+0xe36>
    4d9e:	66 0f 2f ea          	comisd %xmm2,%xmm5
    4da2:	0f 86 32 02 00 00    	jbe    4fda <_Z5forcedddjjddidPPdRKSt6vectorIiSaIiEEPS0_PPP6tensor+0x4da>
    4da8:	f2 0f 58 05 f0 7a 00 	addsd  0x7af0(%rip),%xmm0        # c8a0 <_IO_stdin_used+0x8a0>
    4daf:	00 
    4db0:	e9 25 02 00 00       	jmp    4fda <_Z5forcedddjjddidPPdRKSt6vectorIiSaIiEEPS0_PPP6tensor+0x4da>
    4db5:	0f 1f 00             	nopl   (%rax)
    4db8:	66 45 0f ef c9       	pxor   %xmm9,%xmm9
    4dbd:	66 45 0f ef c0       	pxor   %xmm8,%xmm8
    4dc2:	66 0f 28 7c 24 50    	movapd 0x50(%rsp),%xmm7
    4dc8:	f2 44 0f 58 44 24 48 	addsd  0x48(%rsp),%xmm8
    4dcf:	48 83 c3 04          	add    $0x4,%rbx
    4dd3:	66 41 0f 58 f9       	addpd  %xmm9,%xmm7
    4dd8:	f2 44 0f 11 44 24 48 	movsd  %xmm8,0x48(%rsp)
    4ddf:	f2 45 0f 11 44 24 10 	movsd  %xmm8,0x10(%r12)
    4de6:	0f 29 7c 24 50       	movaps %xmm7,0x50(%rsp)
    4deb:	41 0f 11 3c 24       	movups %xmm7,(%r12)
    4df0:	48 39 9c 24 88 00 00 	cmp    %rbx,0x88(%rsp)
    4df7:	00 
    4df8:	0f 85 1a fe ff ff    	jne    4c18 <_Z5forcedddjjddidPPdRKSt6vectorIiSaIiEEPS0_PPP6tensor+0x118>
    4dfe:	48 8b 84 24 a8 01 00 	mov    0x1a8(%rsp),%rax
    4e05:	00 
    4e06:	64 48 2b 04 25 28 00 	sub    %fs:0x28,%rax
    4e0d:	00 00 
    4e0f:	0f 85 cc 12 00 00    	jne    60e1 <_Z5forcedddjjddidPPdRKSt6vectorIiSaIiEEPS0_PPP6tensor+0x15e1>
    4e15:	48 81 c4 b8 01 00 00 	add    $0x1b8,%rsp
    4e1c:	4c 89 e0             	mov    %r12,%rax
    4e1f:	5b                   	pop    %rbx
    4e20:	5d                   	pop    %rbp
    4e21:	41 5c                	pop    %r12
    4e23:	41 5d                	pop    %r13
    4e25:	41 5e                	pop    %r14
    4e27:	41 5f                	pop    %r15
    4e29:	c3                   	ret    
    4e2a:	66 0f 1f 44 00 00    	nopw   0x0(%rax,%rax,1)
    4e30:	f2 0f 10 44 24 10    	movsd  0x10(%rsp),%xmm0
    4e36:	f2 0f 11 3c 24       	movsd  %xmm7,(%rsp)
    4e3b:	f2 0f 5e c6          	divsd  %xmm6,%xmm0
    4e3f:	e8 3c d7 ff ff       	call   2580 <acos@plt>
    4e44:	8b 84 24 d0 00 00 00 	mov    0xd0(%rsp),%eax
    4e4b:	66 0f ef db          	pxor   %xmm3,%xmm3
    4e4f:	f2 0f 10 0d 49 7a 00 	movsd  0x7a49(%rip),%xmm1        # c8a0 <_IO_stdin_used+0x8a0>
    4e56:	00 
    4e57:	f2 0f 10 3c 24       	movsd  (%rsp),%xmm7
    4e5c:	f2 48 0f 2a d8       	cvtsi2sd %rax,%xmm3
    4e61:	66 0f 28 d1          	movapd %xmm1,%xmm2
    4e65:	8b 44 24 7c          	mov    0x7c(%rsp),%eax
    4e69:	f2 0f 5e d3          	divsd  %xmm3,%xmm2
    4e6d:	66 0f ef db          	pxor   %xmm3,%xmm3
    4e71:	f2 48 0f 2a d8       	cvtsi2sd %rax,%xmm3
    4e76:	f2 0f 5c c2          	subsd  %xmm2,%xmm0
    4e7a:	66 0f 28 d1          	movapd %xmm1,%xmm2
    4e7e:	f2 0f 10 0d 32 7a 00 	movsd  0x7a32(%rip),%xmm1        # c8b8 <_IO_stdin_used+0x8b8>
    4e85:	00 
    4e86:	f2 0f 5e d3          	divsd  %xmm3,%xmm2
    4e8a:	f2 0f 5e c2          	divsd  %xmm2,%xmm0
    4e8e:	f2 0f 10 15 aa 7a 00 	movsd  0x7aaa(%rip),%xmm2        # c940 <_IO_stdin_used+0x940>
    4e95:	00 
    4e96:	66 0f 54 d0          	andpd  %xmm0,%xmm2
    4e9a:	66 0f 2e ca          	ucomisd %xmm2,%xmm1
    4e9e:	76 3b                	jbe    4edb <_Z5forcedddjjddidPPdRKSt6vectorIiSaIiEEPS0_PPP6tensor+0x3db>
    4ea0:	f2 48 0f 2c c0       	cvttsd2si %xmm0,%rax
    4ea5:	66 0f ef d2          	pxor   %xmm2,%xmm2
    4ea9:	f2 0f 10 1d 0f 7a 00 	movsd  0x7a0f(%rip),%xmm3        # c8c0 <_IO_stdin_used+0x8c0>
    4eb0:	00 
    4eb1:	f2 48 0f 2a d0       	cvtsi2sd %rax,%xmm2
    4eb6:	66 0f 28 ca          	movapd %xmm2,%xmm1
    4eba:	f2 0f c2 c8 06       	cmpnlesd %xmm0,%xmm1
    4ebf:	66 0f 54 cb          	andpd  %xmm3,%xmm1
    4ec3:	f2 0f 5c d1          	subsd  %xmm1,%xmm2
    4ec7:	f2 0f 10 0d 71 7a 00 	movsd  0x7a71(%rip),%xmm1        # c940 <_IO_stdin_used+0x940>
    4ece:	00 
    4ecf:	66 0f 55 c8          	andnpd %xmm0,%xmm1
    4ed3:	66 0f 56 d1          	orpd   %xmm1,%xmm2
    4ed7:	66 0f 28 c2          	movapd %xmm2,%xmm0
    4edb:	f2 44 0f 2c e8       	cvttsd2si %xmm0,%r13d
    4ee0:	e9 a7 fd ff ff       	jmp    4c8c <_Z5forcedddjjddidPPdRKSt6vectorIiSaIiEEPS0_PPP6tensor+0x18c>
    4ee5:	0f 1f 00             	nopl   (%rax)
    4ee8:	f2 0f 11 3c 24       	movsd  %xmm7,(%rsp)
    4eed:	66 0f 28 c6          	movapd %xmm6,%xmm0
    4ef1:	f2 0f 5e 44 24 40    	divsd  0x40(%rsp),%xmm0
    4ef7:	e8 84 d6 ff ff       	call   2580 <acos@plt>
    4efc:	8b 84 24 d0 00 00 00 	mov    0xd0(%rsp),%eax
    4f03:	66 0f ef db          	pxor   %xmm3,%xmm3
    4f07:	f2 0f 10 0d 91 79 00 	movsd  0x7991(%rip),%xmm1        # c8a0 <_IO_stdin_used+0x8a0>
    4f0e:	00 
    4f0f:	f2 0f 10 3c 24       	movsd  (%rsp),%xmm7
    4f14:	f2 48 0f 2a d8       	cvtsi2sd %rax,%xmm3
    4f19:	66 0f 28 d1          	movapd %xmm1,%xmm2
    4f1d:	8b 44 24 7c          	mov    0x7c(%rsp),%eax
    4f21:	f2 0f 5e d3          	divsd  %xmm3,%xmm2
    4f25:	66 0f ef db          	pxor   %xmm3,%xmm3
    4f29:	f2 48 0f 2a d8       	cvtsi2sd %rax,%xmm3
    4f2e:	f2 0f 5c c2          	subsd  %xmm2,%xmm0
    4f32:	66 0f 28 d1          	movapd %xmm1,%xmm2
    4f36:	f2 0f 10 0d 7a 79 00 	movsd  0x797a(%rip),%xmm1        # c8b8 <_IO_stdin_used+0x8b8>
    4f3d:	00 
    4f3e:	f2 0f 5e d3          	divsd  %xmm3,%xmm2
    4f42:	f2 0f 10 1d f6 79 00 	movsd  0x79f6(%rip),%xmm3        # c940 <_IO_stdin_used+0x940>
    4f49:	00 
    4f4a:	f2 0f 5e c2          	divsd  %xmm2,%xmm0
    4f4e:	66 0f 28 d0          	movapd %xmm0,%xmm2
    4f52:	66 0f 54 d3          	andpd  %xmm3,%xmm2
    4f56:	66 0f 2e ca          	ucomisd %xmm2,%xmm1
    4f5a:	76 33                	jbe    4f8f <_Z5forcedddjjddidPPdRKSt6vectorIiSaIiEEPS0_PPP6tensor+0x48f>
    4f5c:	f2 48 0f 2c c0       	cvttsd2si %xmm0,%rax
    4f61:	66 0f ef d2          	pxor   %xmm2,%xmm2
    4f65:	66 0f 28 c8          	movapd %xmm0,%xmm1
    4f69:	f2 0f 10 25 4f 79 00 	movsd  0x794f(%rip),%xmm4        # c8c0 <_IO_stdin_used+0x8c0>
    4f70:	00 
    4f71:	66 0f 55 d8          	andnpd %xmm0,%xmm3
    4f75:	f2 48 0f 2a d0       	cvtsi2sd %rax,%xmm2
    4f7a:	f2 0f c2 ca 06       	cmpnlesd %xmm2,%xmm1
    4f7f:	66 0f 54 cc          	andpd  %xmm4,%xmm1
    4f83:	f2 0f 58 d1          	addsd  %xmm1,%xmm2
    4f87:	66 0f 56 d3          	orpd   %xmm3,%xmm2
    4f8b:	66 0f 28 c2          	movapd %xmm2,%xmm0
    4f8f:	f2 0f 2c e8          	cvttsd2si %xmm0,%ebp
    4f93:	e9 df fc ff ff       	jmp    4c77 <_Z5forcedddjjddidPPdRKSt6vectorIiSaIiEEPS0_PPP6tensor+0x177>
    4f98:	66 0f 2f f5          	comisd %xmm5,%xmm6
    4f9c:	f2 0f 10 05 ec 78 00 	movsd  0x78ec(%rip),%xmm0        # c890 <_IO_stdin_used+0x890>
    4fa3:	00 
    4fa4:	77 15                	ja     4fbb <_Z5forcedddjjddidPPdRKSt6vectorIiSaIiEEPS0_PPP6tensor+0x4bb>
    4fa6:	66 0f 28 ce          	movapd %xmm6,%xmm1
    4faa:	f2 0f 10 05 e6 78 00 	movsd  0x78e6(%rip),%xmm0        # c898 <_IO_stdin_used+0x898>
    4fb1:	00 
    4fb2:	f2 0f c2 cd 01       	cmpltsd %xmm5,%xmm1
    4fb7:	66 0f 54 c1          	andpd  %xmm1,%xmm0
    4fbb:	f2 0f 11 84 24 80 01 	movsd  %xmm0,0x180(%rsp)
    4fc2:	00 00 
    4fc4:	66 0f ef ed          	pxor   %xmm5,%xmm5
    4fc8:	f2 0f 10 05 c0 78 00 	movsd  0x78c0(%rip),%xmm0        # c890 <_IO_stdin_used+0x890>
    4fcf:	00 
    4fd0:	66 0f 2f fd          	comisd %xmm5,%xmm7
    4fd4:	0f 86 da 08 00 00    	jbe    58b4 <_Z5forcedddjjddidPPdRKSt6vectorIiSaIiEEPS0_PPP6tensor+0xdb4>
    4fda:	66 49 0f 6e ee       	movq   %r14,%xmm5
    4fdf:	f2 0f 58 6c 24 70    	addsd  0x70(%rsp),%xmm5
    4fe5:	f2 0f 5c ac 24 b0 00 	subsd  0xb0(%rsp),%xmm5
    4fec:	00 00 
    4fee:	f2 0f 11 84 24 88 01 	movsd  %xmm0,0x188(%rsp)
    4ff5:	00 00 
    4ff7:	66 0f ef e4          	pxor   %xmm4,%xmm4
    4ffb:	66 0f 2e ec          	ucomisd %xmm4,%xmm5
    4fff:	7a 06                	jp     5007 <_Z5forcedddjjddidPPdRKSt6vectorIiSaIiEEPS0_PPP6tensor+0x507>
    5001:	0f 84 d1 00 00 00    	je     50d8 <_Z5forcedddjjddidPPdRKSt6vectorIiSaIiEEPS0_PPP6tensor+0x5d8>
    5007:	66 0f 28 c6          	movapd %xmm6,%xmm0
    500b:	f2 0f 11 7c 24 68    	movsd  %xmm7,0x68(%rsp)
    5011:	f2 0f 5e c5          	divsd  %xmm5,%xmm0
    5015:	f2 0f 11 54 24 20    	movsd  %xmm2,0x20(%rsp)
    501b:	f2 0f 11 74 24 30    	movsd  %xmm6,0x30(%rsp)
    5021:	f2 0f 11 2c 24       	movsd  %xmm5,(%rsp)
    5026:	e8 15 d5 ff ff       	call   2540 <atan@plt>
    502b:	f2 0f 10 74 24 30    	movsd  0x30(%rsp),%xmm6
    5031:	66 0f ef ff          	pxor   %xmm7,%xmm7
    5035:	f2 0f 10 2c 24       	movsd  (%rsp),%xmm5
    503a:	f2 0f 10 54 24 20    	movsd  0x20(%rsp),%xmm2
    5040:	66 0f ef e4          	pxor   %xmm4,%xmm4
    5044:	66 0f 2f fe          	comisd %xmm6,%xmm7
    5048:	f2 0f 10 7c 24 68    	movsd  0x68(%rsp),%xmm7
    504e:	0f 87 3a 08 00 00    	ja     588e <_Z5forcedddjjddidPPdRKSt6vectorIiSaIiEEPS0_PPP6tensor+0xd8e>
    5054:	66 0f 2f f4          	comisd %xmm4,%xmm6
    5058:	0f 86 ea 06 00 00    	jbe    5748 <_Z5forcedddjjddidPPdRKSt6vectorIiSaIiEEPS0_PPP6tensor+0xc48>
    505e:	66 0f 2f e5          	comisd %xmm5,%xmm4
    5062:	0f 87 67 08 00 00    	ja     58cf <_Z5forcedddjjddidPPdRKSt6vectorIiSaIiEEPS0_PPP6tensor+0xdcf>
    5068:	f2 0f 11 84 24 90 01 	movsd  %xmm0,0x190(%rsp)
    506f:	00 00 
    5071:	66 0f 28 c7          	movapd %xmm7,%xmm0
    5075:	f2 0f 5e c5          	divsd  %xmm5,%xmm0
    5079:	f2 0f 11 74 24 68    	movsd  %xmm6,0x68(%rsp)
    507f:	f2 0f 11 54 24 20    	movsd  %xmm2,0x20(%rsp)
    5085:	f2 0f 11 7c 24 30    	movsd  %xmm7,0x30(%rsp)
    508b:	f2 0f 11 2c 24       	movsd  %xmm5,(%rsp)
    5090:	e8 ab d4 ff ff       	call   2540 <atan@plt>
    5095:	f2 0f 10 7c 24 30    	movsd  0x30(%rsp),%xmm7
    509b:	66 0f ef f6          	pxor   %xmm6,%xmm6
    509f:	f2 0f 10 2c 24       	movsd  (%rsp),%xmm5
    50a4:	f2 0f 10 54 24 20    	movsd  0x20(%rsp),%xmm2
    50aa:	66 0f 2f f7          	comisd %xmm7,%xmm6
    50ae:	f2 0f 10 74 24 68    	movsd  0x68(%rsp),%xmm6
    50b4:	0f 87 4a 08 00 00    	ja     5904 <_Z5forcedddjjddidPPdRKSt6vectorIiSaIiEEPS0_PPP6tensor+0xe04>
    50ba:	66 0f ef e4          	pxor   %xmm4,%xmm4
    50be:	66 0f 2f fc          	comisd %xmm4,%xmm7
    50c2:	0f 86 57 08 00 00    	jbe    591f <_Z5forcedddjjddidPPdRKSt6vectorIiSaIiEEPS0_PPP6tensor+0xe1f>
    50c8:	66 0f 2f e5          	comisd %xmm5,%xmm4
    50cc:	76 4c                	jbe    511a <_Z5forcedddjjddidPPdRKSt6vectorIiSaIiEEPS0_PPP6tensor+0x61a>
    50ce:	f2 0f 58 05 ca 77 00 	addsd  0x77ca(%rip),%xmm0        # c8a0 <_IO_stdin_used+0x8a0>
    50d5:	00 
    50d6:	eb 42                	jmp    511a <_Z5forcedddjjddidPPdRKSt6vectorIiSaIiEEPS0_PPP6tensor+0x61a>
    50d8:	66 0f 2f f4          	comisd %xmm4,%xmm6
    50dc:	f2 0f 10 05 ac 77 00 	movsd  0x77ac(%rip),%xmm0        # c890 <_IO_stdin_used+0x890>
    50e3:	00 
    50e4:	77 15                	ja     50fb <_Z5forcedddjjddidPPdRKSt6vectorIiSaIiEEPS0_PPP6tensor+0x5fb>
    50e6:	66 0f 28 ce          	movapd %xmm6,%xmm1
    50ea:	f2 0f 10 05 a6 77 00 	movsd  0x77a6(%rip),%xmm0        # c898 <_IO_stdin_used+0x898>
    50f1:	00 
    50f2:	f2 0f c2 cc 01       	cmpltsd %xmm4,%xmm1
    50f7:	66 0f 54 c1          	andpd  %xmm1,%xmm0
    50fb:	f2 0f 11 84 24 90 01 	movsd  %xmm0,0x190(%rsp)
    5102:	00 00 
    5104:	66 0f ef e4          	pxor   %xmm4,%xmm4
    5108:	f2 0f 10 05 80 77 00 	movsd  0x7780(%rip),%xmm0        # c890 <_IO_stdin_used+0x890>
    510f:	00 
    5110:	66 0f 2f fc          	comisd %xmm4,%xmm7
    5114:	0f 86 59 07 00 00    	jbe    5873 <_Z5forcedddjjddidPPdRKSt6vectorIiSaIiEEPS0_PPP6tensor+0xd73>
    511a:	4c 8d b4 24 80 01 00 	lea    0x180(%rsp),%r14
    5121:	00 
    5122:	ba 04 00 00 00       	mov    $0x4,%edx
    5127:	f2 0f 11 14 24       	movsd  %xmm2,(%rsp)
    512c:	48 8d b4 24 a0 01 00 	lea    0x1a0(%rsp),%rsi
    5133:	00 
    5134:	f2 0f 11 84 24 98 01 	movsd  %xmm0,0x198(%rsp)
    513b:	00 00 
    513d:	4c 89 f7             	mov    %r14,%rdi
    5140:	4d 89 f7             	mov    %r14,%r15
    5143:	e8 d8 ee ff ff       	call   4020 <_ZSt16__introsort_loopIPdlN9__gnu_cxx5__ops15_Iter_less_iterEEvT_S4_T0_T1_.isra.0>
    5148:	f2 0f 10 14 24       	movsd  (%rsp),%xmm2
    514d:	48 89 5c 24 30       	mov    %rbx,0x30(%rsp)
    5152:	48 8d 84 24 98 01 00 	lea    0x198(%rsp),%rax
    5159:	00 
    515a:	4c 89 f3             	mov    %r14,%rbx
    515d:	f2 0f 11 6c 24 68    	movsd  %xmm5,0x68(%rsp)
    5163:	49 89 c6             	mov    %rax,%r14
    5166:	f2 0f 11 54 24 20    	movsd  %xmm2,0x20(%rsp)
    516c:	f2 0f 11 b4 24 90 00 	movsd  %xmm6,0x90(%rsp)
    5173:	00 00 
    5175:	f2 0f 11 bc 24 b8 00 	movsd  %xmm7,0xb8(%rsp)
    517c:	00 00 
    517e:	eb 2c                	jmp    51ac <_Z5forcedddjjddidPPdRKSt6vectorIiSaIiEEPS0_PPP6tensor+0x6ac>
    5180:	b8 08 00 00 00       	mov    $0x8,%eax
    5185:	48 29 da             	sub    %rbx,%rdx
    5188:	48 89 de             	mov    %rbx,%rsi
    518b:	f2 0f 11 0c 24       	movsd  %xmm1,(%rsp)
    5190:	48 8d 3c 03          	lea    (%rbx,%rax,1),%rdi
    5194:	e8 47 d5 ff ff       	call   26e0 <memmove@plt>
    5199:	f2 0f 10 0c 24       	movsd  (%rsp),%xmm1
    519e:	f2 0f 11 8c 24 80 01 	movsd  %xmm1,0x180(%rsp)
    51a5:	00 00 
    51a7:	4d 39 f7             	cmp    %r14,%r15
    51aa:	74 54                	je     5200 <_Z5forcedddjjddidPPdRKSt6vectorIiSaIiEEPS0_PPP6tensor+0x700>
    51ac:	f2 0f 10 84 24 80 01 	movsd  0x180(%rsp),%xmm0
    51b3:	00 00 
    51b5:	4c 89 f9             	mov    %r15,%rcx
    51b8:	49 83 c7 08          	add    $0x8,%r15
    51bc:	f2 0f 10 49 08       	movsd  0x8(%rcx),%xmm1
    51c1:	4c 89 fa             	mov    %r15,%rdx
    51c4:	48 89 c8             	mov    %rcx,%rax
    51c7:	66 0f 2f c1          	comisd %xmm1,%xmm0
    51cb:	77 b3                	ja     5180 <_Z5forcedddjjddidPPdRKSt6vectorIiSaIiEEPS0_PPP6tensor+0x680>
    51cd:	f2 0f 10 01          	movsd  (%rcx),%xmm0
    51d1:	66 0f 2f c1          	comisd %xmm1,%xmm0
    51d5:	76 20                	jbe    51f7 <_Z5forcedddjjddidPPdRKSt6vectorIiSaIiEEPS0_PPP6tensor+0x6f7>
    51d7:	66 0f 1f 84 00 00 00 	nopw   0x0(%rax,%rax,1)
    51de:	00 00 
    51e0:	f2 0f 11 40 08       	movsd  %xmm0,0x8(%rax)
    51e5:	48 89 c2             	mov    %rax,%rdx
    51e8:	f2 0f 10 40 f8       	movsd  -0x8(%rax),%xmm0
    51ed:	48 83 e8 08          	sub    $0x8,%rax
    51f1:	66 0f 2f c1          	comisd %xmm1,%xmm0
    51f5:	77 e9                	ja     51e0 <_Z5forcedddjjddidPPdRKSt6vectorIiSaIiEEPS0_PPP6tensor+0x6e0>
    51f7:	f2 0f 11 0a          	movsd  %xmm1,(%rdx)
    51fb:	4d 39 f7             	cmp    %r14,%r15
    51fe:	75 ac                	jne    51ac <_Z5forcedddjjddidPPdRKSt6vectorIiSaIiEEPS0_PPP6tensor+0x6ac>
    5200:	f2 0f 10 54 24 20    	movsd  0x20(%rsp),%xmm2
    5206:	66 0f ef e4          	pxor   %xmm4,%xmm4
    520a:	48 8b 5c 24 30       	mov    0x30(%rsp),%rbx
    520f:	f2 0f 10 b4 24 90 00 	movsd  0x90(%rsp),%xmm6
    5216:	00 00 
    5218:	f2 0f 10 6c 24 68    	movsd  0x68(%rsp),%xmm5
    521e:	f2 0f 10 bc 24 b8 00 	movsd  0xb8(%rsp),%xmm7
    5225:	00 00 
    5227:	66 0f 2f e2          	comisd %xmm2,%xmm4
    522b:	0f 83 ea 04 00 00    	jae    571b <_Z5forcedddjjddidPPdRKSt6vectorIiSaIiEEPS0_PPP6tensor+0xc1b>
    5231:	8b 84 24 d4 00 00 00 	mov    0xd4(%rsp),%eax
    5238:	66 0f ef c0          	pxor   %xmm0,%xmm0
    523c:	f2 44 0f 10 05 63 76 	movsd  0x7663(%rip),%xmm8        # c8a8 <_IO_stdin_used+0x8a8>
    5243:	00 00 
    5245:	f2 0f 10 9c 24 80 01 	movsd  0x180(%rsp),%xmm3
    524c:	00 00 
    524e:	f2 0f 10 0d 62 76 00 	movsd  0x7662(%rip),%xmm1        # c8b8 <_IO_stdin_used+0x8b8>
    5255:	00 
    5256:	f2 48 0f 2a c0       	cvtsi2sd %rax,%xmm0
    525b:	f2 44 0f 5e c0       	divsd  %xmm0,%xmm8
    5260:	f3 0f 7e 05 d8 76 00 	movq   0x76d8(%rip),%xmm0        # c940 <_IO_stdin_used+0x940>
    5267:	00 
    5268:	66 44 0f 28 c8       	movapd %xmm0,%xmm9
    526d:	f2 41 0f 5e d8       	divsd  %xmm8,%xmm3
    5272:	66 0f 28 e3          	movapd %xmm3,%xmm4
    5276:	66 0f 54 e0          	andpd  %xmm0,%xmm4
    527a:	66 0f 2e cc          	ucomisd %xmm4,%xmm1
    527e:	76 3a                	jbe    52ba <_Z5forcedddjjddidPPdRKSt6vectorIiSaIiEEPS0_PPP6tensor+0x7ba>
    5280:	f2 48 0f 2c c3       	cvttsd2si %xmm3,%rax
    5285:	66 0f ef e4          	pxor   %xmm4,%xmm4
    5289:	66 44 0f 55 cb       	andnpd %xmm3,%xmm9
    528e:	f2 44 0f 10 1d 29 76 	movsd  0x7629(%rip),%xmm11        # c8c0 <_IO_stdin_used+0x8c0>
    5295:	00 00 
    5297:	f2 48 0f 2a e0       	cvtsi2sd %rax,%xmm4
    529c:	66 44 0f 28 d4       	movapd %xmm4,%xmm10
    52a1:	f2 44 0f c2 d3 06    	cmpnlesd %xmm3,%xmm10
    52a7:	66 45 0f 54 d3       	andpd  %xmm11,%xmm10
    52ac:	f2 41 0f 5c e2       	subsd  %xmm10,%xmm4
    52b1:	66 41 0f 56 e1       	orpd   %xmm9,%xmm4
    52b6:	66 0f 28 dc          	movapd %xmm4,%xmm3
    52ba:	f2 0f 2c c3          	cvttsd2si %xmm3,%eax
    52be:	f2 0f 10 9c 24 98 01 	movsd  0x198(%rsp),%xmm3
    52c5:	00 00 
    52c7:	f2 41 0f 5e d8       	divsd  %xmm8,%xmm3
    52cc:	66 0f 28 e3          	movapd %xmm3,%xmm4
    52d0:	66 0f 54 e0          	andpd  %xmm0,%xmm4
    52d4:	66 0f 2e cc          	ucomisd %xmm4,%xmm1
    52d8:	76 35                	jbe    530f <_Z5forcedddjjddidPPdRKSt6vectorIiSaIiEEPS0_PPP6tensor+0x80f>
    52da:	f2 48 0f 2c d3       	cvttsd2si %xmm3,%rdx
    52df:	66 0f ef e4          	pxor   %xmm4,%xmm4
    52e3:	66 0f 28 cb          	movapd %xmm3,%xmm1
    52e7:	f2 44 0f 10 05 d0 75 	movsd  0x75d0(%rip),%xmm8        # c8c0 <_IO_stdin_used+0x8c0>
    52ee:	00 00 
    52f0:	66 0f 55 c3          	andnpd %xmm3,%xmm0
    52f4:	f2 48 0f 2a e2       	cvtsi2sd %rdx,%xmm4
    52f9:	f2 0f c2 cc 06       	cmpnlesd %xmm4,%xmm1
    52fe:	66 41 0f 54 c8       	andpd  %xmm8,%xmm1
    5303:	f2 0f 58 e1          	addsd  %xmm1,%xmm4
    5307:	66 0f 56 e0          	orpd   %xmm0,%xmm4
    530b:	66 0f 28 dc          	movapd %xmm4,%xmm3
    530f:	f2 44 0f 2c fb       	cvttsd2si %xmm3,%r15d
    5314:	8b bc 24 d4 00 00 00 	mov    0xd4(%rsp),%edi
    531b:	41 39 ff             	cmp    %edi,%r15d
    531e:	44 0f 47 ff          	cmova  %edi,%r15d
    5322:	66 0f ef e4          	pxor   %xmm4,%xmm4
    5326:	66 0f 2f d4          	comisd %xmm4,%xmm2
    532a:	76 0a                	jbe    5336 <_Z5forcedddjjddidPPdRKSt6vectorIiSaIiEEPS0_PPP6tensor+0x836>
    532c:	66 0f 2f e6          	comisd %xmm6,%xmm4
    5330:	0f 87 e0 04 00 00    	ja     5816 <_Z5forcedddjjddidPPdRKSt6vectorIiSaIiEEPS0_PPP6tensor+0xd16>
    5336:	44 39 ed             	cmp    %r13d,%ebp
    5339:	0f 86 0a 06 00 00    	jbe    5949 <_Z5forcedddjjddidPPdRKSt6vectorIiSaIiEEPS0_PPP6tensor+0xe49>
    533f:	48 8b 8c 24 68 01 00 	mov    0x168(%rsp),%rcx
    5346:	00 
    5347:	83 ed 01             	sub    $0x1,%ebp
    534a:	44 89 ea             	mov    %r13d,%edx
    534d:	89 c7                	mov    %eax,%edi
    534f:	44 29 ed             	sub    %r13d,%ebp
    5352:	48 89 9c 24 50 01 00 	mov    %rbx,0x150(%rsp)
    5359:	00 
    535a:	44 89 fb             	mov    %r15d,%ebx
    535d:	48 8d 34 fd 00 00 00 	lea    0x0(,%rdi,8),%rsi
    5364:	00 
    5365:	4c 8d 34 d1          	lea    (%rcx,%rdx,8),%r14
    5369:	48 01 ea             	add    %rbp,%rdx
    536c:	66 45 0f ef c9       	pxor   %xmm9,%xmm9
    5371:	4c 89 a4 24 60 01 00 	mov    %r12,0x160(%rsp)
    5378:	00 
    5379:	48 8d 4c d1 08       	lea    0x8(%rcx,%rdx,8),%rcx
    537e:	41 8d 57 ff          	lea    -0x1(%r15),%edx
    5382:	66 45 0f ef c0       	pxor   %xmm8,%xmm8
    5387:	41 89 c7             	mov    %eax,%r15d
    538a:	29 c2                	sub    %eax,%edx
    538c:	49 89 cc             	mov    %rcx,%r12
    538f:	48 8d 54 17 01       	lea    0x1(%rdi,%rdx,1),%rdx
    5394:	48 c1 e2 03          	shl    $0x3,%rdx
    5398:	0f 1f 84 00 00 00 00 	nopl   0x0(%rax,%rax,1)
    539f:	00 
    53a0:	44 39 fb             	cmp    %r15d,%ebx
    53a3:	0f 86 e4 02 00 00    	jbe    568d <_Z5forcedddjjddidPPdRKSt6vectorIiSaIiEEPS0_PPP6tensor+0xb8d>
    53a9:	4d 8b 2e             	mov    (%r14),%r13
    53ac:	49 8d 6c 35 00       	lea    0x0(%r13,%rsi,1),%rbp
    53b1:	49 01 d5             	add    %rdx,%r13
    53b4:	0f 1f 40 00          	nopl   0x0(%rax)
    53b8:	48 8b 45 00          	mov    0x0(%rbp),%rax
    53bc:	f2 0f 10 08          	movsd  (%rax),%xmm1
    53c0:	66 0f 2f ca          	comisd %xmm2,%xmm1
    53c4:	66 0f 28 d9          	movapd %xmm1,%xmm3
    53c8:	66 0f 14 db          	unpcklpd %xmm3,%xmm3
    53cc:	0f 29 1c 24          	movaps %xmm3,(%rsp)
    53d0:	0f 82 aa 02 00 00    	jb     5680 <_Z5forcedddjjddidPPdRKSt6vectorIiSaIiEEPS0_PPP6tensor+0xb80>
    53d6:	66 0f 2f e9          	comisd %xmm1,%xmm5
    53da:	f2 0f 11 4c 24 30    	movsd  %xmm1,0x30(%rsp)
    53e0:	0f 82 9a 02 00 00    	jb     5680 <_Z5forcedddjjddidPPdRKSt6vectorIiSaIiEEPS0_PPP6tensor+0xb80>
    53e6:	f2 0f 10 60 08       	movsd  0x8(%rax),%xmm4
    53eb:	66 0f 2f e6          	comisd %xmm6,%xmm4
    53ef:	66 44 0f 28 d4       	movapd %xmm4,%xmm10
    53f4:	66 45 0f 14 d2       	unpcklpd %xmm10,%xmm10
    53f9:	44 0f 29 54 24 20    	movaps %xmm10,0x20(%rsp)
    53ff:	0f 82 7b 02 00 00    	jb     5680 <_Z5forcedddjjddidPPdRKSt6vectorIiSaIiEEPS0_PPP6tensor+0xb80>
    5405:	66 0f 2f fc          	comisd %xmm4,%xmm7
    5409:	f2 0f 11 64 24 68    	movsd  %xmm4,0x68(%rsp)
    540f:	0f 82 6b 02 00 00    	jb     5680 <_Z5forcedddjjddidPPdRKSt6vectorIiSaIiEEPS0_PPP6tensor+0xb80>
    5415:	f2 44 0f 10 60 10    	movsd  0x10(%rax),%xmm12
    541b:	66 44 0f 2f 64 24 38 	comisd 0x38(%rsp),%xmm12
    5422:	66 45 0f 28 ec       	movapd %xmm12,%xmm13
    5427:	66 45 0f 14 ed       	unpcklpd %xmm13,%xmm13
    542c:	44 0f 29 ac 24 90 00 	movaps %xmm13,0x90(%rsp)
    5433:	00 00 
    5435:	0f 82 45 02 00 00    	jb     5680 <_Z5forcedddjjddidPPdRKSt6vectorIiSaIiEEPS0_PPP6tensor+0xb80>
    543b:	f2 44 0f 11 a4 24 b8 	movsd  %xmm12,0xb8(%rsp)
    5442:	00 00 00 
    5445:	f2 0f 10 44 24 10    	movsd  0x10(%rsp),%xmm0
    544b:	66 41 0f 2f c4       	comisd %xmm12,%xmm0
    5450:	0f 82 2a 02 00 00    	jb     5680 <_Z5forcedddjjddidPPdRKSt6vectorIiSaIiEEPS0_PPP6tensor+0xb80>
    5456:	f2 0f 10 84 24 b0 00 	movsd  0xb0(%rsp),%xmm0
    545d:	00 00 
    545f:	f2 44 0f 10 58 18    	movsd  0x18(%rax),%xmm11
    5465:	f2 0f 11 bc 24 08 01 	movsd  %xmm7,0x108(%rsp)
    546c:	00 00 
    546e:	66 0f 28 fd          	movapd %xmm5,%xmm7
    5472:	f2 0f 5c fa          	subsd  %xmm2,%xmm7
    5476:	48 89 94 24 40 01 00 	mov    %rdx,0x140(%rsp)
    547d:	00 
    547e:	f2 0f 58 c2          	addsd  %xmm2,%xmm0
    5482:	48 89 b4 24 28 01 00 	mov    %rsi,0x128(%rsp)
    5489:	00 
    548a:	44 0f 29 8c 24 10 01 	movaps %xmm9,0x110(%rsp)
    5491:	00 00 
    5493:	f2 44 0f 11 84 24 20 	movsd  %xmm8,0x120(%rsp)
    549a:	01 00 00 
    549d:	f2 44 0f 11 9c 24 00 	movsd  %xmm11,0x100(%rsp)
    54a4:	01 00 00 
    54a7:	f2 0f 5e c7          	divsd  %xmm7,%xmm0
    54ab:	f2 0f 11 ac 24 f8 00 	movsd  %xmm5,0xf8(%rsp)
    54b2:	00 00 
    54b4:	f2 0f 11 94 24 f0 00 	movsd  %xmm2,0xf0(%rsp)
    54bb:	00 00 
    54bd:	f2 0f 11 bc 24 c0 00 	movsd  %xmm7,0xc0(%rsp)
    54c4:	00 00 
    54c6:	f2 0f 11 b4 24 d8 00 	movsd  %xmm6,0xd8(%rsp)
    54cd:	00 00 
    54cf:	f2 0f 58 84 24 a8 00 	addsd  0xa8(%rsp),%xmm0
    54d6:	00 00 
    54d8:	e8 83 cf ff ff       	call   2460 <round@plt>
    54dd:	f2 0f 10 b4 24 d8 00 	movsd  0xd8(%rsp),%xmm6
    54e4:	00 00 
    54e6:	f2 0f 11 84 24 e8 00 	movsd  %xmm0,0xe8(%rsp)
    54ed:	00 00 
    54ef:	f2 0f 10 84 24 c8 00 	movsd  0xc8(%rsp),%xmm0
    54f6:	00 00 
    54f8:	f2 0f 11 b4 24 e0 00 	movsd  %xmm6,0xe0(%rsp)
    54ff:	00 00 
    5501:	f2 0f 58 c6          	addsd  %xmm6,%xmm0
    5505:	f2 0f 5e 84 24 c0 00 	divsd  0xc0(%rsp),%xmm0
    550c:	00 00 
    550e:	f2 0f 58 84 24 a8 00 	addsd  0xa8(%rsp),%xmm0
    5515:	00 00 
    5517:	e8 44 cf ff ff       	call   2460 <round@plt>
    551c:	f2 0f 11 84 24 d8 00 	movsd  %xmm0,0xd8(%rsp)
    5523:	00 00 
    5525:	f2 0f 10 84 24 80 00 	movsd  0x80(%rsp),%xmm0
    552c:	00 00 
    552e:	f2 0f 58 44 24 38    	addsd  0x38(%rsp),%xmm0
    5534:	f2 0f 5e 84 24 c0 00 	divsd  0xc0(%rsp),%xmm0
    553b:	00 00 
    553d:	f2 0f 58 84 24 a8 00 	addsd  0xa8(%rsp),%xmm0
    5544:	00 00 
    5546:	e8 15 cf ff ff       	call   2460 <round@plt>
    554b:	66 0f 28 1c 24       	movapd (%rsp),%xmm3
    5550:	f2 44 0f 10 bc 24 e8 	movsd  0xe8(%rsp),%xmm15
    5557:	00 00 00 
    555a:	48 8b bc 24 48 01 00 	mov    0x148(%rsp),%rdi
    5561:	00 
    5562:	f2 0f 10 4c 24 30    	movsd  0x30(%rsp),%xmm1
    5568:	f2 41 0f 2c c7       	cvttsd2si %xmm15,%eax
    556d:	f2 0f 10 64 24 68    	movsd  0x68(%rsp),%xmm4
    5573:	f2 44 0f 10 b4 24 d8 	movsd  0xd8(%rsp),%xmm14
    557a:	00 00 00 
    557d:	66 44 0f 28 54 24 20 	movapd 0x20(%rsp),%xmm10
    5584:	66 44 0f 28 ac 24 90 	movapd 0x90(%rsp),%xmm13
    558b:	00 00 00 
    558e:	f2 44 0f 10 9c 24 00 	movsd  0x100(%rsp),%xmm11
    5595:	01 00 00 
    5598:	f2 41 0f 2c ce       	cvttsd2si %xmm14,%ecx
    559d:	66 44 0f 28 8c 24 10 	movapd 0x110(%rsp),%xmm9
    55a4:	01 00 00 
    55a7:	48 98                	cltq   
    55a9:	4c 8b 04 c7          	mov    (%rdi,%rax,8),%r8
    55ad:	f2 0f 2c c0          	cvttsd2si %xmm0,%eax
    55b1:	48 63 c9             	movslq %ecx,%rcx
    55b4:	48 98                	cltq   
    55b6:	48 8d 3c c0          	lea    (%rax,%rax,8),%rdi
    55ba:	49 8b 04 c8          	mov    (%r8,%rcx,8),%rax
    55be:	48 8d 04 f8          	lea    (%rax,%rdi,8),%rax
    55c2:	66 0f 10 38          	movupd (%rax),%xmm7
    55c6:	66 0f 10 40 18       	movupd 0x18(%rax),%xmm0
    55cb:	f2 0f 59 48 10       	mulsd  0x10(%rax),%xmm1
    55d0:	66 0f 59 df          	mulpd  %xmm7,%xmm3
    55d4:	66 41 0f 59 c2       	mulpd  %xmm10,%xmm0
    55d9:	f2 0f 59 60 28       	mulsd  0x28(%rax),%xmm4
    55de:	66 0f 58 c3          	addpd  %xmm3,%xmm0
    55e2:	66 0f 10 58 30       	movupd 0x30(%rax),%xmm3
    55e7:	f2 0f 58 cc          	addsd  %xmm4,%xmm1
    55eb:	66 41 0f 59 dd       	mulpd  %xmm13,%xmm3
    55f0:	66 0f 58 c3          	addpd  %xmm3,%xmm0
    55f4:	66 41 0f 28 db       	movapd %xmm11,%xmm3
    55f9:	66 0f 14 db          	unpcklpd %xmm3,%xmm3
    55fd:	66 0f 59 c3          	mulpd  %xmm3,%xmm0
    5601:	66 0f 5e 84 24 30 01 	divpd  0x130(%rsp),%xmm0
    5608:	00 00 
    560a:	66 44 0f 58 c8       	addpd  %xmm0,%xmm9
    560f:	f2 44 0f 10 a4 24 b8 	movsd  0xb8(%rsp),%xmm12
    5616:	00 00 00 
    5619:	f2 44 0f 59 60 40    	mulsd  0x40(%rax),%xmm12
    561f:	66 0f 28 c1          	movapd %xmm1,%xmm0
    5623:	48 8b 94 24 40 01 00 	mov    0x140(%rsp),%rdx
    562a:	00 
    562b:	f2 44 0f 10 84 24 20 	movsd  0x120(%rsp),%xmm8
    5632:	01 00 00 
    5635:	48 8b b4 24 28 01 00 	mov    0x128(%rsp),%rsi
    563c:	00 
    563d:	f2 0f 10 bc 24 08 01 	movsd  0x108(%rsp),%xmm7
    5644:	00 00 
    5646:	f2 0f 10 ac 24 f8 00 	movsd  0xf8(%rsp),%xmm5
    564d:	00 00 
    564f:	f2 0f 10 94 24 f0 00 	movsd  0xf0(%rsp),%xmm2
    5656:	00 00 
    5658:	f2 0f 10 b4 24 e0 00 	movsd  0xe0(%rsp),%xmm6
    565f:	00 00 
    5661:	f2 41 0f 58 c4       	addsd  %xmm12,%xmm0
    5666:	f2 41 0f 59 c3       	mulsd  %xmm11,%xmm0
    566b:	f2 0f 5e 44 24 40    	divsd  0x40(%rsp),%xmm0
    5671:	f2 44 0f 58 c0       	addsd  %xmm0,%xmm8
    5676:	66 2e 0f 1f 84 00 00 	cs nopw 0x0(%rax,%rax,1)
    567d:	00 00 00 
    5680:	48 83 c5 08          	add    $0x8,%rbp
    5684:	4c 39 ed             	cmp    %r13,%rbp
    5687:	0f 85 2b fd ff ff    	jne    53b8 <_Z5forcedddjjddidPPdRKSt6vectorIiSaIiEEPS0_PPP6tensor+0x8b8>
    568d:	49 83 c6 08          	add    $0x8,%r14
    5691:	4d 39 f4             	cmp    %r14,%r12
    5694:	0f 85 06 fd ff ff    	jne    53a0 <_Z5forcedddjjddidPPdRKSt6vectorIiSaIiEEPS0_PPP6tensor+0x8a0>
    569a:	48 8b 9c 24 50 01 00 	mov    0x150(%rsp),%rbx
    56a1:	00 
    56a2:	4c 8b a4 24 60 01 00 	mov    0x160(%rsp),%r12
    56a9:	00 
    56aa:	66 0f 28 c2          	movapd %xmm2,%xmm0
    56ae:	48 8d 3d 8b 99 00 00 	lea    0x998b(%rip),%rdi        # f040 <_ZSt4cout@GLIBCXX_3.4>
    56b5:	44 0f 29 4c 24 10    	movaps %xmm9,0x10(%rsp)
    56bb:	f2 44 0f 11 44 24 30 	movsd  %xmm8,0x30(%rsp)
    56c2:	f2 0f 11 2c 24       	movsd  %xmm5,(%rsp)
    56c7:	e8 04 d0 ff ff       	call   26d0 <_ZNSo9_M_insertIdEERSoT_@plt>
    56cc:	ba 01 00 00 00       	mov    $0x1,%edx
    56d1:	48 8d 35 03 71 00 00 	lea    0x7103(%rip),%rsi        # c7db <_IO_stdin_used+0x7db>
    56d8:	48 89 c7             	mov    %rax,%rdi
    56db:	48 89 c5             	mov    %rax,%rbp
    56de:	e8 fd ce ff ff       	call   25e0 <_ZSt16__ostream_insertIcSt11char_traitsIcEERSt13basic_ostreamIT_T0_ES6_PKS3_l@plt>
    56e3:	f2 0f 10 2c 24       	movsd  (%rsp),%xmm5
    56e8:	48 89 ef             	mov    %rbp,%rdi
    56eb:	66 0f 28 c5          	movapd %xmm5,%xmm0
    56ef:	e8 dc cf ff ff       	call   26d0 <_ZNSo9_M_insertIdEERSoT_@plt>
    56f4:	ba 01 00 00 00       	mov    $0x1,%edx
    56f9:	48 8d 35 18 74 00 00 	lea    0x7418(%rip),%rsi        # cb18 <_IO_stdin_used+0xb18>
    5700:	48 89 c7             	mov    %rax,%rdi
    5703:	e8 d8 ce ff ff       	call   25e0 <_ZSt16__ostream_insertIcSt11char_traitsIcEERSt13basic_ostreamIT_T0_ES6_PKS3_l@plt>
    5708:	f2 44 0f 10 44 24 30 	movsd  0x30(%rsp),%xmm8
    570f:	66 44 0f 28 4c 24 10 	movapd 0x10(%rsp),%xmm9
    5716:	e9 a7 f6 ff ff       	jmp    4dc2 <_Z5forcedddjjddidPPdRKSt6vectorIiSaIiEEPS0_PPP6tensor+0x2c2>
    571b:	66 0f 2f e6          	comisd %xmm6,%xmm4
    571f:	0f 82 0c fb ff ff    	jb     5231 <_Z5forcedddjjddidPPdRKSt6vectorIiSaIiEEPS0_PPP6tensor+0x731>
    5725:	66 0f 2f ec          	comisd %xmm4,%xmm5
    5729:	0f 82 02 fb ff ff    	jb     5231 <_Z5forcedddjjddidPPdRKSt6vectorIiSaIiEEPS0_PPP6tensor+0x731>
    572f:	31 c0                	xor    %eax,%eax
    5731:	66 0f 2f fc          	comisd %xmm4,%xmm7
    5735:	44 8b bc 24 d4 00 00 	mov    0xd4(%rsp),%r15d
    573c:	00 
    573d:	0f 83 df fb ff ff    	jae    5322 <_Z5forcedddjjddidPPdRKSt6vectorIiSaIiEEPS0_PPP6tensor+0x822>
    5743:	e9 e9 fa ff ff       	jmp    5231 <_Z5forcedddjjddidPPdRKSt6vectorIiSaIiEEPS0_PPP6tensor+0x731>
    5748:	66 0f 2f ec          	comisd %xmm4,%xmm5
    574c:	66 0f ef c0          	pxor   %xmm0,%xmm0
    5750:	0f 86 7e 09 00 00    	jbe    60d4 <_Z5forcedddjjddidPPdRKSt6vectorIiSaIiEEPS0_PPP6tensor+0x15d4>
    5756:	f2 0f 11 84 24 90 01 	movsd  %xmm0,0x190(%rsp)
    575d:	00 00 
    575f:	66 0f 28 c7          	movapd %xmm7,%xmm0
    5763:	f2 0f 5e c5          	divsd  %xmm5,%xmm0
    5767:	f2 0f 11 74 24 68    	movsd  %xmm6,0x68(%rsp)
    576d:	f2 0f 11 54 24 20    	movsd  %xmm2,0x20(%rsp)
    5773:	f2 0f 11 7c 24 30    	movsd  %xmm7,0x30(%rsp)
    5779:	f2 0f 11 2c 24       	movsd  %xmm5,(%rsp)
    577e:	e8 bd cd ff ff       	call   2540 <atan@plt>
    5783:	f2 0f 10 7c 24 30    	movsd  0x30(%rsp),%xmm7
    5789:	66 0f ef f6          	pxor   %xmm6,%xmm6
    578d:	f2 0f 10 2c 24       	movsd  (%rsp),%xmm5
    5792:	f2 0f 10 54 24 20    	movsd  0x20(%rsp),%xmm2
    5798:	66 0f 2f f7          	comisd %xmm7,%xmm6
    579c:	f2 0f 10 74 24 68    	movsd  0x68(%rsp),%xmm6
    57a2:	0f 86 12 f9 ff ff    	jbe    50ba <_Z5forcedddjjddidPPdRKSt6vectorIiSaIiEEPS0_PPP6tensor+0x5ba>
    57a8:	f2 0f 58 05 f8 70 00 	addsd  0x70f8(%rip),%xmm0        # c8a8 <_IO_stdin_used+0x8a8>
    57af:	00 
    57b0:	e9 65 f9 ff ff       	jmp    511a <_Z5forcedddjjddidPPdRKSt6vectorIiSaIiEEPS0_PPP6tensor+0x61a>
    57b5:	66 0f 2f d5          	comisd %xmm5,%xmm2
    57b9:	66 0f ef c0          	pxor   %xmm0,%xmm0
    57bd:	0f 86 04 09 00 00    	jbe    60c7 <_Z5forcedddjjddidPPdRKSt6vectorIiSaIiEEPS0_PPP6tensor+0x15c7>
    57c3:	f2 0f 11 84 24 80 01 	movsd  %xmm0,0x180(%rsp)
    57ca:	00 00 
    57cc:	66 0f 28 c7          	movapd %xmm7,%xmm0
    57d0:	f2 0f 5e c2          	divsd  %xmm2,%xmm0
    57d4:	f2 0f 11 74 24 20    	movsd  %xmm6,0x20(%rsp)
    57da:	f2 0f 11 7c 24 30    	movsd  %xmm7,0x30(%rsp)
    57e0:	f2 0f 11 14 24       	movsd  %xmm2,(%rsp)
    57e5:	e8 56 cd ff ff       	call   2540 <atan@plt>
    57ea:	f2 0f 10 7c 24 30    	movsd  0x30(%rsp),%xmm7
    57f0:	66 0f ef f6          	pxor   %xmm6,%xmm6
    57f4:	f2 0f 10 14 24       	movsd  (%rsp),%xmm2
    57f9:	66 0f 2f f7          	comisd %xmm7,%xmm6
    57fd:	f2 0f 10 74 24 20    	movsd  0x20(%rsp),%xmm6
    5803:	0f 86 87 f5 ff ff    	jbe    4d90 <_Z5forcedddjjddidPPdRKSt6vectorIiSaIiEEPS0_PPP6tensor+0x290>
    5809:	f2 0f 58 05 97 70 00 	addsd  0x7097(%rip),%xmm0        # c8a8 <_IO_stdin_used+0x8a8>
    5810:	00 
    5811:	e9 c4 f7 ff ff       	jmp    4fda <_Z5forcedddjjddidPPdRKSt6vectorIiSaIiEEPS0_PPP6tensor+0x4da>
    5816:	66 0f 2f fc          	comisd %xmm4,%xmm7
    581a:	0f 82 16 fb ff ff    	jb     5336 <_Z5forcedddjjddidPPdRKSt6vectorIiSaIiEEPS0_PPP6tensor+0x836>
    5820:	8b 84 24 d4 00 00 00 	mov    0xd4(%rsp),%eax
    5827:	66 0f ef c0          	pxor   %xmm0,%xmm0
    582b:	f2 0f 10 25 75 70 00 	movsd  0x7075(%rip),%xmm4        # c8a8 <_IO_stdin_used+0x8a8>
    5832:	00 
    5833:	f2 0f 10 9c 24 88 01 	movsd  0x188(%rsp),%xmm3
    583a:	00 00 
    583c:	f2 48 0f 2a c0       	cvtsi2sd %rax,%xmm0
    5841:	f2 0f 5e e0          	divsd  %xmm0,%xmm4
    5845:	66 0f ef c0          	pxor   %xmm0,%xmm0
    5849:	66 0f 2e f8          	ucomisd %xmm0,%xmm7
    584d:	0f 8a 05 01 00 00    	jp     5958 <_Z5forcedddjjddidPPdRKSt6vectorIiSaIiEEPS0_PPP6tensor+0xe58>
    5853:	0f 85 ff 00 00 00    	jne    5958 <_Z5forcedddjjddidPPdRKSt6vectorIiSaIiEEPS0_PPP6tensor+0xe58>
    5859:	f2 0f 10 0d 57 70 00 	movsd  0x7057(%rip),%xmm1        # c8b8 <_IO_stdin_used+0x8b8>
    5860:	00 
    5861:	f3 0f 7e 05 d7 70 00 	movq   0x70d7(%rip),%xmm0        # c940 <_IO_stdin_used+0x940>
    5868:	00 
    5869:	b8 01 00 00 00       	mov    $0x1,%eax
    586e:	e9 4f 01 00 00       	jmp    59c2 <_Z5forcedddjjddidPPdRKSt6vectorIiSaIiEEPS0_PPP6tensor+0xec2>
    5873:	66 0f 2f e7          	comisd %xmm7,%xmm4
    5877:	f2 0f 10 05 19 70 00 	movsd  0x7019(%rip),%xmm0        # c898 <_IO_stdin_used+0x898>
    587e:	00 
    587f:	0f 87 95 f8 ff ff    	ja     511a <_Z5forcedddjjddidPPdRKSt6vectorIiSaIiEEPS0_PPP6tensor+0x61a>
    5885:	66 0f ef c0          	pxor   %xmm0,%xmm0
    5889:	e9 8c f8 ff ff       	jmp    511a <_Z5forcedddjjddidPPdRKSt6vectorIiSaIiEEPS0_PPP6tensor+0x61a>
    588e:	66 0f 2f ec          	comisd %xmm4,%xmm5
    5892:	76 3b                	jbe    58cf <_Z5forcedddjjddidPPdRKSt6vectorIiSaIiEEPS0_PPP6tensor+0xdcf>
    5894:	f2 0f 58 05 0c 70 00 	addsd  0x700c(%rip),%xmm0        # c8a8 <_IO_stdin_used+0x8a8>
    589b:	00 
    589c:	e9 b5 fe ff ff       	jmp    5756 <_Z5forcedddjjddidPPdRKSt6vectorIiSaIiEEPS0_PPP6tensor+0xc56>
    58a1:	66 0f 2f d5          	comisd %xmm5,%xmm2
    58a5:	76 35                	jbe    58dc <_Z5forcedddjjddidPPdRKSt6vectorIiSaIiEEPS0_PPP6tensor+0xddc>
    58a7:	f2 0f 58 05 f9 6f 00 	addsd  0x6ff9(%rip),%xmm0        # c8a8 <_IO_stdin_used+0x8a8>
    58ae:	00 
    58af:	e9 0f ff ff ff       	jmp    57c3 <_Z5forcedddjjddidPPdRKSt6vectorIiSaIiEEPS0_PPP6tensor+0xcc3>
    58b4:	66 0f 2f ef          	comisd %xmm7,%xmm5
    58b8:	f2 0f 10 05 d8 6f 00 	movsd  0x6fd8(%rip),%xmm0        # c898 <_IO_stdin_used+0x898>
    58bf:	00 
    58c0:	0f 87 14 f7 ff ff    	ja     4fda <_Z5forcedddjjddidPPdRKSt6vectorIiSaIiEEPS0_PPP6tensor+0x4da>
    58c6:	66 0f ef c0          	pxor   %xmm0,%xmm0
    58ca:	e9 0b f7 ff ff       	jmp    4fda <_Z5forcedddjjddidPPdRKSt6vectorIiSaIiEEPS0_PPP6tensor+0x4da>
    58cf:	f2 0f 58 05 c9 6f 00 	addsd  0x6fc9(%rip),%xmm0        # c8a0 <_IO_stdin_used+0x8a0>
    58d6:	00 
    58d7:	e9 8c f7 ff ff       	jmp    5068 <_Z5forcedddjjddidPPdRKSt6vectorIiSaIiEEPS0_PPP6tensor+0x568>
    58dc:	f2 0f 58 05 bc 6f 00 	addsd  0x6fbc(%rip),%xmm0        # c8a0 <_IO_stdin_used+0x8a0>
    58e3:	00 
    58e4:	e9 61 f4 ff ff       	jmp    4d4a <_Z5forcedddjjddidPPdRKSt6vectorIiSaIiEEPS0_PPP6tensor+0x24a>
    58e9:	66 0f ef ed          	pxor   %xmm5,%xmm5
    58ed:	66 0f 2f d5          	comisd %xmm5,%xmm2
    58f1:	0f 87 12 ff ff ff    	ja     5809 <_Z5forcedddjjddidPPdRKSt6vectorIiSaIiEEPS0_PPP6tensor+0xd09>
    58f7:	f2 0f 58 05 a1 6f 00 	addsd  0x6fa1(%rip),%xmm0        # c8a0 <_IO_stdin_used+0x8a0>
    58fe:	00 
    58ff:	e9 d6 f6 ff ff       	jmp    4fda <_Z5forcedddjjddidPPdRKSt6vectorIiSaIiEEPS0_PPP6tensor+0x4da>
    5904:	66 0f ef e4          	pxor   %xmm4,%xmm4
    5908:	66 0f 2f ec          	comisd %xmm4,%xmm5
    590c:	0f 87 96 fe ff ff    	ja     57a8 <_Z5forcedddjjddidPPdRKSt6vectorIiSaIiEEPS0_PPP6tensor+0xca8>
    5912:	f2 0f 58 05 86 6f 00 	addsd  0x6f86(%rip),%xmm0        # c8a0 <_IO_stdin_used+0x8a0>
    5919:	00 
    591a:	e9 fb f7 ff ff       	jmp    511a <_Z5forcedddjjddidPPdRKSt6vectorIiSaIiEEPS0_PPP6tensor+0x61a>
    591f:	66 0f 2f ec          	comisd %xmm4,%xmm5
    5923:	f2 0f 10 05 75 6f 00 	movsd  0x6f75(%rip),%xmm0        # c8a0 <_IO_stdin_used+0x8a0>
    592a:	00 
    592b:	0f 87 54 ff ff ff    	ja     5885 <_Z5forcedddjjddidPPdRKSt6vectorIiSaIiEEPS0_PPP6tensor+0xd85>
    5931:	e9 e4 f7 ff ff       	jmp    511a <_Z5forcedddjjddidPPdRKSt6vectorIiSaIiEEPS0_PPP6tensor+0x61a>
    5936:	66 0f 2f d5          	comisd %xmm5,%xmm2
    593a:	f2 0f 10 05 5e 6f 00 	movsd  0x6f5e(%rip),%xmm0        # c8a0 <_IO_stdin_used+0x8a0>
    5941:	00 
    5942:	77 82                	ja     58c6 <_Z5forcedddjjddidPPdRKSt6vectorIiSaIiEEPS0_PPP6tensor+0xdc6>
    5944:	e9 91 f6 ff ff       	jmp    4fda <_Z5forcedddjjddidPPdRKSt6vectorIiSaIiEEPS0_PPP6tensor+0x4da>
    5949:	66 45 0f ef c9       	pxor   %xmm9,%xmm9
    594e:	66 45 0f ef c0       	pxor   %xmm8,%xmm8
    5953:	e9 52 fd ff ff       	jmp    56aa <_Z5forcedddjjddidPPdRKSt6vectorIiSaIiEEPS0_PPP6tensor+0xbaa>
    5958:	f2 0f 5e dc          	divsd  %xmm4,%xmm3
    595c:	f3 0f 7e 05 dc 6f 00 	movq   0x6fdc(%rip),%xmm0        # c940 <_IO_stdin_used+0x940>
    5963:	00 
    5964:	f2 0f 10 0d 4c 6f 00 	movsd  0x6f4c(%rip),%xmm1        # c8b8 <_IO_stdin_used+0x8b8>
    596b:	00 
    596c:	66 44 0f 28 c8       	movapd %xmm0,%xmm9
    5971:	66 44 0f 28 c3       	movapd %xmm3,%xmm8
    5976:	66 44 0f 54 c0       	andpd  %xmm0,%xmm8
    597b:	66 41 0f 2e c8       	ucomisd %xmm8,%xmm1
    5980:	76 3c                	jbe    59be <_Z5forcedddjjddidPPdRKSt6vectorIiSaIiEEPS0_PPP6tensor+0xebe>
    5982:	f2 48 0f 2c c3       	cvttsd2si %xmm3,%rax
    5987:	66 45 0f ef c0       	pxor   %xmm8,%xmm8
    598c:	66 44 0f 28 d3       	movapd %xmm3,%xmm10
    5991:	f2 44 0f 10 1d 26 6f 	movsd  0x6f26(%rip),%xmm11        # c8c0 <_IO_stdin_used+0x8c0>
    5998:	00 00 
    599a:	66 44 0f 55 cb       	andnpd %xmm3,%xmm9
    599f:	f2 4c 0f 2a c0       	cvtsi2sd %rax,%xmm8
    59a4:	f2 45 0f c2 d0 06    	cmpnlesd %xmm8,%xmm10
    59aa:	66 45 0f 54 d3       	andpd  %xmm11,%xmm10
    59af:	f2 45 0f 58 c2       	addsd  %xmm10,%xmm8
    59b4:	66 41 0f 28 d8       	movapd %xmm8,%xmm3
    59b9:	66 41 0f 56 d9       	orpd   %xmm9,%xmm3
    59be:	f2 0f 2c c3          	cvttsd2si %xmm3,%eax
    59c2:	f2 0f 10 9c 24 90 01 	movsd  0x190(%rsp),%xmm3
    59c9:	00 00 
    59cb:	f2 0f 5e dc          	divsd  %xmm4,%xmm3
    59cf:	66 0f 28 e3          	movapd %xmm3,%xmm4
    59d3:	66 0f 54 e0          	andpd  %xmm0,%xmm4
    59d7:	66 0f 2e cc          	ucomisd %xmm4,%xmm1
    59db:	76 35                	jbe    5a12 <_Z5forcedddjjddidPPdRKSt6vectorIiSaIiEEPS0_PPP6tensor+0xf12>
    59dd:	f2 48 0f 2c d3       	cvttsd2si %xmm3,%rdx
    59e2:	66 0f ef e4          	pxor   %xmm4,%xmm4
    59e6:	66 0f 55 c3          	andnpd %xmm3,%xmm0
    59ea:	f2 44 0f 10 05 cd 6e 	movsd  0x6ecd(%rip),%xmm8        # c8c0 <_IO_stdin_used+0x8c0>
    59f1:	00 00 
    59f3:	f2 48 0f 2a e2       	cvtsi2sd %rdx,%xmm4
    59f8:	66 0f 28 cc          	movapd %xmm4,%xmm1
    59fc:	f2 0f c2 cb 06       	cmpnlesd %xmm3,%xmm1
    5a01:	66 41 0f 54 c8       	andpd  %xmm8,%xmm1
    5a06:	f2 0f 5c e1          	subsd  %xmm1,%xmm4
    5a0a:	66 0f 56 e0          	orpd   %xmm0,%xmm4
    5a0e:	66 0f 28 dc          	movapd %xmm4,%xmm3
    5a12:	f2 44 0f 2c fb       	cvttsd2si %xmm3,%r15d
    5a17:	44 39 ed             	cmp    %r13d,%ebp
    5a1a:	0f 86 29 ff ff ff    	jbe    5949 <_Z5forcedddjjddidPPdRKSt6vectorIiSaIiEEPS0_PPP6tensor+0xe49>
    5a20:	44 8b 5c 24 7c       	mov    0x7c(%rsp),%r11d
    5a25:	8d 55 ff             	lea    -0x1(%rbp),%edx
    5a28:	44 89 e9             	mov    %r13d,%ecx
    5a2b:	8d 70 ff             	lea    -0x1(%rax),%esi
    5a2e:	48 8b bc 24 68 01 00 	mov    0x168(%rsp),%rdi
    5a35:	00 
    5a36:	44 29 ea             	sub    %r13d,%edx
    5a39:	48 89 9c 24 d8 00 00 	mov    %rbx,0xd8(%rsp)
    5a40:	00 
    5a41:	4c 8d 04 f5 08 00 00 	lea    0x8(,%rsi,8),%r8
    5a48:	00 
    5a49:	48 01 ca             	add    %rcx,%rdx
    5a4c:	4c 89 a4 24 e0 00 00 	mov    %r12,0xe0(%rsp)
    5a53:	00 
    5a54:	89 c3                	mov    %eax,%ebx
    5a56:	45 89 fc             	mov    %r15d,%r12d
    5a59:	4c 8d 34 cf          	lea    (%rdi,%rcx,8),%r14
    5a5d:	41 8d 4b ff          	lea    -0x1(%r11),%ecx
    5a61:	66 45 0f ef c9       	pxor   %xmm9,%xmm9
    5a66:	44 89 de             	mov    %r11d,%esi
    5a69:	4c 8d 54 d7 08       	lea    0x8(%rdi,%rdx,8),%r10
    5a6e:	44 29 f9             	sub    %r15d,%ecx
    5a71:	66 45 0f ef c0       	pxor   %xmm8,%xmm8
    5a76:	44 89 ff             	mov    %r15d,%edi
    5a79:	48 8d 4c 0f 01       	lea    0x1(%rdi,%rcx,1),%rcx
    5a7e:	48 8d 14 fd 00 00 00 	lea    0x0(,%rdi,8),%rdx
    5a85:	00 
    5a86:	4d 89 d7             	mov    %r10,%r15
    5a89:	4c 8d 0c cd 00 00 00 	lea    0x0(,%rcx,8),%r9
    5a90:	00 
    5a91:	0f 1f 80 00 00 00 00 	nopl   0x0(%rax)
    5a98:	85 db                	test   %ebx,%ebx
    5a9a:	0f 84 fd 02 00 00    	je     5d9d <_Z5forcedddjjddidPPdRKSt6vectorIiSaIiEEPS0_PPP6tensor+0x129d>
    5aa0:	49 8b 2e             	mov    (%r14),%rbp
    5aa3:	4d 8d 2c 28          	lea    (%r8,%rbp,1),%r13
    5aa7:	66 0f 1f 84 00 00 00 	nopw   0x0(%rax,%rax,1)
    5aae:	00 00 
    5ab0:	48 8b 45 00          	mov    0x0(%rbp),%rax
    5ab4:	f2 0f 10 08          	movsd  (%rax),%xmm1
    5ab8:	66 0f 2f ca          	comisd %xmm2,%xmm1
    5abc:	66 0f 28 d9          	movapd %xmm1,%xmm3
    5ac0:	66 0f 14 db          	unpcklpd %xmm3,%xmm3
    5ac4:	0f 29 1c 24          	movaps %xmm3,(%rsp)
    5ac8:	0f 82 c2 02 00 00    	jb     5d90 <_Z5forcedddjjddidPPdRKSt6vectorIiSaIiEEPS0_PPP6tensor+0x1290>
    5ace:	66 0f 2f e9          	comisd %xmm1,%xmm5
    5ad2:	f2 0f 11 4c 24 30    	movsd  %xmm1,0x30(%rsp)
    5ad8:	0f 82 b2 02 00 00    	jb     5d90 <_Z5forcedddjjddidPPdRKSt6vectorIiSaIiEEPS0_PPP6tensor+0x1290>
    5ade:	f2 0f 10 60 08       	movsd  0x8(%rax),%xmm4
    5ae3:	66 0f 2f e6          	comisd %xmm6,%xmm4
    5ae7:	66 44 0f 28 d4       	movapd %xmm4,%xmm10
    5aec:	66 45 0f 14 d2       	unpcklpd %xmm10,%xmm10
    5af1:	44 0f 29 54 24 20    	movaps %xmm10,0x20(%rsp)
    5af7:	0f 82 93 02 00 00    	jb     5d90 <_Z5forcedddjjddidPPdRKSt6vectorIiSaIiEEPS0_PPP6tensor+0x1290>
    5afd:	66 0f 2f fc          	comisd %xmm4,%xmm7
    5b01:	f2 0f 11 64 24 68    	movsd  %xmm4,0x68(%rsp)
    5b07:	0f 82 83 02 00 00    	jb     5d90 <_Z5forcedddjjddidPPdRKSt6vectorIiSaIiEEPS0_PPP6tensor+0x1290>
    5b0d:	f2 44 0f 10 60 10    	movsd  0x10(%rax),%xmm12
    5b13:	66 44 0f 2f 64 24 38 	comisd 0x38(%rsp),%xmm12
    5b1a:	66 45 0f 28 ec       	movapd %xmm12,%xmm13
    5b1f:	66 45 0f 14 ed       	unpcklpd %xmm13,%xmm13
    5b24:	44 0f 29 ac 24 90 00 	movaps %xmm13,0x90(%rsp)
    5b2b:	00 00 
    5b2d:	0f 82 5d 02 00 00    	jb     5d90 <_Z5forcedddjjddidPPdRKSt6vectorIiSaIiEEPS0_PPP6tensor+0x1290>
    5b33:	f2 44 0f 11 a4 24 c0 	movsd  %xmm12,0xc0(%rsp)
    5b3a:	00 00 00 
    5b3d:	f2 0f 10 44 24 10    	movsd  0x10(%rsp),%xmm0
    5b43:	66 41 0f 2f c4       	comisd %xmm12,%xmm0
    5b48:	0f 82 42 02 00 00    	jb     5d90 <_Z5forcedddjjddidPPdRKSt6vectorIiSaIiEEPS0_PPP6tensor+0x1290>
    5b4e:	f2 0f 10 84 24 b0 00 	movsd  0xb0(%rsp),%xmm0
    5b55:	00 00 
    5b57:	f2 44 0f 10 58 18    	movsd  0x18(%rax),%xmm11
    5b5d:	f2 0f 11 bc 24 10 01 	movsd  %xmm7,0x110(%rsp)
    5b64:	00 00 
    5b66:	66 0f 28 fd          	movapd %xmm5,%xmm7
    5b6a:	f2 0f 5c fa          	subsd  %xmm2,%xmm7
    5b6e:	4c 89 8c 24 78 01 00 	mov    %r9,0x178(%rsp)
    5b75:	00 
    5b76:	f2 0f 58 c2          	addsd  %xmm2,%xmm0
    5b7a:	4c 89 84 24 70 01 00 	mov    %r8,0x170(%rsp)
    5b81:	00 
    5b82:	89 b4 24 60 01 00 00 	mov    %esi,0x160(%rsp)
    5b89:	48 89 94 24 28 01 00 	mov    %rdx,0x128(%rsp)
    5b90:	00 
    5b91:	44 0f 29 8c 24 50 01 	movaps %xmm9,0x150(%rsp)
    5b98:	00 00 
    5b9a:	f2 0f 5e c7          	divsd  %xmm7,%xmm0
    5b9e:	f2 44 0f 11 84 24 40 	movsd  %xmm8,0x140(%rsp)
    5ba5:	01 00 00 
    5ba8:	f2 44 0f 11 9c 24 20 	movsd  %xmm11,0x120(%rsp)
    5baf:	01 00 00 
    5bb2:	f2 0f 11 ac 24 08 01 	movsd  %xmm5,0x108(%rsp)
    5bb9:	00 00 
    5bbb:	f2 0f 11 94 24 00 01 	movsd  %xmm2,0x100(%rsp)
    5bc2:	00 00 
    5bc4:	f2 0f 11 bc 24 b8 00 	movsd  %xmm7,0xb8(%rsp)
    5bcb:	00 00 
    5bcd:	f2 0f 11 b4 24 e8 00 	movsd  %xmm6,0xe8(%rsp)
    5bd4:	00 00 
    5bd6:	f2 0f 58 84 24 a8 00 	addsd  0xa8(%rsp),%xmm0
    5bdd:	00 00 
    5bdf:	e8 7c c8 ff ff       	call   2460 <round@plt>
    5be4:	f2 0f 10 b4 24 e8 00 	movsd  0xe8(%rsp),%xmm6
    5beb:	00 00 
    5bed:	f2 0f 11 84 24 f8 00 	movsd  %xmm0,0xf8(%rsp)
    5bf4:	00 00 
    5bf6:	f2 0f 10 84 24 c8 00 	movsd  0xc8(%rsp),%xmm0
    5bfd:	00 00 
    5bff:	f2 0f 11 b4 24 f0 00 	movsd  %xmm6,0xf0(%rsp)
    5c06:	00 00 
    5c08:	f2 0f 58 c6          	addsd  %xmm6,%xmm0
    5c0c:	f2 0f 5e 84 24 b8 00 	divsd  0xb8(%rsp),%xmm0
    5c13:	00 00 
    5c15:	f2 0f 58 84 24 a8 00 	addsd  0xa8(%rsp),%xmm0
    5c1c:	00 00 
    5c1e:	e8 3d c8 ff ff       	call   2460 <round@plt>
    5c23:	f2 0f 11 84 24 e8 00 	movsd  %xmm0,0xe8(%rsp)
    5c2a:	00 00 
    5c2c:	f2 0f 10 84 24 80 00 	movsd  0x80(%rsp),%xmm0
    5c33:	00 00 
    5c35:	f2 0f 58 44 24 38    	addsd  0x38(%rsp),%xmm0
    5c3b:	f2 0f 5e 84 24 b8 00 	divsd  0xb8(%rsp),%xmm0
    5c42:	00 00 
    5c44:	f2 0f 58 84 24 a8 00 	addsd  0xa8(%rsp),%xmm0
    5c4b:	00 00 
    5c4d:	e8 0e c8 ff ff       	call   2460 <round@plt>
    5c52:	66 0f 28 1c 24       	movapd (%rsp),%xmm3
    5c57:	f2 44 0f 10 bc 24 f8 	movsd  0xf8(%rsp),%xmm15
    5c5e:	00 00 00 
    5c61:	48 8b bc 24 48 01 00 	mov    0x148(%rsp),%rdi
    5c68:	00 
    5c69:	f2 0f 10 4c 24 30    	movsd  0x30(%rsp),%xmm1
    5c6f:	f2 41 0f 2c c7       	cvttsd2si %xmm15,%eax
    5c74:	f2 0f 10 64 24 68    	movsd  0x68(%rsp),%xmm4
    5c7a:	f2 44 0f 10 b4 24 e8 	movsd  0xe8(%rsp),%xmm14
    5c81:	00 00 00 
    5c84:	66 44 0f 28 54 24 20 	movapd 0x20(%rsp),%xmm10
    5c8b:	66 44 0f 28 ac 24 90 	movapd 0x90(%rsp),%xmm13
    5c92:	00 00 00 
    5c95:	f2 44 0f 10 9c 24 20 	movsd  0x120(%rsp),%xmm11
    5c9c:	01 00 00 
    5c9f:	f2 41 0f 2c ce       	cvttsd2si %xmm14,%ecx
    5ca4:	66 44 0f 28 8c 24 50 	movapd 0x150(%rsp),%xmm9
    5cab:	01 00 00 
    5cae:	48 98                	cltq   
    5cb0:	4c 8b 14 c7          	mov    (%rdi,%rax,8),%r10
    5cb4:	f2 0f 2c c0          	cvttsd2si %xmm0,%eax
    5cb8:	48 63 c9             	movslq %ecx,%rcx
    5cbb:	48 98                	cltq   
    5cbd:	48 8d 3c c0          	lea    (%rax,%rax,8),%rdi
    5cc1:	49 8b 04 ca          	mov    (%r10,%rcx,8),%rax
    5cc5:	48 8d 04 f8          	lea    (%rax,%rdi,8),%rax
    5cc9:	66 0f 10 38          	movupd (%rax),%xmm7
    5ccd:	66 0f 10 40 18       	movupd 0x18(%rax),%xmm0
    5cd2:	f2 0f 59 48 10       	mulsd  0x10(%rax),%xmm1
    5cd7:	66 0f 59 df          	mulpd  %xmm7,%xmm3
    5cdb:	66 41 0f 59 c2       	mulpd  %xmm10,%xmm0
    5ce0:	f2 0f 59 60 28       	mulsd  0x28(%rax),%xmm4
    5ce5:	66 0f 58 c3          	addpd  %xmm3,%xmm0
    5ce9:	66 0f 10 58 30       	movupd 0x30(%rax),%xmm3
    5cee:	f2 0f 58 cc          	addsd  %xmm4,%xmm1
    5cf2:	66 41 0f 59 dd       	mulpd  %xmm13,%xmm3
    5cf7:	66 0f 58 c3          	addpd  %xmm3,%xmm0
    5cfb:	66 41 0f 28 db       	movapd %xmm11,%xmm3
    5d00:	66 0f 14 db          	unpcklpd %xmm3,%xmm3
    5d04:	66 0f 59 c3          	mulpd  %xmm3,%xmm0
    5d08:	66 0f 5e 84 24 30 01 	divpd  0x130(%rsp),%xmm0
    5d0f:	00 00 
    5d11:	66 44 0f 58 c8       	addpd  %xmm0,%xmm9
    5d16:	f2 44 0f 10 a4 24 c0 	movsd  0xc0(%rsp),%xmm12
    5d1d:	00 00 00 
    5d20:	f2 44 0f 59 60 40    	mulsd  0x40(%rax),%xmm12
    5d26:	66 0f 28 c1          	movapd %xmm1,%xmm0
    5d2a:	4c 8b 8c 24 78 01 00 	mov    0x178(%rsp),%r9
    5d31:	00 
    5d32:	f2 44 0f 10 84 24 40 	movsd  0x140(%rsp),%xmm8
    5d39:	01 00 00 
    5d3c:	4c 8b 84 24 70 01 00 	mov    0x170(%rsp),%r8
    5d43:	00 
    5d44:	8b b4 24 60 01 00 00 	mov    0x160(%rsp),%esi
    5d4b:	48 8b 94 24 28 01 00 	mov    0x128(%rsp),%rdx
    5d52:	00 
    5d53:	f2 0f 10 bc 24 10 01 	movsd  0x110(%rsp),%xmm7
    5d5a:	00 00 
    5d5c:	f2 0f 10 ac 24 08 01 	movsd  0x108(%rsp),%xmm5
    5d63:	00 00 
    5d65:	f2 0f 10 94 24 00 01 	movsd  0x100(%rsp),%xmm2
    5d6c:	00 00 
    5d6e:	f2 0f 10 b4 24 f0 00 	movsd  0xf0(%rsp),%xmm6
    5d75:	00 00 
    5d77:	f2 41 0f 58 c4       	addsd  %xmm12,%xmm0
    5d7c:	f2 41 0f 59 c3       	mulsd  %xmm11,%xmm0
    5d81:	f2 0f 5e 44 24 40    	divsd  0x40(%rsp),%xmm0
    5d87:	f2 44 0f 58 c0       	addsd  %xmm0,%xmm8
    5d8c:	0f 1f 40 00          	nopl   0x0(%rax)
    5d90:	48 83 c5 08          	add    $0x8,%rbp
    5d94:	49 39 ed             	cmp    %rbp,%r13
    5d97:	0f 85 13 fd ff ff    	jne    5ab0 <_Z5forcedddjjddidPPdRKSt6vectorIiSaIiEEPS0_PPP6tensor+0xfb0>
    5d9d:	44 39 e6             	cmp    %r12d,%esi
    5da0:	0f 86 ff 02 00 00    	jbe    60a5 <_Z5forcedddjjddidPPdRKSt6vectorIiSaIiEEPS0_PPP6tensor+0x15a5>
    5da6:	4d 8b 2e             	mov    (%r14),%r13
    5da9:	49 8d 6c 15 00       	lea    0x0(%r13,%rdx,1),%rbp
    5dae:	4d 01 cd             	add    %r9,%r13
    5db1:	0f 1f 80 00 00 00 00 	nopl   0x0(%rax)
    5db8:	48 8b 45 00          	mov    0x0(%rbp),%rax
    5dbc:	f2 0f 10 08          	movsd  (%rax),%xmm1
    5dc0:	66 0f 2f ca          	comisd %xmm2,%xmm1
    5dc4:	66 0f 28 d9          	movapd %xmm1,%xmm3
    5dc8:	66 0f 14 db          	unpcklpd %xmm3,%xmm3
    5dcc:	0f 29 1c 24          	movaps %xmm3,(%rsp)
    5dd0:	0f 82 c2 02 00 00    	jb     6098 <_Z5forcedddjjddidPPdRKSt6vectorIiSaIiEEPS0_PPP6tensor+0x1598>
    5dd6:	66 0f 2f e9          	comisd %xmm1,%xmm5
    5dda:	f2 0f 11 4c 24 30    	movsd  %xmm1,0x30(%rsp)
    5de0:	0f 82 b2 02 00 00    	jb     6098 <_Z5forcedddjjddidPPdRKSt6vectorIiSaIiEEPS0_PPP6tensor+0x1598>
    5de6:	f2 0f 10 60 08       	movsd  0x8(%rax),%xmm4
    5deb:	66 0f 2f e6          	comisd %xmm6,%xmm4
    5def:	66 44 0f 28 d4       	movapd %xmm4,%xmm10
    5df4:	66 45 0f 14 d2       	unpcklpd %xmm10,%xmm10
    5df9:	44 0f 29 54 24 20    	movaps %xmm10,0x20(%rsp)
    5dff:	0f 82 93 02 00 00    	jb     6098 <_Z5forcedddjjddidPPdRKSt6vectorIiSaIiEEPS0_PPP6tensor+0x1598>
    5e05:	66 0f 2f fc          	comisd %xmm4,%xmm7
    5e09:	f2 0f 11 64 24 68    	movsd  %xmm4,0x68(%rsp)
    5e0f:	0f 82 83 02 00 00    	jb     6098 <_Z5forcedddjjddidPPdRKSt6vectorIiSaIiEEPS0_PPP6tensor+0x1598>
    5e15:	f2 44 0f 10 60 10    	movsd  0x10(%rax),%xmm12
    5e1b:	66 44 0f 2f 64 24 38 	comisd 0x38(%rsp),%xmm12
    5e22:	66 45 0f 28 ec       	movapd %xmm12,%xmm13
    5e27:	66 45 0f 14 ed       	unpcklpd %xmm13,%xmm13
    5e2c:	44 0f 29 ac 24 90 00 	movaps %xmm13,0x90(%rsp)
    5e33:	00 00 
    5e35:	0f 82 5d 02 00 00    	jb     6098 <_Z5forcedddjjddidPPdRKSt6vectorIiSaIiEEPS0_PPP6tensor+0x1598>
    5e3b:	f2 44 0f 11 a4 24 c0 	movsd  %xmm12,0xc0(%rsp)
    5e42:	00 00 00 
    5e45:	f2 0f 10 44 24 10    	movsd  0x10(%rsp),%xmm0
    5e4b:	66 41 0f 2f c4       	comisd %xmm12,%xmm0
    5e50:	0f 82 42 02 00 00    	jb     6098 <_Z5forcedddjjddidPPdRKSt6vectorIiSaIiEEPS0_PPP6tensor+0x1598>
    5e56:	f2 0f 10 84 24 b0 00 	movsd  0xb0(%rsp),%xmm0
    5e5d:	00 00 
    5e5f:	f2 44 0f 10 58 18    	movsd  0x18(%rax),%xmm11
    5e65:	f2 0f 11 bc 24 10 01 	movsd  %xmm7,0x110(%rsp)
    5e6c:	00 00 
    5e6e:	66 0f 28 fd          	movapd %xmm5,%xmm7
    5e72:	f2 0f 5c fa          	subsd  %xmm2,%xmm7
    5e76:	4c 89 8c 24 78 01 00 	mov    %r9,0x178(%rsp)
    5e7d:	00 
    5e7e:	f2 0f 58 c2          	addsd  %xmm2,%xmm0
    5e82:	4c 89 84 24 70 01 00 	mov    %r8,0x170(%rsp)
    5e89:	00 
    5e8a:	89 b4 24 60 01 00 00 	mov    %esi,0x160(%rsp)
    5e91:	48 89 94 24 28 01 00 	mov    %rdx,0x128(%rsp)
    5e98:	00 
    5e99:	44 0f 29 8c 24 50 01 	movaps %xmm9,0x150(%rsp)
    5ea0:	00 00 
    5ea2:	f2 0f 5e c7          	divsd  %xmm7,%xmm0
    5ea6:	f2 44 0f 11 84 24 40 	movsd  %xmm8,0x140(%rsp)
    5ead:	01 00 00 
    5eb0:	f2 44 0f 11 9c 24 20 	movsd  %xmm11,0x120(%rsp)
    5eb7:	01 00 00 
    5eba:	f2 0f 11 ac 24 08 01 	movsd  %xmm5,0x108(%rsp)
    5ec1:	00 00 
    5ec3:	f2 0f 11 94 24 00 01 	movsd  %xmm2,0x100(%rsp)
    5eca:	00 00 
    5ecc:	f2 0f 11 bc 24 b8 00 	movsd  %xmm7,0xb8(%rsp)
    5ed3:	00 00 
    5ed5:	f2 0f 11 b4 24 e8 00 	movsd  %xmm6,0xe8(%rsp)
    5edc:	00 00 
    5ede:	f2 0f 58 84 24 a8 00 	addsd  0xa8(%rsp),%xmm0
    5ee5:	00 00 
    5ee7:	e8 74 c5 ff ff       	call   2460 <round@plt>
    5eec:	f2 0f 10 b4 24 e8 00 	movsd  0xe8(%rsp),%xmm6
    5ef3:	00 00 
    5ef5:	f2 0f 11 84 24 f8 00 	movsd  %xmm0,0xf8(%rsp)
    5efc:	00 00 
    5efe:	f2 0f 10 84 24 c8 00 	movsd  0xc8(%rsp),%xmm0
    5f05:	00 00 
    5f07:	f2 0f 11 b4 24 f0 00 	movsd  %xmm6,0xf0(%rsp)
    5f0e:	00 00 
    5f10:	f2 0f 58 c6          	addsd  %xmm6,%xmm0
    5f14:	f2 0f 5e 84 24 b8 00 	divsd  0xb8(%rsp),%xmm0
    5f1b:	00 00 
    5f1d:	f2 0f 58 84 24 a8 00 	addsd  0xa8(%rsp),%xmm0
    5f24:	00 00 
    5f26:	e8 35 c5 ff ff       	call   2460 <round@plt>
    5f2b:	f2 0f 11 84 24 e8 00 	movsd  %xmm0,0xe8(%rsp)
    5f32:	00 00 
    5f34:	f2 0f 10 84 24 80 00 	movsd  0x80(%rsp),%xmm0
    5f3b:	00 00 
    5f3d:	f2 0f 58 44 24 38    	addsd  0x38(%rsp),%xmm0
    5f43:	f2 0f 5e 84 24 b8 00 	divsd  0xb8(%rsp),%xmm0
    5f4a:	00 00 
    5f4c:	f2 0f 58 84 24 a8 00 	addsd  0xa8(%rsp),%xmm0
    5f53:	00 00 
    5f55:	e8 06 c5 ff ff       	call   2460 <round@plt>
    5f5a:	66 0f 28 1c 24       	movapd (%rsp),%xmm3
    5f5f:	f2 44 0f 10 bc 24 f8 	movsd  0xf8(%rsp),%xmm15
    5f66:	00 00 00 
    5f69:	48 8b bc 24 48 01 00 	mov    0x148(%rsp),%rdi
    5f70:	00 
    5f71:	f2 0f 10 4c 24 30    	movsd  0x30(%rsp),%xmm1
    5f77:	f2 41 0f 2c c7       	cvttsd2si %xmm15,%eax
    5f7c:	f2 0f 10 64 24 68    	movsd  0x68(%rsp),%xmm4
    5f82:	f2 44 0f 10 b4 24 e8 	movsd  0xe8(%rsp),%xmm14
    5f89:	00 00 00 
    5f8c:	66 44 0f 28 54 24 20 	movapd 0x20(%rsp),%xmm10
    5f93:	66 44 0f 28 ac 24 90 	movapd 0x90(%rsp),%xmm13
    5f9a:	00 00 00 
    5f9d:	f2 44 0f 10 9c 24 20 	movsd  0x120(%rsp),%xmm11
    5fa4:	01 00 00 
    5fa7:	f2 41 0f 2c ce       	cvttsd2si %xmm14,%ecx
    5fac:	66 44 0f 28 8c 24 50 	movapd 0x150(%rsp),%xmm9
    5fb3:	01 00 00 
    5fb6:	48 98                	cltq   
    5fb8:	4c 8b 14 c7          	mov    (%rdi,%rax,8),%r10
    5fbc:	f2 0f 2c c0          	cvttsd2si %xmm0,%eax
    5fc0:	48 63 c9             	movslq %ecx,%rcx
    5fc3:	48 98                	cltq   
    5fc5:	48 8d 3c c0          	lea    (%rax,%rax,8),%rdi
    5fc9:	49 8b 04 ca          	mov    (%r10,%rcx,8),%rax
    5fcd:	48 8d 04 f8          	lea    (%rax,%rdi,8),%rax
    5fd1:	66 0f 10 38          	movupd (%rax),%xmm7
    5fd5:	66 0f 10 40 18       	movupd 0x18(%rax),%xmm0
    5fda:	f2 0f 59 48 10       	mulsd  0x10(%rax),%xmm1
    5fdf:	66 0f 59 df          	mulpd  %xmm7,%xmm3
    5fe3:	66 41 0f 59 c2       	mulpd  %xmm10,%xmm0
    5fe8:	f2 0f 59 60 28       	mulsd  0x28(%rax),%xmm4
    5fed:	66 0f 58 c3          	addpd  %xmm3,%xmm0
    5ff1:	66 0f 10 58 30       	movupd 0x30(%rax),%xmm3
    5ff6:	f2 0f 58 cc          	addsd  %xmm4,%xmm1
    5ffa:	66 41 0f 59 dd       	mulpd  %xmm13,%xmm3
    5fff:	66 0f 58 c3          	addpd  %xmm3,%xmm0
    6003:	66 41 0f 28 db       	movapd %xmm11,%xmm3
    6008:	66 0f 14 db          	unpcklpd %xmm3,%xmm3
    600c:	66 0f 59 c3          	mulpd  %xmm3,%xmm0
    6010:	66 0f 5e 84 24 30 01 	divpd  0x130(%rsp),%xmm0
    6017:	00 00 
    6019:	66 44 0f 58 c8       	addpd  %xmm0,%xmm9
    601e:	f2 44 0f 10 a4 24 c0 	movsd  0xc0(%rsp),%xmm12
    6025:	00 00 00 
    6028:	f2 44 0f 59 60 40    	mulsd  0x40(%rax),%xmm12
    602e:	66 0f 28 c1          	movapd %xmm1,%xmm0
    6032:	4c 8b 8c 24 78 01 00 	mov    0x178(%rsp),%r9
    6039:	00 
    603a:	f2 44 0f 10 84 24 40 	movsd  0x140(%rsp),%xmm8
    6041:	01 00 00 
    6044:	4c 8b 84 24 70 01 00 	mov    0x170(%rsp),%r8
    604b:	00 
    604c:	8b b4 24 60 01 00 00 	mov    0x160(%rsp),%esi
    6053:	48 8b 94 24 28 01 00 	mov    0x128(%rsp),%rdx
    605a:	00 
    605b:	f2 0f 10 bc 24 10 01 	movsd  0x110(%rsp),%xmm7
    6062:	00 00 
    6064:	f2 0f 10 ac 24 08 01 	movsd  0x108(%rsp),%xmm5
    606b:	00 00 
    606d:	f2 0f 10 94 24 00 01 	movsd  0x100(%rsp),%xmm2
    6074:	00 00 
    6076:	f2 0f 10 b4 24 f0 00 	movsd  0xf0(%rsp),%xmm6
    607d:	00 00 
    607f:	f2 41 0f 58 c4       	addsd  %xmm12,%xmm0
    6084:	f2 41 0f 59 c3       	mulsd  %xmm11,%xmm0
    6089:	f2 0f 5e 44 24 40    	divsd  0x40(%rsp),%xmm0
    608f:	f2 44 0f 58 c0       	addsd  %xmm0,%xmm8
    6094:	0f 1f 40 00          	nopl   0x0(%rax)
    6098:	48 83 c5 08          	add    $0x8,%rbp
    609c:	49 39 ed             	cmp    %rbp,%r13
    609f:	0f 85 13 fd ff ff    	jne    5db8 <_Z5forcedddjjddidPPdRKSt6vectorIiSaIiEEPS0_PPP6tensor+0x12b8>
    60a5:	49 83 c6 08          	add    $0x8,%r14
    60a9:	4d 39 f7             	cmp    %r14,%r15
    60ac:	0f 85 e6 f9 ff ff    	jne    5a98 <_Z5forcedddjjddidPPdRKSt6vectorIiSaIiEEPS0_PPP6tensor+0xf98>
    60b2:	48 8b 9c 24 d8 00 00 	mov    0xd8(%rsp),%rbx
    60b9:	00 
    60ba:	4c 8b a4 24 e0 00 00 	mov    0xe0(%rsp),%r12
    60c1:	00 
    60c2:	e9 e3 f5 ff ff       	jmp    56aa <_Z5forcedddjjddidPPdRKSt6vectorIiSaIiEEPS0_PPP6tensor+0xbaa>
    60c7:	f2 0f 10 05 d1 67 00 	movsd  0x67d1(%rip),%xmm0        # c8a0 <_IO_stdin_used+0x8a0>
    60ce:	00 
    60cf:	e9 76 ec ff ff       	jmp    4d4a <_Z5forcedddjjddidPPdRKSt6vectorIiSaIiEEPS0_PPP6tensor+0x24a>
    60d4:	f2 0f 10 05 c4 67 00 	movsd  0x67c4(%rip),%xmm0        # c8a0 <_IO_stdin_used+0x8a0>
    60db:	00 
    60dc:	e9 87 ef ff ff       	jmp    5068 <_Z5forcedddjjddidPPdRKSt6vectorIiSaIiEEPS0_PPP6tensor+0x568>
    60e1:	e8 ea c4 ff ff       	call   25d0 <__stack_chk_fail@plt>
    60e6:	48 8d 0d 4b 5f 00 00 	lea    0x5f4b(%rip),%rcx        # c038 <_IO_stdin_used+0x38>
    60ed:	ba 7f 01 00 00       	mov    $0x17f,%edx
    60f2:	48 8d 35 44 66 00 00 	lea    0x6644(%rip),%rsi        # c73d <_IO_stdin_used+0x73d>
    60f9:	48 8d 3d 4a 66 00 00 	lea    0x664a(%rip),%rdi        # c74a <_IO_stdin_used+0x74a>
    6100:	e8 cb c3 ff ff       	call   24d0 <__assert_fail@plt>
    6105:	66 66 2e 0f 1f 84 00 	data16 cs nopw 0x0(%rax,%rax,1)
    610c:	00 00 00 00 

0000000000006110 <_Z6torquedddjjddidPPdRKSt6vectorIiSaIiEEPS0_PPP6tensor>:
    6110:	f3 0f 1e fa          	endbr64 
    6114:	66 0f ef f6          	pxor   %xmm6,%xmm6
    6118:	41 57                	push   %r15
    611a:	f2 0f 2a f1          	cvtsi2sd %ecx,%xmm6
    611e:	41 56                	push   %r14
    6120:	41 55                	push   %r13
    6122:	41 54                	push   %r12
    6124:	49 89 fc             	mov    %rdi,%r12
    6127:	55                   	push   %rbp
    6128:	f2 0f 5e e6          	divsd  %xmm6,%xmm4
    612c:	53                   	push   %rbx
    612d:	48 81 ec 88 01 00 00 	sub    $0x188,%rsp
    6134:	48 8b 84 24 c8 01 00 	mov    0x1c8(%rsp),%rax
    613b:	00 
    613c:	48 8b bc 24 c0 01 00 	mov    0x1c0(%rsp),%rdi
    6143:	00 
    6144:	89 74 24 6c          	mov    %esi,0x6c(%rsp)
    6148:	89 54 24 44          	mov    %edx,0x44(%rsp)
    614c:	4c 89 44 24 58       	mov    %r8,0x58(%rsp)
    6151:	48 89 bc 24 38 01 00 	mov    %rdi,0x138(%rsp)
    6158:	00 
    6159:	48 89 84 24 18 01 00 	mov    %rax,0x118(%rsp)
    6160:	00 
    6161:	f2 0f 11 84 24 00 01 	movsd  %xmm0,0x100(%rsp)
    6168:	00 00 
    616a:	66 0f ef c0          	pxor   %xmm0,%xmm0
    616e:	f2 0f 11 8c 24 08 01 	movsd  %xmm1,0x108(%rsp)
    6175:	00 00 
    6177:	f2 0f 11 94 24 10 01 	movsd  %xmm2,0x110(%rsp)
    617e:	00 00 
    6180:	f2 0f 11 5c 24 10    	movsd  %xmm3,0x10(%rsp)
    6186:	64 48 8b 04 25 28 00 	mov    %fs:0x28,%rax
    618d:	00 00 
    618f:	48 89 84 24 78 01 00 	mov    %rax,0x178(%rsp)
    6196:	00 
    6197:	31 c0                	xor    %eax,%eax
    6199:	f2 0f 11 74 24 60    	movsd  %xmm6,0x60(%rsp)
    619f:	49 c7 44 24 10 00 00 	movq   $0x0,0x10(%r12)
    61a6:	00 00 
    61a8:	41 0f 11 04 24       	movups %xmm0,(%r12)
    61ad:	f2 0f 59 25 fb 66 00 	mulsd  0x66fb(%rip),%xmm4        # c8b0 <_IO_stdin_used+0x8b0>
    61b4:	00 
    61b5:	f2 0f 11 64 24 38    	movsd  %xmm4,0x38(%rsp)
    61bb:	48 85 ff             	test   %rdi,%rdi
    61be:	0f 84 d7 15 00 00    	je     779b <_Z6torquedddjjddidPPdRKSt6vectorIiSaIiEEPS0_PPP6tensor+0x168b>
    61c4:	49 8b 41 08          	mov    0x8(%r9),%rax
    61c8:	49 8b 19             	mov    (%r9),%rbx
    61cb:	48 89 44 24 50       	mov    %rax,0x50(%rsp)
    61d0:	48 39 d8             	cmp    %rbx,%rax
    61d3:	0f 84 d7 01 00 00    	je     63b0 <_Z6torquedddjjddidPPdRKSt6vectorIiSaIiEEPS0_PPP6tensor+0x2a0>
    61d9:	48 c7 44 24 18 00 00 	movq   $0x0,0x18(%rsp)
    61e0:	00 00 
    61e2:	89 d0                	mov    %edx,%eax
    61e4:	66 0f 28 f3          	movapd %xmm3,%xmm6
    61e8:	66 0f 57 35 40 67 00 	xorpd  0x6740(%rip),%xmm6        # c930 <_IO_stdin_used+0x930>
    61ef:	00 
    61f0:	01 c0                	add    %eax,%eax
    61f2:	89 44 24 68          	mov    %eax,0x68(%rsp)
    61f6:	f2 0f 11 74 24 30    	movsd  %xmm6,0x30(%rsp)
    61fc:	66 0f ef f6          	pxor   %xmm6,%xmm6
    6200:	0f 29 74 24 20       	movaps %xmm6,0x20(%rsp)
    6205:	0f 1f 00             	nopl   (%rax)
    6208:	48 63 03             	movslq (%rbx),%rax
    620b:	48 8b 7c 24 58       	mov    0x58(%rsp),%rdi
    6210:	f2 0f 10 6c 24 38    	movsd  0x38(%rsp),%xmm5
    6216:	8b 6c 24 44          	mov    0x44(%rsp),%ebp
    621a:	48 8b 04 c7          	mov    (%rdi,%rax,8),%rax
    621e:	f2 0f 10 40 10       	movsd  0x10(%rax),%xmm0
    6223:	4c 8b 30             	mov    (%rax),%r14
    6226:	f2 0f 10 70 08       	movsd  0x8(%rax),%xmm6
    622b:	66 0f 28 e0          	movapd %xmm0,%xmm4
    622f:	f2 0f 58 c5          	addsd  %xmm5,%xmm0
    6233:	f2 0f 5c e5          	subsd  %xmm5,%xmm4
    6237:	66 0f 2f 64 24 30    	comisd 0x30(%rsp),%xmm4
    623d:	f2 0f 11 04 24       	movsd  %xmm0,(%rsp)
    6242:	f2 0f 11 64 24 08    	movsd  %xmm4,0x8(%rsp)
    6248:	0f 87 4a 02 00 00    	ja     6498 <_Z6torquedddjjddidPPdRKSt6vectorIiSaIiEEPS0_PPP6tensor+0x388>
    624e:	f2 0f 10 64 24 10    	movsd  0x10(%rsp),%xmm4
    6254:	45 31 ed             	xor    %r13d,%r13d
    6257:	66 0f 2f 24 24       	comisd (%rsp),%xmm4
    625c:	0f 87 7e 01 00 00    	ja     63e0 <_Z6torquedddjjddidPPdRKSt6vectorIiSaIiEEPS0_PPP6tensor+0x2d0>
    6262:	f2 0f 10 64 24 30    	movsd  0x30(%rsp),%xmm4
    6268:	66 0f 2f 24 24       	comisd (%rsp),%xmm4
    626d:	0f 87 fd 00 00 00    	ja     6370 <_Z6torquedddjjddidPPdRKSt6vectorIiSaIiEEPS0_PPP6tensor+0x260>
    6273:	f2 0f 10 5c 24 08    	movsd  0x8(%rsp),%xmm3
    6279:	66 0f 2f 5c 24 10    	comisd 0x10(%rsp),%xmm3
    627f:	0f 87 eb 00 00 00    	ja     6370 <_Z6torquedddjjddidPPdRKSt6vectorIiSaIiEEPS0_PPP6tensor+0x260>
    6285:	f2 0f 10 64 24 38    	movsd  0x38(%rsp),%xmm4
    628b:	66 49 0f 6e d6       	movq   %r14,%xmm2
    6290:	66 0f ef db          	pxor   %xmm3,%xmm3
    6294:	66 0f 28 ee          	movapd %xmm6,%xmm5
    6298:	f2 0f 5c d4          	subsd  %xmm4,%xmm2
    629c:	f2 0f 5c ec          	subsd  %xmm4,%xmm5
    62a0:	f2 0f 58 f4          	addsd  %xmm4,%xmm6
    62a4:	66 0f 2e d3          	ucomisd %xmm3,%xmm2
    62a8:	7a 06                	jp     62b0 <_Z6torquedddjjddidPPdRKSt6vectorIiSaIiEEPS0_PPP6tensor+0x1a0>
    62aa:	0f 84 97 02 00 00    	je     6547 <_Z6torquedddjjddidPPdRKSt6vectorIiSaIiEEPS0_PPP6tensor+0x437>
    62b0:	66 0f 28 c5          	movapd %xmm5,%xmm0
    62b4:	f2 0f 11 74 24 78    	movsd  %xmm6,0x78(%rsp)
    62ba:	f2 0f 5e c2          	divsd  %xmm2,%xmm0
    62be:	f2 0f 11 6c 24 70    	movsd  %xmm5,0x70(%rsp)
    62c4:	f2 0f 11 54 24 48    	movsd  %xmm2,0x48(%rsp)
    62ca:	e8 71 c2 ff ff       	call   2540 <atan@plt>
    62cf:	f2 0f 10 6c 24 70    	movsd  0x70(%rsp),%xmm5
    62d5:	66 0f ef db          	pxor   %xmm3,%xmm3
    62d9:	f2 0f 10 54 24 48    	movsd  0x48(%rsp),%xmm2
    62df:	f2 0f 10 74 24 78    	movsd  0x78(%rsp),%xmm6
    62e5:	66 0f 2f dd          	comisd %xmm5,%xmm3
    62e9:	0f 87 80 0b 00 00    	ja     6e6f <_Z6torquedddjjddidPPdRKSt6vectorIiSaIiEEPS0_PPP6tensor+0xd5f>
    62ef:	66 0f 2f eb          	comisd %xmm3,%xmm5
    62f3:	0f 86 85 0a 00 00    	jbe    6d7e <_Z6torquedddjjddidPPdRKSt6vectorIiSaIiEEPS0_PPP6tensor+0xc6e>
    62f9:	66 0f 2f da          	comisd %xmm2,%xmm3
    62fd:	0f 87 9f 0b 00 00    	ja     6ea2 <_Z6torquedddjjddidPPdRKSt6vectorIiSaIiEEPS0_PPP6tensor+0xd92>
    6303:	f2 0f 11 84 24 50 01 	movsd  %xmm0,0x150(%rsp)
    630a:	00 00 
    630c:	66 0f 28 c6          	movapd %xmm6,%xmm0
    6310:	f2 0f 5e c2          	divsd  %xmm2,%xmm0
    6314:	f2 0f 11 6c 24 78    	movsd  %xmm5,0x78(%rsp)
    631a:	f2 0f 11 74 24 70    	movsd  %xmm6,0x70(%rsp)
    6320:	f2 0f 11 54 24 48    	movsd  %xmm2,0x48(%rsp)
    6326:	e8 15 c2 ff ff       	call   2540 <atan@plt>
    632b:	f2 0f 10 74 24 70    	movsd  0x70(%rsp),%xmm6
    6331:	66 0f ef db          	pxor   %xmm3,%xmm3
    6335:	f2 0f 10 54 24 48    	movsd  0x48(%rsp),%xmm2
    633b:	f2 0f 10 6c 24 78    	movsd  0x78(%rsp),%xmm5
    6341:	66 0f 2f de          	comisd %xmm6,%xmm3
    6345:	0f 87 7f 0b 00 00    	ja     6eca <_Z6torquedddjjddidPPdRKSt6vectorIiSaIiEEPS0_PPP6tensor+0xdba>
    634b:	66 0f ef db          	pxor   %xmm3,%xmm3
    634f:	66 0f 2f f3          	comisd %xmm3,%xmm6
    6353:	0f 86 9f 0b 00 00    	jbe    6ef8 <_Z6torquedddjjddidPPdRKSt6vectorIiSaIiEEPS0_PPP6tensor+0xde8>
    6359:	66 0f 2f da          	comisd %xmm2,%xmm3
    635d:	0f 86 26 02 00 00    	jbe    6589 <_Z6torquedddjjddidPPdRKSt6vectorIiSaIiEEPS0_PPP6tensor+0x479>
    6363:	f2 0f 58 05 35 65 00 	addsd  0x6535(%rip),%xmm0        # c8a0 <_IO_stdin_used+0x8a0>
    636a:	00 
    636b:	e9 19 02 00 00       	jmp    6589 <_Z6torquedddjjddidPPdRKSt6vectorIiSaIiEEPS0_PPP6tensor+0x479>
    6370:	66 45 0f ef c0       	pxor   %xmm8,%xmm8
    6375:	66 0f ef ff          	pxor   %xmm7,%xmm7
    6379:	66 0f 28 74 24 20    	movapd 0x20(%rsp),%xmm6
    637f:	f2 0f 58 7c 24 18    	addsd  0x18(%rsp),%xmm7
    6385:	48 83 c3 04          	add    $0x4,%rbx
    6389:	66 41 0f 58 f0       	addpd  %xmm8,%xmm6
    638e:	f2 0f 11 7c 24 18    	movsd  %xmm7,0x18(%rsp)
    6394:	f2 41 0f 11 7c 24 10 	movsd  %xmm7,0x10(%r12)
    639b:	0f 29 74 24 20       	movaps %xmm6,0x20(%rsp)
    63a0:	41 0f 11 34 24       	movups %xmm6,(%r12)
    63a5:	48 39 5c 24 50       	cmp    %rbx,0x50(%rsp)
    63aa:	0f 85 58 fe ff ff    	jne    6208 <_Z6torquedddjjddidPPdRKSt6vectorIiSaIiEEPS0_PPP6tensor+0xf8>
    63b0:	48 8b 84 24 78 01 00 	mov    0x178(%rsp),%rax
    63b7:	00 
    63b8:	64 48 2b 04 25 28 00 	sub    %fs:0x28,%rax
    63bf:	00 00 
    63c1:	0f 85 f3 13 00 00    	jne    77ba <_Z6torquedddjjddidPPdRKSt6vectorIiSaIiEEPS0_PPP6tensor+0x16aa>
    63c7:	48 81 c4 88 01 00 00 	add    $0x188,%rsp
    63ce:	4c 89 e0             	mov    %r12,%rax
    63d1:	5b                   	pop    %rbx
    63d2:	5d                   	pop    %rbp
    63d3:	41 5c                	pop    %r12
    63d5:	41 5d                	pop    %r13
    63d7:	41 5e                	pop    %r14
    63d9:	41 5f                	pop    %r15
    63db:	c3                   	ret    
    63dc:	0f 1f 40 00          	nopl   0x0(%rax)
    63e0:	f2 0f 10 04 24       	movsd  (%rsp),%xmm0
    63e5:	f2 0f 11 74 24 48    	movsd  %xmm6,0x48(%rsp)
    63eb:	f2 0f 5e c4          	divsd  %xmm4,%xmm0
    63ef:	e8 8c c1 ff ff       	call   2580 <acos@plt>
    63f4:	8b 44 24 68          	mov    0x68(%rsp),%eax
    63f8:	66 0f ef db          	pxor   %xmm3,%xmm3
    63fc:	f2 0f 10 0d 9c 64 00 	movsd  0x649c(%rip),%xmm1        # c8a0 <_IO_stdin_used+0x8a0>
    6403:	00 
    6404:	f2 0f 10 74 24 48    	movsd  0x48(%rsp),%xmm6
    640a:	f2 48 0f 2a d8       	cvtsi2sd %rax,%xmm3
    640f:	66 0f 28 d1          	movapd %xmm1,%xmm2
    6413:	8b 44 24 44          	mov    0x44(%rsp),%eax
    6417:	f2 0f 5e d3          	divsd  %xmm3,%xmm2
    641b:	66 0f ef db          	pxor   %xmm3,%xmm3
    641f:	f2 48 0f 2a d8       	cvtsi2sd %rax,%xmm3
    6424:	f2 0f 5e cb          	divsd  %xmm3,%xmm1
    6428:	f2 0f 5c c2          	subsd  %xmm2,%xmm0
    642c:	66 0f 28 d1          	movapd %xmm1,%xmm2
    6430:	f2 0f 10 0d 80 64 00 	movsd  0x6480(%rip),%xmm1        # c8b8 <_IO_stdin_used+0x8b8>
    6437:	00 
    6438:	f2 0f 5e c2          	divsd  %xmm2,%xmm0
    643c:	f2 0f 10 15 fc 64 00 	movsd  0x64fc(%rip),%xmm2        # c940 <_IO_stdin_used+0x940>
    6443:	00 
    6444:	66 0f 54 d0          	andpd  %xmm0,%xmm2
    6448:	66 0f 2e ca          	ucomisd %xmm2,%xmm1
    644c:	76 3b                	jbe    6489 <_Z6torquedddjjddidPPdRKSt6vectorIiSaIiEEPS0_PPP6tensor+0x379>
    644e:	f2 48 0f 2c c0       	cvttsd2si %xmm0,%rax
    6453:	66 0f ef d2          	pxor   %xmm2,%xmm2
    6457:	f2 0f 10 1d 61 64 00 	movsd  0x6461(%rip),%xmm3        # c8c0 <_IO_stdin_used+0x8c0>
    645e:	00 
    645f:	f2 48 0f 2a d0       	cvtsi2sd %rax,%xmm2
    6464:	66 0f 28 ca          	movapd %xmm2,%xmm1
    6468:	f2 0f c2 c8 06       	cmpnlesd %xmm0,%xmm1
    646d:	66 0f 54 cb          	andpd  %xmm3,%xmm1
    6471:	f2 0f 5c d1          	subsd  %xmm1,%xmm2
    6475:	f2 0f 10 0d c3 64 00 	movsd  0x64c3(%rip),%xmm1        # c940 <_IO_stdin_used+0x940>
    647c:	00 
    647d:	66 0f 55 c8          	andnpd %xmm0,%xmm1
    6481:	66 0f 56 d1          	orpd   %xmm1,%xmm2
    6485:	66 0f 28 c2          	movapd %xmm2,%xmm0
    6489:	f2 44 0f 2c e8       	cvttsd2si %xmm0,%r13d
    648e:	e9 cf fd ff ff       	jmp    6262 <_Z6torquedddjjddidPPdRKSt6vectorIiSaIiEEPS0_PPP6tensor+0x152>
    6493:	0f 1f 44 00 00       	nopl   0x0(%rax,%rax,1)
    6498:	f2 0f 11 74 24 48    	movsd  %xmm6,0x48(%rsp)
    649e:	66 0f 28 c4          	movapd %xmm4,%xmm0
    64a2:	f2 0f 5e 44 24 10    	divsd  0x10(%rsp),%xmm0
    64a8:	e8 d3 c0 ff ff       	call   2580 <acos@plt>
    64ad:	8b 44 24 68          	mov    0x68(%rsp),%eax
    64b1:	66 0f ef db          	pxor   %xmm3,%xmm3
    64b5:	f2 0f 10 0d e3 63 00 	movsd  0x63e3(%rip),%xmm1        # c8a0 <_IO_stdin_used+0x8a0>
    64bc:	00 
    64bd:	f2 0f 10 74 24 48    	movsd  0x48(%rsp),%xmm6
    64c3:	f2 48 0f 2a d8       	cvtsi2sd %rax,%xmm3
    64c8:	66 0f 28 d1          	movapd %xmm1,%xmm2
    64cc:	8b 44 24 44          	mov    0x44(%rsp),%eax
    64d0:	f2 0f 5e d3          	divsd  %xmm3,%xmm2
    64d4:	66 0f ef db          	pxor   %xmm3,%xmm3
    64d8:	f2 48 0f 2a d8       	cvtsi2sd %rax,%xmm3
    64dd:	f2 0f 5e cb          	divsd  %xmm3,%xmm1
    64e1:	f2 0f 10 1d 57 64 00 	movsd  0x6457(%rip),%xmm3        # c940 <_IO_stdin_used+0x940>
    64e8:	00 
    64e9:	f2 0f 5c c2          	subsd  %xmm2,%xmm0
    64ed:	66 0f 28 d1          	movapd %xmm1,%xmm2
    64f1:	f2 0f 10 0d bf 63 00 	movsd  0x63bf(%rip),%xmm1        # c8b8 <_IO_stdin_used+0x8b8>
    64f8:	00 
    64f9:	f2 0f 5e c2          	divsd  %xmm2,%xmm0
    64fd:	66 0f 28 d0          	movapd %xmm0,%xmm2
    6501:	66 0f 54 d3          	andpd  %xmm3,%xmm2
    6505:	66 0f 2e ca          	ucomisd %xmm2,%xmm1
    6509:	76 33                	jbe    653e <_Z6torquedddjjddidPPdRKSt6vectorIiSaIiEEPS0_PPP6tensor+0x42e>
    650b:	f2 48 0f 2c c0       	cvttsd2si %xmm0,%rax
    6510:	66 0f ef d2          	pxor   %xmm2,%xmm2
    6514:	66 0f 28 c8          	movapd %xmm0,%xmm1
    6518:	f2 0f 10 25 a0 63 00 	movsd  0x63a0(%rip),%xmm4        # c8c0 <_IO_stdin_used+0x8c0>
    651f:	00 
    6520:	66 0f 55 d8          	andnpd %xmm0,%xmm3
    6524:	f2 48 0f 2a d0       	cvtsi2sd %rax,%xmm2
    6529:	f2 0f c2 ca 06       	cmpnlesd %xmm2,%xmm1
    652e:	66 0f 54 cc          	andpd  %xmm4,%xmm1
    6532:	f2 0f 58 d1          	addsd  %xmm1,%xmm2
    6536:	66 0f 56 d3          	orpd   %xmm3,%xmm2
    653a:	66 0f 28 c2          	movapd %xmm2,%xmm0
    653e:	f2 0f 2c e8          	cvttsd2si %xmm0,%ebp
    6542:	e9 07 fd ff ff       	jmp    624e <_Z6torquedddjjddidPPdRKSt6vectorIiSaIiEEPS0_PPP6tensor+0x13e>
    6547:	66 0f 2f eb          	comisd %xmm3,%xmm5
    654b:	f2 0f 10 05 3d 63 00 	movsd  0x633d(%rip),%xmm0        # c890 <_IO_stdin_used+0x890>
    6552:	00 
    6553:	77 15                	ja     656a <_Z6torquedddjjddidPPdRKSt6vectorIiSaIiEEPS0_PPP6tensor+0x45a>
    6555:	66 0f 28 cd          	movapd %xmm5,%xmm1
    6559:	f2 0f 10 05 37 63 00 	movsd  0x6337(%rip),%xmm0        # c898 <_IO_stdin_used+0x898>
    6560:	00 
    6561:	f2 0f c2 cb 01       	cmpltsd %xmm3,%xmm1
    6566:	66 0f 54 c1          	andpd  %xmm1,%xmm0
    656a:	f2 0f 11 84 24 50 01 	movsd  %xmm0,0x150(%rsp)
    6571:	00 00 
    6573:	66 0f ef db          	pxor   %xmm3,%xmm3
    6577:	f2 0f 10 05 11 63 00 	movsd  0x6311(%rip),%xmm0        # c890 <_IO_stdin_used+0x890>
    657e:	00 
    657f:	66 0f 2f f3          	comisd %xmm3,%xmm6
    6583:	0f 86 cb 08 00 00    	jbe    6e54 <_Z6torquedddjjddidPPdRKSt6vectorIiSaIiEEPS0_PPP6tensor+0xd44>
    6589:	66 49 0f 6e de       	movq   %r14,%xmm3
    658e:	f2 0f 58 5c 24 38    	addsd  0x38(%rsp),%xmm3
    6594:	66 0f ef ff          	pxor   %xmm7,%xmm7
    6598:	f2 0f 11 84 24 58 01 	movsd  %xmm0,0x158(%rsp)
    659f:	00 00 
    65a1:	66 0f 2e df          	ucomisd %xmm7,%xmm3
    65a5:	7a 06                	jp     65ad <_Z6torquedddjjddidPPdRKSt6vectorIiSaIiEEPS0_PPP6tensor+0x49d>
    65a7:	0f 84 e1 00 00 00    	je     668e <_Z6torquedddjjddidPPdRKSt6vectorIiSaIiEEPS0_PPP6tensor+0x57e>
    65ad:	66 0f 28 c5          	movapd %xmm5,%xmm0
    65b1:	f2 0f 11 54 24 78    	movsd  %xmm2,0x78(%rsp)
    65b7:	f2 0f 5e c3          	divsd  %xmm3,%xmm0
    65bb:	f2 0f 11 6c 24 70    	movsd  %xmm5,0x70(%rsp)
    65c1:	f2 0f 11 b4 24 80 00 	movsd  %xmm6,0x80(%rsp)
    65c8:	00 00 
    65ca:	f2 0f 11 5c 24 48    	movsd  %xmm3,0x48(%rsp)
    65d0:	e8 6b bf ff ff       	call   2540 <atan@plt>
    65d5:	f2 0f 10 6c 24 70    	movsd  0x70(%rsp),%xmm5
    65db:	66 0f ef f6          	pxor   %xmm6,%xmm6
    65df:	f2 0f 10 5c 24 48    	movsd  0x48(%rsp),%xmm3
    65e5:	f2 0f 10 54 24 78    	movsd  0x78(%rsp),%xmm2
    65eb:	66 0f ef ff          	pxor   %xmm7,%xmm7
    65ef:	66 0f 2f f5          	comisd %xmm5,%xmm6
    65f3:	f2 0f 10 b4 24 80 00 	movsd  0x80(%rsp),%xmm6
    65fa:	00 00 
    65fc:	0f 87 80 08 00 00    	ja     6e82 <_Z6torquedddjjddidPPdRKSt6vectorIiSaIiEEPS0_PPP6tensor+0xd72>
    6602:	66 0f 2f ef          	comisd %xmm7,%xmm5
    6606:	0f 86 fd 06 00 00    	jbe    6d09 <_Z6torquedddjjddidPPdRKSt6vectorIiSaIiEEPS0_PPP6tensor+0xbf9>
    660c:	66 0f 2f fb          	comisd %xmm3,%xmm7
    6610:	0f 87 7f 08 00 00    	ja     6e95 <_Z6torquedddjjddidPPdRKSt6vectorIiSaIiEEPS0_PPP6tensor+0xd85>
    6616:	f2 0f 11 84 24 60 01 	movsd  %xmm0,0x160(%rsp)
    661d:	00 00 
    661f:	66 0f 28 c6          	movapd %xmm6,%xmm0
    6623:	f2 0f 5e c3          	divsd  %xmm3,%xmm0
    6627:	f2 0f 11 54 24 78    	movsd  %xmm2,0x78(%rsp)
    662d:	f2 0f 11 ac 24 80 00 	movsd  %xmm5,0x80(%rsp)
    6634:	00 00 
    6636:	f2 0f 11 74 24 70    	movsd  %xmm6,0x70(%rsp)
    663c:	f2 0f 11 5c 24 48    	movsd  %xmm3,0x48(%rsp)
    6642:	e8 f9 be ff ff       	call   2540 <atan@plt>
    6647:	f2 0f 10 74 24 70    	movsd  0x70(%rsp),%xmm6
    664d:	66 0f ef db          	pxor   %xmm3,%xmm3
    6651:	f2 0f 10 54 24 78    	movsd  0x78(%rsp),%xmm2
    6657:	f2 0f 10 ac 24 80 00 	movsd  0x80(%rsp),%xmm5
    665e:	00 00 
    6660:	66 0f 2f de          	comisd %xmm6,%xmm3
    6664:	f2 0f 10 5c 24 48    	movsd  0x48(%rsp),%xmm3
    666a:	0f 87 3f 08 00 00    	ja     6eaf <_Z6torquedddjjddidPPdRKSt6vectorIiSaIiEEPS0_PPP6tensor+0xd9f>
    6670:	66 0f ef ff          	pxor   %xmm7,%xmm7
    6674:	66 0f 2f f7          	comisd %xmm7,%xmm6
    6678:	0f 86 63 08 00 00    	jbe    6ee1 <_Z6torquedddjjddidPPdRKSt6vectorIiSaIiEEPS0_PPP6tensor+0xdd1>
    667e:	66 0f 2f fb          	comisd %xmm3,%xmm7
    6682:	76 4c                	jbe    66d0 <_Z6torquedddjjddidPPdRKSt6vectorIiSaIiEEPS0_PPP6tensor+0x5c0>
    6684:	f2 0f 58 05 14 62 00 	addsd  0x6214(%rip),%xmm0        # c8a0 <_IO_stdin_used+0x8a0>
    668b:	00 
    668c:	eb 42                	jmp    66d0 <_Z6torquedddjjddidPPdRKSt6vectorIiSaIiEEPS0_PPP6tensor+0x5c0>
    668e:	66 0f 2f ef          	comisd %xmm7,%xmm5
    6692:	f2 0f 10 05 f6 61 00 	movsd  0x61f6(%rip),%xmm0        # c890 <_IO_stdin_used+0x890>
    6699:	00 
    669a:	77 15                	ja     66b1 <_Z6torquedddjjddidPPdRKSt6vectorIiSaIiEEPS0_PPP6tensor+0x5a1>
    669c:	66 0f 28 cd          	movapd %xmm5,%xmm1
    66a0:	f2 0f 10 05 f0 61 00 	movsd  0x61f0(%rip),%xmm0        # c898 <_IO_stdin_used+0x898>
    66a7:	00 
    66a8:	f2 0f c2 cf 01       	cmpltsd %xmm7,%xmm1
    66ad:	66 0f 54 c1          	andpd  %xmm1,%xmm0
    66b1:	f2 0f 11 84 24 60 01 	movsd  %xmm0,0x160(%rsp)
    66b8:	00 00 
    66ba:	66 0f ef ff          	pxor   %xmm7,%xmm7
    66be:	f2 0f 10 05 ca 61 00 	movsd  0x61ca(%rip),%xmm0        # c890 <_IO_stdin_used+0x890>
    66c5:	00 
    66c6:	66 0f 2f f7          	comisd %xmm7,%xmm6
    66ca:	0f 86 69 07 00 00    	jbe    6e39 <_Z6torquedddjjddidPPdRKSt6vectorIiSaIiEEPS0_PPP6tensor+0xd29>
    66d0:	4c 8d b4 24 50 01 00 	lea    0x150(%rsp),%r14
    66d7:	00 
    66d8:	48 8d b4 24 70 01 00 	lea    0x170(%rsp),%rsi
    66df:	00 
    66e0:	ba 04 00 00 00       	mov    $0x4,%edx
    66e5:	f2 0f 11 54 24 48    	movsd  %xmm2,0x48(%rsp)
    66eb:	4c 89 f7             	mov    %r14,%rdi
    66ee:	f2 0f 11 5c 24 78    	movsd  %xmm3,0x78(%rsp)
    66f4:	4d 89 f7             	mov    %r14,%r15
    66f7:	f2 0f 11 84 24 68 01 	movsd  %xmm0,0x168(%rsp)
    66fe:	00 00 
    6700:	e8 1b d9 ff ff       	call   4020 <_ZSt16__introsort_loopIPdlN9__gnu_cxx5__ops15_Iter_less_iterEEvT_S4_T0_T1_.isra.0>
    6705:	f2 0f 10 54 24 48    	movsd  0x48(%rsp),%xmm2
    670b:	48 8d 84 24 68 01 00 	lea    0x168(%rsp),%rax
    6712:	00 
    6713:	48 89 9c 24 90 00 00 	mov    %rbx,0x90(%rsp)
    671a:	00 
    671b:	f2 0f 11 ac 24 80 00 	movsd  %xmm5,0x80(%rsp)
    6722:	00 00 
    6724:	4c 89 f3             	mov    %r14,%rbx
    6727:	49 89 c6             	mov    %rax,%r14
    672a:	f2 0f 11 54 24 70    	movsd  %xmm2,0x70(%rsp)
    6730:	f2 0f 11 b4 24 88 00 	movsd  %xmm6,0x88(%rsp)
    6737:	00 00 
    6739:	eb 33                	jmp    676e <_Z6torquedddjjddidPPdRKSt6vectorIiSaIiEEPS0_PPP6tensor+0x65e>
    673b:	0f 1f 44 00 00       	nopl   0x0(%rax,%rax,1)
    6740:	b8 08 00 00 00       	mov    $0x8,%eax
    6745:	48 29 da             	sub    %rbx,%rdx
    6748:	48 89 de             	mov    %rbx,%rsi
    674b:	f2 0f 11 4c 24 48    	movsd  %xmm1,0x48(%rsp)
    6751:	48 8d 3c 03          	lea    (%rbx,%rax,1),%rdi
    6755:	e8 86 bf ff ff       	call   26e0 <memmove@plt>
    675a:	f2 0f 10 4c 24 48    	movsd  0x48(%rsp),%xmm1
    6760:	f2 0f 11 8c 24 50 01 	movsd  %xmm1,0x150(%rsp)
    6767:	00 00 
    6769:	4d 39 f7             	cmp    %r14,%r15
    676c:	74 52                	je     67c0 <_Z6torquedddjjddidPPdRKSt6vectorIiSaIiEEPS0_PPP6tensor+0x6b0>
    676e:	f2 0f 10 84 24 50 01 	movsd  0x150(%rsp),%xmm0
    6775:	00 00 
    6777:	4c 89 f9             	mov    %r15,%rcx
    677a:	49 83 c7 08          	add    $0x8,%r15
    677e:	f2 0f 10 49 08       	movsd  0x8(%rcx),%xmm1
    6783:	4c 89 fa             	mov    %r15,%rdx
    6786:	48 89 c8             	mov    %rcx,%rax
    6789:	66 0f 2f c1          	comisd %xmm1,%xmm0
    678d:	77 b1                	ja     6740 <_Z6torquedddjjddidPPdRKSt6vectorIiSaIiEEPS0_PPP6tensor+0x630>
    678f:	f2 0f 10 01          	movsd  (%rcx),%xmm0
    6793:	66 0f 2f c1          	comisd %xmm1,%xmm0
    6797:	76 1e                	jbe    67b7 <_Z6torquedddjjddidPPdRKSt6vectorIiSaIiEEPS0_PPP6tensor+0x6a7>
    6799:	0f 1f 80 00 00 00 00 	nopl   0x0(%rax)
    67a0:	f2 0f 11 40 08       	movsd  %xmm0,0x8(%rax)
    67a5:	48 89 c2             	mov    %rax,%rdx
    67a8:	f2 0f 10 40 f8       	movsd  -0x8(%rax),%xmm0
    67ad:	48 83 e8 08          	sub    $0x8,%rax
    67b1:	66 0f 2f c1          	comisd %xmm1,%xmm0
    67b5:	77 e9                	ja     67a0 <_Z6torquedddjjddidPPdRKSt6vectorIiSaIiEEPS0_PPP6tensor+0x690>
    67b7:	f2 0f 11 0a          	movsd  %xmm1,(%rdx)
    67bb:	4d 39 f7             	cmp    %r14,%r15
    67be:	75 ae                	jne    676e <_Z6torquedddjjddidPPdRKSt6vectorIiSaIiEEPS0_PPP6tensor+0x65e>
    67c0:	f2 0f 10 54 24 70    	movsd  0x70(%rsp),%xmm2
    67c6:	66 0f ef ff          	pxor   %xmm7,%xmm7
    67ca:	f2 0f 10 5c 24 78    	movsd  0x78(%rsp),%xmm3
    67d0:	f2 0f 10 ac 24 80 00 	movsd  0x80(%rsp),%xmm5
    67d7:	00 00 
    67d9:	48 8b 9c 24 90 00 00 	mov    0x90(%rsp),%rbx
    67e0:	00 
    67e1:	f2 0f 10 b4 24 88 00 	movsd  0x88(%rsp),%xmm6
    67e8:	00 00 
    67ea:	66 0f 2f fa          	comisd %xmm2,%xmm7
    67ee:	0f 83 eb 04 00 00    	jae    6cdf <_Z6torquedddjjddidPPdRKSt6vectorIiSaIiEEPS0_PPP6tensor+0xbcf>
    67f4:	8b 44 24 6c          	mov    0x6c(%rsp),%eax
    67f8:	66 0f ef c0          	pxor   %xmm0,%xmm0
    67fc:	f2 0f 10 0d a4 60 00 	movsd  0x60a4(%rip),%xmm1        # c8a8 <_IO_stdin_used+0x8a8>
    6803:	00 
    6804:	f3 0f 7e 3d 34 61 00 	movq   0x6134(%rip),%xmm7        # c940 <_IO_stdin_used+0x940>
    680b:	00 
    680c:	f2 48 0f 2a c0       	cvtsi2sd %rax,%xmm0
    6811:	66 44 0f 28 c7       	movapd %xmm7,%xmm8
    6816:	f2 0f 5e c8          	divsd  %xmm0,%xmm1
    681a:	f2 0f 10 84 24 50 01 	movsd  0x150(%rsp),%xmm0
    6821:	00 00 
    6823:	66 44 0f 28 d1       	movapd %xmm1,%xmm10
    6828:	f2 0f 10 0d 88 60 00 	movsd  0x6088(%rip),%xmm1        # c8b8 <_IO_stdin_used+0x8b8>
    682f:	00 
    6830:	f2 41 0f 5e c2       	divsd  %xmm10,%xmm0
    6835:	66 0f 28 e0          	movapd %xmm0,%xmm4
    6839:	66 0f 54 e7          	andpd  %xmm7,%xmm4
    683d:	66 0f 2e cc          	ucomisd %xmm4,%xmm1
    6841:	76 3a                	jbe    687d <_Z6torquedddjjddidPPdRKSt6vectorIiSaIiEEPS0_PPP6tensor+0x76d>
    6843:	f2 48 0f 2c c0       	cvttsd2si %xmm0,%rax
    6848:	66 0f ef e4          	pxor   %xmm4,%xmm4
    684c:	66 44 0f 55 c0       	andnpd %xmm0,%xmm8
    6851:	f2 44 0f 10 1d 66 60 	movsd  0x6066(%rip),%xmm11        # c8c0 <_IO_stdin_used+0x8c0>
    6858:	00 00 
    685a:	f2 48 0f 2a e0       	cvtsi2sd %rax,%xmm4
    685f:	66 44 0f 28 cc       	movapd %xmm4,%xmm9
    6864:	f2 44 0f c2 c8 06    	cmpnlesd %xmm0,%xmm9
    686a:	66 45 0f 54 cb       	andpd  %xmm11,%xmm9
    686f:	f2 41 0f 5c e1       	subsd  %xmm9,%xmm4
    6874:	66 41 0f 56 e0       	orpd   %xmm8,%xmm4
    6879:	66 0f 28 c4          	movapd %xmm4,%xmm0
    687d:	f2 0f 2c c0          	cvttsd2si %xmm0,%eax
    6881:	f2 0f 10 84 24 68 01 	movsd  0x168(%rsp),%xmm0
    6888:	00 00 
    688a:	f2 41 0f 5e c2       	divsd  %xmm10,%xmm0
    688f:	66 0f 28 e0          	movapd %xmm0,%xmm4
    6893:	66 0f 54 e7          	andpd  %xmm7,%xmm4
    6897:	66 0f 2e cc          	ucomisd %xmm4,%xmm1
    689b:	76 35                	jbe    68d2 <_Z6torquedddjjddidPPdRKSt6vectorIiSaIiEEPS0_PPP6tensor+0x7c2>
    689d:	f2 48 0f 2c d0       	cvttsd2si %xmm0,%rdx
    68a2:	66 0f ef e4          	pxor   %xmm4,%xmm4
    68a6:	66 0f 28 c8          	movapd %xmm0,%xmm1
    68aa:	f2 44 0f 10 05 0d 60 	movsd  0x600d(%rip),%xmm8        # c8c0 <_IO_stdin_used+0x8c0>
    68b1:	00 00 
    68b3:	66 0f 55 f8          	andnpd %xmm0,%xmm7
    68b7:	f2 48 0f 2a e2       	cvtsi2sd %rdx,%xmm4
    68bc:	f2 0f c2 cc 06       	cmpnlesd %xmm4,%xmm1
    68c1:	66 41 0f 54 c8       	andpd  %xmm8,%xmm1
    68c6:	f2 0f 58 e1          	addsd  %xmm1,%xmm4
    68ca:	66 0f 56 e7          	orpd   %xmm7,%xmm4
    68ce:	66 0f 28 c4          	movapd %xmm4,%xmm0
    68d2:	f2 44 0f 2c f8       	cvttsd2si %xmm0,%r15d
    68d7:	8b 7c 24 6c          	mov    0x6c(%rsp),%edi
    68db:	41 39 ff             	cmp    %edi,%r15d
    68de:	44 0f 47 ff          	cmova  %edi,%r15d
    68e2:	66 0f ef ff          	pxor   %xmm7,%xmm7
    68e6:	66 0f 2f d7          	comisd %xmm7,%xmm2
    68ea:	76 0a                	jbe    68f6 <_Z6torquedddjjddidPPdRKSt6vectorIiSaIiEEPS0_PPP6tensor+0x7e6>
    68ec:	66 0f 2f fd          	comisd %xmm5,%xmm7
    68f0:	0f 87 eb 04 00 00    	ja     6de1 <_Z6torquedddjjddidPPdRKSt6vectorIiSaIiEEPS0_PPP6tensor+0xcd1>
    68f6:	44 39 ed             	cmp    %r13d,%ebp
    68f9:	0f 86 71 fa ff ff    	jbe    6370 <_Z6torquedddjjddidPPdRKSt6vectorIiSaIiEEPS0_PPP6tensor+0x260>
    68ff:	48 8b 8c 24 38 01 00 	mov    0x138(%rsp),%rcx
    6906:	00 
    6907:	83 ed 01             	sub    $0x1,%ebp
    690a:	44 89 ea             	mov    %r13d,%edx
    690d:	89 c7                	mov    %eax,%edi
    690f:	44 29 ed             	sub    %r13d,%ebp
    6912:	48 89 9c 24 20 01 00 	mov    %rbx,0x120(%rsp)
    6919:	00 
    691a:	44 89 fb             	mov    %r15d,%ebx
    691d:	48 8d 34 fd 00 00 00 	lea    0x0(,%rdi,8),%rsi
    6924:	00 
    6925:	4c 8d 34 d1          	lea    (%rcx,%rdx,8),%r14
    6929:	66 45 0f ef c0       	pxor   %xmm8,%xmm8
    692e:	66 0f ef ff          	pxor   %xmm7,%xmm7
    6932:	48 01 ea             	add    %rbp,%rdx
    6935:	48 8d 4c d1 08       	lea    0x8(%rcx,%rdx,8),%rcx
    693a:	41 8d 57 ff          	lea    -0x1(%r15),%edx
    693e:	41 89 c7             	mov    %eax,%r15d
    6941:	4c 89 a4 24 30 01 00 	mov    %r12,0x130(%rsp)
    6948:	00 
    6949:	29 c2                	sub    %eax,%edx
    694b:	49 89 cc             	mov    %rcx,%r12
    694e:	48 8d 54 17 01       	lea    0x1(%rdi,%rdx,1),%rdx
    6953:	48 c1 e2 03          	shl    $0x3,%rdx
    6957:	66 0f 1f 84 00 00 00 	nopw   0x0(%rax,%rax,1)
    695e:	00 00 
    6960:	44 39 fb             	cmp    %r15d,%ebx
    6963:	0f 86 54 03 00 00    	jbe    6cbd <_Z6torquedddjjddidPPdRKSt6vectorIiSaIiEEPS0_PPP6tensor+0xbad>
    6969:	4d 8b 2e             	mov    (%r14),%r13
    696c:	49 8d 6c 35 00       	lea    0x0(%r13,%rsi,1),%rbp
    6971:	49 01 d5             	add    %rdx,%r13
    6974:	0f 1f 40 00          	nopl   0x0(%rax)
    6978:	48 8b 45 00          	mov    0x0(%rbp),%rax
    697c:	f2 0f 10 00          	movsd  (%rax),%xmm0
    6980:	66 0f 2f c2          	comisd %xmm2,%xmm0
    6984:	0f 82 26 03 00 00    	jb     6cb0 <_Z6torquedddjjddidPPdRKSt6vectorIiSaIiEEPS0_PPP6tensor+0xba0>
    698a:	66 0f 2f d8          	comisd %xmm0,%xmm3
    698e:	0f 82 1c 03 00 00    	jb     6cb0 <_Z6torquedddjjddidPPdRKSt6vectorIiSaIiEEPS0_PPP6tensor+0xba0>
    6994:	f2 0f 10 48 08       	movsd  0x8(%rax),%xmm1
    6999:	66 0f 2f cd          	comisd %xmm5,%xmm1
    699d:	0f 82 0d 03 00 00    	jb     6cb0 <_Z6torquedddjjddidPPdRKSt6vectorIiSaIiEEPS0_PPP6tensor+0xba0>
    69a3:	66 0f 2f f1          	comisd %xmm1,%xmm6
    69a7:	0f 82 03 03 00 00    	jb     6cb0 <_Z6torquedddjjddidPPdRKSt6vectorIiSaIiEEPS0_PPP6tensor+0xba0>
    69ad:	f2 0f 10 60 10       	movsd  0x10(%rax),%xmm4
    69b2:	66 0f 2f 64 24 08    	comisd 0x8(%rsp),%xmm4
    69b8:	0f 82 f2 02 00 00    	jb     6cb0 <_Z6torquedddjjddidPPdRKSt6vectorIiSaIiEEPS0_PPP6tensor+0xba0>
    69be:	f2 44 0f 10 2c 24    	movsd  (%rsp),%xmm13
    69c4:	66 44 0f 2f ec       	comisd %xmm4,%xmm13
    69c9:	0f 82 e1 02 00 00    	jb     6cb0 <_Z6torquedddjjddidPPdRKSt6vectorIiSaIiEEPS0_PPP6tensor+0xba0>
    69cf:	f2 44 0f 10 a4 24 10 	movsd  0x110(%rsp),%xmm12
    69d6:	01 00 00 
    69d9:	f2 0f 11 6c 24 70    	movsd  %xmm5,0x70(%rsp)
    69df:	f2 0f 10 6c 24 10    	movsd  0x10(%rsp),%xmm5
    69e5:	f2 0f 11 b4 24 d0 00 	movsd  %xmm6,0xd0(%rsp)
    69ec:	00 00 
    69ee:	66 0f 28 f3          	movapd %xmm3,%xmm6
    69f2:	f2 44 0f 10 9c 24 08 	movsd  0x108(%rsp),%xmm11
    69f9:	01 00 00 
    69fc:	f2 44 0f 10 94 24 00 	movsd  0x100(%rsp),%xmm10
    6a03:	01 00 00 
    6a06:	f2 44 0f 58 e4       	addsd  %xmm4,%xmm12
    6a0b:	f2 0f 5e e5          	divsd  %xmm5,%xmm4
    6a0f:	f2 0f 5c f2          	subsd  %xmm2,%xmm6
    6a13:	f2 0f 11 bc 24 d8 00 	movsd  %xmm7,0xd8(%rsp)
    6a1a:	00 00 
    6a1c:	66 0f 28 fa          	movapd %xmm2,%xmm7
    6a20:	f2 44 0f 58 d9       	addsd  %xmm1,%xmm11
    6a25:	f2 44 0f 58 d0       	addsd  %xmm0,%xmm10
    6a2a:	f2 44 0f 10 70 18    	movsd  0x18(%rax),%xmm14
    6a30:	48 89 94 24 f8 00 00 	mov    %rdx,0xf8(%rsp)
    6a37:	00 
    6a38:	48 89 b4 24 f0 00 00 	mov    %rsi,0xf0(%rsp)
    6a3f:	00 
    6a40:	44 0f 29 84 24 e0 00 	movaps %xmm8,0xe0(%rsp)
    6a47:	00 00 
    6a49:	f2 44 0f 11 a4 24 c8 	movsd  %xmm12,0xc8(%rsp)
    6a50:	00 00 00 
    6a53:	f2 44 0f 11 9c 24 c0 	movsd  %xmm11,0xc0(%rsp)
    6a5a:	00 00 00 
    6a5d:	f2 44 0f 11 94 24 b8 	movsd  %xmm10,0xb8(%rsp)
    6a64:	00 00 00 
    6a67:	f2 44 0f 11 b4 24 98 	movsd  %xmm14,0x98(%rsp)
    6a6e:	00 00 00 
    6a71:	f2 0f 11 9c 24 90 00 	movsd  %xmm3,0x90(%rsp)
    6a78:	00 00 
    6a7a:	f2 0f 11 94 24 88 00 	movsd  %xmm2,0x88(%rsp)
    6a81:	00 00 
    6a83:	f2 0f 11 74 24 48    	movsd  %xmm6,0x48(%rsp)
    6a89:	f2 0f 5e fe          	divsd  %xmm6,%xmm7
    6a8d:	f2 0f 11 a4 24 b0 00 	movsd  %xmm4,0xb0(%rsp)
    6a94:	00 00 
    6a96:	66 0f 28 e1          	movapd %xmm1,%xmm4
    6a9a:	66 0f 28 c8          	movapd %xmm0,%xmm1
    6a9e:	f2 0f 10 44 24 60    	movsd  0x60(%rsp),%xmm0
    6aa4:	f2 0f 5e e5          	divsd  %xmm5,%xmm4
    6aa8:	f2 0f 58 c7          	addsd  %xmm7,%xmm0
    6aac:	f2 0f 5e cd          	divsd  %xmm5,%xmm1
    6ab0:	f2 0f 11 a4 24 a8 00 	movsd  %xmm4,0xa8(%rsp)
    6ab7:	00 00 
    6ab9:	f2 0f 11 8c 24 a0 00 	movsd  %xmm1,0xa0(%rsp)
    6ac0:	00 00 
    6ac2:	e8 99 b9 ff ff       	call   2460 <round@plt>
    6ac7:	f2 0f 10 6c 24 70    	movsd  0x70(%rsp),%xmm5
    6acd:	f2 0f 11 84 24 80 00 	movsd  %xmm0,0x80(%rsp)
    6ad4:	00 00 
    6ad6:	f2 0f 10 44 24 60    	movsd  0x60(%rsp),%xmm0
    6adc:	66 0f 28 fd          	movapd %xmm5,%xmm7
    6ae0:	f2 0f 5e 7c 24 48    	divsd  0x48(%rsp),%xmm7
    6ae6:	f2 0f 11 6c 24 78    	movsd  %xmm5,0x78(%rsp)
    6aec:	f2 0f 58 c7          	addsd  %xmm7,%xmm0
    6af0:	e8 6b b9 ff ff       	call   2460 <round@plt>
    6af5:	f2 0f 11 44 24 70    	movsd  %xmm0,0x70(%rsp)
    6afb:	f2 0f 10 44 24 08    	movsd  0x8(%rsp),%xmm0
    6b01:	f2 0f 5e 44 24 48    	divsd  0x48(%rsp),%xmm0
    6b07:	f2 0f 58 44 24 60    	addsd  0x60(%rsp),%xmm0
    6b0d:	e8 4e b9 ff ff       	call   2460 <round@plt>
    6b12:	f2 44 0f 10 4c 24 70 	movsd  0x70(%rsp),%xmm9
    6b19:	f2 44 0f 10 bc 24 80 	movsd  0x80(%rsp),%xmm15
    6b20:	00 00 00 
    6b23:	48 8b bc 24 18 01 00 	mov    0x118(%rsp),%rdi
    6b2a:	00 
    6b2b:	f2 0f 10 8c 24 a0 00 	movsd  0xa0(%rsp),%xmm1
    6b32:	00 00 
    6b34:	f2 0f 10 a4 24 a8 00 	movsd  0xa8(%rsp),%xmm4
    6b3b:	00 00 
    6b3d:	f2 41 0f 2c c7       	cvttsd2si %xmm15,%eax
    6b42:	f2 44 0f 10 ac 24 b0 	movsd  0xb0(%rsp),%xmm13
    6b49:	00 00 00 
    6b4c:	f2 41 0f 2c c9       	cvttsd2si %xmm9,%ecx
    6b51:	48 98                	cltq   
    6b53:	48 8b 3c c7          	mov    (%rdi,%rax,8),%rdi
    6b57:	f2 0f 2c c0          	cvttsd2si %xmm0,%eax
    6b5b:	48 63 c9             	movslq %ecx,%rcx
    6b5e:	48 98                	cltq   
    6b60:	4c 8d 04 c0          	lea    (%rax,%rax,8),%r8
    6b64:	48 8b 04 cf          	mov    (%rdi,%rcx,8),%rax
    6b68:	4a 8d 04 c0          	lea    (%rax,%r8,8),%rax
    6b6c:	f2 44 0f 10 48 10    	movsd  0x10(%rax),%xmm9
    6b72:	f2 0f 10 40 28       	movsd  0x28(%rax),%xmm0
    6b77:	f2 44 0f 10 78 08    	movsd  0x8(%rax),%xmm15
    6b7d:	f2 0f 59 c4          	mulsd  %xmm4,%xmm0
    6b81:	f2 44 0f 59 c9       	mulsd  %xmm1,%xmm9
    6b86:	f2 44 0f 59 f9       	mulsd  %xmm1,%xmm15
    6b8b:	f2 0f 59 08          	mulsd  (%rax),%xmm1
    6b8f:	f2 44 0f 58 c8       	addsd  %xmm0,%xmm9
    6b94:	f2 0f 10 40 40       	movsd  0x40(%rax),%xmm0
    6b99:	f2 41 0f 59 c5       	mulsd  %xmm13,%xmm0
    6b9e:	f2 44 0f 58 c8       	addsd  %xmm0,%xmm9
    6ba3:	f2 0f 10 40 20       	movsd  0x20(%rax),%xmm0
    6ba8:	f2 0f 59 c4          	mulsd  %xmm4,%xmm0
    6bac:	f2 0f 59 60 18       	mulsd  0x18(%rax),%xmm4
    6bb1:	f2 44 0f 58 f8       	addsd  %xmm0,%xmm15
    6bb6:	f2 0f 10 40 38       	movsd  0x38(%rax),%xmm0
    6bbb:	f2 41 0f 59 c5       	mulsd  %xmm13,%xmm0
    6bc0:	f2 44 0f 58 f8       	addsd  %xmm0,%xmm15
    6bc5:	66 0f 28 c1          	movapd %xmm1,%xmm0
    6bc9:	f2 0f 58 c4          	addsd  %xmm4,%xmm0
    6bcd:	f2 0f 10 60 30       	movsd  0x30(%rax),%xmm4
    6bd2:	f2 44 0f 10 9c 24 c0 	movsd  0xc0(%rsp),%xmm11
    6bd9:	00 00 00 
    6bdc:	f2 44 0f 10 a4 24 c8 	movsd  0xc8(%rsp),%xmm12
    6be3:	00 00 00 
    6be6:	f2 0f 10 6c 24 78    	movsd  0x78(%rsp),%xmm5
    6bec:	f2 41 0f 59 e5       	mulsd  %xmm13,%xmm4
    6bf1:	f2 44 0f 10 94 24 b8 	movsd  0xb8(%rsp),%xmm10
    6bf8:	00 00 00 
    6bfb:	f2 44 0f 10 b4 24 98 	movsd  0x98(%rsp),%xmm14
    6c02:	00 00 00 
    6c05:	66 41 0f 28 cc       	movapd %xmm12,%xmm1
    6c0a:	48 8b 94 24 f8 00 00 	mov    0xf8(%rsp),%rdx
    6c11:	00 
    6c12:	66 44 0f 28 84 24 e0 	movapd 0xe0(%rsp),%xmm8
    6c19:	00 00 00 
    6c1c:	f2 41 0f 59 cf       	mulsd  %xmm15,%xmm1
    6c21:	f2 0f 10 bc 24 d8 00 	movsd  0xd8(%rsp),%xmm7
    6c28:	00 00 
    6c2a:	48 8b b4 24 f0 00 00 	mov    0xf0(%rsp),%rsi
    6c31:	00 
    6c32:	f2 0f 10 b4 24 d0 00 	movsd  0xd0(%rsp),%xmm6
    6c39:	00 00 
    6c3b:	f2 0f 10 9c 24 90 00 	movsd  0x90(%rsp),%xmm3
    6c42:	00 00 
    6c44:	f2 0f 10 94 24 88 00 	movsd  0x88(%rsp),%xmm2
    6c4b:	00 00 
    6c4d:	f2 0f 58 c4          	addsd  %xmm4,%xmm0
    6c51:	66 41 0f 28 e3       	movapd %xmm11,%xmm4
    6c56:	f2 41 0f 59 e1       	mulsd  %xmm9,%xmm4
    6c5b:	f2 45 0f 59 ca       	mulsd  %xmm10,%xmm9
    6c60:	f2 44 0f 59 e0       	mulsd  %xmm0,%xmm12
    6c65:	f2 45 0f 59 d7       	mulsd  %xmm15,%xmm10
    6c6a:	f2 44 0f 59 d8       	mulsd  %xmm0,%xmm11
    6c6f:	f2 0f 5c e1          	subsd  %xmm1,%xmm4
    6c73:	66 41 0f 28 ce       	movapd %xmm14,%xmm1
    6c78:	66 0f 14 c9          	unpcklpd %xmm1,%xmm1
    6c7c:	f2 45 0f 5c cc       	subsd  %xmm12,%xmm9
    6c81:	66 44 0f 57 0d a6 5c 	xorpd  0x5ca6(%rip),%xmm9        # c930 <_IO_stdin_used+0x930>
    6c88:	00 00 
    6c8a:	f2 45 0f 5c d3       	subsd  %xmm11,%xmm10
    6c8f:	66 41 0f 14 e1       	unpcklpd %xmm9,%xmm4
    6c94:	66 0f 59 cc          	mulpd  %xmm4,%xmm1
    6c98:	f2 45 0f 59 d6       	mulsd  %xmm14,%xmm10
    6c9d:	66 44 0f 58 c1       	addpd  %xmm1,%xmm8
    6ca2:	f2 41 0f 58 fa       	addsd  %xmm10,%xmm7
    6ca7:	66 0f 1f 84 00 00 00 	nopw   0x0(%rax,%rax,1)
    6cae:	00 00 
    6cb0:	48 83 c5 08          	add    $0x8,%rbp
    6cb4:	4c 39 ed             	cmp    %r13,%rbp
    6cb7:	0f 85 bb fc ff ff    	jne    6978 <_Z6torquedddjjddidPPdRKSt6vectorIiSaIiEEPS0_PPP6tensor+0x868>
    6cbd:	49 83 c6 08          	add    $0x8,%r14
    6cc1:	4d 39 f4             	cmp    %r14,%r12
    6cc4:	0f 85 96 fc ff ff    	jne    6960 <_Z6torquedddjjddidPPdRKSt6vectorIiSaIiEEPS0_PPP6tensor+0x850>
    6cca:	48 8b 9c 24 20 01 00 	mov    0x120(%rsp),%rbx
    6cd1:	00 
    6cd2:	4c 8b a4 24 30 01 00 	mov    0x130(%rsp),%r12
    6cd9:	00 
    6cda:	e9 9a f6 ff ff       	jmp    6379 <_Z6torquedddjjddidPPdRKSt6vectorIiSaIiEEPS0_PPP6tensor+0x269>
    6cdf:	66 0f 2f fd          	comisd %xmm5,%xmm7
    6ce3:	0f 82 0b fb ff ff    	jb     67f4 <_Z6torquedddjjddidPPdRKSt6vectorIiSaIiEEPS0_PPP6tensor+0x6e4>
    6ce9:	66 0f 2f df          	comisd %xmm7,%xmm3
    6ced:	0f 82 01 fb ff ff    	jb     67f4 <_Z6torquedddjjddidPPdRKSt6vectorIiSaIiEEPS0_PPP6tensor+0x6e4>
    6cf3:	31 c0                	xor    %eax,%eax
    6cf5:	66 0f 2f f7          	comisd %xmm7,%xmm6
    6cf9:	44 8b 7c 24 6c       	mov    0x6c(%rsp),%r15d
    6cfe:	0f 83 de fb ff ff    	jae    68e2 <_Z6torquedddjjddidPPdRKSt6vectorIiSaIiEEPS0_PPP6tensor+0x7d2>
    6d04:	e9 eb fa ff ff       	jmp    67f4 <_Z6torquedddjjddidPPdRKSt6vectorIiSaIiEEPS0_PPP6tensor+0x6e4>
    6d09:	66 0f 2f df          	comisd %xmm7,%xmm3
    6d0d:	66 0f ef c0          	pxor   %xmm0,%xmm0
    6d11:	0f 86 77 0a 00 00    	jbe    778e <_Z6torquedddjjddidPPdRKSt6vectorIiSaIiEEPS0_PPP6tensor+0x167e>
    6d17:	f2 0f 11 84 24 60 01 	movsd  %xmm0,0x160(%rsp)
    6d1e:	00 00 
    6d20:	66 0f 28 c6          	movapd %xmm6,%xmm0
    6d24:	f2 0f 5e c3          	divsd  %xmm3,%xmm0
    6d28:	f2 0f 11 54 24 78    	movsd  %xmm2,0x78(%rsp)
    6d2e:	f2 0f 11 ac 24 80 00 	movsd  %xmm5,0x80(%rsp)
    6d35:	00 00 
    6d37:	f2 0f 11 74 24 70    	movsd  %xmm6,0x70(%rsp)
    6d3d:	f2 0f 11 5c 24 48    	movsd  %xmm3,0x48(%rsp)
    6d43:	e8 f8 b7 ff ff       	call   2540 <atan@plt>
    6d48:	f2 0f 10 74 24 70    	movsd  0x70(%rsp),%xmm6
    6d4e:	66 0f ef ed          	pxor   %xmm5,%xmm5
    6d52:	f2 0f 10 5c 24 48    	movsd  0x48(%rsp),%xmm3
    6d58:	f2 0f 10 54 24 78    	movsd  0x78(%rsp),%xmm2
    6d5e:	66 0f 2f ee          	comisd %xmm6,%xmm5
    6d62:	f2 0f 10 ac 24 80 00 	movsd  0x80(%rsp),%xmm5
    6d69:	00 00 
    6d6b:	0f 86 ff f8 ff ff    	jbe    6670 <_Z6torquedddjjddidPPdRKSt6vectorIiSaIiEEPS0_PPP6tensor+0x560>
    6d71:	f2 0f 58 05 2f 5b 00 	addsd  0x5b2f(%rip),%xmm0        # c8a8 <_IO_stdin_used+0x8a8>
    6d78:	00 
    6d79:	e9 52 f9 ff ff       	jmp    66d0 <_Z6torquedddjjddidPPdRKSt6vectorIiSaIiEEPS0_PPP6tensor+0x5c0>
    6d7e:	66 0f 2f d3          	comisd %xmm3,%xmm2
    6d82:	66 0f ef c0          	pxor   %xmm0,%xmm0
    6d86:	0f 86 f5 09 00 00    	jbe    7781 <_Z6torquedddjjddidPPdRKSt6vectorIiSaIiEEPS0_PPP6tensor+0x1671>
    6d8c:	f2 0f 11 84 24 50 01 	movsd  %xmm0,0x150(%rsp)
    6d93:	00 00 
    6d95:	66 0f 28 c6          	movapd %xmm6,%xmm0
    6d99:	f2 0f 5e c2          	divsd  %xmm2,%xmm0
    6d9d:	f2 0f 11 6c 24 78    	movsd  %xmm5,0x78(%rsp)
    6da3:	f2 0f 11 74 24 70    	movsd  %xmm6,0x70(%rsp)
    6da9:	f2 0f 11 54 24 48    	movsd  %xmm2,0x48(%rsp)
    6daf:	e8 8c b7 ff ff       	call   2540 <atan@plt>
    6db4:	f2 0f 10 74 24 70    	movsd  0x70(%rsp),%xmm6
    6dba:	66 0f ef ed          	pxor   %xmm5,%xmm5
    6dbe:	f2 0f 10 54 24 48    	movsd  0x48(%rsp),%xmm2
    6dc4:	66 0f 2f ee          	comisd %xmm6,%xmm5
    6dc8:	f2 0f 10 6c 24 78    	movsd  0x78(%rsp),%xmm5
    6dce:	0f 86 77 f5 ff ff    	jbe    634b <_Z6torquedddjjddidPPdRKSt6vectorIiSaIiEEPS0_PPP6tensor+0x23b>
    6dd4:	f2 0f 58 05 cc 5a 00 	addsd  0x5acc(%rip),%xmm0        # c8a8 <_IO_stdin_used+0x8a8>
    6ddb:	00 
    6ddc:	e9 a8 f7 ff ff       	jmp    6589 <_Z6torquedddjjddidPPdRKSt6vectorIiSaIiEEPS0_PPP6tensor+0x479>
    6de1:	66 0f 2f f7          	comisd %xmm7,%xmm6
    6de5:	0f 82 0b fb ff ff    	jb     68f6 <_Z6torquedddjjddidPPdRKSt6vectorIiSaIiEEPS0_PPP6tensor+0x7e6>
    6deb:	8b 44 24 6c          	mov    0x6c(%rsp),%eax
    6def:	66 0f ef c9          	pxor   %xmm1,%xmm1
    6df3:	66 0f 2e f7          	ucomisd %xmm7,%xmm6
    6df7:	f2 44 0f 10 05 a8 5a 	movsd  0x5aa8(%rip),%xmm8        # c8a8 <_IO_stdin_used+0x8a8>
    6dfe:	00 00 
    6e00:	f2 0f 10 84 24 58 01 	movsd  0x158(%rsp),%xmm0
    6e07:	00 00 
    6e09:	f2 48 0f 2a c8       	cvtsi2sd %rax,%xmm1
    6e0e:	f2 44 0f 5e c1       	divsd  %xmm1,%xmm8
    6e13:	0f 8a f6 00 00 00    	jp     6f0f <_Z6torquedddjjddidPPdRKSt6vectorIiSaIiEEPS0_PPP6tensor+0xdff>
    6e19:	0f 85 f0 00 00 00    	jne    6f0f <_Z6torquedddjjddidPPdRKSt6vectorIiSaIiEEPS0_PPP6tensor+0xdff>
    6e1f:	f2 0f 10 0d 91 5a 00 	movsd  0x5a91(%rip),%xmm1        # c8b8 <_IO_stdin_used+0x8b8>
    6e26:	00 
    6e27:	f3 0f 7e 3d 11 5b 00 	movq   0x5b11(%rip),%xmm7        # c940 <_IO_stdin_used+0x940>
    6e2e:	00 
    6e2f:	b8 01 00 00 00       	mov    $0x1,%eax
    6e34:	e9 3c 01 00 00       	jmp    6f75 <_Z6torquedddjjddidPPdRKSt6vectorIiSaIiEEPS0_PPP6tensor+0xe65>
    6e39:	66 0f 2f fe          	comisd %xmm6,%xmm7
    6e3d:	f2 0f 10 05 53 5a 00 	movsd  0x5a53(%rip),%xmm0        # c898 <_IO_stdin_used+0x898>
    6e44:	00 
    6e45:	0f 87 85 f8 ff ff    	ja     66d0 <_Z6torquedddjjddidPPdRKSt6vectorIiSaIiEEPS0_PPP6tensor+0x5c0>
    6e4b:	66 0f ef c0          	pxor   %xmm0,%xmm0
    6e4f:	e9 7c f8 ff ff       	jmp    66d0 <_Z6torquedddjjddidPPdRKSt6vectorIiSaIiEEPS0_PPP6tensor+0x5c0>
    6e54:	66 0f 2f de          	comisd %xmm6,%xmm3
    6e58:	f2 0f 10 05 38 5a 00 	movsd  0x5a38(%rip),%xmm0        # c898 <_IO_stdin_used+0x898>
    6e5f:	00 
    6e60:	0f 87 23 f7 ff ff    	ja     6589 <_Z6torquedddjjddidPPdRKSt6vectorIiSaIiEEPS0_PPP6tensor+0x479>
    6e66:	66 0f ef c0          	pxor   %xmm0,%xmm0
    6e6a:	e9 1a f7 ff ff       	jmp    6589 <_Z6torquedddjjddidPPdRKSt6vectorIiSaIiEEPS0_PPP6tensor+0x479>
    6e6f:	66 0f 2f d3          	comisd %xmm3,%xmm2
    6e73:	76 2d                	jbe    6ea2 <_Z6torquedddjjddidPPdRKSt6vectorIiSaIiEEPS0_PPP6tensor+0xd92>
    6e75:	f2 0f 58 05 2b 5a 00 	addsd  0x5a2b(%rip),%xmm0        # c8a8 <_IO_stdin_used+0x8a8>
    6e7c:	00 
    6e7d:	e9 0a ff ff ff       	jmp    6d8c <_Z6torquedddjjddidPPdRKSt6vectorIiSaIiEEPS0_PPP6tensor+0xc7c>
    6e82:	66 0f 2f df          	comisd %xmm7,%xmm3
    6e86:	76 0d                	jbe    6e95 <_Z6torquedddjjddidPPdRKSt6vectorIiSaIiEEPS0_PPP6tensor+0xd85>
    6e88:	f2 0f 58 05 18 5a 00 	addsd  0x5a18(%rip),%xmm0        # c8a8 <_IO_stdin_used+0x8a8>
    6e8f:	00 
    6e90:	e9 82 fe ff ff       	jmp    6d17 <_Z6torquedddjjddidPPdRKSt6vectorIiSaIiEEPS0_PPP6tensor+0xc07>
    6e95:	f2 0f 58 05 03 5a 00 	addsd  0x5a03(%rip),%xmm0        # c8a0 <_IO_stdin_used+0x8a0>
    6e9c:	00 
    6e9d:	e9 74 f7 ff ff       	jmp    6616 <_Z6torquedddjjddidPPdRKSt6vectorIiSaIiEEPS0_PPP6tensor+0x506>
    6ea2:	f2 0f 58 05 f6 59 00 	addsd  0x59f6(%rip),%xmm0        # c8a0 <_IO_stdin_used+0x8a0>
    6ea9:	00 
    6eaa:	e9 54 f4 ff ff       	jmp    6303 <_Z6torquedddjjddidPPdRKSt6vectorIiSaIiEEPS0_PPP6tensor+0x1f3>
    6eaf:	66 0f ef ff          	pxor   %xmm7,%xmm7
    6eb3:	66 0f 2f df          	comisd %xmm7,%xmm3
    6eb7:	0f 87 b4 fe ff ff    	ja     6d71 <_Z6torquedddjjddidPPdRKSt6vectorIiSaIiEEPS0_PPP6tensor+0xc61>
    6ebd:	f2 0f 58 05 db 59 00 	addsd  0x59db(%rip),%xmm0        # c8a0 <_IO_stdin_used+0x8a0>
    6ec4:	00 
    6ec5:	e9 06 f8 ff ff       	jmp    66d0 <_Z6torquedddjjddidPPdRKSt6vectorIiSaIiEEPS0_PPP6tensor+0x5c0>
    6eca:	66 0f 2f d3          	comisd %xmm3,%xmm2
    6ece:	0f 87 00 ff ff ff    	ja     6dd4 <_Z6torquedddjjddidPPdRKSt6vectorIiSaIiEEPS0_PPP6tensor+0xcc4>
    6ed4:	f2 0f 58 05 c4 59 00 	addsd  0x59c4(%rip),%xmm0        # c8a0 <_IO_stdin_used+0x8a0>
    6edb:	00 
    6edc:	e9 a8 f6 ff ff       	jmp    6589 <_Z6torquedddjjddidPPdRKSt6vectorIiSaIiEEPS0_PPP6tensor+0x479>
    6ee1:	66 0f 2f df          	comisd %xmm7,%xmm3
    6ee5:	f2 0f 10 05 b3 59 00 	movsd  0x59b3(%rip),%xmm0        # c8a0 <_IO_stdin_used+0x8a0>
    6eec:	00 
    6eed:	0f 87 58 ff ff ff    	ja     6e4b <_Z6torquedddjjddidPPdRKSt6vectorIiSaIiEEPS0_PPP6tensor+0xd3b>
    6ef3:	e9 d8 f7 ff ff       	jmp    66d0 <_Z6torquedddjjddidPPdRKSt6vectorIiSaIiEEPS0_PPP6tensor+0x5c0>
    6ef8:	66 0f 2f d3          	comisd %xmm3,%xmm2
    6efc:	f2 0f 10 05 9c 59 00 	movsd  0x599c(%rip),%xmm0        # c8a0 <_IO_stdin_used+0x8a0>
    6f03:	00 
    6f04:	0f 87 5c ff ff ff    	ja     6e66 <_Z6torquedddjjddidPPdRKSt6vectorIiSaIiEEPS0_PPP6tensor+0xd56>
    6f0a:	e9 7a f6 ff ff       	jmp    6589 <_Z6torquedddjjddidPPdRKSt6vectorIiSaIiEEPS0_PPP6tensor+0x479>
    6f0f:	f2 41 0f 5e c0       	divsd  %xmm8,%xmm0
    6f14:	f3 0f 7e 3d 24 5a 00 	movq   0x5a24(%rip),%xmm7        # c940 <_IO_stdin_used+0x940>
    6f1b:	00 
    6f1c:	f2 0f 10 0d 94 59 00 	movsd  0x5994(%rip),%xmm1        # c8b8 <_IO_stdin_used+0x8b8>
    6f23:	00 
    6f24:	66 44 0f 28 cf       	movapd %xmm7,%xmm9
    6f29:	66 0f 28 e0          	movapd %xmm0,%xmm4
    6f2d:	66 0f 54 e7          	andpd  %xmm7,%xmm4
    6f31:	66 0f 2e cc          	ucomisd %xmm4,%xmm1
    6f35:	76 3a                	jbe    6f71 <_Z6torquedddjjddidPPdRKSt6vectorIiSaIiEEPS0_PPP6tensor+0xe61>
    6f37:	f2 48 0f 2c c0       	cvttsd2si %xmm0,%rax
    6f3c:	66 0f ef e4          	pxor   %xmm4,%xmm4
    6f40:	66 44 0f 28 d0       	movapd %xmm0,%xmm10
    6f45:	f2 44 0f 10 1d 72 59 	movsd  0x5972(%rip),%xmm11        # c8c0 <_IO_stdin_used+0x8c0>
    6f4c:	00 00 
    6f4e:	66 44 0f 55 c8       	andnpd %xmm0,%xmm9
    6f53:	f2 48 0f 2a e0       	cvtsi2sd %rax,%xmm4
    6f58:	f2 44 0f c2 d4 06    	cmpnlesd %xmm4,%xmm10
    6f5e:	66 45 0f 54 d3       	andpd  %xmm11,%xmm10
    6f63:	f2 41 0f 58 e2       	addsd  %xmm10,%xmm4
    6f68:	66 41 0f 56 e1       	orpd   %xmm9,%xmm4
    6f6d:	66 0f 28 c4          	movapd %xmm4,%xmm0
    6f71:	f2 0f 2c c0          	cvttsd2si %xmm0,%eax
    6f75:	f2 0f 10 a4 24 60 01 	movsd  0x160(%rsp),%xmm4
    6f7c:	00 00 
    6f7e:	66 0f 28 c7          	movapd %xmm7,%xmm0
    6f82:	f2 41 0f 5e e0       	divsd  %xmm8,%xmm4
    6f87:	66 0f 28 fc          	movapd %xmm4,%xmm7
    6f8b:	66 0f 54 f8          	andpd  %xmm0,%xmm7
    6f8f:	66 0f 2e cf          	ucomisd %xmm7,%xmm1
    6f93:	76 35                	jbe    6fca <_Z6torquedddjjddidPPdRKSt6vectorIiSaIiEEPS0_PPP6tensor+0xeba>
    6f95:	f2 48 0f 2c d4       	cvttsd2si %xmm4,%rdx
    6f9a:	66 0f ef ff          	pxor   %xmm7,%xmm7
    6f9e:	66 0f 55 c4          	andnpd %xmm4,%xmm0
    6fa2:	f2 44 0f 10 05 15 59 	movsd  0x5915(%rip),%xmm8        # c8c0 <_IO_stdin_used+0x8c0>
    6fa9:	00 00 
    6fab:	f2 48 0f 2a fa       	cvtsi2sd %rdx,%xmm7
    6fb0:	66 0f 28 cf          	movapd %xmm7,%xmm1
    6fb4:	f2 0f c2 cc 06       	cmpnlesd %xmm4,%xmm1
    6fb9:	66 41 0f 54 c8       	andpd  %xmm8,%xmm1
    6fbe:	f2 0f 5c f9          	subsd  %xmm1,%xmm7
    6fc2:	66 0f 56 f8          	orpd   %xmm0,%xmm7
    6fc6:	66 0f 28 e7          	movapd %xmm7,%xmm4
    6fca:	f2 44 0f 2c fc       	cvttsd2si %xmm4,%r15d
    6fcf:	44 39 ed             	cmp    %r13d,%ebp
    6fd2:	0f 86 98 f3 ff ff    	jbe    6370 <_Z6torquedddjjddidPPdRKSt6vectorIiSaIiEEPS0_PPP6tensor+0x260>
    6fd8:	44 8b 5c 24 44       	mov    0x44(%rsp),%r11d
    6fdd:	8d 55 ff             	lea    -0x1(%rbp),%edx
    6fe0:	44 89 e9             	mov    %r13d,%ecx
    6fe3:	8d 70 ff             	lea    -0x1(%rax),%esi
    6fe6:	48 8b bc 24 38 01 00 	mov    0x138(%rsp),%rdi
    6fed:	00 
    6fee:	44 29 ea             	sub    %r13d,%edx
    6ff1:	48 89 5c 24 70       	mov    %rbx,0x70(%rsp)
    6ff6:	66 45 0f ef c0       	pxor   %xmm8,%xmm8
    6ffb:	48 01 ca             	add    %rcx,%rdx
    6ffe:	4c 89 64 24 78       	mov    %r12,0x78(%rsp)
    7003:	44 89 fb             	mov    %r15d,%ebx
    7006:	66 0f ef ff          	pxor   %xmm7,%xmm7
    700a:	4c 8d 34 cf          	lea    (%rdi,%rcx,8),%r14
    700e:	41 8d 4b ff          	lea    -0x1(%r11),%ecx
    7012:	4c 8d 54 d7 08       	lea    0x8(%rdi,%rdx,8),%r10
    7017:	44 29 f9             	sub    %r15d,%ecx
    701a:	44 89 ff             	mov    %r15d,%edi
    701d:	41 89 c7             	mov    %eax,%r15d
    7020:	48 8d 4c 0f 01       	lea    0x1(%rdi,%rcx,1),%rcx
    7025:	48 8d 14 fd 00 00 00 	lea    0x0(,%rdi,8),%rdx
    702c:	00 
    702d:	4d 89 d4             	mov    %r10,%r12
    7030:	4c 8d 0c cd 00 00 00 	lea    0x0(,%rcx,8),%r9
    7037:	00 
    7038:	4c 8d 04 f5 08 00 00 	lea    0x8(,%rsi,8),%r8
    703f:	00 
    7040:	44 89 d9             	mov    %r11d,%ecx
    7043:	0f 1f 44 00 00       	nopl   0x0(%rax,%rax,1)
    7048:	45 85 ff             	test   %r15d,%r15d
    704b:	0f 84 8c 03 00 00    	je     73dd <_Z6torquedddjjddidPPdRKSt6vectorIiSaIiEEPS0_PPP6tensor+0x12cd>
    7051:	49 8b 2e             	mov    (%r14),%rbp
    7054:	4d 8d 2c 28          	lea    (%r8,%rbp,1),%r13
    7058:	0f 1f 84 00 00 00 00 	nopl   0x0(%rax,%rax,1)
    705f:	00 
    7060:	48 8b 45 00          	mov    0x0(%rbp),%rax
    7064:	f2 0f 10 00          	movsd  (%rax),%xmm0
    7068:	66 0f 2f c2          	comisd %xmm2,%xmm0
    706c:	0f 82 5e 03 00 00    	jb     73d0 <_Z6torquedddjjddidPPdRKSt6vectorIiSaIiEEPS0_PPP6tensor+0x12c0>
    7072:	66 0f 2f d8          	comisd %xmm0,%xmm3
    7076:	0f 82 54 03 00 00    	jb     73d0 <_Z6torquedddjjddidPPdRKSt6vectorIiSaIiEEPS0_PPP6tensor+0x12c0>
    707c:	f2 0f 10 48 08       	movsd  0x8(%rax),%xmm1
    7081:	66 0f 2f cd          	comisd %xmm5,%xmm1
    7085:	0f 82 45 03 00 00    	jb     73d0 <_Z6torquedddjjddidPPdRKSt6vectorIiSaIiEEPS0_PPP6tensor+0x12c0>
    708b:	66 0f 2f f1          	comisd %xmm1,%xmm6
    708f:	0f 82 3b 03 00 00    	jb     73d0 <_Z6torquedddjjddidPPdRKSt6vectorIiSaIiEEPS0_PPP6tensor+0x12c0>
    7095:	f2 0f 10 60 10       	movsd  0x10(%rax),%xmm4
    709a:	66 0f 2f 64 24 08    	comisd 0x8(%rsp),%xmm4
    70a0:	0f 82 2a 03 00 00    	jb     73d0 <_Z6torquedddjjddidPPdRKSt6vectorIiSaIiEEPS0_PPP6tensor+0x12c0>
    70a6:	f2 44 0f 10 1c 24    	movsd  (%rsp),%xmm11
    70ac:	66 44 0f 2f dc       	comisd %xmm4,%xmm11
    70b1:	0f 82 19 03 00 00    	jb     73d0 <_Z6torquedddjjddidPPdRKSt6vectorIiSaIiEEPS0_PPP6tensor+0x12c0>
    70b7:	f2 44 0f 10 a4 24 10 	movsd  0x110(%rsp),%xmm12
    70be:	01 00 00 
    70c1:	f2 44 0f 10 70 18    	movsd  0x18(%rax),%xmm14
    70c7:	f2 0f 11 b4 24 e0 00 	movsd  %xmm6,0xe0(%rsp)
    70ce:	00 00 
    70d0:	f2 0f 10 74 24 10    	movsd  0x10(%rsp),%xmm6
    70d6:	f2 44 0f 10 9c 24 08 	movsd  0x108(%rsp),%xmm11
    70dd:	01 00 00 
    70e0:	f2 0f 11 ac 24 80 00 	movsd  %xmm5,0x80(%rsp)
    70e7:	00 00 
    70e9:	66 0f 28 ea          	movapd %xmm2,%xmm5
    70ed:	f2 44 0f 58 e4       	addsd  %xmm4,%xmm12
    70f2:	4c 89 8c 24 48 01 00 	mov    %r9,0x148(%rsp)
    70f9:	00 
    70fa:	f2 44 0f 10 94 24 00 	movsd  0x100(%rsp),%xmm10
    7101:	01 00 00 
    7104:	f2 0f 5e e6          	divsd  %xmm6,%xmm4
    7108:	f2 44 0f 58 d9       	addsd  %xmm1,%xmm11
    710d:	4c 89 84 24 40 01 00 	mov    %r8,0x140(%rsp)
    7114:	00 
    7115:	f2 44 0f 58 d0       	addsd  %xmm0,%xmm10
    711a:	89 8c 24 30 01 00 00 	mov    %ecx,0x130(%rsp)
    7121:	48 89 94 24 f8 00 00 	mov    %rdx,0xf8(%rsp)
    7128:	00 
    7129:	44 0f 29 84 24 20 01 	movaps %xmm8,0x120(%rsp)
    7130:	00 00 
    7132:	f2 44 0f 11 a4 24 d8 	movsd  %xmm12,0xd8(%rsp)
    7139:	00 00 00 
    713c:	f2 44 0f 11 9c 24 d0 	movsd  %xmm11,0xd0(%rsp)
    7143:	00 00 00 
    7146:	f2 44 0f 11 94 24 c8 	movsd  %xmm10,0xc8(%rsp)
    714d:	00 00 00 
    7150:	f2 44 0f 11 b4 24 a8 	movsd  %xmm14,0xa8(%rsp)
    7157:	00 00 00 
    715a:	f2 0f 11 9c 24 a0 00 	movsd  %xmm3,0xa0(%rsp)
    7161:	00 00 
    7163:	f2 0f 11 94 24 98 00 	movsd  %xmm2,0x98(%rsp)
    716a:	00 00 
    716c:	f2 0f 11 bc 24 f0 00 	movsd  %xmm7,0xf0(%rsp)
    7173:	00 00 
    7175:	f2 0f 11 a4 24 c0 00 	movsd  %xmm4,0xc0(%rsp)
    717c:	00 00 
    717e:	66 0f 28 e1          	movapd %xmm1,%xmm4
    7182:	66 0f 28 c8          	movapd %xmm0,%xmm1
    7186:	f2 0f 10 44 24 60    	movsd  0x60(%rsp),%xmm0
    718c:	f2 0f 5e e6          	divsd  %xmm6,%xmm4
    7190:	f2 0f 5e ce          	divsd  %xmm6,%xmm1
    7194:	66 0f 28 f3          	movapd %xmm3,%xmm6
    7198:	f2 0f 5c f2          	subsd  %xmm2,%xmm6
    719c:	f2 0f 11 74 24 48    	movsd  %xmm6,0x48(%rsp)
    71a2:	f2 0f 11 a4 24 b8 00 	movsd  %xmm4,0xb8(%rsp)
    71a9:	00 00 
    71ab:	f2 0f 5e ee          	divsd  %xmm6,%xmm5
    71af:	f2 0f 11 8c 24 b0 00 	movsd  %xmm1,0xb0(%rsp)
    71b6:	00 00 
    71b8:	f2 0f 58 c5          	addsd  %xmm5,%xmm0
    71bc:	e8 9f b2 ff ff       	call   2460 <round@plt>
    71c1:	f2 0f 10 ac 24 80 00 	movsd  0x80(%rsp),%xmm5
    71c8:	00 00 
    71ca:	f2 0f 11 84 24 90 00 	movsd  %xmm0,0x90(%rsp)
    71d1:	00 00 
    71d3:	f2 0f 10 44 24 60    	movsd  0x60(%rsp),%xmm0
    71d9:	f2 0f 11 ac 24 88 00 	movsd  %xmm5,0x88(%rsp)
    71e0:	00 00 
    71e2:	66 0f 28 fd          	movapd %xmm5,%xmm7
    71e6:	f2 0f 5e 7c 24 48    	divsd  0x48(%rsp),%xmm7
    71ec:	f2 0f 58 c7          	addsd  %xmm7,%xmm0
    71f0:	e8 6b b2 ff ff       	call   2460 <round@plt>
    71f5:	f2 0f 11 84 24 80 00 	movsd  %xmm0,0x80(%rsp)
    71fc:	00 00 
    71fe:	f2 0f 10 44 24 08    	movsd  0x8(%rsp),%xmm0
    7204:	f2 0f 5e 44 24 48    	divsd  0x48(%rsp),%xmm0
    720a:	f2 0f 58 44 24 60    	addsd  0x60(%rsp),%xmm0
    7210:	e8 4b b2 ff ff       	call   2460 <round@plt>
    7215:	48 8b 8c 24 18 01 00 	mov    0x118(%rsp),%rcx
    721c:	00 
    721d:	f2 44 0f 10 bc 24 90 	movsd  0x90(%rsp),%xmm15
    7224:	00 00 00 
    7227:	f2 44 0f 10 8c 24 80 	movsd  0x80(%rsp),%xmm9
    722e:	00 00 00 
    7231:	f2 0f 10 8c 24 b0 00 	movsd  0xb0(%rsp),%xmm1
    7238:	00 00 
    723a:	f2 0f 10 a4 24 b8 00 	movsd  0xb8(%rsp),%xmm4
    7241:	00 00 
    7243:	f2 41 0f 2c c7       	cvttsd2si %xmm15,%eax
    7248:	f2 44 0f 10 ac 24 c0 	movsd  0xc0(%rsp),%xmm13
    724f:	00 00 00 
    7252:	f2 41 0f 2c f1       	cvttsd2si %xmm9,%esi
    7257:	48 98                	cltq   
    7259:	48 8b 3c c1          	mov    (%rcx,%rax,8),%rdi
    725d:	f2 0f 2c c0          	cvttsd2si %xmm0,%eax
    7261:	48 63 f6             	movslq %esi,%rsi
    7264:	48 8b 34 f7          	mov    (%rdi,%rsi,8),%rsi
    7268:	48 98                	cltq   
    726a:	48 8d 04 c0          	lea    (%rax,%rax,8),%rax
    726e:	48 8d 04 c6          	lea    (%rsi,%rax,8),%rax
    7272:	f2 44 0f 10 48 10    	movsd  0x10(%rax),%xmm9
    7278:	f2 0f 10 40 28       	movsd  0x28(%rax),%xmm0
    727d:	f2 44 0f 10 78 08    	movsd  0x8(%rax),%xmm15
    7283:	f2 0f 59 c4          	mulsd  %xmm4,%xmm0
    7287:	f2 44 0f 59 c9       	mulsd  %xmm1,%xmm9
    728c:	f2 44 0f 59 f9       	mulsd  %xmm1,%xmm15
    7291:	f2 0f 59 08          	mulsd  (%rax),%xmm1
    7295:	f2 44 0f 58 c8       	addsd  %xmm0,%xmm9
    729a:	f2 0f 10 40 40       	movsd  0x40(%rax),%xmm0
    729f:	f2 41 0f 59 c5       	mulsd  %xmm13,%xmm0
    72a4:	f2 44 0f 58 c8       	addsd  %xmm0,%xmm9
    72a9:	f2 0f 10 40 20       	movsd  0x20(%rax),%xmm0
    72ae:	f2 0f 59 c4          	mulsd  %xmm4,%xmm0
    72b2:	f2 0f 59 60 18       	mulsd  0x18(%rax),%xmm4
    72b7:	f2 44 0f 58 f8       	addsd  %xmm0,%xmm15
    72bc:	f2 0f 10 40 38       	movsd  0x38(%rax),%xmm0
    72c1:	f2 41 0f 59 c5       	mulsd  %xmm13,%xmm0
    72c6:	f2 44 0f 58 f8       	addsd  %xmm0,%xmm15
    72cb:	66 0f 28 c1          	movapd %xmm1,%xmm0
    72cf:	f2 0f 58 c4          	addsd  %xmm4,%xmm0
    72d3:	f2 0f 10 60 30       	movsd  0x30(%rax),%xmm4
    72d8:	f2 44 0f 10 9c 24 d0 	movsd  0xd0(%rsp),%xmm11
    72df:	00 00 00 
    72e2:	f2 44 0f 10 a4 24 d8 	movsd  0xd8(%rsp),%xmm12
    72e9:	00 00 00 
    72ec:	f2 44 0f 10 94 24 c8 	movsd  0xc8(%rsp),%xmm10
    72f3:	00 00 00 
    72f6:	f2 41 0f 59 e5       	mulsd  %xmm13,%xmm4
    72fb:	8b 8c 24 30 01 00 00 	mov    0x130(%rsp),%ecx
    7302:	f2 44 0f 10 b4 24 a8 	movsd  0xa8(%rsp),%xmm14
    7309:	00 00 00 
    730c:	66 41 0f 28 cc       	movapd %xmm12,%xmm1
    7311:	4c 8b 8c 24 48 01 00 	mov    0x148(%rsp),%r9
    7318:	00 
    7319:	66 44 0f 28 84 24 20 	movapd 0x120(%rsp),%xmm8
    7320:	01 00 00 
    7323:	f2 41 0f 59 cf       	mulsd  %xmm15,%xmm1
    7328:	4c 8b 84 24 40 01 00 	mov    0x140(%rsp),%r8
    732f:	00 
    7330:	f2 0f 10 bc 24 f0 00 	movsd  0xf0(%rsp),%xmm7
    7337:	00 00 
    7339:	48 8b 94 24 f8 00 00 	mov    0xf8(%rsp),%rdx
    7340:	00 
    7341:	f2 0f 10 b4 24 e0 00 	movsd  0xe0(%rsp),%xmm6
    7348:	00 00 
    734a:	f2 0f 10 9c 24 a0 00 	movsd  0xa0(%rsp),%xmm3
    7351:	00 00 
    7353:	f2 0f 10 94 24 98 00 	movsd  0x98(%rsp),%xmm2
    735a:	00 00 
    735c:	f2 0f 10 ac 24 88 00 	movsd  0x88(%rsp),%xmm5
    7363:	00 00 
    7365:	f2 0f 58 c4          	addsd  %xmm4,%xmm0
    7369:	66 41 0f 28 e3       	movapd %xmm11,%xmm4
    736e:	f2 41 0f 59 e1       	mulsd  %xmm9,%xmm4
    7373:	f2 44 0f 59 e0       	mulsd  %xmm0,%xmm12
    7378:	f2 44 0f 59 d8       	mulsd  %xmm0,%xmm11
    737d:	f2 0f 5c e1          	subsd  %xmm1,%xmm4
    7381:	66 41 0f 28 c9       	movapd %xmm9,%xmm1
    7386:	f2 41 0f 59 ca       	mulsd  %xmm10,%xmm1
    738b:	f2 45 0f 59 d7       	mulsd  %xmm15,%xmm10
    7390:	f2 41 0f 5c cc       	subsd  %xmm12,%xmm1
    7395:	66 0f 57 0d 93 55 00 	xorpd  0x5593(%rip),%xmm1        # c930 <_IO_stdin_used+0x930>
    739c:	00 
    739d:	66 41 0f 28 c2       	movapd %xmm10,%xmm0
    73a2:	f2 41 0f 5c c3       	subsd  %xmm11,%xmm0
    73a7:	66 0f 14 e1          	unpcklpd %xmm1,%xmm4
    73ab:	66 41 0f 28 ce       	movapd %xmm14,%xmm1
    73b0:	66 0f 14 c9          	unpcklpd %xmm1,%xmm1
    73b4:	66 0f 59 cc          	mulpd  %xmm4,%xmm1
    73b8:	f2 41 0f 59 c6       	mulsd  %xmm14,%xmm0
    73bd:	66 44 0f 58 c1       	addpd  %xmm1,%xmm8
    73c2:	f2 0f 58 f8          	addsd  %xmm0,%xmm7
    73c6:	66 2e 0f 1f 84 00 00 	cs nopw 0x0(%rax,%rax,1)
    73cd:	00 00 00 
    73d0:	48 83 c5 08          	add    $0x8,%rbp
    73d4:	49 39 ed             	cmp    %rbp,%r13
    73d7:	0f 85 83 fc ff ff    	jne    7060 <_Z6torquedddjjddidPPdRKSt6vectorIiSaIiEEPS0_PPP6tensor+0xf50>
    73dd:	39 d9                	cmp    %ebx,%ecx
    73df:	0f 86 80 03 00 00    	jbe    7765 <_Z6torquedddjjddidPPdRKSt6vectorIiSaIiEEPS0_PPP6tensor+0x1655>
    73e5:	4d 8b 2e             	mov    (%r14),%r13
    73e8:	49 8d 6c 15 00       	lea    0x0(%r13,%rdx,1),%rbp
    73ed:	4d 01 cd             	add    %r9,%r13
    73f0:	48 8b 45 00          	mov    0x0(%rbp),%rax
    73f4:	f2 0f 10 00          	movsd  (%rax),%xmm0
    73f8:	66 0f 2f c2          	comisd %xmm2,%xmm0
    73fc:	0f 82 56 03 00 00    	jb     7758 <_Z6torquedddjjddidPPdRKSt6vectorIiSaIiEEPS0_PPP6tensor+0x1648>
    7402:	66 0f 2f d8          	comisd %xmm0,%xmm3
    7406:	0f 82 4c 03 00 00    	jb     7758 <_Z6torquedddjjddidPPdRKSt6vectorIiSaIiEEPS0_PPP6tensor+0x1648>
    740c:	f2 0f 10 48 08       	movsd  0x8(%rax),%xmm1
    7411:	66 0f 2f cd          	comisd %xmm5,%xmm1
    7415:	0f 82 3d 03 00 00    	jb     7758 <_Z6torquedddjjddidPPdRKSt6vectorIiSaIiEEPS0_PPP6tensor+0x1648>
    741b:	66 0f 2f f1          	comisd %xmm1,%xmm6
    741f:	0f 82 33 03 00 00    	jb     7758 <_Z6torquedddjjddidPPdRKSt6vectorIiSaIiEEPS0_PPP6tensor+0x1648>
    7425:	f2 0f 10 60 10       	movsd  0x10(%rax),%xmm4
    742a:	66 0f 2f 64 24 08    	comisd 0x8(%rsp),%xmm4
    7430:	0f 82 22 03 00 00    	jb     7758 <_Z6torquedddjjddidPPdRKSt6vectorIiSaIiEEPS0_PPP6tensor+0x1648>
    7436:	f2 44 0f 10 2c 24    	movsd  (%rsp),%xmm13
    743c:	66 44 0f 2f ec       	comisd %xmm4,%xmm13
    7441:	0f 82 11 03 00 00    	jb     7758 <_Z6torquedddjjddidPPdRKSt6vectorIiSaIiEEPS0_PPP6tensor+0x1648>
    7447:	f2 0f 11 b4 24 e0 00 	movsd  %xmm6,0xe0(%rsp)
    744e:	00 00 
    7450:	f2 44 0f 10 70 18    	movsd  0x18(%rax),%xmm14
    7456:	f2 0f 10 b4 24 10 01 	movsd  0x110(%rsp),%xmm6
    745d:	00 00 
    745f:	f2 0f 11 ac 24 80 00 	movsd  %xmm5,0x80(%rsp)
    7466:	00 00 
    7468:	f2 0f 10 6c 24 10    	movsd  0x10(%rsp),%xmm5
    746e:	f2 44 0f 10 9c 24 08 	movsd  0x108(%rsp),%xmm11
    7475:	01 00 00 
    7478:	f2 0f 58 f4          	addsd  %xmm4,%xmm6
    747c:	4c 89 8c 24 48 01 00 	mov    %r9,0x148(%rsp)
    7483:	00 
    7484:	f2 44 0f 10 94 24 00 	movsd  0x100(%rsp),%xmm10
    748b:	01 00 00 
    748e:	f2 0f 5e e5          	divsd  %xmm5,%xmm4
    7492:	f2 44 0f 58 d9       	addsd  %xmm1,%xmm11
    7497:	4c 89 84 24 40 01 00 	mov    %r8,0x140(%rsp)
    749e:	00 
    749f:	f2 44 0f 58 d0       	addsd  %xmm0,%xmm10
    74a4:	89 8c 24 30 01 00 00 	mov    %ecx,0x130(%rsp)
    74ab:	f2 0f 11 b4 24 d8 00 	movsd  %xmm6,0xd8(%rsp)
    74b2:	00 00 
    74b4:	66 0f 28 f2          	movapd %xmm2,%xmm6
    74b8:	48 89 94 24 f8 00 00 	mov    %rdx,0xf8(%rsp)
    74bf:	00 
    74c0:	44 0f 29 84 24 20 01 	movaps %xmm8,0x120(%rsp)
    74c7:	00 00 
    74c9:	f2 0f 11 bc 24 f0 00 	movsd  %xmm7,0xf0(%rsp)
    74d0:	00 00 
    74d2:	f2 44 0f 11 9c 24 d0 	movsd  %xmm11,0xd0(%rsp)
    74d9:	00 00 00 
    74dc:	f2 44 0f 11 94 24 c8 	movsd  %xmm10,0xc8(%rsp)
    74e3:	00 00 00 
    74e6:	f2 44 0f 11 b4 24 a8 	movsd  %xmm14,0xa8(%rsp)
    74ed:	00 00 00 
    74f0:	f2 0f 11 9c 24 a0 00 	movsd  %xmm3,0xa0(%rsp)
    74f7:	00 00 
    74f9:	f2 0f 11 94 24 98 00 	movsd  %xmm2,0x98(%rsp)
    7500:	00 00 
    7502:	f2 0f 11 a4 24 c0 00 	movsd  %xmm4,0xc0(%rsp)
    7509:	00 00 
    750b:	66 0f 28 e1          	movapd %xmm1,%xmm4
    750f:	66 0f 28 c8          	movapd %xmm0,%xmm1
    7513:	f2 0f 10 44 24 60    	movsd  0x60(%rsp),%xmm0
    7519:	f2 0f 5e e5          	divsd  %xmm5,%xmm4
    751d:	f2 0f 5e cd          	divsd  %xmm5,%xmm1
    7521:	66 0f 28 eb          	movapd %xmm3,%xmm5
    7525:	f2 0f 5c ea          	subsd  %xmm2,%xmm5
    7529:	f2 0f 11 6c 24 48    	movsd  %xmm5,0x48(%rsp)
    752f:	f2 0f 11 a4 24 b8 00 	movsd  %xmm4,0xb8(%rsp)
    7536:	00 00 
    7538:	f2 0f 5e f5          	divsd  %xmm5,%xmm6
    753c:	f2 0f 11 8c 24 b0 00 	movsd  %xmm1,0xb0(%rsp)
    7543:	00 00 
    7545:	f2 0f 58 c6          	addsd  %xmm6,%xmm0
    7549:	e8 12 af ff ff       	call   2460 <round@plt>
    754e:	f2 0f 10 ac 24 80 00 	movsd  0x80(%rsp),%xmm5
    7555:	00 00 
    7557:	f2 0f 11 84 24 90 00 	movsd  %xmm0,0x90(%rsp)
    755e:	00 00 
    7560:	f2 0f 10 44 24 60    	movsd  0x60(%rsp),%xmm0
    7566:	f2 0f 11 ac 24 88 00 	movsd  %xmm5,0x88(%rsp)
    756d:	00 00 
    756f:	66 0f 28 f5          	movapd %xmm5,%xmm6
    7573:	f2 0f 5e 74 24 48    	divsd  0x48(%rsp),%xmm6
    7579:	f2 0f 58 c6          	addsd  %xmm6,%xmm0
    757d:	e8 de ae ff ff       	call   2460 <round@plt>
    7582:	f2 0f 11 84 24 80 00 	movsd  %xmm0,0x80(%rsp)
    7589:	00 00 
    758b:	f2 0f 10 44 24 08    	movsd  0x8(%rsp),%xmm0
    7591:	f2 0f 5e 44 24 48    	divsd  0x48(%rsp),%xmm0
    7597:	f2 0f 58 44 24 60    	addsd  0x60(%rsp),%xmm0
    759d:	e8 be ae ff ff       	call   2460 <round@plt>
    75a2:	48 8b 8c 24 18 01 00 	mov    0x118(%rsp),%rcx
    75a9:	00 
    75aa:	f2 44 0f 10 bc 24 90 	movsd  0x90(%rsp),%xmm15
    75b1:	00 00 00 
    75b4:	f2 44 0f 10 8c 24 80 	movsd  0x80(%rsp),%xmm9
    75bb:	00 00 00 
    75be:	f2 0f 10 8c 24 b0 00 	movsd  0xb0(%rsp),%xmm1
    75c5:	00 00 
    75c7:	f2 0f 10 a4 24 b8 00 	movsd  0xb8(%rsp),%xmm4
    75ce:	00 00 
    75d0:	f2 41 0f 2c c7       	cvttsd2si %xmm15,%eax
    75d5:	f2 44 0f 10 ac 24 c0 	movsd  0xc0(%rsp),%xmm13
    75dc:	00 00 00 
    75df:	f2 41 0f 2c f1       	cvttsd2si %xmm9,%esi
    75e4:	48 98                	cltq   
    75e6:	48 8b 3c c1          	mov    (%rcx,%rax,8),%rdi
    75ea:	f2 0f 2c c0          	cvttsd2si %xmm0,%eax
    75ee:	48 63 f6             	movslq %esi,%rsi
    75f1:	48 8b 34 f7          	mov    (%rdi,%rsi,8),%rsi
    75f5:	48 98                	cltq   
    75f7:	48 8d 04 c0          	lea    (%rax,%rax,8),%rax
    75fb:	48 8d 04 c6          	lea    (%rsi,%rax,8),%rax
    75ff:	f2 44 0f 10 48 10    	movsd  0x10(%rax),%xmm9
    7605:	f2 0f 10 40 28       	movsd  0x28(%rax),%xmm0
    760a:	f2 44 0f 10 78 08    	movsd  0x8(%rax),%xmm15
    7610:	f2 0f 59 c4          	mulsd  %xmm4,%xmm0
    7614:	f2 44 0f 59 c9       	mulsd  %xmm1,%xmm9
    7619:	f2 44 0f 59 f9       	mulsd  %xmm1,%xmm15
    761e:	f2 0f 59 08          	mulsd  (%rax),%xmm1
    7622:	f2 44 0f 58 c8       	addsd  %xmm0,%xmm9
    7627:	f2 0f 10 40 40       	movsd  0x40(%rax),%xmm0
    762c:	f2 41 0f 59 c5       	mulsd  %xmm13,%xmm0
    7631:	f2 44 0f 58 c8       	addsd  %xmm0,%xmm9
    7636:	f2 0f 10 40 20       	movsd  0x20(%rax),%xmm0
    763b:	f2 0f 59 c4          	mulsd  %xmm4,%xmm0
    763f:	f2 0f 59 60 18       	mulsd  0x18(%rax),%xmm4
    7644:	f2 44 0f 58 f8       	addsd  %xmm0,%xmm15
    7649:	f2 0f 10 40 38       	movsd  0x38(%rax),%xmm0
    764e:	f2 41 0f 59 c5       	mulsd  %xmm13,%xmm0
    7653:	f2 44 0f 58 f8       	addsd  %xmm0,%xmm15
    7658:	66 0f 28 c1          	movapd %xmm1,%xmm0
    765c:	f2 0f 58 c4          	addsd  %xmm4,%xmm0
    7660:	f2 0f 10 60 30       	movsd  0x30(%rax),%xmm4
    7665:	f2 44 0f 10 9c 24 d0 	movsd  0xd0(%rsp),%xmm11
    766c:	00 00 00 
    766f:	f2 44 0f 10 a4 24 d8 	movsd  0xd8(%rsp),%xmm12
    7676:	00 00 00 
    7679:	f2 44 0f 10 94 24 c8 	movsd  0xc8(%rsp),%xmm10
    7680:	00 00 00 
    7683:	f2 41 0f 59 e5       	mulsd  %xmm13,%xmm4
    7688:	8b 8c 24 30 01 00 00 	mov    0x130(%rsp),%ecx
    768f:	f2 44 0f 10 b4 24 a8 	movsd  0xa8(%rsp),%xmm14
    7696:	00 00 00 
    7699:	66 41 0f 28 cc       	movapd %xmm12,%xmm1
    769e:	4c 8b 8c 24 48 01 00 	mov    0x148(%rsp),%r9
    76a5:	00 
    76a6:	66 44 0f 28 84 24 20 	movapd 0x120(%rsp),%xmm8
    76ad:	01 00 00 
    76b0:	f2 41 0f 59 cf       	mulsd  %xmm15,%xmm1
    76b5:	4c 8b 84 24 40 01 00 	mov    0x140(%rsp),%r8
    76bc:	00 
    76bd:	f2 0f 10 bc 24 f0 00 	movsd  0xf0(%rsp),%xmm7
    76c4:	00 00 
    76c6:	48 8b 94 24 f8 00 00 	mov    0xf8(%rsp),%rdx
    76cd:	00 
    76ce:	f2 0f 10 b4 24 e0 00 	movsd  0xe0(%rsp),%xmm6
    76d5:	00 00 
    76d7:	f2 0f 10 9c 24 a0 00 	movsd  0xa0(%rsp),%xmm3
    76de:	00 00 
    76e0:	f2 0f 10 94 24 98 00 	movsd  0x98(%rsp),%xmm2
    76e7:	00 00 
    76e9:	f2 0f 10 ac 24 88 00 	movsd  0x88(%rsp),%xmm5
    76f0:	00 00 
    76f2:	f2 0f 58 c4          	addsd  %xmm4,%xmm0
    76f6:	66 41 0f 28 e3       	movapd %xmm11,%xmm4
    76fb:	f2 41 0f 59 e1       	mulsd  %xmm9,%xmm4
    7700:	f2 44 0f 59 e0       	mulsd  %xmm0,%xmm12
    7705:	f2 44 0f 59 d8       	mulsd  %xmm0,%xmm11
    770a:	f2 0f 5c e1          	subsd  %xmm1,%xmm4
    770e:	66 41 0f 28 c9       	movapd %xmm9,%xmm1
    7713:	f2 41 0f 59 ca       	mulsd  %xmm10,%xmm1
    7718:	f2 45 0f 59 d7       	mulsd  %xmm15,%xmm10
    771d:	f2 41 0f 5c cc       	subsd  %xmm12,%xmm1
    7722:	66 0f 57 0d 06 52 00 	xorpd  0x5206(%rip),%xmm1        # c930 <_IO_stdin_used+0x930>
    7729:	00 
    772a:	66 41 0f 28 c2       	movapd %xmm10,%xmm0
    772f:	f2 41 0f 5c c3       	subsd  %xmm11,%xmm0
    7734:	66 0f 14 e1          	unpcklpd %xmm1,%xmm4
    7738:	66 41 0f 28 ce       	movapd %xmm14,%xmm1
    773d:	66 0f 14 c9          	unpcklpd %xmm1,%xmm1
    7741:	66 0f 59 cc          	mulpd  %xmm4,%xmm1
    7745:	f2 41 0f 59 c6       	mulsd  %xmm14,%xmm0
    774a:	66 44 0f 58 c1       	addpd  %xmm1,%xmm8
    774f:	f2 0f 58 f8          	addsd  %xmm0,%xmm7
    7753:	0f 1f 44 00 00       	nopl   0x0(%rax,%rax,1)
    7758:	48 83 c5 08          	add    $0x8,%rbp
    775c:	49 39 ed             	cmp    %rbp,%r13
    775f:	0f 85 8b fc ff ff    	jne    73f0 <_Z6torquedddjjddidPPdRKSt6vectorIiSaIiEEPS0_PPP6tensor+0x12e0>
    7765:	49 83 c6 08          	add    $0x8,%r14
    7769:	4d 39 f4             	cmp    %r14,%r12
    776c:	0f 85 d6 f8 ff ff    	jne    7048 <_Z6torquedddjjddidPPdRKSt6vectorIiSaIiEEPS0_PPP6tensor+0xf38>
    7772:	48 8b 5c 24 70       	mov    0x70(%rsp),%rbx
    7777:	4c 8b 64 24 78       	mov    0x78(%rsp),%r12
    777c:	e9 f8 eb ff ff       	jmp    6379 <_Z6torquedddjjddidPPdRKSt6vectorIiSaIiEEPS0_PPP6tensor+0x269>
    7781:	f2 0f 10 05 17 51 00 	movsd  0x5117(%rip),%xmm0        # c8a0 <_IO_stdin_used+0x8a0>
    7788:	00 
    7789:	e9 75 eb ff ff       	jmp    6303 <_Z6torquedddjjddidPPdRKSt6vectorIiSaIiEEPS0_PPP6tensor+0x1f3>
    778e:	f2 0f 10 05 0a 51 00 	movsd  0x510a(%rip),%xmm0        # c8a0 <_IO_stdin_used+0x8a0>
    7795:	00 
    7796:	e9 7b ee ff ff       	jmp    6616 <_Z6torquedddjjddidPPdRKSt6vectorIiSaIiEEPS0_PPP6tensor+0x506>
    779b:	48 8d 0d 2e 49 00 00 	lea    0x492e(%rip),%rcx        # c0d0 <_IO_stdin_used+0xd0>
    77a2:	ba 97 01 00 00       	mov    $0x197,%edx
    77a7:	48 8d 35 8f 4f 00 00 	lea    0x4f8f(%rip),%rsi        # c73d <_IO_stdin_used+0x73d>
    77ae:	48 8d 3d 95 4f 00 00 	lea    0x4f95(%rip),%rdi        # c74a <_IO_stdin_used+0x74a>
    77b5:	e8 16 ad ff ff       	call   24d0 <__assert_fail@plt>
    77ba:	e8 11 ae ff ff       	call   25d0 <__stack_chk_fail@plt>
    77bf:	90                   	nop

00000000000077c0 <_Z7blearghv>:
    77c0:	f3 0f 1e fa          	endbr64 
    77c4:	55                   	push   %rbp
    77c5:	ba 5a 00 00 00       	mov    $0x5a,%edx
    77ca:	48 8d 35 df 49 00 00 	lea    0x49df(%rip),%rsi        # c1b0 <_IO_stdin_used+0x1b0>
    77d1:	48 8d 3d 68 78 00 00 	lea    0x7868(%rip),%rdi        # f040 <_ZSt4cout@GLIBCXX_3.4>
    77d8:	48 89 e5             	mov    %rsp,%rbp
    77db:	41 57                	push   %r15
    77dd:	41 56                	push   %r14
    77df:	41 55                	push   %r13
    77e1:	41 54                	push   %r12
    77e3:	53                   	push   %rbx
    77e4:	48 81 ec d8 01 00 00 	sub    $0x1d8,%rsp
    77eb:	64 48 8b 04 25 28 00 	mov    %fs:0x28,%rax
    77f2:	00 00 
    77f4:	48 89 45 c8          	mov    %rax,-0x38(%rbp)
    77f8:	31 c0                	xor    %eax,%eax
    77fa:	e8 e1 ad ff ff       	call   25e0 <_ZSt16__ostream_insertIcSt11char_traitsIcEERSt13basic_ostreamIT_T0_ES6_PKS3_l@plt>
    77ff:	48 8d b5 e0 fe ff ff 	lea    -0x120(%rbp),%rsi
    7806:	48 8d 3d 53 79 00 00 	lea    0x7953(%rip),%rdi        # f160 <_ZSt3cin@GLIBCXX_3.4>
    780d:	e8 ce ac ff ff       	call   24e0 <_ZNSi10_M_extractIdEERSiRT_@plt>
    7812:	48 8d b5 e8 fe ff ff 	lea    -0x118(%rbp),%rsi
    7819:	48 89 c7             	mov    %rax,%rdi
    781c:	e8 bf ac ff ff       	call   24e0 <_ZNSi10_M_extractIdEERSiRT_@plt>
    7821:	48 8d b5 f0 fe ff ff 	lea    -0x110(%rbp),%rsi
    7828:	48 89 c7             	mov    %rax,%rdi
    782b:	e8 b0 ac ff ff       	call   24e0 <_ZNSi10_M_extractIdEERSiRT_@plt>
    7830:	ba 41 00 00 00       	mov    $0x41,%edx
    7835:	48 8d 35 d4 49 00 00 	lea    0x49d4(%rip),%rsi        # c210 <_IO_stdin_used+0x210>
    783c:	48 8d 3d fd 77 00 00 	lea    0x77fd(%rip),%rdi        # f040 <_ZSt4cout@GLIBCXX_3.4>
    7843:	e8 98 ad ff ff       	call   25e0 <_ZSt16__ostream_insertIcSt11char_traitsIcEERSt13basic_ostreamIT_T0_ES6_PKS3_l@plt>
    7848:	48 8d b5 d4 fe ff ff 	lea    -0x12c(%rbp),%rsi
    784f:	48 8d 3d 0a 79 00 00 	lea    0x790a(%rip),%rdi        # f160 <_ZSt3cin@GLIBCXX_3.4>
    7856:	e8 55 ac ff ff       	call   24b0 <_ZNSirsERi@plt>
    785b:	ba 40 00 00 00       	mov    $0x40,%edx
    7860:	48 8d 35 f1 49 00 00 	lea    0x49f1(%rip),%rsi        # c258 <_IO_stdin_used+0x258>
    7867:	48 8d 3d d2 77 00 00 	lea    0x77d2(%rip),%rdi        # f040 <_ZSt4cout@GLIBCXX_3.4>
    786e:	e8 6d ad ff ff       	call   25e0 <_ZSt16__ostream_insertIcSt11char_traitsIcEERSt13basic_ostreamIT_T0_ES6_PKS3_l@plt>
    7873:	48 8d b5 d8 fe ff ff 	lea    -0x128(%rbp),%rsi
    787a:	48 8d 3d df 78 00 00 	lea    0x78df(%rip),%rdi        # f160 <_ZSt3cin@GLIBCXX_3.4>
    7881:	e8 2a ac ff ff       	call   24b0 <_ZNSirsERi@plt>
    7886:	ba 21 00 00 00       	mov    $0x21,%edx
    788b:	48 8d 35 0e 4a 00 00 	lea    0x4a0e(%rip),%rsi        # c2a0 <_IO_stdin_used+0x2a0>
    7892:	48 8d 3d a7 77 00 00 	lea    0x77a7(%rip),%rdi        # f040 <_ZSt4cout@GLIBCXX_3.4>
    7899:	e8 42 ad ff ff       	call   25e0 <_ZSt16__ostream_insertIcSt11char_traitsIcEERSt13basic_ostreamIT_T0_ES6_PKS3_l@plt>
    789e:	48 8d b5 f8 fe ff ff 	lea    -0x108(%rbp),%rsi
    78a5:	48 8d 3d b4 78 00 00 	lea    0x78b4(%rip),%rdi        # f160 <_ZSt3cin@GLIBCXX_3.4>
    78ac:	e8 2f ac ff ff       	call   24e0 <_ZNSi10_M_extractIdEERSiRT_@plt>
    78b1:	ba 2f 00 00 00       	mov    $0x2f,%edx
    78b6:	48 8d 35 0b 4a 00 00 	lea    0x4a0b(%rip),%rsi        # c2c8 <_IO_stdin_used+0x2c8>
    78bd:	48 8d 3d 7c 77 00 00 	lea    0x777c(%rip),%rdi        # f040 <_ZSt4cout@GLIBCXX_3.4>
    78c4:	e8 17 ad ff ff       	call   25e0 <_ZSt16__ostream_insertIcSt11char_traitsIcEERSt13basic_ostreamIT_T0_ES6_PKS3_l@plt>
    78c9:	48 8d b5 00 ff ff ff 	lea    -0x100(%rbp),%rsi
    78d0:	48 8d 3d 89 78 00 00 	lea    0x7889(%rip),%rdi        # f160 <_ZSt3cin@GLIBCXX_3.4>
    78d7:	e8 04 ac ff ff       	call   24e0 <_ZNSi10_M_extractIdEERSiRT_@plt>
    78dc:	ba a7 00 00 00       	mov    $0xa7,%edx
    78e1:	48 8d 35 10 4a 00 00 	lea    0x4a10(%rip),%rsi        # c2f8 <_IO_stdin_used+0x2f8>
    78e8:	48 8d 3d 51 77 00 00 	lea    0x7751(%rip),%rdi        # f040 <_ZSt4cout@GLIBCXX_3.4>
    78ef:	e8 ec ac ff ff       	call   25e0 <_ZSt16__ostream_insertIcSt11char_traitsIcEERSt13basic_ostreamIT_T0_ES6_PKS3_l@plt>
    78f4:	48 8d b5 dc fe ff ff 	lea    -0x124(%rbp),%rsi
    78fb:	48 8d 3d 5e 78 00 00 	lea    0x785e(%rip),%rdi        # f160 <_ZSt3cin@GLIBCXX_3.4>
    7902:	e8 a9 ab ff ff       	call   24b0 <_ZNSirsERi@plt>
    7907:	ba 15 00 00 00       	mov    $0x15,%edx
    790c:	48 8d 35 e1 4e 00 00 	lea    0x4ee1(%rip),%rsi        # c7f4 <_IO_stdin_used+0x7f4>
    7913:	48 8d 3d 26 77 00 00 	lea    0x7726(%rip),%rdi        # f040 <_ZSt4cout@GLIBCXX_3.4>
    791a:	e8 c1 ac ff ff       	call   25e0 <_ZSt16__ostream_insertIcSt11char_traitsIcEERSt13basic_ostreamIT_T0_ES6_PKS3_l@plt>
    791f:	48 8d b5 08 ff ff ff 	lea    -0xf8(%rbp),%rsi
    7926:	48 8d 3d 33 78 00 00 	lea    0x7833(%rip),%rdi        # f160 <_ZSt3cin@GLIBCXX_3.4>
    792d:	e8 ae ab ff ff       	call   24e0 <_ZNSi10_M_extractIdEERSiRT_@plt>
    7932:	ba 11 00 00 00       	mov    $0x11,%edx
    7937:	48 8d 35 cc 4e 00 00 	lea    0x4ecc(%rip),%rsi        # c80a <_IO_stdin_used+0x80a>
    793e:	48 8d 3d fb 76 00 00 	lea    0x76fb(%rip),%rdi        # f040 <_ZSt4cout@GLIBCXX_3.4>
    7945:	e8 96 ac ff ff       	call   25e0 <_ZSt16__ostream_insertIcSt11char_traitsIcEERSt13basic_ostreamIT_T0_ES6_PKS3_l@plt>
    794a:	48 8d b5 10 ff ff ff 	lea    -0xf0(%rbp),%rsi
    7951:	48 8d 3d 08 78 00 00 	lea    0x7808(%rip),%rdi        # f160 <_ZSt3cin@GLIBCXX_3.4>
    7958:	e8 83 ab ff ff       	call   24e0 <_ZNSi10_M_extractIdEERSiRT_@plt>
    795d:	ba 18 00 00 00       	mov    $0x18,%edx
    7962:	48 8d 35 b3 4e 00 00 	lea    0x4eb3(%rip),%rsi        # c81c <_IO_stdin_used+0x81c>
    7969:	48 8d 3d d0 76 00 00 	lea    0x76d0(%rip),%rdi        # f040 <_ZSt4cout@GLIBCXX_3.4>
    7970:	e8 6b ac ff ff       	call   25e0 <_ZSt16__ostream_insertIcSt11char_traitsIcEERSt13basic_ostreamIT_T0_ES6_PKS3_l@plt>
    7975:	48 8d b5 18 ff ff ff 	lea    -0xe8(%rbp),%rsi
    797c:	48 8d 3d dd 77 00 00 	lea    0x77dd(%rip),%rdi        # f160 <_ZSt3cin@GLIBCXX_3.4>
    7983:	e8 58 ab ff ff       	call   24e0 <_ZNSi10_M_extractIdEERSiRT_@plt>
    7988:	8b 9d dc fe ff ff    	mov    -0x124(%rbp),%ebx
    798e:	31 d2                	xor    %edx,%edx
    7990:	f2 0f 10 95 00 ff ff 	movsd  -0x100(%rbp),%xmm2
    7997:	ff 
    7998:	be 03 00 00 00       	mov    $0x3,%esi
    799d:	f2 0f 10 85 18 ff ff 	movsd  -0xe8(%rbp),%xmm0
    79a4:	ff 
    79a5:	f2 0f 5e 05 53 4f 00 	divsd  0x4f53(%rip),%xmm0        # c900 <_IO_stdin_used+0x900>
    79ac:	00 
    79ad:	f2 0f 11 85 90 fe ff 	movsd  %xmm0,-0x170(%rbp)
    79b4:	ff 
    79b5:	89 df                	mov    %ebx,%edi
    79b7:	f2 0f 11 95 c8 fe ff 	movsd  %xmm2,-0x138(%rbp)
    79be:	ff 
    79bf:	0f af fb             	imul   %ebx,%edi
    79c2:	0f af fb             	imul   %ebx,%edi
    79c5:	c1 e7 03             	shl    $0x3,%edi
    79c8:	e8 c3 11 00 00       	call   8b90 <_Z10allocate2djjPPd>
    79cd:	66 0f ef c0          	pxor   %xmm0,%xmm0
    79d1:	44 8d 04 1b          	lea    (%rbx,%rbx,1),%r8d
    79d5:	f2 0f 10 95 c8 fe ff 	movsd  -0x138(%rbp),%xmm2
    79dc:	ff 
    79dd:	48 89 85 b0 fe ff ff 	mov    %rax,-0x150(%rbp)
    79e4:	89 d8                	mov    %ebx,%eax
    79e6:	f2 0f 10 3d c2 4e 00 	movsd  0x4ec2(%rip),%xmm7        # c8b0 <_IO_stdin_used+0x8b0>
    79ed:	00 
    79ee:	f2 48 0f 2a c0       	cvtsi2sd %rax,%xmm0
    79f3:	66 0f 28 da          	movapd %xmm2,%xmm3
    79f7:	f2 0f 5e d8          	divsd  %xmm0,%xmm3
    79fb:	f2 0f 59 fb          	mulsd  %xmm3,%xmm7
    79ff:	45 85 c0             	test   %r8d,%r8d
    7a02:	0f 8e 89 00 00 00    	jle    7a91 <_Z7blearghv+0x2d1>
    7a08:	48 8b 9d b0 fe ff ff 	mov    -0x150(%rbp),%rbx
    7a0f:	31 ff                	xor    %edi,%edi
    7a11:	45 31 db             	xor    %r11d,%r11d
    7a14:	45 8d 48 ff          	lea    -0x1(%r8),%r9d
    7a18:	66 44 0f 28 c7       	movapd %xmm7,%xmm8
    7a1d:	4c 8d 53 08          	lea    0x8(%rbx),%r10
    7a21:	66 41 0f 28 e8       	movapd %xmm8,%xmm5
    7a26:	66 0f 28 f7          	movapd %xmm7,%xmm6
    7a2a:	31 f6                	xor    %esi,%esi
    7a2c:	f2 0f 5c ea          	subsd  %xmm2,%xmm5
    7a30:	66 0f 28 e6          	movapd %xmm6,%xmm4
    7a34:	48 63 d7             	movslq %edi,%rdx
    7a37:	66 0f 28 cf          	movapd %xmm7,%xmm1
    7a3b:	f2 0f 5c e2          	subsd  %xmm2,%xmm4
    7a3f:	48 8d 04 d3          	lea    (%rbx,%rdx,8),%rax
    7a43:	4c 01 ca             	add    %r9,%rdx
    7a46:	49 8d 0c d2          	lea    (%r10,%rdx,8),%rcx
    7a4a:	66 0f 1f 44 00 00    	nopw   0x0(%rax,%rax,1)
    7a50:	66 0f 28 c1          	movapd %xmm1,%xmm0
    7a54:	48 8b 10             	mov    (%rax),%rdx
    7a57:	48 83 c0 08          	add    $0x8,%rax
    7a5b:	f2 0f 58 cb          	addsd  %xmm3,%xmm1
    7a5f:	f2 0f 5c c2          	subsd  %xmm2,%xmm0
    7a63:	f2 0f 11 6a 10       	movsd  %xmm5,0x10(%rdx)
    7a68:	66 0f 14 c4          	unpcklpd %xmm4,%xmm0
    7a6c:	0f 11 02             	movups %xmm0,(%rdx)
    7a6f:	48 39 c8             	cmp    %rcx,%rax
    7a72:	75 dc                	jne    7a50 <_Z7blearghv+0x290>
    7a74:	83 c6 01             	add    $0x1,%esi
    7a77:	f2 0f 58 f3          	addsd  %xmm3,%xmm6
    7a7b:	44 01 c7             	add    %r8d,%edi
    7a7e:	44 39 c6             	cmp    %r8d,%esi
    7a81:	75 ad                	jne    7a30 <_Z7blearghv+0x270>
    7a83:	41 83 c3 01          	add    $0x1,%r11d
    7a87:	f2 44 0f 58 c3       	addsd  %xmm3,%xmm8
    7a8c:	45 39 c3             	cmp    %r8d,%r11d
    7a8f:	75 90                	jne    7a21 <_Z7blearghv+0x261>
    7a91:	8b b5 d4 fe ff ff    	mov    -0x12c(%rbp),%esi
    7a97:	8b bd d8 fe ff ff    	mov    -0x128(%rbp),%edi
    7a9d:	4c 8d 65 80          	lea    -0x80(%rbp),%r12
    7aa1:	f2 0f 10 85 f8 fe ff 	movsd  -0x108(%rbp),%xmm0
    7aa8:	ff 
    7aa9:	e8 02 c9 ff ff       	call   43b0 <_Z18compute_spheremeshdjj>
    7aae:	bf 04 00 00 00       	mov    $0x4,%edi
    7ab3:	48 89 85 20 fe ff ff 	mov    %rax,-0x1e0(%rbp)
    7aba:	8b 85 dc fe ff ff    	mov    -0x124(%rbp),%eax
    7ac0:	8d 34 00             	lea    (%rax,%rax,1),%esi
    7ac3:	89 f2                	mov    %esi,%edx
    7ac5:	89 f1                	mov    %esi,%ecx
    7ac7:	e8 04 15 00 00       	call   8fd0 <_Z10allocate4djjjj>
    7acc:	48 c7 85 98 fe ff ff 	movq   $0x0,-0x168(%rbp)
    7ad3:	00 00 00 00 
    7ad7:	48 8b 9d 98 fe ff ff 	mov    -0x168(%rbp),%rbx
    7ade:	49 89 c6             	mov    %rax,%r14
    7ae1:	8b 85 dc fe ff ff    	mov    -0x124(%rbp),%eax
    7ae7:	4d 89 f5             	mov    %r14,%r13
    7aea:	8d 14 00             	lea    (%rax,%rax,1),%edx
    7aed:	85 d2                	test   %edx,%edx
    7aef:	0f 8e a0 01 00 00    	jle    7c95 <_Z7blearghv+0x4d5>
    7af5:	89 9d b8 fe ff ff    	mov    %ebx,-0x148(%rbp)
    7afb:	48 c1 e3 03          	shl    $0x3,%rbx
    7aff:	4d 89 ee             	mov    %r13,%r14
    7b02:	48 c7 85 a8 fe ff ff 	movq   $0x0,-0x158(%rbp)
    7b09:	00 00 00 00 
    7b0d:	48 89 de             	mov    %rbx,%rsi
    7b10:	85 c0                	test   %eax,%eax
    7b12:	0f 8e 57 01 00 00    	jle    7c6f <_Z7blearghv+0x4af>
    7b18:	0f 1f 84 00 00 00 00 	nopl   0x0(%rax,%rax,1)
    7b1f:	00 
    7b20:	48 8b 9d a8 fe ff ff 	mov    -0x158(%rbp),%rbx
    7b27:	89 9d a0 fe ff ff    	mov    %ebx,-0x160(%rbp)
    7b2d:	89 9d c0 fe ff ff    	mov    %ebx,-0x140(%rbp)
    7b33:	85 c0                	test   %eax,%eax
    7b35:	0f 8e 31 01 00 00    	jle    7c6c <_Z7blearghv+0x4ac>
    7b3b:	48 89 b5 c8 fe ff ff 	mov    %rsi,-0x138(%rbp)
    7b42:	48 c1 e3 03          	shl    $0x3,%rbx
    7b46:	45 31 ed             	xor    %r13d,%r13d
    7b49:	0f 1f 80 00 00 00 00 	nopl   0x0(%rax)
    7b50:	8b 95 c0 fe ff ff    	mov    -0x140(%rbp),%edx
    7b56:	8b bd b8 fe ff ff    	mov    -0x148(%rbp),%edi
    7b5c:	0f af d0             	imul   %eax,%edx
    7b5f:	8d 3c 57             	lea    (%rdi,%rdx,2),%edi
    7b62:	89 c2                	mov    %eax,%edx
    7b64:	41 0f af d5          	imul   %r13d,%edx
    7b68:	0f af c2             	imul   %edx,%eax
    7b6b:	8d 04 87             	lea    (%rdi,%rax,4),%eax
    7b6e:	48 8b bd b0 fe ff ff 	mov    -0x150(%rbp),%rdi
    7b75:	48 98                	cltq   
    7b77:	4c 8d 3c c7          	lea    (%rdi,%rax,8),%r15
    7b7b:	4c 89 e7             	mov    %r12,%rdi
    7b7e:	49 8b 17             	mov    (%r15),%rdx
    7b81:	f2 0f 10 52 10       	movsd  0x10(%rdx),%xmm2
    7b86:	f2 0f 10 4a 08       	movsd  0x8(%rdx),%xmm1
    7b8b:	f2 0f 10 02          	movsd  (%rdx),%xmm0
    7b8f:	e8 ac 20 00 00       	call   9c40 <_Z8velocityddd>
    7b94:	49 8b 16             	mov    (%r14),%rdx
    7b97:	f2 0f 10 45 80       	movsd  -0x80(%rbp),%xmm0
    7b9c:	4c 89 e7             	mov    %r12,%rdi
    7b9f:	48 8b 8d c8 fe ff ff 	mov    -0x138(%rbp),%rcx
    7ba6:	48 8b 14 0a          	mov    (%rdx,%rcx,1),%rdx
    7baa:	48 8b 14 1a          	mov    (%rdx,%rbx,1),%rdx
    7bae:	f2 42 0f 11 04 ea    	movsd  %xmm0,(%rdx,%r13,8)
    7bb4:	49 8b 17             	mov    (%r15),%rdx
    7bb7:	f2 0f 10 52 10       	movsd  0x10(%rdx),%xmm2
    7bbc:	f2 0f 10 4a 08       	movsd  0x8(%rdx),%xmm1
    7bc1:	f2 0f 10 02          	movsd  (%rdx),%xmm0
    7bc5:	e8 76 20 00 00       	call   9c40 <_Z8velocityddd>
    7bca:	49 8b 56 08          	mov    0x8(%r14),%rdx
    7bce:	49 8b 07             	mov    (%r15),%rax
    7bd1:	4c 89 e7             	mov    %r12,%rdi
    7bd4:	48 8b 8d c8 fe ff ff 	mov    -0x138(%rbp),%rcx
    7bdb:	f2 0f 10 45 88       	movsd  -0x78(%rbp),%xmm0
    7be0:	48 8b 14 0a          	mov    (%rdx,%rcx,1),%rdx
    7be4:	48 8b 14 1a          	mov    (%rdx,%rbx,1),%rdx
    7be8:	f2 42 0f 11 04 ea    	movsd  %xmm0,(%rdx,%r13,8)
    7bee:	f2 0f 10 00          	movsd  (%rax),%xmm0
    7bf2:	f2 0f 10 50 10       	movsd  0x10(%rax),%xmm2
    7bf7:	f2 0f 10 48 08       	movsd  0x8(%rax),%xmm1
    7bfc:	e8 3f 20 00 00       	call   9c40 <_Z8velocityddd>
    7c01:	49 8b 46 10          	mov    0x10(%r14),%rax
    7c05:	f2 0f 10 45 90       	movsd  -0x70(%rbp),%xmm0
    7c0a:	48 8b 8d c8 fe ff ff 	mov    -0x138(%rbp),%rcx
    7c11:	48 8b 04 08          	mov    (%rax,%rcx,1),%rax
    7c15:	48 8b 04 18          	mov    (%rax,%rbx,1),%rax
    7c19:	f2 42 0f 11 04 e8    	movsd  %xmm0,(%rax,%r13,8)
    7c1f:	49 8b 46 18          	mov    0x18(%r14),%rax
    7c23:	f2 0f 10 85 08 ff ff 	movsd  -0xf8(%rbp),%xmm0
    7c2a:	ff 
    7c2b:	48 8b 04 08          	mov    (%rax,%rcx,1),%rax
    7c2f:	48 8b 04 18          	mov    (%rax,%rbx,1),%rax
    7c33:	f2 42 0f 11 04 e8    	movsd  %xmm0,(%rax,%r13,8)
    7c39:	8b 85 dc fe ff ff    	mov    -0x124(%rbp),%eax
    7c3f:	49 83 c5 01          	add    $0x1,%r13
    7c43:	8d 14 00             	lea    (%rax,%rax,1),%edx
    7c46:	44 39 ea             	cmp    %r13d,%edx
    7c49:	0f 8f 01 ff ff ff    	jg     7b50 <_Z7blearghv+0x390>
    7c4f:	48 89 ce             	mov    %rcx,%rsi
    7c52:	8b 8d a0 fe ff ff    	mov    -0x160(%rbp),%ecx
    7c58:	83 c1 01             	add    $0x1,%ecx
    7c5b:	39 ca                	cmp    %ecx,%edx
    7c5d:	7e 2e                	jle    7c8d <_Z7blearghv+0x4cd>
    7c5f:	48 83 85 a8 fe ff ff 	addq   $0x1,-0x158(%rbp)
    7c66:	01 
    7c67:	e9 b4 fe ff ff       	jmp    7b20 <_Z7blearghv+0x360>
    7c6c:	4d 89 f5             	mov    %r14,%r13
    7c6f:	8d 14 00             	lea    (%rax,%rax,1),%edx
    7c72:	48 83 85 98 fe ff ff 	addq   $0x1,-0x168(%rbp)
    7c79:	01 
    7c7a:	48 8b bd 98 fe ff ff 	mov    -0x168(%rbp),%rdi
    7c81:	39 fa                	cmp    %edi,%edx
    7c83:	7e 0d                	jle    7c92 <_Z7blearghv+0x4d2>
    7c85:	48 89 fb             	mov    %rdi,%rbx
    7c88:	e9 68 fe ff ff       	jmp    7af5 <_Z7blearghv+0x335>
    7c8d:	4d 89 f5             	mov    %r14,%r13
    7c90:	eb e0                	jmp    7c72 <_Z7blearghv+0x4b2>
    7c92:	4d 89 ee             	mov    %r13,%r14
    7c95:	66 0f ef c0          	pxor   %xmm0,%xmm0
    7c99:	f2 0f 10 8d 00 ff ff 	movsd  -0x100(%rbp),%xmm1
    7ca0:	ff 
    7ca1:	89 d1                	mov    %edx,%ecx
    7ca3:	31 ff                	xor    %edi,%edi
    7ca5:	f2 0f 2a c0          	cvtsi2sd %eax,%xmm0
    7ca9:	41 89 d0             	mov    %edx,%r8d
    7cac:	4c 89 f6             	mov    %r14,%rsi
    7caf:	f2 0f 5e c8          	divsd  %xmm0,%xmm1
    7cb3:	66 0f 28 d1          	movapd %xmm1,%xmm2
    7cb7:	66 0f 28 c1          	movapd %xmm1,%xmm0
    7cbb:	e8 80 20 00 00       	call   9d40 <_Z12writeVTKFileiPPPPdiiiddd>
    7cc0:	8b 85 dc fe ff ff    	mov    -0x124(%rbp),%eax
    7cc6:	8d 3c 00             	lea    (%rax,%rax,1),%edi
    7cc9:	89 fa                	mov    %edi,%edx
    7ccb:	89 fe                	mov    %edi,%esi
    7ccd:	e8 1e 10 00 00       	call   8cf0 <_Z11allocate3dtjjj>
    7cd2:	8b 8d dc fe ff ff    	mov    -0x124(%rbp),%ecx
    7cd8:	48 89 85 48 fe ff ff 	mov    %rax,-0x1b8(%rbp)
    7cdf:	85 c9                	test   %ecx,%ecx
    7ce1:	0f 8e 41 01 00 00    	jle    7e28 <_Z7blearghv+0x668>
    7ce7:	4c 89 b5 a8 fe ff ff 	mov    %r14,-0x158(%rbp)
    7cee:	49 89 c7             	mov    %rax,%r15
    7cf1:	45 31 e4             	xor    %r12d,%r12d
    7cf4:	4c 8d 6d 80          	lea    -0x80(%rbp),%r13
    7cf8:	48 c7 85 c0 fe ff ff 	movq   $0x0,-0x140(%rbp)
    7cff:	00 00 00 00 
    7d03:	0f 1f 44 00 00       	nopl   0x0(%rax,%rax,1)
    7d08:	48 8b 85 c0 fe ff ff 	mov    -0x140(%rbp),%rax
    7d0f:	89 85 b8 fe ff ff    	mov    %eax,-0x148(%rbp)
    7d15:	89 c3                	mov    %eax,%ebx
    7d17:	85 c9                	test   %ecx,%ecx
    7d19:	0f 8e 02 01 00 00    	jle    7e21 <_Z7blearghv+0x661>
    7d1f:	4c 89 ef             	mov    %r13,%rdi
    7d22:	48 c1 e0 03          	shl    $0x3,%rax
    7d26:	45 89 e5             	mov    %r12d,%r13d
    7d29:	45 31 f6             	xor    %r14d,%r14d
    7d2c:	4c 89 bd c8 fe ff ff 	mov    %r15,-0x138(%rbp)
    7d33:	49 89 c4             	mov    %rax,%r12
    7d36:	49 89 ff             	mov    %rdi,%r15
    7d39:	0f 1f 80 00 00 00 00 	nopl   0x0(%rax)
    7d40:	89 d8                	mov    %ebx,%eax
    7d42:	f2 0f 10 85 08 ff ff 	movsd  -0xf8(%rbp),%xmm0
    7d49:	ff 
    7d4a:	4c 89 ff             	mov    %r15,%rdi
    7d4d:	0f af c1             	imul   %ecx,%eax
    7d50:	41 8d 74 45 00       	lea    0x0(%r13,%rax,2),%esi
    7d55:	89 c8                	mov    %ecx,%eax
    7d57:	41 0f af c6          	imul   %r14d,%eax
    7d5b:	0f af c1             	imul   %ecx,%eax
    7d5e:	48 8b 8d b0 fe ff ff 	mov    -0x150(%rbp),%rcx
    7d65:	8d 04 86             	lea    (%rsi,%rax,4),%eax
    7d68:	48 98                	cltq   
    7d6a:	48 8b 04 c1          	mov    (%rcx,%rax,8),%rax
    7d6e:	f2 0f 10 58 10       	movsd  0x10(%rax),%xmm3
    7d73:	f2 0f 10 50 08       	movsd  0x8(%rax),%xmm2
    7d78:	f2 0f 10 08          	movsd  (%rax),%xmm1
    7d7c:	e8 8f 15 00 00       	call   9310 <_Z6stressdddd>
    7d81:	48 8b 85 c8 fe ff ff 	mov    -0x138(%rbp),%rax
    7d88:	4b 8d 0c f6          	lea    (%r14,%r14,8),%rcx
    7d8c:	66 0f 28 6d 80       	movapd -0x80(%rbp),%xmm5
    7d91:	66 0f 28 7d 90       	movapd -0x70(%rbp),%xmm7
    7d96:	66 0f 28 75 a0       	movapd -0x60(%rbp),%xmm6
    7d9b:	49 83 c6 01          	add    $0x1,%r14
    7d9f:	48 8b 00             	mov    (%rax),%rax
    7da2:	f2 0f 10 45 c0       	movsd  -0x40(%rbp),%xmm0
    7da7:	4a 8b 04 20          	mov    (%rax,%r12,1),%rax
    7dab:	48 8d 04 c8          	lea    (%rax,%rcx,8),%rax
    7daf:	8b 8d dc fe ff ff    	mov    -0x124(%rbp),%ecx
    7db5:	0f 11 28             	movups %xmm5,(%rax)
    7db8:	66 0f 28 6d b0       	movapd -0x50(%rbp),%xmm5
    7dbd:	0f 11 78 10          	movups %xmm7,0x10(%rax)
    7dc1:	0f 11 70 20          	movups %xmm6,0x20(%rax)
    7dc5:	0f 11 68 30          	movups %xmm5,0x30(%rax)
    7dc9:	f2 0f 11 40 40       	movsd  %xmm0,0x40(%rax)
    7dce:	8d 04 09             	lea    (%rcx,%rcx,1),%eax
    7dd1:	44 39 f0             	cmp    %r14d,%eax
    7dd4:	0f 8f 66 ff ff ff    	jg     7d40 <_Z7blearghv+0x580>
    7dda:	8b 95 b8 fe ff ff    	mov    -0x148(%rbp),%edx
    7de0:	45 89 ec             	mov    %r13d,%r12d
    7de3:	48 83 85 c0 fe ff ff 	addq   $0x1,-0x140(%rbp)
    7dea:	01 
    7deb:	4d 89 fd             	mov    %r15,%r13
    7dee:	4c 8b bd c8 fe ff ff 	mov    -0x138(%rbp),%r15
    7df5:	83 c2 01             	add    $0x1,%edx
    7df8:	39 d0                	cmp    %edx,%eax
    7dfa:	0f 8f 08 ff ff ff    	jg     7d08 <_Z7blearghv+0x548>
    7e00:	41 83 c4 01          	add    $0x1,%r12d
    7e04:	49 83 c7 08          	add    $0x8,%r15
    7e08:	44 39 e0             	cmp    %r12d,%eax
    7e0b:	7e 14                	jle    7e21 <_Z7blearghv+0x661>
    7e0d:	85 c9                	test   %ecx,%ecx
    7e0f:	7e 10                	jle    7e21 <_Z7blearghv+0x661>
    7e11:	48 c7 85 c0 fe ff ff 	movq   $0x0,-0x140(%rbp)
    7e18:	00 00 00 00 
    7e1c:	e9 e7 fe ff ff       	jmp    7d08 <_Z7blearghv+0x548>
    7e21:	4c 8b b5 a8 fe ff ff 	mov    -0x158(%rbp),%r14
    7e28:	48 83 bd b0 fe ff ff 	cmpq   $0x0,-0x150(%rbp)
    7e2f:	00 
    7e30:	0f 84 9b 0a 00 00    	je     88d1 <_Z7blearghv+0x1111>
    7e36:	89 c8                	mov    %ecx,%eax
    7e38:	66 0f ef c0          	pxor   %xmm0,%xmm0
    7e3c:	f2 0f 10 b5 f0 fe ff 	movsd  -0x110(%rbp),%xmm6
    7e43:	ff 
    7e44:	48 c7 85 30 ff ff ff 	movq   $0x0,-0xd0(%rbp)
    7e4b:	00 00 00 00 
    7e4f:	0f af c1             	imul   %ecx,%eax
    7e52:	f2 0f 10 a5 00 ff ff 	movsd  -0x100(%rbp),%xmm4
    7e59:	ff 
    7e5a:	f2 0f 10 9d f8 fe ff 	movsd  -0x108(%rbp),%xmm3
    7e61:	ff 
    7e62:	0f 29 85 20 ff ff ff 	movaps %xmm0,-0xe0(%rbp)
    7e69:	f2 0f 11 b5 60 fe ff 	movsd  %xmm6,-0x1a0(%rbp)
    7e70:	ff 
    7e71:	f2 0f 10 b5 e8 fe ff 	movsd  -0x118(%rbp),%xmm6
    7e78:	ff 
    7e79:	0f af c1             	imul   %ecx,%eax
    7e7c:	f2 0f 11 b5 58 fe ff 	movsd  %xmm6,-0x1a8(%rbp)
    7e83:	ff 
    7e84:	f2 0f 10 b5 e0 fe ff 	movsd  -0x120(%rbp),%xmm6
    7e8b:	ff 
    7e8c:	f2 0f 11 b5 50 fe ff 	movsd  %xmm6,-0x1b0(%rbp)
    7e93:	ff 
    7e94:	85 c0                	test   %eax,%eax
    7e96:	0f 84 ec 00 00 00    	je     7f88 <_Z7blearghv+0x7c8>
    7e9c:	48 8d 85 20 ff ff ff 	lea    -0xe0(%rbp),%rax
    7ea3:	31 db                	xor    %ebx,%ebx
    7ea5:	48 89 85 38 fe ff ff 	mov    %rax,-0x1c8(%rbp)
    7eac:	48 8d 45 80          	lea    -0x80(%rbp),%rax
    7eb0:	49 89 c7             	mov    %rax,%r15
    7eb3:	eb 2d                	jmp    7ee2 <_Z7blearghv+0x722>
    7eb5:	89 1e                	mov    %ebx,(%rsi)
    7eb7:	48 83 c6 04          	add    $0x4,%rsi
    7ebb:	48 89 b5 28 ff ff ff 	mov    %rsi,-0xd8(%rbp)
    7ec2:	8b 8d dc fe ff ff    	mov    -0x124(%rbp),%ecx
    7ec8:	89 c8                	mov    %ecx,%eax
    7eca:	48 83 c3 01          	add    $0x1,%rbx
    7ece:	0f af c1             	imul   %ecx,%eax
    7ed1:	0f af c1             	imul   %ecx,%eax
    7ed4:	c1 e0 03             	shl    $0x3,%eax
    7ed7:	48 98                	cltq   
    7ed9:	48 39 d8             	cmp    %rbx,%rax
    7edc:	0f 86 b4 00 00 00    	jbe    7f96 <_Z7blearghv+0x7d6>
    7ee2:	48 8b 85 b0 fe ff ff 	mov    -0x150(%rbp),%rax
    7ee9:	66 0f ef f6          	pxor   %xmm6,%xmm6
    7eed:	66 0f 28 ec          	movapd %xmm4,%xmm5
    7ef1:	f2 0f 2a f1          	cvtsi2sd %ecx,%xmm6
    7ef5:	48 8b 04 d8          	mov    (%rax,%rbx,8),%rax
    7ef9:	f2 0f 10 50 08       	movsd  0x8(%rax),%xmm2
    7efe:	f2 0f 10 08          	movsd  (%rax),%xmm1
    7f02:	f2 0f 10 40 10       	movsd  0x10(%rax),%xmm0
    7f07:	f2 0f 5e ee          	divsd  %xmm6,%xmm5
    7f0b:	66 0f ef f6          	pxor   %xmm6,%xmm6
    7f0f:	f2 0f 59 c9          	mulsd  %xmm1,%xmm1
    7f13:	f2 0f 59 d2          	mulsd  %xmm2,%xmm2
    7f17:	f2 0f 59 c0          	mulsd  %xmm0,%xmm0
    7f1b:	f2 0f 58 ca          	addsd  %xmm2,%xmm1
    7f1f:	f2 0f 58 c8          	addsd  %xmm0,%xmm1
    7f23:	66 0f 2e f1          	ucomisd %xmm1,%xmm6
    7f27:	0f 87 f3 08 00 00    	ja     8820 <_Z7blearghv+0x1060>
    7f2d:	f2 0f 51 c9          	sqrtsd %xmm1,%xmm1
    7f31:	66 0f 28 c5          	movapd %xmm5,%xmm0
    7f35:	f2 0f 58 c1          	addsd  %xmm1,%xmm0
    7f39:	66 0f 2f d8          	comisd %xmm0,%xmm3
    7f3d:	77 89                	ja     7ec8 <_Z7blearghv+0x708>
    7f3f:	f2 0f 5c cd          	subsd  %xmm5,%xmm1
    7f43:	66 0f 2f cb          	comisd %xmm3,%xmm1
    7f47:	0f 87 7b ff ff ff    	ja     7ec8 <_Z7blearghv+0x708>
    7f4d:	89 5d 80             	mov    %ebx,-0x80(%rbp)
    7f50:	48 8b b5 28 ff ff ff 	mov    -0xd8(%rbp),%rsi
    7f57:	48 3b b5 30 ff ff ff 	cmp    -0xd0(%rbp),%rsi
    7f5e:	0f 85 51 ff ff ff    	jne    7eb5 <_Z7blearghv+0x6f5>
    7f64:	48 8b bd 38 fe ff ff 	mov    -0x1c8(%rbp),%rdi
    7f6b:	4c 89 fa             	mov    %r15,%rdx
    7f6e:	e8 9d 09 00 00       	call   8910 <_ZNSt6vectorIiSaIiEE17_M_realloc_insertIJiEEEvN9__gnu_cxx17__normal_iteratorIPiS1_EEDpOT_>
    7f73:	f2 0f 10 a5 00 ff ff 	movsd  -0x100(%rbp),%xmm4
    7f7a:	ff 
    7f7b:	f2 0f 10 9d f8 fe ff 	movsd  -0x108(%rbp),%xmm3
    7f82:	ff 
    7f83:	e9 3a ff ff ff       	jmp    7ec2 <_Z7blearghv+0x702>
    7f88:	48 8d 85 20 ff ff ff 	lea    -0xe0(%rbp),%rax
    7f8f:	48 89 85 38 fe ff ff 	mov    %rax,-0x1c8(%rbp)
    7f96:	48 8d 85 40 ff ff ff 	lea    -0xc0(%rbp),%rax
    7f9d:	c7 85 34 fe ff ff 00 	movl   $0x0,-0x1cc(%rbp)
    7fa4:	00 00 00 
    7fa7:	48 89 85 00 fe ff ff 	mov    %rax,-0x200(%rbp)
    7fae:	48 8d 45 80          	lea    -0x80(%rbp),%rax
    7fb2:	48 89 85 88 fe ff ff 	mov    %rax,-0x178(%rbp)
    7fb9:	4c 8b ad 20 fe ff ff 	mov    -0x1e0(%rbp),%r13
    7fc0:	ff b5 48 fe ff ff    	push   -0x1b8(%rbp)
    7fc6:	4c 8b a5 38 fe ff ff 	mov    -0x1c8(%rbp),%r12
    7fcd:	48 8b 9d b0 fe ff ff 	mov    -0x150(%rbp),%rbx
    7fd4:	f2 0f 10 ad 08 ff ff 	movsd  -0xf8(%rbp),%xmm5
    7fdb:	ff 
    7fdc:	41 55                	push   %r13
    7fde:	8b 95 d8 fe ff ff    	mov    -0x128(%rbp),%edx
    7fe4:	8b b5 d4 fe ff ff    	mov    -0x12c(%rbp),%esi
    7fea:	4d 89 e1             	mov    %r12,%r9
    7fed:	f2 0f 10 95 60 fe ff 	movsd  -0x1a0(%rbp),%xmm2
    7ff4:	ff 
    7ff5:	f2 0f 10 8d 58 fe ff 	movsd  -0x1a8(%rbp),%xmm1
    7ffc:	ff 
    7ffd:	49 89 d8             	mov    %rbx,%r8
    8000:	f2 0f 10 85 50 fe ff 	movsd  -0x1b0(%rbp),%xmm0
    8007:	ff 
    8008:	48 8b bd 00 fe ff ff 	mov    -0x200(%rbp),%rdi
    800f:	e8 ec ca ff ff       	call   4b00 <_Z5forcedddjjddidPPdRKSt6vectorIiSaIiEEPS0_PPP6tensor>
    8014:	58                   	pop    %rax
    8015:	44 8b bd dc fe ff ff 	mov    -0x124(%rbp),%r15d
    801c:	4d 89 e1             	mov    %r12,%r9
    801f:	49 89 d8             	mov    %rbx,%r8
    8022:	5a                   	pop    %rdx
    8023:	ff b5 48 fe ff ff    	push   -0x1b8(%rbp)
    8029:	48 8d bd 60 ff ff ff 	lea    -0xa0(%rbp),%rdi
    8030:	8b b5 d4 fe ff ff    	mov    -0x12c(%rbp),%esi
    8036:	41 55                	push   %r13
    8038:	44 89 f9             	mov    %r15d,%ecx
    803b:	45 89 fc             	mov    %r15d,%r12d
    803e:	f2 0f 10 ad 08 ff ff 	movsd  -0xf8(%rbp),%xmm5
    8045:	ff 
    8046:	8b 95 d8 fe ff ff    	mov    -0x128(%rbp),%edx
    804c:	45 0f af e7          	imul   %r15d,%r12d
    8050:	f2 0f 10 a5 00 ff ff 	movsd  -0x100(%rbp),%xmm4
    8057:	ff 
    8058:	f2 0f 10 9d f8 fe ff 	movsd  -0x108(%rbp),%xmm3
    805f:	ff 
    8060:	f2 0f 10 95 60 fe ff 	movsd  -0x1a0(%rbp),%xmm2
    8067:	ff 
    8068:	f2 0f 10 8d 58 fe ff 	movsd  -0x1a8(%rbp),%xmm1
    806f:	ff 
    8070:	f2 0f 10 85 50 fe ff 	movsd  -0x1b0(%rbp),%xmm0
    8077:	ff 
    8078:	45 0f af e7          	imul   %r15d,%r12d
    807c:	e8 8f e0 ff ff       	call   6110 <_Z6torquedddjjddidPPdRKSt6vectorIiSaIiEEPS0_PPP6tensor>
    8081:	f2 0f 10 b5 10 ff ff 	movsd  -0xf0(%rbp),%xmm6
    8088:	ff 
    8089:	59                   	pop    %rcx
    808a:	41 c1 e4 03          	shl    $0x3,%r12d
    808e:	5e                   	pop    %rsi
    808f:	f2 0f 11 b5 28 fe ff 	movsd  %xmm6,-0x1d8(%rbp)
    8096:	ff 
    8097:	f2 0f 10 b5 50 ff ff 	movsd  -0xb0(%rbp),%xmm6
    809e:	ff 
    809f:	49 63 dc             	movslq %r12d,%rbx
    80a2:	f2 0f 11 b5 18 fe ff 	movsd  %xmm6,-0x1e8(%rbp)
    80a9:	ff 
    80aa:	f2 0f 10 b5 48 ff ff 	movsd  -0xb8(%rbp),%xmm6
    80b1:	ff 
    80b2:	f2 0f 11 b5 10 fe ff 	movsd  %xmm6,-0x1f0(%rbp)
    80b9:	ff 
    80ba:	f2 0f 10 b5 40 ff ff 	movsd  -0xc0(%rbp),%xmm6
    80c1:	ff 
    80c2:	f2 0f 11 b5 08 fe ff 	movsd  %xmm6,-0x1f8(%rbp)
    80c9:	ff 
    80ca:	48 85 db             	test   %rbx,%rbx
    80cd:	0f 88 88 06 00 00    	js     875b <_Z7blearghv+0xf9b>
    80d3:	74 7b                	je     8150 <_Z7blearghv+0x990>
    80d5:	4c 8d 2c dd 00 00 00 	lea    0x0(,%rbx,8),%r13
    80dc:	00 
    80dd:	4c 89 ef             	mov    %r13,%rdi
    80e0:	e8 6b a5 ff ff       	call   2650 <malloc@plt>
    80e5:	48 89 85 80 fe ff ff 	mov    %rax,-0x180(%rbp)
    80ec:	49 83 fd 0f          	cmp    $0xf,%r13
    80f0:	0f 87 35 06 00 00    	ja     872b <_Z7blearghv+0xf6b>
    80f6:	48 83 bd 80 fe ff ff 	cmpq   $0x0,-0x180(%rbp)
    80fd:	00 
    80fe:	0f 84 9e a7 ff ff    	je     28a2 <_Z7blearghv.cold+0xa>
    8104:	48 b8 ff ff ff ff ff 	movabs $0x1fffffffffffffff,%rax
    810b:	ff ff 1f 
    810e:	48 0f af db          	imul   %rbx,%rbx
    8112:	48 39 c3             	cmp    %rax,%rbx
    8115:	0f 8f 7d a7 ff ff    	jg     2898 <_Z7blearghv.cold>
    811b:	48 c1 e3 03          	shl    $0x3,%rbx
    811f:	48 89 df             	mov    %rbx,%rdi
    8122:	e8 29 a5 ff ff       	call   2650 <malloc@plt>
    8127:	48 89 85 40 fe ff ff 	mov    %rax,-0x1c0(%rbp)
    812e:	48 83 fb 0f          	cmp    $0xf,%rbx
    8132:	0f 87 1a 06 00 00    	ja     8752 <_Z7blearghv+0xf92>
    8138:	48 83 bd 40 fe ff ff 	cmpq   $0x0,-0x1c0(%rbp)
    813f:	00 
    8140:	75 24                	jne    8166 <_Z7blearghv+0x9a6>
    8142:	e9 56 a7 ff ff       	jmp    289d <_Z7blearghv.cold+0x5>
    8147:	66 0f 1f 84 00 00 00 	nopw   0x0(%rax,%rax,1)
    814e:	00 00 
    8150:	48 c7 85 80 fe ff ff 	movq   $0x0,-0x180(%rbp)
    8157:	00 00 00 00 
    815b:	48 c7 85 40 fe ff ff 	movq   $0x0,-0x1c0(%rbp)
    8162:	00 00 00 00 
    8166:	c7 85 a8 fe ff ff 00 	movl   $0x0,-0x158(%rbp)
    816d:	00 00 00 
    8170:	43 8d 34 3f          	lea    (%r15,%r15,1),%esi
    8174:	31 c0                	xor    %eax,%eax
    8176:	85 f6                	test   %esi,%esi
    8178:	0f 8e f6 00 00 00    	jle    8274 <_Z7blearghv+0xab4>
    817e:	45 85 ff             	test   %r15d,%r15d
    8181:	0f 8e 7c 05 00 00    	jle    8703 <_Z7blearghv+0xf43>
    8187:	66 0f 1f 84 00 00 00 	nopw   0x0(%rax,%rax,1)
    818e:	00 00 
    8190:	66 0f ef f6          	pxor   %xmm6,%xmm6
    8194:	45 31 ed             	xor    %r13d,%r13d
    8197:	f2 0f 2a b5 a8 fe ff 	cvtsi2sdl -0x158(%rbp),%xmm6
    819e:	ff 
    819f:	f2 0f 11 b5 b8 fe ff 	movsd  %xmm6,-0x148(%rbp)
    81a6:	ff 
    81a7:	66 0f 1f 84 00 00 00 	nopw   0x0(%rax,%rax,1)
    81ae:	00 00 
    81b0:	66 0f ef ff          	pxor   %xmm7,%xmm7
    81b4:	83 c0 01             	add    $0x1,%eax
    81b7:	c7 85 c8 fe ff ff 00 	movl   $0x0,-0x138(%rbp)
    81be:	00 00 00 
    81c1:	f2 41 0f 2a fd       	cvtsi2sd %r13d,%xmm7
    81c6:	48 63 d8             	movslq %eax,%rbx
    81c9:	f2 0f 11 bd c0 fe ff 	movsd  %xmm7,-0x140(%rbp)
    81d0:	ff 
    81d1:	0f 1f 80 00 00 00 00 	nopl   0x0(%rax)
    81d8:	66 0f ef c0          	pxor   %xmm0,%xmm0
    81dc:	44 89 fe             	mov    %r15d,%esi
    81df:	66 0f ef d2          	pxor   %xmm2,%xmm2
    81e3:	4c 89 f7             	mov    %r14,%rdi
    81e6:	f2 41 0f 2a c7       	cvtsi2sd %r15d,%xmm0
    81eb:	f2 0f 10 9d 00 ff ff 	movsd  -0x100(%rbp),%xmm3
    81f2:	ff 
    81f3:	f2 0f 10 8d c0 fe ff 	movsd  -0x140(%rbp),%xmm1
    81fa:	ff 
    81fb:	41 0f af f7          	imul   %r15d,%esi
    81ff:	f2 0f 2a 95 c8 fe ff 	cvtsi2sdl -0x138(%rbp),%xmm2
    8206:	ff 
    8207:	f2 0f 5e d8          	divsd  %xmm0,%xmm3
    820b:	41 0f af f7          	imul   %r15d,%esi
    820f:	f2 0f 10 85 b8 fe ff 	movsd  -0x148(%rbp),%xmm0
    8216:	ff 
    8217:	c1 e6 03             	shl    $0x3,%esi
    821a:	e8 51 1a 00 00       	call   9c70 <_Z10divvadvecvPPPPddddid>
    821f:	8d 43 ff             	lea    -0x1(%rbx),%eax
    8222:	41 39 c4             	cmp    %eax,%r12d
    8225:	0f 8e e1 04 00 00    	jle    870c <_Z7blearghv+0xf4c>
    822b:	44 8b bd dc fe ff ff 	mov    -0x124(%rbp),%r15d
    8232:	48 8b 85 80 fe ff ff 	mov    -0x180(%rbp),%rax
    8239:	83 85 c8 fe ff ff 01 	addl   $0x1,-0x138(%rbp)
    8240:	8b bd c8 fe ff ff    	mov    -0x138(%rbp),%edi
    8246:	43 8d 34 3f          	lea    (%r15,%r15,1),%esi
    824a:	f2 0f 11 44 d8 f8    	movsd  %xmm0,-0x8(%rax,%rbx,8)
    8250:	89 d8                	mov    %ebx,%eax
    8252:	48 83 c3 01          	add    $0x1,%rbx
    8256:	39 fe                	cmp    %edi,%esi
    8258:	0f 8f 7a ff ff ff    	jg     81d8 <_Z7blearghv+0xa18>
    825e:	41 83 c5 01          	add    $0x1,%r13d
    8262:	44 39 ee             	cmp    %r13d,%esi
    8265:	0f 8e 7a 04 00 00    	jle    86e5 <_Z7blearghv+0xf25>
    826b:	45 85 ff             	test   %r15d,%r15d
    826e:	0f 8f 3c ff ff ff    	jg     81b0 <_Z7blearghv+0x9f0>
    8274:	66 0f ef c9          	pxor   %xmm1,%xmm1
    8278:	f2 0f 10 85 00 ff ff 	movsd  -0x100(%rbp),%xmm0
    827f:	ff 
    8280:	f2 41 0f 2a cf       	cvtsi2sd %r15d,%xmm1
    8285:	4c 8b bd 48 fe ff ff 	mov    -0x1b8(%rbp),%r15
    828c:	4c 89 ff             	mov    %r15,%rdi
    828f:	f2 0f 5e c1          	divsd  %xmm1,%xmm0
    8293:	e8 38 15 00 00       	call   97d0 <_Z9divtenallPPP6tensorid>
    8298:	8b 95 dc fe ff ff    	mov    -0x124(%rbp),%edx
    829e:	8d 34 12             	lea    (%rdx,%rdx,1),%esi
    82a1:	85 f6                	test   %esi,%esi
    82a3:	0f 8e 2a 03 00 00    	jle    85d3 <_Z7blearghv+0xe13>
    82a9:	48 89 85 98 fe ff ff 	mov    %rax,-0x168(%rbp)
    82b0:	48 c7 85 68 fe ff ff 	movq   $0x0,-0x198(%rbp)
    82b7:	00 00 00 00 
    82bb:	0f 1f 44 00 00       	nopl   0x0(%rax,%rax,1)
    82c0:	48 8b 85 68 fe ff ff 	mov    -0x198(%rbp),%rax
    82c7:	8d 34 12             	lea    (%rdx,%rdx,1),%esi
    82ca:	48 c7 85 78 fe ff ff 	movq   $0x0,-0x188(%rbp)
    82d1:	00 00 00 00 
    82d5:	89 85 70 fe ff ff    	mov    %eax,-0x190(%rbp)
    82db:	4c 8d 2c c5 00 00 00 	lea    0x0(,%rax,8),%r13
    82e2:	00 
    82e3:	85 d2                	test   %edx,%edx
    82e5:	0f 8e c5 02 00 00    	jle    85b0 <_Z7blearghv+0xdf0>
    82eb:	0f 1f 44 00 00       	nopl   0x0(%rax,%rax,1)
    82f0:	8b 85 78 fe ff ff    	mov    -0x188(%rbp),%eax
    82f6:	8d 34 12             	lea    (%rdx,%rdx,1),%esi
    82f9:	89 85 74 fe ff ff    	mov    %eax,-0x18c(%rbp)
    82ff:	85 f6                	test   %esi,%esi
    8301:	0f 8e a9 02 00 00    	jle    85b0 <_Z7blearghv+0xdf0>
    8307:	49 8b 46 10          	mov    0x10(%r14),%rax
    830b:	48 8b 9d 78 fe ff ff 	mov    -0x188(%rbp),%rbx
    8312:	66 0f ef ff          	pxor   %xmm7,%xmm7
    8316:	66 0f ef f6          	pxor   %xmm6,%xmm6
    831a:	f2 0f 2a b5 70 fe ff 	cvtsi2sdl -0x190(%rbp),%xmm6
    8321:	ff 
    8322:	4a 8b 04 28          	mov    (%rax,%r13,1),%rax
    8326:	f2 0f 2a fb          	cvtsi2sd %ebx,%xmm7
    832a:	4c 8d 24 dd 00 00 00 	lea    0x0(,%rbx,8),%r12
    8331:	00 
    8332:	48 8b 0c d8          	mov    (%rax,%rbx,8),%rcx
    8336:	49 8b 46 08          	mov    0x8(%r14),%rax
    833a:	f2 0f 11 b5 a0 fe ff 	movsd  %xmm6,-0x160(%rbp)
    8341:	ff 
    8342:	4a 8b 04 28          	mov    (%rax,%r13,1),%rax
    8346:	f2 0f 11 bd a8 fe ff 	movsd  %xmm7,-0x158(%rbp)
    834d:	ff 
    834e:	48 8b 3c d8          	mov    (%rax,%rbx,8),%rdi
    8352:	49 8b 06             	mov    (%r14),%rax
    8355:	4a 8b 04 28          	mov    (%rax,%r13,1),%rax
    8359:	48 8b 04 d8          	mov    (%rax,%rbx,8),%rax
    835d:	31 db                	xor    %ebx,%ebx
    835f:	90                   	nop
    8360:	66 0f ef c0          	pxor   %xmm0,%xmm0
    8364:	66 0f ef d2          	pxor   %xmm2,%xmm2
    8368:	f2 0f 10 9d 00 ff ff 	movsd  -0x100(%rbp),%xmm3
    836f:	ff 
    8370:	f2 44 0f 10 34 df    	movsd  (%rdi,%rbx,8),%xmm14
    8376:	f2 0f 2a c2          	cvtsi2sd %edx,%xmm0
    837a:	f2 44 0f 10 2c d9    	movsd  (%rcx,%rbx,8),%xmm13
    8380:	4c 89 f2             	mov    %r14,%rdx
    8383:	f2 44 0f 10 3c d8    	movsd  (%rax,%rbx,8),%xmm15
    8389:	f2 0f 2a d3          	cvtsi2sd %ebx,%xmm2
    838d:	48 8b bd 88 fe ff ff 	mov    -0x178(%rbp),%rdi
    8394:	f2 0f 10 8d a8 fe ff 	movsd  -0x158(%rbp),%xmm1
    839b:	ff 
    839c:	f2 44 0f 11 b5 c0 fe 	movsd  %xmm14,-0x140(%rbp)
    83a3:	ff ff 
    83a5:	f2 44 0f 11 ad c8 fe 	movsd  %xmm13,-0x138(%rbp)
    83ac:	ff ff 
    83ae:	f2 44 0f 11 bd b8 fe 	movsd  %xmm15,-0x148(%rbp)
    83b5:	ff ff 
    83b7:	f2 0f 5e d8          	divsd  %xmm0,%xmm3
    83bb:	f2 0f 10 85 a0 fe ff 	movsd  -0x160(%rbp),%xmm0
    83c2:	ff 
    83c3:	e8 f8 c4 ff ff       	call   48c0 <_Z5gradvdddidPPPPd>
    83c8:	f2 44 0f 10 4d b0    	movsd  -0x50(%rbp),%xmm9
    83ce:	f2 44 0f 10 55 b8    	movsd  -0x48(%rbp),%xmm10
    83d4:	48 8d 14 5b          	lea    (%rbx,%rbx,2),%rdx
    83d8:	48 8d 34 dd 00 00 00 	lea    0x0(,%rbx,8),%rsi
    83df:	00 
    83e0:	f2 44 0f 10 bd b8 fe 	movsd  -0x148(%rbp),%xmm15
    83e7:	ff ff 
    83e9:	f2 0f 10 6d c0       	movsd  -0x40(%rbp),%xmm5
    83ee:	f2 44 0f 10 b5 c0 fe 	movsd  -0x140(%rbp),%xmm14
    83f5:	ff ff 
    83f7:	48 8b 85 98 fe ff ff 	mov    -0x168(%rbp),%rax
    83fe:	66 41 0f 28 e7       	movapd %xmm15,%xmm4
    8403:	f2 0f 10 7d 98       	movsd  -0x68(%rbp),%xmm7
    8408:	f2 0f 10 55 a0       	movsd  -0x60(%rbp),%xmm2
    840d:	66 41 0f 28 c6       	movapd %xmm14,%xmm0
    8412:	48 8b 00             	mov    (%rax),%rax
    8415:	f2 0f 10 75 a8       	movsd  -0x58(%rbp),%xmm6
    841a:	f2 41 0f 59 c2       	mulsd  %xmm10,%xmm0
    841f:	f2 0f 10 5d 80       	movsd  -0x80(%rbp),%xmm3
    8424:	f2 44 0f 10 45 88    	movsd  -0x78(%rbp),%xmm8
    842a:	f2 41 0f 59 e1       	mulsd  %xmm9,%xmm4
    842f:	4a 8b 04 20          	mov    (%rax,%r12,1),%rax
    8433:	f2 0f 10 4d 90       	movsd  -0x70(%rbp),%xmm1
    8438:	f2 44 0f 10 ad c8 fe 	movsd  -0x138(%rbp),%xmm13
    843f:	ff ff 
    8441:	48 8d 14 d0          	lea    (%rax,%rdx,8),%rdx
    8445:	49 8b 06             	mov    (%r14),%rax
    8448:	4a 8b 04 28          	mov    (%rax,%r13,1),%rax
    844c:	f2 0f 58 e0          	addsd  %xmm0,%xmm4
    8450:	66 41 0f 28 c5       	movapd %xmm13,%xmm0
    8455:	f2 0f 59 c5          	mulsd  %xmm5,%xmm0
    8459:	4a 8b 04 20          	mov    (%rax,%r12,1),%rax
    845d:	f2 0f 58 ed          	addsd  %xmm5,%xmm5
    8461:	48 8d 0c 30          	lea    (%rax,%rsi,1),%rcx
    8465:	f2 0f 58 e0          	addsd  %xmm0,%xmm4
    8469:	f2 0f 10 42 10       	movsd  0x10(%rdx),%xmm0
    846e:	f2 0f 5c c4          	subsd  %xmm4,%xmm0
    8472:	66 41 0f 28 e7       	movapd %xmm15,%xmm4
    8477:	f2 0f 59 e7          	mulsd  %xmm7,%xmm4
    847b:	f2 41 0f 58 f8       	addsd  %xmm8,%xmm7
    8480:	66 44 0f 28 d8       	movapd %xmm0,%xmm11
    8485:	66 41 0f 28 c6       	movapd %xmm14,%xmm0
    848a:	f2 0f 59 c2          	mulsd  %xmm2,%xmm0
    848e:	f2 0f 58 d2          	addsd  %xmm2,%xmm2
    8492:	f2 0f 58 e0          	addsd  %xmm0,%xmm4
    8496:	66 41 0f 28 c5       	movapd %xmm13,%xmm0
    849b:	f2 0f 59 c6          	mulsd  %xmm6,%xmm0
    849f:	f2 41 0f 58 f2       	addsd  %xmm10,%xmm6
    84a4:	66 0f 14 d6          	unpcklpd %xmm6,%xmm2
    84a8:	f2 0f 58 e0          	addsd  %xmm0,%xmm4
    84ac:	f2 0f 10 42 08       	movsd  0x8(%rdx),%xmm0
    84b1:	f2 0f 5c c4          	subsd  %xmm4,%xmm0
    84b5:	66 41 0f 28 e6       	movapd %xmm14,%xmm4
    84ba:	f2 41 0f 59 e0       	mulsd  %xmm8,%xmm4
    84bf:	66 44 0f 28 e0       	movapd %xmm0,%xmm12
    84c4:	66 41 0f 28 c7       	movapd %xmm15,%xmm0
    84c9:	f2 0f 59 c3          	mulsd  %xmm3,%xmm0
    84cd:	f2 0f 58 db          	addsd  %xmm3,%xmm3
    84d1:	66 0f 14 df          	unpcklpd %xmm7,%xmm3
    84d5:	f2 0f 58 c4          	addsd  %xmm4,%xmm0
    84d9:	66 41 0f 28 e5       	movapd %xmm13,%xmm4
    84de:	f2 0f 59 e1          	mulsd  %xmm1,%xmm4
    84e2:	f2 41 0f 58 c9       	addsd  %xmm9,%xmm1
    84e7:	f2 0f 58 c4          	addsd  %xmm4,%xmm0
    84eb:	f2 0f 10 22          	movsd  (%rdx),%xmm4
    84ef:	49 8b 56 08          	mov    0x8(%r14),%rdx
    84f3:	4a 8b 14 2a          	mov    (%rdx,%r13,1),%rdx
    84f7:	f2 0f 5c e0          	subsd  %xmm0,%xmm4
    84fb:	4a 8b 3c 22          	mov    (%rdx,%r12,1),%rdi
    84ff:	66 0f 28 c4          	movapd %xmm4,%xmm0
    8503:	f2 0f 10 a5 90 fe ff 	movsd  -0x170(%rbp),%xmm4
    850a:	ff 
    850b:	48 8d 14 37          	lea    (%rdi,%rsi,1),%rdx
    850f:	f2 0f 59 c4          	mulsd  %xmm4,%xmm0
    8513:	f2 0f 58 01          	addsd  (%rcx),%xmm0
    8517:	f2 0f 11 01          	movsd  %xmm0,(%rcx)
    851b:	66 41 0f 28 c4       	movapd %xmm12,%xmm0
    8520:	f2 0f 59 c4          	mulsd  %xmm4,%xmm0
    8524:	f2 0f 58 02          	addsd  (%rdx),%xmm0
    8528:	f2 0f 11 02          	movsd  %xmm0,(%rdx)
    852c:	49 8b 56 10          	mov    0x10(%r14),%rdx
    8530:	66 41 0f 28 c3       	movapd %xmm11,%xmm0
    8535:	f2 0f 59 c4          	mulsd  %xmm4,%xmm0
    8539:	4a 8b 14 2a          	mov    (%rdx,%r13,1),%rdx
    853d:	4a 8b 0c 22          	mov    (%rdx,%r12,1),%rcx
    8541:	48 01 ce             	add    %rcx,%rsi
    8544:	f2 0f 58 06          	addsd  (%rsi),%xmm0
    8548:	49 8b 17             	mov    (%r15),%rdx
    854b:	4a 8b 14 22          	mov    (%rdx,%r12,1),%rdx
    854f:	f2 0f 11 06          	movsd  %xmm0,(%rsi)
    8553:	48 8d 34 db          	lea    (%rbx,%rbx,8),%rsi
    8557:	66 0f 28 c1          	movapd %xmm1,%xmm0
    855b:	66 0f 14 ce          	unpcklpd %xmm6,%xmm1
    855f:	48 8d 14 f2          	lea    (%rdx,%rsi,8),%rdx
    8563:	66 0f 14 c7          	unpcklpd %xmm7,%xmm0
    8567:	48 83 c3 01          	add    $0x1,%rbx
    856b:	0f 11 1a             	movups %xmm3,(%rdx)
    856e:	0f 11 42 10          	movups %xmm0,0x10(%rdx)
    8572:	0f 11 52 20          	movups %xmm2,0x20(%rdx)
    8576:	0f 11 4a 30          	movups %xmm1,0x30(%rdx)
    857a:	f2 0f 11 6a 40       	movsd  %xmm5,0x40(%rdx)
    857f:	8b 95 dc fe ff ff    	mov    -0x124(%rbp),%edx
    8585:	8d 34 12             	lea    (%rdx,%rdx,1),%esi
    8588:	39 de                	cmp    %ebx,%esi
    858a:	0f 8f d0 fd ff ff    	jg     8360 <_Z7blearghv+0xba0>
    8590:	8b 85 74 fe ff ff    	mov    -0x18c(%rbp),%eax
    8596:	83 c0 01             	add    $0x1,%eax
    8599:	39 c6                	cmp    %eax,%esi
    859b:	7e 13                	jle    85b0 <_Z7blearghv+0xdf0>
    859d:	48 83 85 78 fe ff ff 	addq   $0x1,-0x188(%rbp)
    85a4:	01 
    85a5:	e9 46 fd ff ff       	jmp    82f0 <_Z7blearghv+0xb30>
    85aa:	66 0f 1f 44 00 00    	nopw   0x0(%rax,%rax,1)
    85b0:	48 83 85 68 fe ff ff 	addq   $0x1,-0x198(%rbp)
    85b7:	01 
    85b8:	48 8b 85 68 fe ff ff 	mov    -0x198(%rbp),%rax
    85bf:	49 83 c7 08          	add    $0x8,%r15
    85c3:	48 83 85 98 fe ff ff 	addq   $0x8,-0x168(%rbp)
    85ca:	08 
    85cb:	39 c6                	cmp    %eax,%esi
    85cd:	0f 8f ed fc ff ff    	jg     82c0 <_Z7blearghv+0xb00>
    85d3:	66 0f ef c0          	pxor   %xmm0,%xmm0
    85d7:	83 85 34 fe ff ff 01 	addl   $0x1,-0x1cc(%rbp)
    85de:	41 89 f0             	mov    %esi,%r8d
    85e1:	89 f1                	mov    %esi,%ecx
    85e3:	f2 0f 2a c2          	cvtsi2sd %edx,%xmm0
    85e7:	f2 0f 10 8d 00 ff ff 	movsd  -0x100(%rbp),%xmm1
    85ee:	ff 
    85ef:	8b 9d 34 fe ff ff    	mov    -0x1cc(%rbp),%ebx
    85f5:	89 f2                	mov    %esi,%edx
    85f7:	4c 89 f6             	mov    %r14,%rsi
    85fa:	89 df                	mov    %ebx,%edi
    85fc:	f2 0f 5e c8          	divsd  %xmm0,%xmm1
    8600:	66 0f 28 d1          	movapd %xmm1,%xmm2
    8604:	66 0f 28 c1          	movapd %xmm1,%xmm0
    8608:	e8 33 17 00 00       	call   9d40 <_Z12writeVTKFileiPPPPdiiiddd>
    860d:	f2 0f 10 b5 90 fe ff 	movsd  -0x170(%rbp),%xmm6
    8614:	ff 
    8615:	f2 0f 10 8d 18 fe ff 	movsd  -0x1e8(%rbp),%xmm1
    861c:	ff 
    861d:	66 0f ef c0          	pxor   %xmm0,%xmm0
    8621:	f2 0f 10 95 28 fe ff 	movsd  -0x1d8(%rbp),%xmm2
    8628:	ff 
    8629:	f2 0f 10 9d 60 fe ff 	movsd  -0x1a0(%rbp),%xmm3
    8630:	ff 
    8631:	f2 0f 59 ce          	mulsd  %xmm6,%xmm1
    8635:	48 8b bd 40 fe ff ff 	mov    -0x1c0(%rbp),%rdi
    863c:	f2 0f 58 d2          	addsd  %xmm2,%xmm2
    8640:	f2 0f 59 c6          	mulsd  %xmm6,%xmm0
    8644:	f2 0f 59 ce          	mulsd  %xmm6,%xmm1
    8648:	f2 0f 58 d8          	addsd  %xmm0,%xmm3
    864c:	f2 0f 5e ca          	divsd  %xmm2,%xmm1
    8650:	f2 0f 58 cb          	addsd  %xmm3,%xmm1
    8654:	f2 0f 10 9d 58 fe ff 	movsd  -0x1a8(%rbp),%xmm3
    865b:	ff 
    865c:	f2 0f 58 d8          	addsd  %xmm0,%xmm3
    8660:	f2 0f 58 85 50 fe ff 	addsd  -0x1b0(%rbp),%xmm0
    8667:	ff 
    8668:	f2 0f 11 8d 60 fe ff 	movsd  %xmm1,-0x1a0(%rbp)
    866f:	ff 
    8670:	f2 0f 10 8d 10 fe ff 	movsd  -0x1f0(%rbp),%xmm1
    8677:	ff 
    8678:	f2 0f 59 ce          	mulsd  %xmm6,%xmm1
    867c:	f2 0f 59 ce          	mulsd  %xmm6,%xmm1
    8680:	f2 0f 5e ca          	divsd  %xmm2,%xmm1
    8684:	f2 0f 58 cb          	addsd  %xmm3,%xmm1
    8688:	f2 0f 11 8d 58 fe ff 	movsd  %xmm1,-0x1a8(%rbp)
    868f:	ff 
    8690:	f2 0f 10 8d 08 fe ff 	movsd  -0x1f8(%rbp),%xmm1
    8697:	ff 
    8698:	f2 0f 59 ce          	mulsd  %xmm6,%xmm1
    869c:	f2 0f 59 ce          	mulsd  %xmm6,%xmm1
    86a0:	f2 0f 5e ca          	divsd  %xmm2,%xmm1
    86a4:	f2 0f 58 c8          	addsd  %xmm0,%xmm1
    86a8:	f2 0f 11 8d 50 fe ff 	movsd  %xmm1,-0x1b0(%rbp)
    86af:	ff 
    86b0:	e8 6b 9f ff ff       	call   2620 <free@plt>
    86b5:	48 8b bd 80 fe ff ff 	mov    -0x180(%rbp),%rdi
    86bc:	e8 5f 9f ff ff       	call   2620 <free@plt>
    86c1:	83 fb 64             	cmp    $0x64,%ebx
    86c4:	0f 84 b6 00 00 00    	je     8780 <_Z7blearghv+0xfc0>
    86ca:	8b 8d dc fe ff ff    	mov    -0x124(%rbp),%ecx
    86d0:	f2 0f 10 a5 00 ff ff 	movsd  -0x100(%rbp),%xmm4
    86d7:	ff 
    86d8:	f2 0f 10 9d f8 fe ff 	movsd  -0x108(%rbp),%xmm3
    86df:	ff 
    86e0:	e9 d4 f8 ff ff       	jmp    7fb9 <_Z7blearghv+0x7f9>
    86e5:	83 85 a8 fe ff ff 01 	addl   $0x1,-0x158(%rbp)
    86ec:	8b 9d a8 fe ff ff    	mov    -0x158(%rbp),%ebx
    86f2:	39 de                	cmp    %ebx,%esi
    86f4:	0f 8e 7a fb ff ff    	jle    8274 <_Z7blearghv+0xab4>
    86fa:	45 85 ff             	test   %r15d,%r15d
    86fd:	0f 8f 8d fa ff ff    	jg     8190 <_Z7blearghv+0x9d0>
    8703:	43 8d 34 3f          	lea    (%r15,%r15,1),%esi
    8707:	e9 68 fb ff ff       	jmp    8274 <_Z7blearghv+0xab4>
    870c:	48 8d 0d 0d 3f 00 00 	lea    0x3f0d(%rip),%rcx        # c620 <_IO_stdin_used+0x620>
    8713:	ba ab 01 00 00       	mov    $0x1ab,%edx
    8718:	48 8d 35 e9 3f 00 00 	lea    0x3fe9(%rip),%rsi        # c708 <_IO_stdin_used+0x708>
    871f:	48 8d 3d 2e 41 00 00 	lea    0x412e(%rip),%rdi        # c854 <_IO_stdin_used+0x854>
    8726:	e8 a5 9d ff ff       	call   24d0 <__assert_fail@plt>
    872b:	a8 0f                	test   $0xf,%al
    872d:	0f 84 c3 f9 ff ff    	je     80f6 <_Z7blearghv+0x936>
    8733:	48 8d 0d b6 3d 00 00 	lea    0x3db6(%rip),%rcx        # c4f0 <_IO_stdin_used+0x4f0>
    873a:	ba b9 00 00 00       	mov    $0xb9,%edx
    873f:	48 8d 35 e2 3d 00 00 	lea    0x3de2(%rip),%rsi        # c528 <_IO_stdin_used+0x528>
    8746:	48 8d 3d 13 3e 00 00 	lea    0x3e13(%rip),%rdi        # c560 <_IO_stdin_used+0x560>
    874d:	e8 7e 9d ff ff       	call   24d0 <__assert_fail@plt>
    8752:	a8 0f                	test   $0xf,%al
    8754:	75 dd                	jne    8733 <_Z7blearghv+0xf73>
    8756:	e9 dd f9 ff ff       	jmp    8138 <_Z7blearghv+0x978>
    875b:	48 8d 0d 3e 3c 00 00 	lea    0x3c3e(%rip),%rcx        # c3a0 <_IO_stdin_used+0x3a0>
    8762:	ba 30 01 00 00       	mov    $0x130,%edx
    8767:	48 8d 35 ba 3c 00 00 	lea    0x3cba(%rip),%rsi        # c428 <_IO_stdin_used+0x428>
    876e:	48 8d 3d eb 3c 00 00 	lea    0x3ceb(%rip),%rdi        # c460 <_IO_stdin_used+0x460>
    8775:	e8 56 9d ff ff       	call   24d0 <__assert_fail@plt>
    877a:	66 0f 1f 44 00 00    	nopw   0x0(%rax,%rax,1)
    8780:	f2 0f 10 85 50 fe ff 	movsd  -0x1b0(%rbp),%xmm0
    8787:	ff 
    8788:	48 8d 3d b1 68 00 00 	lea    0x68b1(%rip),%rdi        # f040 <_ZSt4cout@GLIBCXX_3.4>
    878f:	e8 3c 9f ff ff       	call   26d0 <_ZNSo9_M_insertIdEERSoT_@plt>
    8794:	4c 8d 25 40 40 00 00 	lea    0x4040(%rip),%r12        # c7db <_IO_stdin_used+0x7db>
    879b:	ba 01 00 00 00       	mov    $0x1,%edx
    87a0:	48 89 c7             	mov    %rax,%rdi
    87a3:	48 89 c3             	mov    %rax,%rbx
    87a6:	4c 89 e6             	mov    %r12,%rsi
    87a9:	e8 32 9e ff ff       	call   25e0 <_ZSt16__ostream_insertIcSt11char_traitsIcEERSt13basic_ostreamIT_T0_ES6_PKS3_l@plt>
    87ae:	f2 0f 10 85 58 fe ff 	movsd  -0x1a8(%rbp),%xmm0
    87b5:	ff 
    87b6:	48 89 df             	mov    %rbx,%rdi
    87b9:	e8 12 9f ff ff       	call   26d0 <_ZNSo9_M_insertIdEERSoT_@plt>
    87be:	ba 01 00 00 00       	mov    $0x1,%edx
    87c3:	4c 89 e6             	mov    %r12,%rsi
    87c6:	48 89 c7             	mov    %rax,%rdi
    87c9:	48 89 c3             	mov    %rax,%rbx
    87cc:	e8 0f 9e ff ff       	call   25e0 <_ZSt16__ostream_insertIcSt11char_traitsIcEERSt13basic_ostreamIT_T0_ES6_PKS3_l@plt>
    87d1:	f2 0f 10 85 60 fe ff 	movsd  -0x1a0(%rbp),%xmm0
    87d8:	ff 
    87d9:	48 89 df             	mov    %rbx,%rdi
    87dc:	e8 ef 9e ff ff       	call   26d0 <_ZNSo9_M_insertIdEERSoT_@plt>
    87e1:	48 8b bd 20 ff ff ff 	mov    -0xe0(%rbp),%rdi
    87e8:	48 85 ff             	test   %rdi,%rdi
    87eb:	74 0f                	je     87fc <_Z7blearghv+0x103c>
    87ed:	48 8b b5 30 ff ff ff 	mov    -0xd0(%rbp),%rsi
    87f4:	48 29 fe             	sub    %rdi,%rsi
    87f7:	e8 b4 9d ff ff       	call   25b0 <_ZdlPvm@plt>
    87fc:	48 8b 45 c8          	mov    -0x38(%rbp),%rax
    8800:	64 48 2b 04 25 28 00 	sub    %fs:0x28,%rax
    8807:	00 00 
    8809:	0f 85 e1 00 00 00    	jne    88f0 <_Z7blearghv+0x1130>
    880f:	48 8d 65 d8          	lea    -0x28(%rbp),%rsp
    8813:	31 c0                	xor    %eax,%eax
    8815:	5b                   	pop    %rbx
    8816:	41 5c                	pop    %r12
    8818:	41 5d                	pop    %r13
    881a:	41 5e                	pop    %r14
    881c:	41 5f                	pop    %r15
    881e:	5d                   	pop    %rbp
    881f:	c3                   	ret    
    8820:	66 0f 28 c1          	movapd %xmm1,%xmm0
    8824:	89 8d c0 fe ff ff    	mov    %ecx,-0x140(%rbp)
    882a:	f2 0f 11 9d a0 fe ff 	movsd  %xmm3,-0x160(%rbp)
    8831:	ff 
    8832:	f2 0f 11 a5 a8 fe ff 	movsd  %xmm4,-0x158(%rbp)
    8839:	ff 
    883a:	f2 0f 11 ad b8 fe ff 	movsd  %xmm5,-0x148(%rbp)
    8841:	ff 
    8842:	f2 0f 11 8d c8 fe ff 	movsd  %xmm1,-0x138(%rbp)
    8849:	ff 
    884a:	e8 d1 9c ff ff       	call   2520 <sqrt@plt>
    884f:	f2 0f 10 ad b8 fe ff 	movsd  -0x148(%rbp),%xmm5
    8856:	ff 
    8857:	f2 0f 10 9d a0 fe ff 	movsd  -0x160(%rbp),%xmm3
    885e:	ff 
    885f:	f2 0f 10 8d c8 fe ff 	movsd  -0x138(%rbp),%xmm1
    8866:	ff 
    8867:	8b 8d c0 fe ff ff    	mov    -0x140(%rbp),%ecx
    886d:	f2 0f 58 c5          	addsd  %xmm5,%xmm0
    8871:	f2 0f 10 a5 a8 fe ff 	movsd  -0x158(%rbp),%xmm4
    8878:	ff 
    8879:	66 0f 2f d8          	comisd %xmm0,%xmm3
    887d:	0f 87 45 f6 ff ff    	ja     7ec8 <_Z7blearghv+0x708>
    8883:	66 0f 28 c1          	movapd %xmm1,%xmm0
    8887:	89 8d c8 fe ff ff    	mov    %ecx,-0x138(%rbp)
    888d:	f2 0f 11 9d a8 fe ff 	movsd  %xmm3,-0x158(%rbp)
    8894:	ff 
    8895:	f2 0f 11 a5 b8 fe ff 	movsd  %xmm4,-0x148(%rbp)
    889c:	ff 
    889d:	f2 0f 11 ad c0 fe ff 	movsd  %xmm5,-0x140(%rbp)
    88a4:	ff 
    88a5:	e8 76 9c ff ff       	call   2520 <sqrt@plt>
    88aa:	8b 8d c8 fe ff ff    	mov    -0x138(%rbp),%ecx
    88b0:	f2 0f 10 ad c0 fe ff 	movsd  -0x140(%rbp),%xmm5
    88b7:	ff 
    88b8:	f2 0f 10 a5 b8 fe ff 	movsd  -0x148(%rbp),%xmm4
    88bf:	ff 
    88c0:	f2 0f 10 9d a8 fe ff 	movsd  -0x158(%rbp),%xmm3
    88c7:	ff 
    88c8:	66 0f 28 c8          	movapd %xmm0,%xmm1
    88cc:	e9 6e f6 ff ff       	jmp    7f3f <_Z7blearghv+0x77f>
    88d1:	48 8d 0d 5d 3f 00 00 	lea    0x3f5d(%rip),%rcx        # c835 <_IO_stdin_used+0x835>
    88d8:	ba db 01 00 00       	mov    $0x1db,%edx
    88dd:	48 8d 35 59 3e 00 00 	lea    0x3e59(%rip),%rsi        # c73d <_IO_stdin_used+0x73d>
    88e4:	48 8d 3d 58 3f 00 00 	lea    0x3f58(%rip),%rdi        # c843 <_IO_stdin_used+0x843>
    88eb:	e8 e0 9b ff ff       	call   24d0 <__assert_fail@plt>
    88f0:	e8 db 9c ff ff       	call   25d0 <__stack_chk_fail@plt>
    88f5:	f3 0f 1e fa          	endbr64 
    88f9:	e9 ad 9f ff ff       	jmp    28ab <_Z7blearghv.cold+0x13>
    88fe:	f3 0f 1e fa          	endbr64 
    8902:	48 89 c3             	mov    %rax,%rbx
    8905:	e9 d0 9f ff ff       	jmp    28da <_Z7blearghv.cold+0x42>
    890a:	66 0f 1f 44 00 00    	nopw   0x0(%rax,%rax,1)

0000000000008910 <_ZNSt6vectorIiSaIiEE17_M_realloc_insertIJiEEEvN9__gnu_cxx17__normal_iteratorIPiS1_EEDpOT_>:
    8910:	f3 0f 1e fa          	endbr64 
    8914:	41 57                	push   %r15
    8916:	49 89 d7             	mov    %rdx,%r15
    8919:	48 ba ff ff ff ff ff 	movabs $0x1fffffffffffffff,%rdx
    8920:	ff ff 1f 
    8923:	41 56                	push   %r14
    8925:	41 55                	push   %r13
    8927:	41 54                	push   %r12
    8929:	55                   	push   %rbp
    892a:	53                   	push   %rbx
    892b:	48 83 ec 18          	sub    $0x18,%rsp
    892f:	4c 8b 67 08          	mov    0x8(%rdi),%r12
    8933:	4c 8b 37             	mov    (%rdi),%r14
    8936:	4c 89 e0             	mov    %r12,%rax
    8939:	4c 29 f0             	sub    %r14,%rax
    893c:	48 c1 f8 02          	sar    $0x2,%rax
    8940:	48 39 d0             	cmp    %rdx,%rax
    8943:	0f 84 02 01 00 00    	je     8a4b <_ZNSt6vectorIiSaIiEE17_M_realloc_insertIJiEEEvN9__gnu_cxx17__normal_iteratorIPiS1_EEDpOT_+0x13b>
    8949:	48 85 c0             	test   %rax,%rax
    894c:	ba 01 00 00 00       	mov    $0x1,%edx
    8951:	48 89 fd             	mov    %rdi,%rbp
    8954:	49 89 f5             	mov    %rsi,%r13
    8957:	48 0f 45 d0          	cmovne %rax,%rdx
    895b:	31 c9                	xor    %ecx,%ecx
    895d:	48 01 d0             	add    %rdx,%rax
    8960:	48 89 f2             	mov    %rsi,%rdx
    8963:	0f 92 c1             	setb   %cl
    8966:	4c 29 f2             	sub    %r14,%rdx
    8969:	48 85 c9             	test   %rcx,%rcx
    896c:	0f 85 96 00 00 00    	jne    8a08 <_ZNSt6vectorIiSaIiEE17_M_realloc_insertIJiEEEvN9__gnu_cxx17__normal_iteratorIPiS1_EEDpOT_+0xf8>
    8972:	48 85 c0             	test   %rax,%rax
    8975:	0f 85 b5 00 00 00    	jne    8a30 <_ZNSt6vectorIiSaIiEE17_M_realloc_insertIJiEEEvN9__gnu_cxx17__normal_iteratorIPiS1_EEDpOT_+0x120>
    897b:	31 db                	xor    %ebx,%ebx
    897d:	31 ff                	xor    %edi,%edi
    897f:	41 8b 07             	mov    (%r15),%eax
    8982:	4d 29 ec             	sub    %r13,%r12
    8985:	4c 8d 7c 17 04       	lea    0x4(%rdi,%rdx,1),%r15
    898a:	66 48 0f 6e c7       	movq   %rdi,%xmm0
    898f:	89 04 17             	mov    %eax,(%rdi,%rdx,1)
    8992:	4b 8d 04 27          	lea    (%r15,%r12,1),%rax
    8996:	66 48 0f 6e c8       	movq   %rax,%xmm1
    899b:	66 0f 6c c1          	punpcklqdq %xmm1,%xmm0
    899f:	0f 29 04 24          	movaps %xmm0,(%rsp)
    89a3:	48 85 d2             	test   %rdx,%rdx
    89a6:	7f 28                	jg     89d0 <_ZNSt6vectorIiSaIiEE17_M_realloc_insertIJiEEEvN9__gnu_cxx17__normal_iteratorIPiS1_EEDpOT_+0xc0>
    89a8:	4d 85 e4             	test   %r12,%r12
    89ab:	7f 43                	jg     89f0 <_ZNSt6vectorIiSaIiEE17_M_realloc_insertIJiEEEvN9__gnu_cxx17__normal_iteratorIPiS1_EEDpOT_+0xe0>
    89ad:	4d 85 f6             	test   %r14,%r14
    89b0:	75 2b                	jne    89dd <_ZNSt6vectorIiSaIiEE17_M_realloc_insertIJiEEEvN9__gnu_cxx17__normal_iteratorIPiS1_EEDpOT_+0xcd>
    89b2:	66 0f 6f 14 24       	movdqa (%rsp),%xmm2
    89b7:	48 89 5d 10          	mov    %rbx,0x10(%rbp)
    89bb:	0f 11 55 00          	movups %xmm2,0x0(%rbp)
    89bf:	48 83 c4 18          	add    $0x18,%rsp
    89c3:	5b                   	pop    %rbx
    89c4:	5d                   	pop    %rbp
    89c5:	41 5c                	pop    %r12
    89c7:	41 5d                	pop    %r13
    89c9:	41 5e                	pop    %r14
    89cb:	41 5f                	pop    %r15
    89cd:	c3                   	ret    
    89ce:	66 90                	xchg   %ax,%ax
    89d0:	4c 89 f6             	mov    %r14,%rsi
    89d3:	e8 08 9d ff ff       	call   26e0 <memmove@plt>
    89d8:	4d 85 e4             	test   %r12,%r12
    89db:	7f 13                	jg     89f0 <_ZNSt6vectorIiSaIiEE17_M_realloc_insertIJiEEEvN9__gnu_cxx17__normal_iteratorIPiS1_EEDpOT_+0xe0>
    89dd:	48 8b 75 10          	mov    0x10(%rbp),%rsi
    89e1:	4c 89 f7             	mov    %r14,%rdi
    89e4:	4c 29 f6             	sub    %r14,%rsi
    89e7:	e8 c4 9b ff ff       	call   25b0 <_ZdlPvm@plt>
    89ec:	eb c4                	jmp    89b2 <_ZNSt6vectorIiSaIiEE17_M_realloc_insertIJiEEEvN9__gnu_cxx17__normal_iteratorIPiS1_EEDpOT_+0xa2>
    89ee:	66 90                	xchg   %ax,%ax
    89f0:	4c 89 e2             	mov    %r12,%rdx
    89f3:	4c 89 ee             	mov    %r13,%rsi
    89f6:	4c 89 ff             	mov    %r15,%rdi
    89f9:	e8 32 9b ff ff       	call   2530 <memcpy@plt>
    89fe:	4d 85 f6             	test   %r14,%r14
    8a01:	74 af                	je     89b2 <_ZNSt6vectorIiSaIiEE17_M_realloc_insertIJiEEEvN9__gnu_cxx17__normal_iteratorIPiS1_EEDpOT_+0xa2>
    8a03:	eb d8                	jmp    89dd <_ZNSt6vectorIiSaIiEE17_M_realloc_insertIJiEEEvN9__gnu_cxx17__normal_iteratorIPiS1_EEDpOT_+0xcd>
    8a05:	0f 1f 00             	nopl   (%rax)
    8a08:	48 bb fc ff ff ff ff 	movabs $0x7ffffffffffffffc,%rbx
    8a0f:	ff ff 7f 
    8a12:	48 89 df             	mov    %rbx,%rdi
    8a15:	48 89 14 24          	mov    %rdx,(%rsp)
    8a19:	e8 82 9b ff ff       	call   25a0 <_Znwm@plt>
    8a1e:	48 8b 14 24          	mov    (%rsp),%rdx
    8a22:	48 89 c7             	mov    %rax,%rdi
    8a25:	48 01 c3             	add    %rax,%rbx
    8a28:	e9 52 ff ff ff       	jmp    897f <_ZNSt6vectorIiSaIiEE17_M_realloc_insertIJiEEEvN9__gnu_cxx17__normal_iteratorIPiS1_EEDpOT_+0x6f>
    8a2d:	0f 1f 00             	nopl   (%rax)
    8a30:	48 b9 ff ff ff ff ff 	movabs $0x1fffffffffffffff,%rcx
    8a37:	ff ff 1f 
    8a3a:	48 39 c8             	cmp    %rcx,%rax
    8a3d:	48 0f 47 c1          	cmova  %rcx,%rax
    8a41:	48 8d 1c 85 00 00 00 	lea    0x0(,%rax,4),%rbx
    8a48:	00 
    8a49:	eb c7                	jmp    8a12 <_ZNSt6vectorIiSaIiEE17_M_realloc_insertIJiEEEvN9__gnu_cxx17__normal_iteratorIPiS1_EEDpOT_+0x102>
    8a4b:	48 8d 3d 1f 3e 00 00 	lea    0x3e1f(%rip),%rdi        # c871 <_IO_stdin_used+0x871>
    8a52:	e8 39 9a ff ff       	call   2490 <_ZSt20__throw_length_errorPKc@plt>
    8a57:	66 0f 1f 84 00 00 00 	nopw   0x0(%rax,%rax,1)
    8a5e:	00 00 

0000000000008a60 <_Z16print_rss_memoryRKNSt7__cxx1112basic_stringIcSt11char_traitsIcESaIcEEE>:
    8a60:	f3 0f 1e fa          	endbr64 
    8a64:	55                   	push   %rbp
    8a65:	48 83 ec 20          	sub    $0x20,%rsp
    8a69:	48 8b 57 08          	mov    0x8(%rdi),%rdx
    8a6d:	48 8b 37             	mov    (%rdi),%rsi
    8a70:	48 8d 3d c9 65 00 00 	lea    0x65c9(%rip),%rdi        # f040 <_ZSt4cout@GLIBCXX_3.4>
    8a77:	64 48 8b 04 25 28 00 	mov    %fs:0x28,%rax
    8a7e:	00 00 
    8a80:	48 89 44 24 18       	mov    %rax,0x18(%rsp)
    8a85:	31 c0                	xor    %eax,%eax
    8a87:	e8 54 9b ff ff       	call   25e0 <_ZSt16__ostream_insertIcSt11char_traitsIcEERSt13basic_ostreamIT_T0_ES6_PKS3_l@plt>
    8a8c:	48 8d 35 85 40 00 00 	lea    0x4085(%rip),%rsi        # cb18 <_IO_stdin_used+0xb18>
    8a93:	ba 01 00 00 00       	mov    $0x1,%edx
    8a98:	48 89 c7             	mov    %rax,%rdi
    8a9b:	e8 40 9b ff ff       	call   25e0 <_ZSt16__ostream_insertIcSt11char_traitsIcEERSt13basic_ostreamIT_T0_ES6_PKS3_l@plt>
    8aa0:	48 8d 35 4d 3f 00 00 	lea    0x3f4d(%rip),%rsi        # c9f4 <_IO_stdin_used+0x9f4>
    8aa7:	48 8d 3d a2 3e 00 00 	lea    0x3ea2(%rip),%rdi        # c950 <_IO_stdin_used+0x950>
    8aae:	e8 5d 9b ff ff       	call   2610 <fopen@plt>
    8ab3:	48 85 c0             	test   %rax,%rax
    8ab6:	0f 84 a2 00 00 00    	je     8b5e <_Z16print_rss_memoryRKNSt7__cxx1112basic_stringIcSt11char_traitsIcESaIcEEE+0xfe>
    8abc:	48 89 c5             	mov    %rax,%rbp
    8abf:	48 8d 4c 24 10       	lea    0x10(%rsp),%rcx
    8ac4:	48 8d 54 24 08       	lea    0x8(%rsp),%rdx
    8ac9:	48 89 c7             	mov    %rax,%rdi
    8acc:	48 8d 35 a8 3e 00 00 	lea    0x3ea8(%rip),%rsi        # c97b <_IO_stdin_used+0x97b>
    8ad3:	31 c0                	xor    %eax,%eax
    8ad5:	e8 76 9c ff ff       	call   2750 <__isoc99_fscanf@plt>
    8ada:	83 f8 02             	cmp    $0x2,%eax
    8add:	75 51                	jne    8b30 <_Z16print_rss_memoryRKNSt7__cxx1112basic_stringIcSt11char_traitsIcESaIcEEE+0xd0>
    8adf:	48 89 ef             	mov    %rbp,%rdi
    8ae2:	e8 a9 9a ff ff       	call   2590 <fclose@plt>
    8ae7:	bf 1e 00 00 00       	mov    $0x1e,%edi
    8aec:	e8 cf 99 ff ff       	call   24c0 <sysconf@plt>
    8af1:	48 83 f8 ff          	cmp    $0xffffffffffffffff,%rax
    8af5:	74 59                	je     8b50 <_Z16print_rss_memoryRKNSt7__cxx1112basic_stringIcSt11char_traitsIcESaIcEEE+0xf0>
    8af7:	48 0f af 44 24 10    	imul   0x10(%rsp),%rax
    8afd:	48 8d 35 b4 3e 00 00 	lea    0x3eb4(%rip),%rsi        # c9b8 <_IO_stdin_used+0x9b8>
    8b04:	bf 01 00 00 00       	mov    $0x1,%edi
    8b09:	48 89 c2             	mov    %rax,%rdx
    8b0c:	31 c0                	xor    %eax,%eax
    8b0e:	e8 cd 98 ff ff       	call   23e0 <__printf_chk@plt>
    8b13:	48 8b 44 24 18       	mov    0x18(%rsp),%rax
    8b18:	64 48 2b 04 25 28 00 	sub    %fs:0x28,%rax
    8b1f:	00 00 
    8b21:	75 5c                	jne    8b7f <_Z16print_rss_memoryRKNSt7__cxx1112basic_stringIcSt11char_traitsIcESaIcEEE+0x11f>
    8b23:	48 83 c4 20          	add    $0x20,%rsp
    8b27:	5d                   	pop    %rbp
    8b28:	c3                   	ret    
    8b29:	0f 1f 80 00 00 00 00 	nopl   0x0(%rax)
    8b30:	48 8d 3d 4c 3e 00 00 	lea    0x3e4c(%rip),%rdi        # c983 <_IO_stdin_used+0x983>
    8b37:	e8 14 9a ff ff       	call   2550 <perror@plt>
    8b3c:	48 89 ef             	mov    %rbp,%rdi
    8b3f:	e8 4c 9a ff ff       	call   2590 <fclose@plt>
    8b44:	eb cd                	jmp    8b13 <_Z16print_rss_memoryRKNSt7__cxx1112basic_stringIcSt11char_traitsIcESaIcEEE+0xb3>
    8b46:	66 2e 0f 1f 84 00 00 	cs nopw 0x0(%rax,%rax,1)
    8b4d:	00 00 00 
    8b50:	48 8d 3d 46 3e 00 00 	lea    0x3e46(%rip),%rdi        # c99d <_IO_stdin_used+0x99d>
    8b57:	e8 f4 99 ff ff       	call   2550 <perror@plt>
    8b5c:	eb b5                	jmp    8b13 <_Z16print_rss_memoryRKNSt7__cxx1112basic_stringIcSt11char_traitsIcESaIcEEE+0xb3>
    8b5e:	48 8b 44 24 18       	mov    0x18(%rsp),%rax
    8b63:	64 48 2b 04 25 28 00 	sub    %fs:0x28,%rax
    8b6a:	00 00 
    8b6c:	75 11                	jne    8b7f <_Z16print_rss_memoryRKNSt7__cxx1112basic_stringIcSt11char_traitsIcESaIcEEE+0x11f>
    8b6e:	48 83 c4 20          	add    $0x20,%rsp
    8b72:	48 8d 3d e8 3d 00 00 	lea    0x3de8(%rip),%rdi        # c961 <_IO_stdin_used+0x961>
    8b79:	5d                   	pop    %rbp
    8b7a:	e9 d1 99 ff ff       	jmp    2550 <perror@plt>
    8b7f:	e8 4c 9a ff ff       	call   25d0 <__stack_chk_fail@plt>
    8b84:	66 66 2e 0f 1f 84 00 	data16 cs nopw 0x0(%rax,%rax,1)
    8b8b:	00 00 00 00 
    8b8f:	90                   	nop

0000000000008b90 <_Z10allocate2djjPPd>:
    8b90:	f3 0f 1e fa          	endbr64 
    8b94:	41 55                	push   %r13
    8b96:	41 89 fd             	mov    %edi,%r13d
    8b99:	41 54                	push   %r12
    8b9b:	55                   	push   %rbp
    8b9c:	89 f5                	mov    %esi,%ebp
    8b9e:	53                   	push   %rbx
    8b9f:	4c 89 eb             	mov    %r13,%rbx
    8ba2:	49 c1 e5 03          	shl    $0x3,%r13
    8ba6:	4c 89 ef             	mov    %r13,%rdi
    8ba9:	48 83 ec 08          	sub    $0x8,%rsp
    8bad:	e8 3e 98 ff ff       	call   23f0 <_Znam@plt>
    8bb2:	49 89 c4             	mov    %rax,%r12
    8bb5:	85 db                	test   %ebx,%ebx
    8bb7:	74 24                	je     8bdd <_Z10allocate2djjPPd+0x4d>
    8bb9:	48 c1 e5 03          	shl    $0x3,%rbp
    8bbd:	48 89 c3             	mov    %rax,%rbx
    8bc0:	49 01 c5             	add    %rax,%r13
    8bc3:	0f 1f 44 00 00       	nopl   0x0(%rax,%rax,1)
    8bc8:	48 89 ef             	mov    %rbp,%rdi
    8bcb:	48 83 c3 08          	add    $0x8,%rbx
    8bcf:	e8 1c 98 ff ff       	call   23f0 <_Znam@plt>
    8bd4:	48 89 43 f8          	mov    %rax,-0x8(%rbx)
    8bd8:	4c 39 eb             	cmp    %r13,%rbx
    8bdb:	75 eb                	jne    8bc8 <_Z10allocate2djjPPd+0x38>
    8bdd:	48 83 c4 08          	add    $0x8,%rsp
    8be1:	4c 89 e0             	mov    %r12,%rax
    8be4:	5b                   	pop    %rbx
    8be5:	5d                   	pop    %rbp
    8be6:	41 5c                	pop    %r12
    8be8:	41 5d                	pop    %r13
    8bea:	c3                   	ret    
    8beb:	0f 1f 44 00 00       	nopl   0x0(%rax,%rax,1)

0000000000008bf0 <_Z10allocate3djjj>:
    8bf0:	f3 0f 1e fa          	endbr64 
    8bf4:	41 57                	push   %r15
    8bf6:	48 63 c7             	movslq %edi,%rax
    8bf9:	4c 63 fe             	movslq %esi,%r15
    8bfc:	41 56                	push   %r14
    8bfe:	49 be ff ff ff ff ff 	movabs $0xfffffffffffffff,%r14
    8c05:	ff ff 0f 
    8c08:	41 55                	push   %r13
    8c0a:	41 54                	push   %r12
    8c0c:	55                   	push   %rbp
    8c0d:	53                   	push   %rbx
    8c0e:	48 83 ec 28          	sub    $0x28,%rsp
    8c12:	44 89 7c 24 04       	mov    %r15d,0x4(%rsp)
    8c17:	4c 39 f0             	cmp    %r14,%rax
    8c1a:	0f 87 d4 9c ff ff    	ja     28f4 <_Z10allocate3djjj.cold>
    8c20:	48 8d 3c c5 00 00 00 	lea    0x0(,%rax,8),%rdi
    8c27:	00 
    8c28:	48 89 c3             	mov    %rax,%rbx
    8c2b:	89 d5                	mov    %edx,%ebp
    8c2d:	e8 be 97 ff ff       	call   23f0 <_Znam@plt>
    8c32:	48 89 44 24 18       	mov    %rax,0x18(%rsp)
    8c37:	85 db                	test   %ebx,%ebx
    8c39:	0f 8e 97 00 00 00    	jle    8cd6 <_Z10allocate3djjj+0xe6>
    8c3f:	4d 39 f7             	cmp    %r14,%r15
    8c42:	0f 87 ac 9c ff ff    	ja     28f4 <_Z10allocate3djjj.cold>
    8c48:	48 63 c5             	movslq %ebp,%rax
    8c4b:	89 db                	mov    %ebx,%ebx
    8c4d:	49 c1 e7 03          	shl    $0x3,%r15
    8c51:	48 89 44 24 10       	mov    %rax,0x10(%rsp)
    8c56:	4c 8d 2c c5 00 00 00 	lea    0x0(,%rax,8),%r13
    8c5d:	00 
    8c5e:	48 8b 44 24 18       	mov    0x18(%rsp),%rax
    8c63:	48 89 c5             	mov    %rax,%rbp
    8c66:	48 8d 04 d8          	lea    (%rax,%rbx,8),%rax
    8c6a:	48 89 44 24 08       	mov    %rax,0x8(%rsp)
    8c6f:	8b 44 24 04          	mov    0x4(%rsp),%eax
    8c73:	44 8d 60 ff          	lea    -0x1(%rax),%r12d
    8c77:	49 c1 e4 03          	shl    $0x3,%r12
    8c7b:	0f 1f 44 00 00       	nopl   0x0(%rax,%rax,1)
    8c80:	4c 89 ff             	mov    %r15,%rdi
    8c83:	e8 68 97 ff ff       	call   23f0 <_Znam@plt>
    8c88:	48 89 45 00          	mov    %rax,0x0(%rbp)
    8c8c:	48 89 c3             	mov    %rax,%rbx
    8c8f:	8b 44 24 04          	mov    0x4(%rsp),%eax
    8c93:	85 c0                	test   %eax,%eax
    8c95:	7e 34                	jle    8ccb <_Z10allocate3djjj+0xdb>
    8c97:	48 b9 ff ff ff ff ff 	movabs $0xfffffffffffffff,%rcx
    8c9e:	ff ff 0f 
    8ca1:	48 39 4c 24 10       	cmp    %rcx,0x10(%rsp)
    8ca6:	77 42                	ja     8cea <_Z10allocate3djjj+0xfa>
    8ca8:	45 31 f6             	xor    %r14d,%r14d
    8cab:	eb 0b                	jmp    8cb8 <_Z10allocate3djjj+0xc8>
    8cad:	0f 1f 00             	nopl   (%rax)
    8cb0:	48 8b 5d 00          	mov    0x0(%rbp),%rbx
    8cb4:	49 83 c6 08          	add    $0x8,%r14
    8cb8:	4c 89 ef             	mov    %r13,%rdi
    8cbb:	4c 01 f3             	add    %r14,%rbx
    8cbe:	e8 2d 97 ff ff       	call   23f0 <_Znam@plt>
    8cc3:	48 89 03             	mov    %rax,(%rbx)
    8cc6:	4d 39 e6             	cmp    %r12,%r14
    8cc9:	75 e5                	jne    8cb0 <_Z10allocate3djjj+0xc0>
    8ccb:	48 83 c5 08          	add    $0x8,%rbp
    8ccf:	48 3b 6c 24 08       	cmp    0x8(%rsp),%rbp
    8cd4:	75 aa                	jne    8c80 <_Z10allocate3djjj+0x90>
    8cd6:	48 8b 44 24 18       	mov    0x18(%rsp),%rax
    8cdb:	48 83 c4 28          	add    $0x28,%rsp
    8cdf:	5b                   	pop    %rbx
    8ce0:	5d                   	pop    %rbp
    8ce1:	41 5c                	pop    %r12
    8ce3:	41 5d                	pop    %r13
    8ce5:	41 5e                	pop    %r14
    8ce7:	41 5f                	pop    %r15
    8ce9:	c3                   	ret    
    8cea:	e9 05 9c ff ff       	jmp    28f4 <_Z10allocate3djjj.cold>
    8cef:	90                   	nop

0000000000008cf0 <_Z11allocate3dtjjj>:
    8cf0:	f3 0f 1e fa          	endbr64 
    8cf4:	41 57                	push   %r15
    8cf6:	48 63 c7             	movslq %edi,%rax
    8cf9:	41 56                	push   %r14
    8cfb:	41 55                	push   %r13
    8cfd:	41 54                	push   %r12
    8cff:	55                   	push   %rbp
    8d00:	53                   	push   %rbx
    8d01:	48 bb ff ff ff ff ff 	movabs $0xfffffffffffffff,%rbx
    8d08:	ff ff 0f 
    8d0b:	48 83 ec 58          	sub    $0x58,%rsp
    8d0f:	89 74 24 40          	mov    %esi,0x40(%rsp)
    8d13:	89 54 24 44          	mov    %edx,0x44(%rsp)
    8d17:	48 39 d8             	cmp    %rbx,%rax
    8d1a:	0f 87 d9 9b ff ff    	ja     28f9 <_Z11allocate3dtjjj.cold>
    8d20:	48 8d 3c c5 00 00 00 	lea    0x0(,%rax,8),%rdi
    8d27:	00 
    8d28:	49 89 c4             	mov    %rax,%r12
    8d2b:	e8 c0 96 ff ff       	call   23f0 <_Znam@plt>
    8d30:	48 89 44 24 38       	mov    %rax,0x38(%rsp)
    8d35:	45 85 e4             	test   %r12d,%r12d
    8d38:	0f 8e 7d 02 00 00    	jle    8fbb <_Z11allocate3dtjjj+0x2cb>
    8d3e:	48 63 44 24 40       	movslq 0x40(%rsp),%rax
    8d43:	48 39 d8             	cmp    %rbx,%rax
    8d46:	0f 87 ad 9b ff ff    	ja     28f9 <_Z11allocate3dtjjj.cold>
    8d4c:	48 8b 74 24 38       	mov    0x38(%rsp),%rsi
    8d51:	48 c1 e0 03          	shl    $0x3,%rax
    8d55:	48 63 7c 24 44       	movslq 0x44(%rsp),%rdi
    8d5a:	48 89 44 24 28       	mov    %rax,0x28(%rsp)
    8d5f:	44 89 e0             	mov    %r12d,%eax
    8d62:	48 89 44 24 48       	mov    %rax,0x48(%rsp)
    8d67:	48 8d 04 c6          	lea    (%rsi,%rax,8),%rax
    8d6b:	48 8d 2c ff          	lea    (%rdi,%rdi,8),%rbp
    8d6f:	48 89 44 24 30       	mov    %rax,0x30(%rsp)
    8d74:	8b 44 24 40          	mov    0x40(%rsp),%eax
    8d78:	48 8d 5f ff          	lea    -0x1(%rdi),%rbx
    8d7c:	48 c1 e5 03          	shl    $0x3,%rbp
    8d80:	48 89 7c 24 08       	mov    %rdi,0x8(%rsp)
    8d85:	83 e8 01             	sub    $0x1,%eax
    8d88:	4c 8d 24 c5 08 00 00 	lea    0x8(,%rax,8),%r12
    8d8f:	00 
    8d90:	48 89 f8             	mov    %rdi,%rax
    8d93:	48 83 e7 fe          	and    $0xfffffffffffffffe,%rdi
    8d97:	48 d1 e8             	shr    %rax
    8d9a:	4c 8d 34 ff          	lea    (%rdi,%rdi,8),%r14
    8d9e:	48 89 7c 24 10       	mov    %rdi,0x10(%rsp)
    8da3:	4c 8d 3c c0          	lea    (%rax,%rax,8),%r15
    8da7:	4a 8d 04 f5 00 00 00 	lea    0x0(,%r14,8),%rax
    8dae:	00 
    8daf:	49 89 f6             	mov    %rsi,%r14
    8db2:	48 89 44 24 18       	mov    %rax,0x18(%rsp)
    8db7:	48 89 d8             	mov    %rbx,%rax
    8dba:	49 c1 e7 04          	shl    $0x4,%r15
    8dbe:	48 29 f8             	sub    %rdi,%rax
    8dc1:	48 89 44 24 20       	mov    %rax,0x20(%rsp)
    8dc6:	66 2e 0f 1f 84 00 00 	cs nopw 0x0(%rax,%rax,1)
    8dcd:	00 00 00 
    8dd0:	48 8b 7c 24 28       	mov    0x28(%rsp),%rdi
    8dd5:	e8 16 96 ff ff       	call   23f0 <_Znam@plt>
    8dda:	49 89 06             	mov    %rax,(%r14)
    8ddd:	8b 44 24 40          	mov    0x40(%rsp),%eax
    8de1:	85 c0                	test   %eax,%eax
    8de3:	0f 8e ee 00 00 00    	jle    8ed7 <_Z11allocate3dtjjj+0x1e7>
    8de9:	48 bf c7 71 1c c7 71 	movabs $0x1c71c71c71c71c7,%rdi
    8df0:	1c c7 01 
    8df3:	48 39 7c 24 08       	cmp    %rdi,0x8(%rsp)
    8df8:	0f 87 fb 9a ff ff    	ja     28f9 <_Z11allocate3dtjjj.cold>
    8dfe:	31 c0                	xor    %eax,%eax
    8e00:	4d 89 f5             	mov    %r14,%r13
    8e03:	49 89 c6             	mov    %rax,%r14
    8e06:	66 2e 0f 1f 84 00 00 	cs nopw 0x0(%rax,%rax,1)
    8e0d:	00 00 00 
    8e10:	48 89 ef             	mov    %rbp,%rdi
    8e13:	e8 d8 95 ff ff       	call   23f0 <_Znam@plt>
    8e18:	48 83 fb ff          	cmp    $0xffffffffffffffff,%rbx
    8e1c:	66 0f 28 05 bc 3b 00 	movapd 0x3bbc(%rip),%xmm0        # c9e0 <_IO_stdin_used+0x9e0>
    8e23:	00 
    8e24:	0f 84 95 00 00 00    	je     8ebf <_Z11allocate3dtjjj+0x1cf>
    8e2a:	48 83 fb 01          	cmp    $0x1,%rbx
    8e2e:	0f 86 4d 01 00 00    	jbe    8f81 <_Z11allocate3dtjjj+0x291>
    8e34:	48 89 c2             	mov    %rax,%rdx
    8e37:	4a 8d 0c 38          	lea    (%rax,%r15,1),%rcx
    8e3b:	66 0f 28 c8          	movapd %xmm0,%xmm1
    8e3f:	90                   	nop
    8e40:	0f 11 02             	movups %xmm0,(%rdx)
    8e43:	48 81 c2 90 00 00 00 	add    $0x90,%rdx
    8e4a:	0f 11 42 80          	movups %xmm0,-0x80(%rdx)
    8e4e:	0f 11 42 90          	movups %xmm0,-0x70(%rdx)
    8e52:	0f 11 42 a0          	movups %xmm0,-0x60(%rdx)
    8e56:	0f 11 42 b0          	movups %xmm0,-0x50(%rdx)
    8e5a:	0f 11 42 c0          	movups %xmm0,-0x40(%rdx)
    8e5e:	0f 11 42 d0          	movups %xmm0,-0x30(%rdx)
    8e62:	0f 11 42 e0          	movups %xmm0,-0x20(%rdx)
    8e66:	0f 11 42 f0          	movups %xmm0,-0x10(%rdx)
    8e6a:	48 39 d1             	cmp    %rdx,%rcx
    8e6d:	75 d1                	jne    8e40 <_Z11allocate3dtjjj+0x150>
    8e6f:	48 8b 74 24 18       	mov    0x18(%rsp),%rsi
    8e74:	48 8d 14 30          	lea    (%rax,%rsi,1),%rdx
    8e78:	48 8b 74 24 10       	mov    0x10(%rsp),%rsi
    8e7d:	48 39 74 24 08       	cmp    %rsi,0x8(%rsp)
    8e82:	74 3b                	je     8ebf <_Z11allocate3dtjjj+0x1cf>
    8e84:	48 8b 4c 24 20       	mov    0x20(%rsp),%rcx
    8e89:	48 8b 3d 50 3b 00 00 	mov    0x3b50(%rip),%rdi        # c9e0 <_IO_stdin_used+0x9e0>
    8e90:	0f 11 0a             	movups %xmm1,(%rdx)
    8e93:	0f 11 4a 10          	movups %xmm1,0x10(%rdx)
    8e97:	48 89 7a 40          	mov    %rdi,0x40(%rdx)
    8e9b:	0f 11 4a 20          	movups %xmm1,0x20(%rdx)
    8e9f:	0f 11 4a 30          	movups %xmm1,0x30(%rdx)
    8ea3:	48 85 c9             	test   %rcx,%rcx
    8ea6:	74 17                	je     8ebf <_Z11allocate3dtjjj+0x1cf>
    8ea8:	48 89 ba 88 00 00 00 	mov    %rdi,0x88(%rdx)
    8eaf:	0f 11 4a 48          	movups %xmm1,0x48(%rdx)
    8eb3:	0f 11 4a 58          	movups %xmm1,0x58(%rdx)
    8eb7:	0f 11 4a 68          	movups %xmm1,0x68(%rdx)
    8ebb:	0f 11 4a 78          	movups %xmm1,0x78(%rdx)
    8ebf:	49 8b 55 00          	mov    0x0(%r13),%rdx
    8ec3:	4a 89 04 32          	mov    %rax,(%rdx,%r14,1)
    8ec7:	49 83 c6 08          	add    $0x8,%r14
    8ecb:	4d 39 f4             	cmp    %r14,%r12
    8ece:	0f 85 3c ff ff ff    	jne    8e10 <_Z11allocate3dtjjj+0x120>
    8ed4:	4d 89 ee             	mov    %r13,%r14
    8ed7:	49 83 c6 08          	add    $0x8,%r14
    8edb:	4c 3b 74 24 30       	cmp    0x30(%rsp),%r14
    8ee0:	0f 85 ea fe ff ff    	jne    8dd0 <_Z11allocate3dtjjj+0xe0>
    8ee6:	48 8b 74 24 48       	mov    0x48(%rsp),%rsi
    8eeb:	48 8d 3d 4e 61 00 00 	lea    0x614e(%rip),%rdi        # f040 <_ZSt4cout@GLIBCXX_3.4>
    8ef2:	4c 8d 25 e2 38 00 00 	lea    0x38e2(%rip),%r12        # c7db <_IO_stdin_used+0x7db>
    8ef9:	e8 f2 95 ff ff       	call   24f0 <_ZNSo9_M_insertImEERSoT_@plt>
    8efe:	ba 01 00 00 00       	mov    $0x1,%edx
    8f03:	4c 89 e6             	mov    %r12,%rsi
    8f06:	48 89 c7             	mov    %rax,%rdi
    8f09:	48 89 c5             	mov    %rax,%rbp
    8f0c:	e8 cf 96 ff ff       	call   25e0 <_ZSt16__ostream_insertIcSt11char_traitsIcEERSt13basic_ostreamIT_T0_ES6_PKS3_l@plt>
    8f11:	8b 74 24 40          	mov    0x40(%rsp),%esi
    8f15:	48 89 ef             	mov    %rbp,%rdi
    8f18:	e8 d3 95 ff ff       	call   24f0 <_ZNSo9_M_insertImEERSoT_@plt>
    8f1d:	4c 89 e6             	mov    %r12,%rsi
    8f20:	ba 01 00 00 00       	mov    $0x1,%edx
    8f25:	48 89 c7             	mov    %rax,%rdi
    8f28:	48 89 c5             	mov    %rax,%rbp
    8f2b:	e8 b0 96 ff ff       	call   25e0 <_ZSt16__ostream_insertIcSt11char_traitsIcEERSt13basic_ostreamIT_T0_ES6_PKS3_l@plt>
    8f30:	8b 74 24 44          	mov    0x44(%rsp),%esi
    8f34:	48 89 ef             	mov    %rbp,%rdi
    8f37:	e8 b4 95 ff ff       	call   24f0 <_ZNSo9_M_insertImEERSoT_@plt>
    8f3c:	49 89 c4             	mov    %rax,%r12
    8f3f:	48 8b 00             	mov    (%rax),%rax
    8f42:	48 8b 40 e8          	mov    -0x18(%rax),%rax
    8f46:	49 8b ac 04 f0 00 00 	mov    0xf0(%r12,%rax,1),%rbp
    8f4d:	00 
    8f4e:	48 85 ed             	test   %rbp,%rbp
    8f51:	74 75                	je     8fc8 <_Z11allocate3dtjjj+0x2d8>
    8f53:	80 7d 38 00          	cmpb   $0x0,0x38(%rbp)
    8f57:	74 37                	je     8f90 <_Z11allocate3dtjjj+0x2a0>
    8f59:	0f be 75 43          	movsbl 0x43(%rbp),%esi
    8f5d:	4c 89 e7             	mov    %r12,%rdi
    8f60:	e8 9b 94 ff ff       	call   2400 <_ZNSo3putEc@plt>
    8f65:	48 89 c7             	mov    %rax,%rdi
    8f68:	e8 93 95 ff ff       	call   2500 <_ZNSo5flushEv@plt>
    8f6d:	48 8b 44 24 38       	mov    0x38(%rsp),%rax
    8f72:	48 83 c4 58          	add    $0x58,%rsp
    8f76:	5b                   	pop    %rbx
    8f77:	5d                   	pop    %rbp
    8f78:	41 5c                	pop    %r12
    8f7a:	41 5d                	pop    %r13
    8f7c:	41 5e                	pop    %r14
    8f7e:	41 5f                	pop    %r15
    8f80:	c3                   	ret    
    8f81:	48 89 d9             	mov    %rbx,%rcx
    8f84:	48 89 c2             	mov    %rax,%rdx
    8f87:	66 0f 28 c8          	movapd %xmm0,%xmm1
    8f8b:	e9 f9 fe ff ff       	jmp    8e89 <_Z11allocate3dtjjj+0x199>
    8f90:	48 89 ef             	mov    %rbp,%rdi
    8f93:	e8 58 96 ff ff       	call   25f0 <_ZNKSt5ctypeIcE13_M_widen_initEv@plt>
    8f98:	48 8b 45 00          	mov    0x0(%rbp),%rax
    8f9c:	be 0a 00 00 00       	mov    $0xa,%esi
    8fa1:	48 8d 15 c8 02 00 00 	lea    0x2c8(%rip),%rdx        # 9270 <_ZNKSt5ctypeIcE8do_widenEc>
    8fa8:	48 8b 40 30          	mov    0x30(%rax),%rax
    8fac:	48 39 d0             	cmp    %rdx,%rax
    8faf:	74 ac                	je     8f5d <_Z11allocate3dtjjj+0x26d>
    8fb1:	48 89 ef             	mov    %rbp,%rdi
    8fb4:	ff d0                	call   *%rax
    8fb6:	0f be f0             	movsbl %al,%esi
    8fb9:	eb a2                	jmp    8f5d <_Z11allocate3dtjjj+0x26d>
    8fbb:	44 89 e0             	mov    %r12d,%eax
    8fbe:	48 89 44 24 48       	mov    %rax,0x48(%rsp)
    8fc3:	e9 1e ff ff ff       	jmp    8ee6 <_Z11allocate3dtjjj+0x1f6>
    8fc8:	e8 73 96 ff ff       	call   2640 <_ZSt16__throw_bad_castv@plt>
    8fcd:	0f 1f 00             	nopl   (%rax)

0000000000008fd0 <_Z10allocate4djjjj>:
    8fd0:	f3 0f 1e fa          	endbr64 
    8fd4:	41 57                	push   %r15
    8fd6:	41 89 cf             	mov    %ecx,%r15d
    8fd9:	41 56                	push   %r14
    8fdb:	41 89 f6             	mov    %esi,%r14d
    8fde:	41 55                	push   %r13
    8fe0:	41 89 fd             	mov    %edi,%r13d
    8fe3:	41 54                	push   %r12
    8fe5:	55                   	push   %rbp
    8fe6:	4c 89 ed             	mov    %r13,%rbp
    8fe9:	49 c1 e5 03          	shl    $0x3,%r13
    8fed:	53                   	push   %rbx
    8fee:	4c 89 ef             	mov    %r13,%rdi
    8ff1:	89 d3                	mov    %edx,%ebx
    8ff3:	48 83 ec 38          	sub    $0x38,%rsp
    8ff7:	89 74 24 24          	mov    %esi,0x24(%rsp)
    8ffb:	89 4c 24 20          	mov    %ecx,0x20(%rsp)
    8fff:	e8 ec 93 ff ff       	call   23f0 <_Znam@plt>
    9004:	48 89 44 24 28       	mov    %rax,0x28(%rsp)
    9009:	85 ed                	test   %ebp,%ebp
    900b:	0f 84 ca 00 00 00    	je     90db <_Z10allocate4djjjj+0x10b>
    9011:	48 89 c6             	mov    %rax,%rsi
    9014:	44 89 f0             	mov    %r14d,%eax
    9017:	45 89 fc             	mov    %r15d,%r12d
    901a:	48 89 c2             	mov    %rax,%rdx
    901d:	48 c1 e0 03          	shl    $0x3,%rax
    9021:	4c 89 e1             	mov    %r12,%rcx
    9024:	49 01 f5             	add    %rsi,%r13
    9027:	48 89 44 24 10       	mov    %rax,0x10(%rsp)
    902c:	48 8d 04 dd 00 00 00 	lea    0x0(,%rbx,8),%rax
    9033:	00 
    9034:	49 c1 e4 03          	shl    $0x3,%r12
    9038:	48 89 f5             	mov    %rsi,%rbp
    903b:	48 89 04 24          	mov    %rax,(%rsp)
    903f:	8d 42 ff             	lea    -0x1(%rdx),%eax
    9042:	48 c1 e0 03          	shl    $0x3,%rax
    9046:	4c 89 6c 24 18       	mov    %r13,0x18(%rsp)
    904b:	48 89 44 24 08       	mov    %rax,0x8(%rsp)
    9050:	8d 41 ff             	lea    -0x1(%rcx),%eax
    9053:	4c 8d 2c c5 08 00 00 	lea    0x8(,%rax,8),%r13
    905a:	00 
    905b:	0f 1f 44 00 00       	nopl   0x0(%rax,%rax,1)
    9060:	48 8b 7c 24 10       	mov    0x10(%rsp),%rdi
    9065:	e8 86 93 ff ff       	call   23f0 <_Znam@plt>
    906a:	8b 54 24 24          	mov    0x24(%rsp),%edx
    906e:	48 89 45 00          	mov    %rax,0x0(%rbp)
    9072:	49 89 c6             	mov    %rax,%r14
    9075:	85 d2                	test   %edx,%edx
    9077:	74 57                	je     90d0 <_Z10allocate4djjjj+0x100>
    9079:	31 db                	xor    %ebx,%ebx
    907b:	0f 1f 44 00 00       	nopl   0x0(%rax,%rax,1)
    9080:	48 8b 3c 24          	mov    (%rsp),%rdi
    9084:	49 01 de             	add    %rbx,%r14
    9087:	e8 64 93 ff ff       	call   23f0 <_Znam@plt>
    908c:	49 89 06             	mov    %rax,(%r14)
    908f:	8b 44 24 20          	mov    0x20(%rsp),%eax
    9093:	45 31 f6             	xor    %r14d,%r14d
    9096:	85 c0                	test   %eax,%eax
    9098:	74 25                	je     90bf <_Z10allocate4djjjj+0xef>
    909a:	66 0f 1f 44 00 00    	nopw   0x0(%rax,%rax,1)
    90a0:	48 8b 45 00          	mov    0x0(%rbp),%rax
    90a4:	4c 89 e7             	mov    %r12,%rdi
    90a7:	4c 8b 3c 18          	mov    (%rax,%rbx,1),%r15
    90ab:	e8 40 93 ff ff       	call   23f0 <_Znam@plt>
    90b0:	4d 01 f7             	add    %r14,%r15
    90b3:	49 83 c6 08          	add    $0x8,%r14
    90b7:	49 89 07             	mov    %rax,(%r15)
    90ba:	4d 39 ee             	cmp    %r13,%r14
    90bd:	75 e1                	jne    90a0 <_Z10allocate4djjjj+0xd0>
    90bf:	48 39 5c 24 08       	cmp    %rbx,0x8(%rsp)
    90c4:	74 0a                	je     90d0 <_Z10allocate4djjjj+0x100>
    90c6:	4c 8b 75 00          	mov    0x0(%rbp),%r14
    90ca:	48 83 c3 08          	add    $0x8,%rbx
    90ce:	eb b0                	jmp    9080 <_Z10allocate4djjjj+0xb0>
    90d0:	48 83 c5 08          	add    $0x8,%rbp
    90d4:	48 3b 6c 24 18       	cmp    0x18(%rsp),%rbp
    90d9:	75 85                	jne    9060 <_Z10allocate4djjjj+0x90>
    90db:	48 8b 44 24 28       	mov    0x28(%rsp),%rax
    90e0:	48 83 c4 38          	add    $0x38,%rsp
    90e4:	5b                   	pop    %rbx
    90e5:	5d                   	pop    %rbp
    90e6:	41 5c                	pop    %r12
    90e8:	41 5d                	pop    %r13
    90ea:	41 5e                	pop    %r14
    90ec:	41 5f                	pop    %r15
    90ee:	c3                   	ret    
    90ef:	90                   	nop

00000000000090f0 <_Z11allocate3dvjjj>:
    90f0:	f3 0f 1e fa          	endbr64 
    90f4:	41 57                	push   %r15
    90f6:	41 89 f7             	mov    %esi,%r15d
    90f9:	41 56                	push   %r14
    90fb:	41 55                	push   %r13
    90fd:	41 89 d5             	mov    %edx,%r13d
    9100:	41 54                	push   %r12
    9102:	41 89 fc             	mov    %edi,%r12d
    9105:	55                   	push   %rbp
    9106:	53                   	push   %rbx
    9107:	4c 89 e3             	mov    %r12,%rbx
    910a:	49 c1 e4 03          	shl    $0x3,%r12
    910e:	4c 89 e7             	mov    %r12,%rdi
    9111:	48 83 ec 48          	sub    $0x48,%rsp
    9115:	89 74 24 34          	mov    %esi,0x34(%rsp)
    9119:	e8 d2 92 ff ff       	call   23f0 <_Znam@plt>
    911e:	48 89 44 24 38       	mov    %rax,0x38(%rsp)
    9123:	85 db                	test   %ebx,%ebx
    9125:	0f 84 29 01 00 00    	je     9254 <_Z11allocate3dvjjj+0x164>
    912b:	48 89 c1             	mov    %rax,%rcx
    912e:	44 89 f8             	mov    %r15d,%eax
    9131:	44 89 ef             	mov    %r13d,%edi
    9134:	48 89 c6             	mov    %rax,%rsi
    9137:	48 c1 e0 03          	shl    $0x3,%rax
    913b:	49 01 cc             	add    %rcx,%r12
    913e:	48 8d 2c 7f          	lea    (%rdi,%rdi,2),%rbp
    9142:	48 89 44 24 20       	mov    %rax,0x20(%rsp)
    9147:	8d 46 ff             	lea    -0x1(%rsi),%eax
    914a:	48 8d 5f ff          	lea    -0x1(%rdi),%rbx
    914e:	48 c1 e5 03          	shl    $0x3,%rbp
    9152:	48 89 3c 24          	mov    %rdi,(%rsp)
    9156:	4c 89 64 24 28       	mov    %r12,0x28(%rsp)
    915b:	4c 8d 24 c5 08 00 00 	lea    0x8(,%rax,8),%r12
    9162:	00 
    9163:	48 89 f8             	mov    %rdi,%rax
    9166:	48 83 e7 fe          	and    $0xfffffffffffffffe,%rdi
    916a:	48 d1 e8             	shr    %rax
    916d:	4c 8d 34 7f          	lea    (%rdi,%rdi,2),%r14
    9171:	48 89 7c 24 08       	mov    %rdi,0x8(%rsp)
    9176:	4c 8d 3c 40          	lea    (%rax,%rax,2),%r15
    917a:	4a 8d 04 f5 00 00 00 	lea    0x0(,%r14,8),%rax
    9181:	00 
    9182:	49 89 ce             	mov    %rcx,%r14
    9185:	48 89 44 24 10       	mov    %rax,0x10(%rsp)
    918a:	48 89 d8             	mov    %rbx,%rax
    918d:	49 c1 e7 04          	shl    $0x4,%r15
    9191:	48 29 f8             	sub    %rdi,%rax
    9194:	48 89 44 24 18       	mov    %rax,0x18(%rsp)
    9199:	0f 1f 80 00 00 00 00 	nopl   0x0(%rax)
    91a0:	48 8b 7c 24 20       	mov    0x20(%rsp),%rdi
    91a5:	e8 46 92 ff ff       	call   23f0 <_Znam@plt>
    91aa:	49 89 06             	mov    %rax,(%r14)
    91ad:	8b 44 24 34          	mov    0x34(%rsp),%eax
    91b1:	85 c0                	test   %eax,%eax
    91b3:	0f 84 8c 00 00 00    	je     9245 <_Z11allocate3dvjjj+0x155>
    91b9:	45 31 ed             	xor    %r13d,%r13d
    91bc:	0f 1f 40 00          	nopl   0x0(%rax)
    91c0:	48 89 ef             	mov    %rbp,%rdi
    91c3:	e8 28 92 ff ff       	call   23f0 <_Znam@plt>
    91c8:	48 83 fb ff          	cmp    $0xffffffffffffffff,%rbx
    91cc:	66 0f ef c0          	pxor   %xmm0,%xmm0
    91d0:	74 5f                	je     9231 <_Z11allocate3dvjjj+0x141>
    91d2:	48 83 fb 01          	cmp    $0x1,%rbx
    91d6:	0f 86 8c 00 00 00    	jbe    9268 <_Z11allocate3dvjjj+0x178>
    91dc:	48 89 c2             	mov    %rax,%rdx
    91df:	4a 8d 0c 38          	lea    (%rax,%r15,1),%rcx
    91e3:	0f 1f 44 00 00       	nopl   0x0(%rax,%rax,1)
    91e8:	0f 11 02             	movups %xmm0,(%rdx)
    91eb:	48 83 c2 30          	add    $0x30,%rdx
    91ef:	0f 11 42 e0          	movups %xmm0,-0x20(%rdx)
    91f3:	0f 11 42 f0          	movups %xmm0,-0x10(%rdx)
    91f7:	48 39 d1             	cmp    %rdx,%rcx
    91fa:	75 ec                	jne    91e8 <_Z11allocate3dvjjj+0xf8>
    91fc:	48 8b 74 24 10       	mov    0x10(%rsp),%rsi
    9201:	48 8d 14 30          	lea    (%rax,%rsi,1),%rdx
    9205:	48 8b 74 24 08       	mov    0x8(%rsp),%rsi
    920a:	48 39 34 24          	cmp    %rsi,(%rsp)
    920e:	74 21                	je     9231 <_Z11allocate3dvjjj+0x141>
    9210:	48 8b 4c 24 18       	mov    0x18(%rsp),%rcx
    9215:	48 c7 42 10 00 00 00 	movq   $0x0,0x10(%rdx)
    921c:	00 
    921d:	0f 11 02             	movups %xmm0,(%rdx)
    9220:	48 85 c9             	test   %rcx,%rcx
    9223:	74 0c                	je     9231 <_Z11allocate3dvjjj+0x141>
    9225:	48 c7 42 28 00 00 00 	movq   $0x0,0x28(%rdx)
    922c:	00 
    922d:	0f 11 42 18          	movups %xmm0,0x18(%rdx)
    9231:	49 8b 16             	mov    (%r14),%rdx
    9234:	4a 89 04 2a          	mov    %rax,(%rdx,%r13,1)
    9238:	49 83 c5 08          	add    $0x8,%r13
    923c:	4d 39 e5             	cmp    %r12,%r13
    923f:	0f 85 7b ff ff ff    	jne    91c0 <_Z11allocate3dvjjj+0xd0>
    9245:	49 83 c6 08          	add    $0x8,%r14
    9249:	4c 3b 74 24 28       	cmp    0x28(%rsp),%r14
    924e:	0f 85 4c ff ff ff    	jne    91a0 <_Z11allocate3dvjjj+0xb0>
    9254:	48 8b 44 24 38       	mov    0x38(%rsp),%rax
    9259:	48 83 c4 48          	add    $0x48,%rsp
    925d:	5b                   	pop    %rbx
    925e:	5d                   	pop    %rbp
    925f:	41 5c                	pop    %r12
    9261:	41 5d                	pop    %r13
    9263:	41 5e                	pop    %r14
    9265:	41 5f                	pop    %r15
    9267:	c3                   	ret    
    9268:	48 89 d9             	mov    %rbx,%rcx
    926b:	48 89 c2             	mov    %rax,%rdx
    926e:	eb a5                	jmp    9215 <_Z11allocate3dvjjj+0x125>

0000000000009270 <_ZNKSt5ctypeIcE8do_widenEc>:
    9270:	f3 0f 1e fa          	endbr64 
    9274:	89 f0                	mov    %esi,%eax
    9276:	c3                   	ret    
    9277:	66 0f 1f 84 00 00 00 	nopw   0x0(%rax,%rax,1)
    927e:	00 00 

0000000000009280 <_Z5shearddd>:
    9280:	f3 0f 1e fa          	endbr64 
    9284:	f2 0f 10 05 6c 37 00 	movsd  0x376c(%rip),%xmm0        # c9f8 <_IO_stdin_used+0x9f8>
    928b:	00 
    928c:	66 0f 28 d9          	movapd %xmm1,%xmm3
    9290:	66 0f ef f6          	pxor   %xmm6,%xmm6
    9294:	48 89 f8             	mov    %rdi,%rax
    9297:	f2 0f 10 25 61 37 00 	movsd  0x3761(%rip),%xmm4        # ca00 <_IO_stdin_used+0xa00>
    929e:	00 
    929f:	48 c7 47 38 00 00 00 	movq   $0x0,0x38(%rdi)
    92a6:	00 
    92a7:	f2 0f 59 d8          	mulsd  %xmm0,%xmm3
    92ab:	48 c7 47 40 00 00 00 	movq   $0x0,0x40(%rdi)
    92b2:	00 
    92b3:	f2 0f 59 d9          	mulsd  %xmm1,%xmm3
    92b7:	f2 0f 58 cc          	addsd  %xmm4,%xmm1
    92bb:	f2 0f 59 c1          	mulsd  %xmm1,%xmm0
    92bf:	66 0f 28 d3          	movapd %xmm3,%xmm2
    92c3:	f2 0f 5c d3          	subsd  %xmm3,%xmm2
    92c7:	f2 0f 59 c1          	mulsd  %xmm1,%xmm0
    92cb:	f2 0f 5e d4          	divsd  %xmm4,%xmm2
    92cf:	f2 0f 5c c3          	subsd  %xmm3,%xmm0
    92d3:	f2 0f 5e c4          	divsd  %xmm4,%xmm0
    92d7:	66 0f 28 ea          	movapd %xmm2,%xmm5
    92db:	f2 0f 58 d2          	addsd  %xmm2,%xmm2
    92df:	f2 0f 58 ee          	addsd  %xmm6,%xmm5
    92e3:	66 0f 28 cd          	movapd %xmm5,%xmm1
    92e7:	f2 0f 11 6f 30       	movsd  %xmm5,0x30(%rdi)
    92ec:	f2 0f 58 c6          	addsd  %xmm6,%xmm0
    92f0:	66 0f 14 d0          	unpcklpd %xmm0,%xmm2
    92f4:	66 0f 14 c8          	unpcklpd %xmm0,%xmm1
    92f8:	66 0f ef c0          	pxor   %xmm0,%xmm0
    92fc:	0f 11 17             	movups %xmm2,(%rdi)
    92ff:	0f 11 4f 10          	movups %xmm1,0x10(%rdi)
    9303:	0f 11 47 20          	movups %xmm0,0x20(%rdi)
    9307:	c3                   	ret    
    9308:	0f 1f 84 00 00 00 00 	nopl   0x0(%rax,%rax,1)
    930f:	00 

0000000000009310 <_Z6stressdddd>:
    9310:	f3 0f 1e fa          	endbr64 
    9314:	66 0f 28 e0          	movapd %xmm0,%xmm4
    9318:	66 0f 28 ea          	movapd %xmm2,%xmm5
    931c:	66 0f ef db          	pxor   %xmm3,%xmm3
    9320:	48 89 f8             	mov    %rdi,%rax
    9323:	f2 0f 10 05 cd 36 00 	movsd  0x36cd(%rip),%xmm0        # c9f8 <_IO_stdin_used+0x9f8>
    932a:	00 
    932b:	f2 0f 10 35 cd 36 00 	movsd  0x36cd(%rip),%xmm6        # ca00 <_IO_stdin_used+0xa00>
    9332:	00 
    9333:	48 c7 47 28 00 00 00 	movq   $0x0,0x28(%rdi)
    933a:	00 
    933b:	48 c7 47 38 00 00 00 	movq   $0x0,0x38(%rdi)
    9342:	00 
    9343:	f2 0f 59 e8          	mulsd  %xmm0,%xmm5
    9347:	f2 0f 59 ea          	mulsd  %xmm2,%xmm5
    934b:	f2 0f 58 d6          	addsd  %xmm6,%xmm2
    934f:	f2 0f 59 c2          	mulsd  %xmm2,%xmm0
    9353:	66 0f 28 cd          	movapd %xmm5,%xmm1
    9357:	f2 0f 5c cd          	subsd  %xmm5,%xmm1
    935b:	f2 0f 59 c2          	mulsd  %xmm2,%xmm0
    935f:	f2 0f 5e ce          	divsd  %xmm6,%xmm1
    9363:	f2 0f 5c c5          	subsd  %xmm5,%xmm0
    9367:	f2 0f 5e c6          	divsd  %xmm6,%xmm0
    936b:	66 0f 28 f9          	movapd %xmm1,%xmm7
    936f:	f2 0f 58 c9          	addsd  %xmm1,%xmm1
    9373:	f2 0f 58 fb          	addsd  %xmm3,%xmm7
    9377:	f2 0f 5c cc          	subsd  %xmm4,%xmm1
    937b:	f2 0f 11 7f 30       	movsd  %xmm7,0x30(%rdi)
    9380:	f2 0f 58 c3          	addsd  %xmm3,%xmm0
    9384:	f2 0f 5c dc          	subsd  %xmm4,%xmm3
    9388:	66 0f 14 c8          	unpcklpd %xmm0,%xmm1
    938c:	f2 0f 11 5f 20       	movsd  %xmm3,0x20(%rdi)
    9391:	0f 11 0f             	movups %xmm1,(%rdi)
    9394:	66 0f 28 cf          	movapd %xmm7,%xmm1
    9398:	66 0f 14 c8          	unpcklpd %xmm0,%xmm1
    939c:	f2 0f 11 5f 40       	movsd  %xmm3,0x40(%rdi)
    93a1:	0f 11 4f 10          	movups %xmm1,0x10(%rdi)
    93a5:	c3                   	ret    
    93a6:	66 2e 0f 1f 84 00 00 	cs nopw 0x0(%rax,%rax,1)
    93ad:	00 00 00 

00000000000093b0 <_Z4diffdddi>:
    93b0:	f3 0f 1e fa          	endbr64 
    93b4:	48 89 f8             	mov    %rdi,%rax
    93b7:	83 fe 02             	cmp    $0x2,%esi
    93ba:	74 3c                	je     93f8 <_Z4diffdddi+0x48>
    93bc:	f2 0f 10 05 34 36 00 	movsd  0x3634(%rip),%xmm0        # c9f8 <_IO_stdin_used+0x9f8>
    93c3:	00 
    93c4:	48 c7 47 08 00 00 00 	movq   $0x0,0x8(%rdi)
    93cb:	00 
    93cc:	48 c7 47 10 00 00 00 	movq   $0x0,0x10(%rdi)
    93d3:	00 
    93d4:	f2 0f 59 c1          	mulsd  %xmm1,%xmm0
    93d8:	f2 0f 59 c1          	mulsd  %xmm1,%xmm0
    93dc:	f2 0f 5c c0          	subsd  %xmm0,%xmm0
    93e0:	f2 0f 5e 05 18 36 00 	divsd  0x3618(%rip),%xmm0        # ca00 <_IO_stdin_used+0xa00>
    93e7:	00 
    93e8:	f2 0f 11 07          	movsd  %xmm0,(%rdi)
    93ec:	83 fe 03             	cmp    $0x3,%esi
    93ef:	75 57                	jne    9448 <_Z4diffdddi+0x98>
    93f1:	c3                   	ret    
    93f2:	66 0f 1f 44 00 00    	nopw   0x0(%rax,%rax,1)
    93f8:	f2 0f 10 1d 00 36 00 	movsd  0x3600(%rip),%xmm3        # ca00 <_IO_stdin_used+0xa00>
    93ff:	00 
    9400:	66 0f 28 e1          	movapd %xmm1,%xmm4
    9404:	f2 0f 10 15 ec 35 00 	movsd  0x35ec(%rip),%xmm2        # c9f8 <_IO_stdin_used+0x9f8>
    940b:	00 
    940c:	48 c7 47 08 00 00 00 	movq   $0x0,0x8(%rdi)
    9413:	00 
    9414:	48 c7 47 10 00 00 00 	movq   $0x0,0x10(%rdi)
    941b:	00 
    941c:	f2 0f 58 e3          	addsd  %xmm3,%xmm4
    9420:	66 0f 28 c4          	movapd %xmm4,%xmm0
    9424:	f2 0f 59 c2          	mulsd  %xmm2,%xmm0
    9428:	f2 0f 59 d1          	mulsd  %xmm1,%xmm2
    942c:	f2 0f 59 c4          	mulsd  %xmm4,%xmm0
    9430:	f2 0f 59 d1          	mulsd  %xmm1,%xmm2
    9434:	f2 0f 5c c2          	subsd  %xmm2,%xmm0
    9438:	f2 0f 5e c3          	divsd  %xmm3,%xmm0
    943c:	f2 0f 11 07          	movsd  %xmm0,(%rdi)
    9440:	c3                   	ret    
    9441:	0f 1f 80 00 00 00 00 	nopl   0x0(%rax)
    9448:	c3                   	ret    
    9449:	0f 1f 80 00 00 00 00 	nopl   0x0(%rax)

0000000000009450 <_Z6shearaPPPPdiii>:
    9450:	f3 0f 1e fa          	endbr64 
    9454:	66 0f ef d2          	pxor   %xmm2,%xmm2
    9458:	f2 0f 10 05 98 35 00 	movsd  0x3598(%rip),%xmm0        # c9f8 <_IO_stdin_used+0x9f8>
    945f:	00 
    9460:	66 0f ef f6          	pxor   %xmm6,%xmm6
    9464:	f2 0f 10 25 94 35 00 	movsd  0x3594(%rip),%xmm4        # ca00 <_IO_stdin_used+0xa00>
    946b:	00 
    946c:	f2 0f 2a d1          	cvtsi2sd %ecx,%xmm2
    9470:	48 c7 47 38 00 00 00 	movq   $0x0,0x38(%rdi)
    9477:	00 
    9478:	48 89 f8             	mov    %rdi,%rax
    947b:	48 c7 47 40 00 00 00 	movq   $0x0,0x40(%rdi)
    9482:	00 
    9483:	66 0f 28 da          	movapd %xmm2,%xmm3
    9487:	f2 0f 59 d8          	mulsd  %xmm0,%xmm3
    948b:	f2 0f 59 da          	mulsd  %xmm2,%xmm3
    948f:	f2 0f 58 d4          	addsd  %xmm4,%xmm2
    9493:	f2 0f 59 c2          	mulsd  %xmm2,%xmm0
    9497:	66 0f 28 cb          	movapd %xmm3,%xmm1
    949b:	f2 0f 5c cb          	subsd  %xmm3,%xmm1
    949f:	f2 0f 59 c2          	mulsd  %xmm2,%xmm0
    94a3:	f2 0f 5e cc          	divsd  %xmm4,%xmm1
    94a7:	f2 0f 5c c3          	subsd  %xmm3,%xmm0
    94ab:	f2 0f 5e c4          	divsd  %xmm4,%xmm0
    94af:	66 0f 28 e9          	movapd %xmm1,%xmm5
    94b3:	f2 0f 58 c9          	addsd  %xmm1,%xmm1
    94b7:	f2 0f 58 ee          	addsd  %xmm6,%xmm5
    94bb:	f2 0f 11 6f 30       	movsd  %xmm5,0x30(%rdi)
    94c0:	f2 0f 58 c6          	addsd  %xmm6,%xmm0
    94c4:	66 0f 14 c8          	unpcklpd %xmm0,%xmm1
    94c8:	0f 11 0f             	movups %xmm1,(%rdi)
    94cb:	66 0f 28 cd          	movapd %xmm5,%xmm1
    94cf:	66 0f 14 c8          	unpcklpd %xmm0,%xmm1
    94d3:	66 0f ef c0          	pxor   %xmm0,%xmm0
    94d7:	0f 11 4f 10          	movups %xmm1,0x10(%rdi)
    94db:	0f 11 47 20          	movups %xmm0,0x20(%rdi)
    94df:	c3                   	ret    

00000000000094e0 <_Z7partdifPPPPdiiiidii>:
    94e0:	f3 0f 1e fa          	endbr64 
    94e4:	48 83 ec 08          	sub    $0x8,%rsp
    94e8:	48 63 c1             	movslq %ecx,%rax
    94eb:	66 0f 28 c8          	movapd %xmm0,%xmm1
    94ef:	8b 4c 24 10          	mov    0x10(%rsp),%ecx
    94f3:	83 f9 01             	cmp    $0x1,%ecx
    94f6:	74 38                	je     9530 <_Z7partdifPPPPdiiiidii+0x50>
    94f8:	83 f9 02             	cmp    $0x2,%ecx
    94fb:	0f 84 ef 00 00 00    	je     95f0 <_Z7partdifPPPPdiiiidii+0x110>
    9501:	85 c9                	test   %ecx,%ecx
    9503:	0f 84 87 00 00 00    	je     9590 <_Z7partdifPPPPdiiiidii+0xb0>
    9509:	48 8d 3d 30 5b 00 00 	lea    0x5b30(%rip),%rdi        # f040 <_ZSt4cout@GLIBCXX_3.4>
    9510:	ba 05 00 00 00       	mov    $0x5,%edx
    9515:	48 8d 35 d4 34 00 00 	lea    0x34d4(%rip),%rsi        # c9f0 <_IO_stdin_used+0x9f0>
    951c:	e8 bf 90 ff ff       	call   25e0 <_ZSt16__ostream_insertIcSt11char_traitsIcEERSt13basic_ostreamIT_T0_ES6_PKS3_l@plt>
    9521:	bf 01 00 00 00       	mov    $0x1,%edi
    9526:	e8 05 91 ff ff       	call   2630 <exit@plt>
    952b:	0f 1f 44 00 00       	nopl   0x0(%rax,%rax,1)
    9530:	4d 63 c9             	movslq %r9d,%r9
    9533:	48 63 f6             	movslq %esi,%rsi
    9536:	4a 8b 0c cf          	mov    (%rdi,%r9,8),%rcx
    953a:	48 63 fa             	movslq %edx,%rdi
    953d:	48 8b 0c f1          	mov    (%rcx,%rsi,8),%rcx
    9541:	48 8d 34 fd 00 00 00 	lea    0x0(,%rdi,8),%rsi
    9548:	00 
    9549:	85 d2                	test   %edx,%edx
    954b:	0f 8e 4f 01 00 00    	jle    96a0 <_Z7partdifPPPPdiiiidii+0x1c0>
    9551:	4c 8b 4c 31 f8       	mov    -0x8(%rcx,%rsi,1),%r9
    9556:	41 83 e8 01          	sub    $0x1,%r8d
    955a:	f2 41 0f 10 14 c1    	movsd  (%r9,%rax,8),%xmm2
    9560:	41 39 d0             	cmp    %edx,%r8d
    9563:	0f 8e f7 01 00 00    	jle    9760 <_Z7partdifPPPPdiiiidii+0x280>
    9569:	48 8b 54 31 08       	mov    0x8(%rcx,%rsi,1),%rdx
    956e:	f2 0f 10 04 c2       	movsd  (%rdx,%rax,8),%xmm0
    9573:	f2 0f 5c c2          	subsd  %xmm2,%xmm0
    9577:	f2 0f 59 05 31 33 00 	mulsd  0x3331(%rip),%xmm0        # c8b0 <_IO_stdin_used+0x8b0>
    957e:	00 
    957f:	f2 0f 5e c1          	divsd  %xmm1,%xmm0
    9583:	e9 b9 00 00 00       	jmp    9641 <_Z7partdifPPPPdiiiidii+0x161>
    9588:	0f 1f 84 00 00 00 00 	nopl   0x0(%rax,%rax,1)
    958f:	00 
    9590:	4d 63 c9             	movslq %r9d,%r9
    9593:	48 63 d2             	movslq %edx,%rdx
    9596:	4a 8b 0c cf          	mov    (%rdi,%r9,8),%rcx
    959a:	4c 63 ce             	movslq %esi,%r9
    959d:	4a 8d 3c cd 00 00 00 	lea    0x0(,%r9,8),%rdi
    95a4:	00 
    95a5:	85 f6                	test   %esi,%esi
    95a7:	0f 8e a3 00 00 00    	jle    9650 <_Z7partdifPPPPdiiiidii+0x170>
    95ad:	4c 8b 54 39 f8       	mov    -0x8(%rcx,%rdi,1),%r10
    95b2:	41 83 e8 01          	sub    $0x1,%r8d
    95b6:	4d 8b 14 d2          	mov    (%r10,%rdx,8),%r10
    95ba:	f2 41 0f 10 14 c2    	movsd  (%r10,%rax,8),%xmm2
    95c0:	41 39 f0             	cmp    %esi,%r8d
    95c3:	0f 8e 57 01 00 00    	jle    9720 <_Z7partdifPPPPdiiiidii+0x240>
    95c9:	48 8b 4c 39 08       	mov    0x8(%rcx,%rdi,1),%rcx
    95ce:	48 8b 14 d1          	mov    (%rcx,%rdx,8),%rdx
    95d2:	f2 0f 10 04 c2       	movsd  (%rdx,%rax,8),%xmm0
    95d7:	f2 0f 5c c2          	subsd  %xmm2,%xmm0
    95db:	f2 0f 59 05 cd 32 00 	mulsd  0x32cd(%rip),%xmm0        # c8b0 <_IO_stdin_used+0x8b0>
    95e2:	00 
    95e3:	f2 0f 5e c1          	divsd  %xmm1,%xmm0
    95e7:	eb 58                	jmp    9641 <_Z7partdifPPPPdiiiidii+0x161>
    95e9:	0f 1f 80 00 00 00 00 	nopl   0x0(%rax)
    95f0:	4d 63 c9             	movslq %r9d,%r9
    95f3:	48 63 f6             	movslq %esi,%rsi
    95f6:	48 63 d2             	movslq %edx,%rdx
    95f9:	4a 8b 0c cf          	mov    (%rdi,%r9,8),%rcx
    95fd:	48 8b 0c f1          	mov    (%rcx,%rsi,8),%rcx
    9601:	48 63 f0             	movslq %eax,%rsi
    9604:	48 8b 14 d1          	mov    (%rcx,%rdx,8),%rdx
    9608:	48 8d 0c f5 00 00 00 	lea    0x0(,%rsi,8),%rcx
    960f:	00 
    9610:	85 c0                	test   %eax,%eax
    9612:	0f 8e d0 00 00 00    	jle    96e8 <_Z7partdifPPPPdiiiidii+0x208>
    9618:	41 83 e8 01          	sub    $0x1,%r8d
    961c:	f2 0f 10 54 0a f8    	movsd  -0x8(%rdx,%rcx,1),%xmm2
    9622:	41 39 c0             	cmp    %eax,%r8d
    9625:	0f 8e 75 01 00 00    	jle    97a0 <_Z7partdifPPPPdiiiidii+0x2c0>
    962b:	f2 0f 10 44 0a 08    	movsd  0x8(%rdx,%rcx,1),%xmm0
    9631:	f2 0f 5c c2          	subsd  %xmm2,%xmm0
    9635:	f2 0f 59 05 73 32 00 	mulsd  0x3273(%rip),%xmm0        # c8b0 <_IO_stdin_used+0x8b0>
    963c:	00 
    963d:	f2 0f 5e c1          	divsd  %xmm1,%xmm0
    9641:	48 83 c4 08          	add    $0x8,%rsp
    9645:	c3                   	ret    
    9646:	66 2e 0f 1f 84 00 00 	cs nopw 0x0(%rax,%rax,1)
    964d:	00 00 00 
    9650:	48 8b 74 39 08       	mov    0x8(%rcx,%rdi,1),%rsi
    9655:	f2 0f 10 05 9b 33 00 	movsd  0x339b(%rip),%xmm0        # c9f8 <_IO_stdin_used+0x9f8>
    965c:	00 
    965d:	f2 0f 10 15 ab 33 00 	movsd  0x33ab(%rip),%xmm2        # ca10 <_IO_stdin_used+0xa10>
    9664:	00 
    9665:	48 8b 34 d6          	mov    (%rsi,%rdx,8),%rsi
    9669:	f2 0f 59 04 c6       	mulsd  (%rsi,%rax,8),%xmm0
    966e:	4a 8b 34 c9          	mov    (%rcx,%r9,8),%rsi
    9672:	48 8b 4c 39 10       	mov    0x10(%rcx,%rdi,1),%rcx
    9677:	48 8b 34 d6          	mov    (%rsi,%rdx,8),%rsi
    967b:	48 8b 14 d1          	mov    (%rcx,%rdx,8),%rdx
    967f:	f2 0f 59 14 c6       	mulsd  (%rsi,%rax,8),%xmm2
    9684:	f2 0f 58 c2          	addsd  %xmm2,%xmm0
    9688:	f2 0f 5c 04 c2       	subsd  (%rdx,%rax,8),%xmm0
    968d:	f2 0f 59 05 1b 32 00 	mulsd  0x321b(%rip),%xmm0        # c8b0 <_IO_stdin_used+0x8b0>
    9694:	00 
    9695:	48 83 c4 08          	add    $0x8,%rsp
    9699:	f2 0f 5e c1          	divsd  %xmm1,%xmm0
    969d:	c3                   	ret    
    969e:	66 90                	xchg   %ax,%ax
    96a0:	48 8b 54 31 08       	mov    0x8(%rcx,%rsi,1),%rdx
    96a5:	f2 0f 10 05 4b 33 00 	movsd  0x334b(%rip),%xmm0        # c9f8 <_IO_stdin_used+0x9f8>
    96ac:	00 
    96ad:	f2 0f 10 15 5b 33 00 	movsd  0x335b(%rip),%xmm2        # ca10 <_IO_stdin_used+0xa10>
    96b4:	00 
    96b5:	f2 0f 59 04 c2       	mulsd  (%rdx,%rax,8),%xmm0
    96ba:	48 8b 14 f9          	mov    (%rcx,%rdi,8),%rdx
    96be:	f2 0f 59 14 c2       	mulsd  (%rdx,%rax,8),%xmm2
    96c3:	48 8b 54 31 10       	mov    0x10(%rcx,%rsi,1),%rdx
    96c8:	f2 0f 58 c2          	addsd  %xmm2,%xmm0
    96cc:	f2 0f 5c 04 c2       	subsd  (%rdx,%rax,8),%xmm0
    96d1:	f2 0f 59 05 d7 31 00 	mulsd  0x31d7(%rip),%xmm0        # c8b0 <_IO_stdin_used+0x8b0>
    96d8:	00 
    96d9:	48 83 c4 08          	add    $0x8,%rsp
    96dd:	f2 0f 5e c1          	divsd  %xmm1,%xmm0
    96e1:	c3                   	ret    
    96e2:	66 0f 1f 44 00 00    	nopw   0x0(%rax,%rax,1)
    96e8:	f2 0f 10 05 08 33 00 	movsd  0x3308(%rip),%xmm0        # c9f8 <_IO_stdin_used+0x9f8>
    96ef:	00 
    96f0:	f2 0f 10 15 18 33 00 	movsd  0x3318(%rip),%xmm2        # ca10 <_IO_stdin_used+0xa10>
    96f7:	00 
    96f8:	f2 0f 59 44 0a 08    	mulsd  0x8(%rdx,%rcx,1),%xmm0
    96fe:	f2 0f 59 14 f2       	mulsd  (%rdx,%rsi,8),%xmm2
    9703:	f2 0f 58 c2          	addsd  %xmm2,%xmm0
    9707:	f2 0f 5c 44 0a 10    	subsd  0x10(%rdx,%rcx,1),%xmm0
    970d:	f2 0f 59 05 9b 31 00 	mulsd  0x319b(%rip),%xmm0        # c8b0 <_IO_stdin_used+0x8b0>
    9714:	00 
    9715:	48 83 c4 08          	add    $0x8,%rsp
    9719:	f2 0f 5e c1          	divsd  %xmm1,%xmm0
    971d:	c3                   	ret    
    971e:	66 90                	xchg   %ax,%ax
    9720:	4a 8b 34 c9          	mov    (%rcx,%r9,8),%rsi
    9724:	f2 0f 59 15 cc 32 00 	mulsd  0x32cc(%rip),%xmm2        # c9f8 <_IO_stdin_used+0x9f8>
    972b:	00 
    972c:	f2 0f 10 05 d4 32 00 	movsd  0x32d4(%rip),%xmm0        # ca08 <_IO_stdin_used+0xa08>
    9733:	00 
    9734:	48 8b 4c 39 f0       	mov    -0x10(%rcx,%rdi,1),%rcx
    9739:	48 8b 34 d6          	mov    (%rsi,%rdx,8),%rsi
    973d:	48 8b 14 d1          	mov    (%rcx,%rdx,8),%rdx
    9741:	f2 0f 59 04 c6       	mulsd  (%rsi,%rax,8),%xmm0
    9746:	f2 0f 5c c2          	subsd  %xmm2,%xmm0
    974a:	f2 0f 58 04 c2       	addsd  (%rdx,%rax,8),%xmm0
    974f:	f2 0f 59 05 59 31 00 	mulsd  0x3159(%rip),%xmm0        # c8b0 <_IO_stdin_used+0x8b0>
    9756:	00 
    9757:	f2 0f 5e c1          	divsd  %xmm1,%xmm0
    975b:	e9 e1 fe ff ff       	jmp    9641 <_Z7partdifPPPPdiiiidii+0x161>
    9760:	48 8b 14 f9          	mov    (%rcx,%rdi,8),%rdx
    9764:	f2 0f 59 15 8c 32 00 	mulsd  0x328c(%rip),%xmm2        # c9f8 <_IO_stdin_used+0x9f8>
    976b:	00 
    976c:	f2 0f 10 05 94 32 00 	movsd  0x3294(%rip),%xmm0        # ca08 <_IO_stdin_used+0xa08>
    9773:	00 
    9774:	f2 0f 59 04 c2       	mulsd  (%rdx,%rax,8),%xmm0
    9779:	48 8b 54 31 f0       	mov    -0x10(%rcx,%rsi,1),%rdx
    977e:	f2 0f 5c c2          	subsd  %xmm2,%xmm0
    9782:	f2 0f 58 04 c2       	addsd  (%rdx,%rax,8),%xmm0
    9787:	f2 0f 59 05 21 31 00 	mulsd  0x3121(%rip),%xmm0        # c8b0 <_IO_stdin_used+0x8b0>
    978e:	00 
    978f:	f2 0f 5e c1          	divsd  %xmm1,%xmm0
    9793:	e9 a9 fe ff ff       	jmp    9641 <_Z7partdifPPPPdiiiidii+0x161>
    9798:	0f 1f 84 00 00 00 00 	nopl   0x0(%rax,%rax,1)
    979f:	00 
    97a0:	f2 0f 59 15 50 32 00 	mulsd  0x3250(%rip),%xmm2        # c9f8 <_IO_stdin_used+0x9f8>
    97a7:	00 
    97a8:	f2 0f 10 05 58 32 00 	movsd  0x3258(%rip),%xmm0        # ca08 <_IO_stdin_used+0xa08>
    97af:	00 
    97b0:	f2 0f 59 04 f2       	mulsd  (%rdx,%rsi,8),%xmm0
    97b5:	f2 0f 5c c2          	subsd  %xmm2,%xmm0
    97b9:	f2 0f 58 44 0a f0    	addsd  -0x10(%rdx,%rcx,1),%xmm0
    97bf:	f2 0f 59 05 e9 30 00 	mulsd  0x30e9(%rip),%xmm0        # c8b0 <_IO_stdin_used+0x8b0>
    97c6:	00 
    97c7:	f2 0f 5e c1          	divsd  %xmm1,%xmm0
    97cb:	e9 71 fe ff ff       	jmp    9641 <_Z7partdifPPPPdiiiidii+0x161>

00000000000097d0 <_Z9divtenallPPP6tensorid>:
    97d0:	f3 0f 1e fa          	endbr64 
    97d4:	41 57                	push   %r15
    97d6:	89 f1                	mov    %esi,%ecx
    97d8:	41 89 f7             	mov    %esi,%r15d
    97db:	89 f2                	mov    %esi,%edx
    97dd:	41 56                	push   %r14
    97df:	41 55                	push   %r13
    97e1:	41 54                	push   %r12
    97e3:	55                   	push   %rbp
    97e4:	53                   	push   %rbx
    97e5:	48 81 ec e8 00 00 00 	sub    $0xe8,%rsp
    97ec:	48 89 bc 24 a8 00 00 	mov    %rdi,0xa8(%rsp)
    97f3:	00 
    97f4:	bf 09 00 00 00       	mov    $0x9,%edi
    97f9:	f2 0f 11 44 24 20    	movsd  %xmm0,0x20(%rsp)
    97ff:	64 48 8b 04 25 28 00 	mov    %fs:0x28,%rax
    9806:	00 00 
    9808:	48 89 84 24 d8 00 00 	mov    %rax,0xd8(%rsp)
    980f:	00 
    9810:	31 c0                	xor    %eax,%eax
    9812:	e8 b9 f7 ff ff       	call   8fd0 <_Z10allocate4djjjj>
    9817:	45 85 ff             	test   %r15d,%r15d
    981a:	0f 8e e8 03 00 00    	jle    9c08 <_Z9divtenallPPP6tensorid+0x438>
    9820:	48 89 c3             	mov    %rax,%rbx
    9823:	41 8d 47 ff          	lea    -0x1(%r15),%eax
    9827:	48 c7 44 24 58 00 00 	movq   $0x0,0x58(%rsp)
    982e:	00 00 
    9830:	48 89 44 24 30       	mov    %rax,0x30(%rsp)
    9835:	4c 8d 34 c5 08 00 00 	lea    0x8(,%rax,8),%r14
    983c:	00 
    983d:	48 8b 03             	mov    (%rbx),%rax
    9840:	48 89 9c 24 b0 00 00 	mov    %rbx,0xb0(%rsp)
    9847:	00 
    9848:	48 89 44 24 78       	mov    %rax,0x78(%rsp)
    984d:	48 8b 43 08          	mov    0x8(%rbx),%rax
    9851:	44 89 bc 24 bc 00 00 	mov    %r15d,0xbc(%rsp)
    9858:	00 
    9859:	48 89 84 24 80 00 00 	mov    %rax,0x80(%rsp)
    9860:	00 
    9861:	48 8b 43 10          	mov    0x10(%rbx),%rax
    9865:	48 89 84 24 88 00 00 	mov    %rax,0x88(%rsp)
    986c:	00 
    986d:	48 8b 43 18          	mov    0x18(%rbx),%rax
    9871:	48 89 84 24 90 00 00 	mov    %rax,0x90(%rsp)
    9878:	00 
    9879:	48 8b 43 20          	mov    0x20(%rbx),%rax
    987d:	48 89 84 24 98 00 00 	mov    %rax,0x98(%rsp)
    9884:	00 
    9885:	48 8b 43 28          	mov    0x28(%rbx),%rax
    9889:	48 89 84 24 a0 00 00 	mov    %rax,0xa0(%rsp)
    9890:	00 
    9891:	48 8b 43 30          	mov    0x30(%rbx),%rax
    9895:	48 89 44 24 68       	mov    %rax,0x68(%rsp)
    989a:	48 8b 43 38          	mov    0x38(%rbx),%rax
    989e:	48 89 44 24 60       	mov    %rax,0x60(%rsp)
    98a3:	48 8b 43 40          	mov    0x40(%rbx),%rax
    98a7:	48 89 44 24 70       	mov    %rax,0x70(%rsp)
    98ac:	48 8b 44 24 58       	mov    0x58(%rsp),%rax
    98b1:	48 8b 8c 24 a8 00 00 	mov    0xa8(%rsp),%rcx
    98b8:	00 
    98b9:	4c 8b 3c 01          	mov    (%rcx,%rax,1),%r15
    98bd:	48 8b 4c 24 78       	mov    0x78(%rsp),%rcx
    98c2:	4c 8b 2c 01          	mov    (%rcx,%rax,1),%r13
    98c6:	48 8b 8c 24 80 00 00 	mov    0x80(%rsp),%rcx
    98cd:	00 
    98ce:	48 8b 0c 01          	mov    (%rcx,%rax,1),%rcx
    98d2:	48 89 4c 24 28       	mov    %rcx,0x28(%rsp)
    98d7:	48 8b 8c 24 88 00 00 	mov    0x88(%rsp),%rcx
    98de:	00 
    98df:	48 8b 0c 01          	mov    (%rcx,%rax,1),%rcx
    98e3:	48 89 4c 24 38       	mov    %rcx,0x38(%rsp)
    98e8:	48 8b 8c 24 90 00 00 	mov    0x90(%rsp),%rcx
    98ef:	00 
    98f0:	48 8b 0c 01          	mov    (%rcx,%rax,1),%rcx
    98f4:	48 89 4c 24 40       	mov    %rcx,0x40(%rsp)
    98f9:	48 8b 8c 24 98 00 00 	mov    0x98(%rsp),%rcx
    9900:	00 
    9901:	48 8b 0c 01          	mov    (%rcx,%rax,1),%rcx
    9905:	48 89 4c 24 48       	mov    %rcx,0x48(%rsp)
    990a:	48 8b 8c 24 a0 00 00 	mov    0xa0(%rsp),%rcx
    9911:	00 
    9912:	48 8b 0c 01          	mov    (%rcx,%rax,1),%rcx
    9916:	48 89 4c 24 50       	mov    %rcx,0x50(%rsp)
    991b:	48 8b 4c 24 68       	mov    0x68(%rsp),%rcx
    9920:	48 8b 0c 01          	mov    (%rcx,%rax,1),%rcx
    9924:	48 89 4c 24 10       	mov    %rcx,0x10(%rsp)
    9929:	48 8b 4c 24 60       	mov    0x60(%rsp),%rcx
    992e:	48 8b 0c 01          	mov    (%rcx,%rax,1),%rcx
    9932:	48 89 4c 24 08       	mov    %rcx,0x8(%rsp)
    9937:	48 8b 4c 24 70       	mov    0x70(%rsp),%rcx
    993c:	48 8b 04 01          	mov    (%rcx,%rax,1),%rax
    9940:	31 c9                	xor    %ecx,%ecx
    9942:	48 89 44 24 18       	mov    %rax,0x18(%rsp)
    9947:	66 0f 1f 84 00 00 00 	nopw   0x0(%rax,%rax,1)
    994e:	00 00 
    9950:	48 8b 44 24 28       	mov    0x28(%rsp),%rax
    9955:	49 8b 14 0f          	mov    (%r15,%rcx,1),%rdx
    9959:	4d 8b 64 0d 00       	mov    0x0(%r13,%rcx,1),%r12
    995e:	48 8b 2c 08          	mov    (%rax,%rcx,1),%rbp
    9962:	48 8b 44 24 38       	mov    0x38(%rsp),%rax
    9967:	48 8b 1c 08          	mov    (%rax,%rcx,1),%rbx
    996b:	48 8b 44 24 40       	mov    0x40(%rsp),%rax
    9970:	4c 8b 1c 08          	mov    (%rax,%rcx,1),%r11
    9974:	48 8b 44 24 48       	mov    0x48(%rsp),%rax
    9979:	4c 8b 14 08          	mov    (%rax,%rcx,1),%r10
    997d:	48 8b 44 24 50       	mov    0x50(%rsp),%rax
    9982:	4c 8b 0c 08          	mov    (%rax,%rcx,1),%r9
    9986:	48 8b 44 24 10       	mov    0x10(%rsp),%rax
    998b:	4c 8b 04 08          	mov    (%rax,%rcx,1),%r8
    998f:	48 8b 44 24 08       	mov    0x8(%rsp),%rax
    9994:	48 8b 3c 08          	mov    (%rax,%rcx,1),%rdi
    9998:	48 8b 44 24 18       	mov    0x18(%rsp),%rax
    999d:	48 8b 34 08          	mov    (%rax,%rcx,1),%rsi
    99a1:	31 c0                	xor    %eax,%eax
    99a3:	0f 1f 44 00 00       	nopl   0x0(%rax,%rax,1)
    99a8:	f2 0f 10 02          	movsd  (%rdx),%xmm0
    99ac:	48 83 c2 48          	add    $0x48,%rdx
    99b0:	f2 41 0f 11 04 04    	movsd  %xmm0,(%r12,%rax,1)
    99b6:	f2 0f 10 42 c0       	movsd  -0x40(%rdx),%xmm0
    99bb:	f2 0f 11 44 05 00    	movsd  %xmm0,0x0(%rbp,%rax,1)
    99c1:	f2 0f 10 42 c8       	movsd  -0x38(%rdx),%xmm0
    99c6:	f2 0f 11 04 03       	movsd  %xmm0,(%rbx,%rax,1)
    99cb:	f2 0f 10 42 d0       	movsd  -0x30(%rdx),%xmm0
    99d0:	f2 41 0f 11 04 03    	movsd  %xmm0,(%r11,%rax,1)
    99d6:	f2 0f 10 42 d8       	movsd  -0x28(%rdx),%xmm0
    99db:	f2 41 0f 11 04 02    	movsd  %xmm0,(%r10,%rax,1)
    99e1:	f2 0f 10 42 e0       	movsd  -0x20(%rdx),%xmm0
    99e6:	f2 41 0f 11 04 01    	movsd  %xmm0,(%r9,%rax,1)
    99ec:	f2 0f 10 42 e8       	movsd  -0x18(%rdx),%xmm0
    99f1:	f2 41 0f 11 04 00    	movsd  %xmm0,(%r8,%rax,1)
    99f7:	f2 0f 10 42 f0       	movsd  -0x10(%rdx),%xmm0
    99fc:	f2 0f 11 04 07       	movsd  %xmm0,(%rdi,%rax,1)
    9a01:	f2 0f 10 42 f8       	movsd  -0x8(%rdx),%xmm0
    9a06:	f2 0f 11 04 06       	movsd  %xmm0,(%rsi,%rax,1)
    9a0b:	48 83 c0 08          	add    $0x8,%rax
    9a0f:	4c 39 f0             	cmp    %r14,%rax
    9a12:	75 94                	jne    99a8 <_Z9divtenallPPP6tensorid+0x1d8>
    9a14:	48 83 c1 08          	add    $0x8,%rcx
    9a18:	48 39 c8             	cmp    %rcx,%rax
    9a1b:	0f 85 2f ff ff ff    	jne    9950 <_Z9divtenallPPP6tensorid+0x180>
    9a21:	48 83 44 24 58 08    	addq   $0x8,0x58(%rsp)
    9a27:	48 8b 4c 24 58       	mov    0x58(%rsp),%rcx
    9a2c:	48 39 c8             	cmp    %rcx,%rax
    9a2f:	0f 85 77 fe ff ff    	jne    98ac <_Z9divtenallPPP6tensorid+0xdc>
    9a35:	44 8b bc 24 bc 00 00 	mov    0xbc(%rsp),%r15d
    9a3c:	00 
    9a3d:	48 8b 9c 24 b0 00 00 	mov    0xb0(%rsp),%rbx
    9a44:	00 
    9a45:	44 89 fa             	mov    %r15d,%edx
    9a48:	44 89 fe             	mov    %r15d,%esi
    9a4b:	44 89 ff             	mov    %r15d,%edi
    9a4e:	45 89 fe             	mov    %r15d,%r14d
    9a51:	e8 9a f6 ff ff       	call   90f0 <_Z11allocate3dvjjj>
    9a56:	49 89 df             	mov    %rbx,%r15
    9a59:	48 c7 44 24 40 00 00 	movq   $0x0,0x40(%rsp)
    9a60:	00 00 
    9a62:	48 89 44 24 48       	mov    %rax,0x48(%rsp)
    9a67:	48 8d 84 24 c0 00 00 	lea    0xc0(%rsp),%rax
    9a6e:	00 
    9a6f:	48 89 44 24 50       	mov    %rax,0x50(%rsp)
    9a74:	48 c7 44 24 58 00 00 	movq   $0x0,0x58(%rsp)
    9a7b:	00 00 
    9a7d:	8b 44 24 40          	mov    0x40(%rsp),%eax
    9a81:	44 89 f3             	mov    %r14d,%ebx
    9a84:	89 44 24 18          	mov    %eax,0x18(%rsp)
    9a88:	48 8b 44 24 58       	mov    0x58(%rsp),%rax
    9a8d:	0f 1f 00             	nopl   (%rax)
    9a90:	48 c7 44 24 28 00 00 	movq   $0x0,0x28(%rsp)
    9a97:	00 00 
    9a99:	41 89 c5             	mov    %eax,%r13d
    9a9c:	48 c1 e0 03          	shl    $0x3,%rax
    9aa0:	89 dd                	mov    %ebx,%ebp
    9aa2:	48 89 44 24 38       	mov    %rax,0x38(%rsp)
    9aa7:	66 0f 1f 84 00 00 00 	nopw   0x0(%rax,%rax,1)
    9aae:	00 00 
    9ab0:	4c 8b 64 24 50       	mov    0x50(%rsp),%r12
    9ab5:	44 8b 74 24 28       	mov    0x28(%rsp),%r14d
    9aba:	66 0f ef c9          	pxor   %xmm1,%xmm1
    9abe:	48 c7 84 24 d0 00 00 	movq   $0x0,0xd0(%rsp)
    9ac5:	00 00 00 00 00 
    9aca:	c7 44 24 08 03 00 00 	movl   $0x3,0x8(%rsp)
    9ad1:	00 
    9ad2:	4c 89 e3             	mov    %r12,%rbx
    9ad5:	0f 29 8c 24 c0 00 00 	movaps %xmm1,0xc0(%rsp)
    9adc:	00 
    9add:	41 89 ec             	mov    %ebp,%r12d
    9ae0:	44 89 f5             	mov    %r14d,%ebp
    9ae3:	8b 44 24 08          	mov    0x8(%rsp),%eax
    9ae7:	41 be 01 00 00 00    	mov    $0x1,%r14d
    9aed:	83 e8 04             	sub    $0x4,%eax
    9af0:	89 44 24 10          	mov    %eax,0x10(%rsp)
    9af4:	44 89 e0             	mov    %r12d,%eax
    9af7:	41 89 ec             	mov    %ebp,%r12d
    9afa:	89 c5                	mov    %eax,%ebp
    9afc:	48 83 ec 08          	sub    $0x8,%rsp
    9b00:	44 89 ea             	mov    %r13d,%edx
    9b03:	41 89 e8             	mov    %ebp,%r8d
    9b06:	44 89 e1             	mov    %r12d,%ecx
    9b09:	41 56                	push   %r14
    9b0b:	8b 44 24 20          	mov    0x20(%rsp),%eax
    9b0f:	4c 89 ff             	mov    %r15,%rdi
    9b12:	f2 0f 10 44 24 30    	movsd  0x30(%rsp),%xmm0
    9b18:	8b 74 24 28          	mov    0x28(%rsp),%esi
    9b1c:	46 8d 0c 30          	lea    (%rax,%r14,1),%r9d
    9b20:	41 83 c6 01          	add    $0x1,%r14d
    9b24:	e8 b7 f9 ff ff       	call   94e0 <_Z7partdifPPPPdiiiidii>
    9b29:	f2 0f 58 03          	addsd  (%rbx),%xmm0
    9b2d:	f2 0f 11 03          	movsd  %xmm0,(%rbx)
    9b31:	58                   	pop    %rax
    9b32:	5a                   	pop    %rdx
    9b33:	41 83 fe 04          	cmp    $0x4,%r14d
    9b37:	75 c3                	jne    9afc <_Z9divtenallPPP6tensorid+0x32c>
    9b39:	89 e8                	mov    %ebp,%eax
    9b3b:	83 44 24 08 03       	addl   $0x3,0x8(%rsp)
    9b40:	44 89 e5             	mov    %r12d,%ebp
    9b43:	48 83 c3 08          	add    $0x8,%rbx
    9b47:	41 89 c4             	mov    %eax,%r12d
    9b4a:	8b 44 24 08          	mov    0x8(%rsp),%eax
    9b4e:	83 f8 0c             	cmp    $0xc,%eax
    9b51:	75 90                	jne    9ae3 <_Z9divtenallPPP6tensorid+0x313>
    9b53:	48 8b 44 24 48       	mov    0x48(%rsp),%rax
    9b58:	48 8b 7c 24 40       	mov    0x40(%rsp),%rdi
    9b5d:	44 89 e5             	mov    %r12d,%ebp
    9b60:	48 8b 4c 24 38       	mov    0x38(%rsp),%rcx
    9b65:	48 8b 74 24 28       	mov    0x28(%rsp),%rsi
    9b6a:	66 0f 28 94 24 c0 00 	movapd 0xc0(%rsp),%xmm2
    9b71:	00 00 
    9b73:	48 8b 04 f8          	mov    (%rax,%rdi,8),%rax
    9b77:	f2 0f 10 84 24 d0 00 	movsd  0xd0(%rsp),%xmm0
    9b7e:	00 00 
    9b80:	48 8d 14 76          	lea    (%rsi,%rsi,2),%rdx
    9b84:	48 8b 04 08          	mov    (%rax,%rcx,1),%rax
    9b88:	48 8d 04 d0          	lea    (%rax,%rdx,8),%rax
    9b8c:	0f 11 10             	movups %xmm2,(%rax)
    9b8f:	f2 0f 11 40 10       	movsd  %xmm0,0x10(%rax)
    9b94:	48 8d 46 01          	lea    0x1(%rsi),%rax
    9b98:	48 39 74 24 30       	cmp    %rsi,0x30(%rsp)
    9b9d:	74 0a                	je     9ba9 <_Z9divtenallPPP6tensorid+0x3d9>
    9b9f:	48 89 44 24 28       	mov    %rax,0x28(%rsp)
    9ba4:	e9 07 ff ff ff       	jmp    9ab0 <_Z9divtenallPPP6tensorid+0x2e0>
    9ba9:	48 8b 4c 24 58       	mov    0x58(%rsp),%rcx
    9bae:	44 89 e3             	mov    %r12d,%ebx
    9bb1:	48 8d 41 01          	lea    0x1(%rcx),%rax
    9bb5:	48 3b 4c 24 30       	cmp    0x30(%rsp),%rcx
    9bba:	74 0a                	je     9bc6 <_Z9divtenallPPP6tensorid+0x3f6>
    9bbc:	48 89 44 24 58       	mov    %rax,0x58(%rsp)
    9bc1:	e9 ca fe ff ff       	jmp    9a90 <_Z9divtenallPPP6tensorid+0x2c0>
    9bc6:	45 89 e6             	mov    %r12d,%r14d
    9bc9:	48 8d 47 01          	lea    0x1(%rdi),%rax
    9bcd:	48 3b 7c 24 30       	cmp    0x30(%rsp),%rdi
    9bd2:	74 0a                	je     9bde <_Z9divtenallPPP6tensorid+0x40e>
    9bd4:	48 89 44 24 40       	mov    %rax,0x40(%rsp)
    9bd9:	e9 96 fe ff ff       	jmp    9a74 <_Z9divtenallPPP6tensorid+0x2a4>
    9bde:	48 8b 84 24 d8 00 00 	mov    0xd8(%rsp),%rax
    9be5:	00 
    9be6:	64 48 2b 04 25 28 00 	sub    %fs:0x28,%rax
    9bed:	00 00 
    9bef:	75 49                	jne    9c3a <_Z9divtenallPPP6tensorid+0x46a>
    9bf1:	48 8b 44 24 48       	mov    0x48(%rsp),%rax
    9bf6:	48 81 c4 e8 00 00 00 	add    $0xe8,%rsp
    9bfd:	5b                   	pop    %rbx
    9bfe:	5d                   	pop    %rbp
    9bff:	41 5c                	pop    %r12
    9c01:	41 5d                	pop    %r13
    9c03:	41 5e                	pop    %r14
    9c05:	41 5f                	pop    %r15
    9c07:	c3                   	ret    
    9c08:	48 8b 84 24 d8 00 00 	mov    0xd8(%rsp),%rax
    9c0f:	00 
    9c10:	64 48 2b 04 25 28 00 	sub    %fs:0x28,%rax
    9c17:	00 00 
    9c19:	75 1f                	jne    9c3a <_Z9divtenallPPP6tensorid+0x46a>
    9c1b:	48 81 c4 e8 00 00 00 	add    $0xe8,%rsp
    9c22:	44 89 fa             	mov    %r15d,%edx
    9c25:	44 89 fe             	mov    %r15d,%esi
    9c28:	44 89 ff             	mov    %r15d,%edi
    9c2b:	5b                   	pop    %rbx
    9c2c:	5d                   	pop    %rbp
    9c2d:	41 5c                	pop    %r12
    9c2f:	41 5d                	pop    %r13
    9c31:	41 5e                	pop    %r14
    9c33:	41 5f                	pop    %r15
    9c35:	e9 b6 f4 ff ff       	jmp    90f0 <_Z11allocate3dvjjj>
    9c3a:	e8 91 89 ff ff       	call   25d0 <__stack_chk_fail@plt>
    9c3f:	90                   	nop

0000000000009c40 <_Z8velocityddd>:
    9c40:	f3 0f 1e fa          	endbr64 
    9c44:	f2 0f 10 05 ac 2d 00 	movsd  0x2dac(%rip),%xmm0        # c9f8 <_IO_stdin_used+0x9f8>
    9c4b:	00 
    9c4c:	48 c7 47 08 00 00 00 	movq   $0x0,0x8(%rdi)
    9c53:	00 
    9c54:	48 89 f8             	mov    %rdi,%rax
    9c57:	48 c7 47 10 00 00 00 	movq   $0x0,0x10(%rdi)
    9c5e:	00 
    9c5f:	f2 0f 59 c1          	mulsd  %xmm1,%xmm0
    9c63:	f2 0f 59 c1          	mulsd  %xmm1,%xmm0
    9c67:	f2 0f 11 07          	movsd  %xmm0,(%rdi)
    9c6b:	c3                   	ret    
    9c6c:	0f 1f 40 00          	nopl   0x0(%rax)

0000000000009c70 <_Z10divvadvecvPPPPddddid>:
    9c70:	f3 0f 1e fa          	endbr64 
    9c74:	41 57                	push   %r15
    9c76:	41 89 f0             	mov    %esi,%r8d
    9c79:	41 56                	push   %r14
    9c7b:	f2 44 0f 2c f2       	cvttsd2si %xmm2,%r14d
    9c80:	41 55                	push   %r13
    9c82:	f2 44 0f 2c e9       	cvttsd2si %xmm1,%r13d
    9c87:	66 0f ef c9          	pxor   %xmm1,%xmm1
    9c8b:	41 54                	push   %r12
    9c8d:	f2 44 0f 2c e0       	cvttsd2si %xmm0,%r12d
    9c92:	55                   	push   %rbp
    9c93:	48 89 fd             	mov    %rdi,%rbp
    9c96:	53                   	push   %rbx
    9c97:	31 db                	xor    %ebx,%ebx
    9c99:	48 83 ec 28          	sub    $0x28,%rsp
    9c9d:	f2 0f 11 1c 24       	movsd  %xmm3,(%rsp)
    9ca2:	45 31 ff             	xor    %r15d,%r15d
    9ca5:	f2 0f 11 4c 24 18    	movsd  %xmm1,0x18(%rsp)
    9cab:	48 83 ec 08          	sub    $0x8,%rsp
    9caf:	41 89 d9             	mov    %ebx,%r9d
    9cb2:	44 89 f1             	mov    %r14d,%ecx
    9cb5:	41 57                	push   %r15
    9cb7:	f2 0f 10 44 24 10    	movsd  0x10(%rsp),%xmm0
    9cbd:	44 89 ea             	mov    %r13d,%edx
    9cc0:	44 89 e6             	mov    %r12d,%esi
    9cc3:	48 89 ef             	mov    %rbp,%rdi
    9cc6:	44 89 44 24 24       	mov    %r8d,0x24(%rsp)
    9ccb:	e8 10 f8 ff ff       	call   94e0 <_Z7partdifPPPPdiiiidii>
    9cd0:	44 8b 44 24 24       	mov    0x24(%rsp),%r8d
    9cd5:	45 89 f9             	mov    %r15d,%r9d
    9cd8:	44 89 ea             	mov    %r13d,%edx
    9cdb:	f2 0f 11 44 24 18    	movsd  %xmm0,0x18(%rsp)
    9ce1:	44 89 f1             	mov    %r14d,%ecx
    9ce4:	44 89 e6             	mov    %r12d,%esi
    9ce7:	48 89 ef             	mov    %rbp,%rdi
    9cea:	f2 0f 10 44 24 10    	movsd  0x10(%rsp),%xmm0
    9cf0:	89 1c 24             	mov    %ebx,(%rsp)
    9cf3:	41 83 c7 01          	add    $0x1,%r15d
    9cf7:	e8 e4 f7 ff ff       	call   94e0 <_Z7partdifPPPPdiiiidii>
    9cfc:	f2 0f 59 44 24 18    	mulsd  0x18(%rsp),%xmm0
    9d02:	f2 0f 10 4c 24 28    	movsd  0x28(%rsp),%xmm1
    9d08:	41 83 ff 03          	cmp    $0x3,%r15d
    9d0c:	58                   	pop    %rax
    9d0d:	5a                   	pop    %rdx
    9d0e:	44 8b 44 24 14       	mov    0x14(%rsp),%r8d
    9d13:	f2 0f 58 c8          	addsd  %xmm0,%xmm1
    9d17:	75 8c                	jne    9ca5 <_Z10divvadvecvPPPPddddid+0x35>
    9d19:	83 c3 01             	add    $0x1,%ebx
    9d1c:	83 fb 03             	cmp    $0x3,%ebx
    9d1f:	75 81                	jne    9ca2 <_Z10divvadvecvPPPPddddid+0x32>
    9d21:	48 83 c4 28          	add    $0x28,%rsp
    9d25:	66 0f 28 c1          	movapd %xmm1,%xmm0
    9d29:	5b                   	pop    %rbx
    9d2a:	5d                   	pop    %rbp
    9d2b:	41 5c                	pop    %r12
    9d2d:	41 5d                	pop    %r13
    9d2f:	41 5e                	pop    %r14
    9d31:	41 5f                	pop    %r15
    9d33:	c3                   	ret    
    9d34:	66 2e 0f 1f 84 00 00 	cs nopw 0x0(%rax,%rax,1)
    9d3b:	00 00 00 
    9d3e:	66 90                	xchg   %ax,%ax

0000000000009d40 <_Z12writeVTKFileiPPPPdiiiddd>:
    9d40:	f3 0f 1e fa          	endbr64 
    9d44:	41 57                	push   %r15
    9d46:	41 56                	push   %r14
    9d48:	41 55                	push   %r13
    9d4a:	41 54                	push   %r12
    9d4c:	49 89 f4             	mov    %rsi,%r12
    9d4f:	55                   	push   %rbp
    9d50:	53                   	push   %rbx
    9d51:	89 fb                	mov    %edi,%ebx
    9d53:	48 81 ec c8 02 00 00 	sub    $0x2c8,%rsp
    9d5a:	89 54 24 20          	mov    %edx,0x20(%rsp)
    9d5e:	4c 8d b4 24 a8 01 00 	lea    0x1a8(%rsp),%r14
    9d65:	00 
    9d66:	4c 8d bc 24 b0 00 00 	lea    0xb0(%rsp),%r15
    9d6d:	00 
    9d6e:	89 4c 24 24          	mov    %ecx,0x24(%rsp)
    9d72:	4c 89 f7             	mov    %r14,%rdi
    9d75:	44 89 44 24 28       	mov    %r8d,0x28(%rsp)
    9d7a:	f2 0f 11 04 24       	movsd  %xmm0,(%rsp)
    9d7f:	f2 0f 11 4c 24 18    	movsd  %xmm1,0x18(%rsp)
    9d85:	f2 0f 11 54 24 48    	movsd  %xmm2,0x48(%rsp)
    9d8b:	64 48 8b 04 25 28 00 	mov    %fs:0x28,%rax
    9d92:	00 00 
    9d94:	48 89 84 24 b8 02 00 	mov    %rax,0x2b8(%rsp)
    9d9b:	00 
    9d9c:	31 c0                	xor    %eax,%eax
    9d9e:	4c 89 7c 24 10       	mov    %r15,0x10(%rsp)
    9da3:	4c 89 74 24 38       	mov    %r14,0x38(%rsp)
    9da8:	e8 73 86 ff ff       	call   2420 <_ZNSt8ios_baseC2Ev@plt>
    9dad:	48 8d 05 3c 4c 00 00 	lea    0x4c3c(%rip),%rax        # e9f0 <_ZTVSt9basic_iosIcSt11char_traitsIcEE@GLIBCXX_3.4+0x10>
    9db4:	31 ff                	xor    %edi,%edi
    9db6:	31 f6                	xor    %esi,%esi
    9db8:	48 89 84 24 a8 01 00 	mov    %rax,0x1a8(%rsp)
    9dbf:	00 
    9dc0:	66 0f ef c0          	pxor   %xmm0,%xmm0
    9dc4:	48 8b 05 bd 4c 00 00 	mov    0x4cbd(%rip),%rax        # ea88 <_ZTTSt14basic_ofstreamIcSt11char_traitsIcEE@GLIBCXX_3.4+0x8>
    9dcb:	66 89 bc 24 88 02 00 	mov    %di,0x288(%rsp)
    9dd2:	00 
    9dd3:	48 89 84 24 b0 00 00 	mov    %rax,0xb0(%rsp)
    9dda:	00 
    9ddb:	0f 29 84 24 90 02 00 	movaps %xmm0,0x290(%rsp)
    9de2:	00 
    9de3:	0f 29 84 24 a0 02 00 	movaps %xmm0,0x2a0(%rsp)
    9dea:	00 
    9deb:	4c 03 78 e8          	add    -0x18(%rax),%r15
    9def:	48 8b 05 9a 4c 00 00 	mov    0x4c9a(%rip),%rax        # ea90 <_ZTTSt14basic_ofstreamIcSt11char_traitsIcEE@GLIBCXX_3.4+0x10>
    9df6:	48 c7 84 24 80 02 00 	movq   $0x0,0x280(%rsp)
    9dfd:	00 00 00 00 00 
    9e02:	4c 89 ff             	mov    %r15,%rdi
    9e05:	49 89 07             	mov    %rax,(%r15)
    9e08:	e8 53 88 ff ff       	call   2660 <_ZNSt9basic_iosIcSt11char_traitsIcEE4initEPSt15basic_streambufIcS1_E@plt>
    9e0d:	48 8d 05 64 4d 00 00 	lea    0x4d64(%rip),%rax        # eb78 <_ZTVSt14basic_ofstreamIcSt11char_traitsIcEE@GLIBCXX_3.4+0x18>
    9e14:	48 89 84 24 b0 00 00 	mov    %rax,0xb0(%rsp)
    9e1b:	00 
    9e1c:	48 83 c0 28          	add    $0x28,%rax
    9e20:	48 89 84 24 a8 01 00 	mov    %rax,0x1a8(%rsp)
    9e27:	00 
    9e28:	48 8d 84 24 b8 00 00 	lea    0xb8(%rsp),%rax
    9e2f:	00 
    9e30:	48 89 c7             	mov    %rax,%rdi
    9e33:	48 89 44 24 30       	mov    %rax,0x30(%rsp)
    9e38:	49 89 c7             	mov    %rax,%r15
    9e3b:	e8 80 87 ff ff       	call   25c0 <_ZNSt13basic_filebufIcSt11char_traitsIcEEC1Ev@plt>
    9e40:	4c 89 fe             	mov    %r15,%rsi
    9e43:	4c 89 f7             	mov    %r14,%rdi
    9e46:	e8 15 88 ff ff       	call   2660 <_ZNSt9basic_iosIcSt11char_traitsIcEE4initEPSt15basic_streambufIcS1_E@plt>
    9e4b:	41 89 df             	mov    %ebx,%r15d
    9e4e:	89 dd                	mov    %ebx,%ebp
    9e50:	41 c1 ef 1f          	shr    $0x1f,%r15d
    9e54:	f7 dd                	neg    %ebp
    9e56:	0f 48 eb             	cmovs  %ebx,%ebp
    9e59:	83 fd 09             	cmp    $0x9,%ebp
    9e5c:	0f 86 e2 07 00 00    	jbe    a644 <_Z12writeVTKFileiPPPPdiiiddd+0x904>
    9e62:	83 fd 63             	cmp    $0x63,%ebp
    9e65:	0f 86 cf 07 00 00    	jbe    a63a <_Z12writeVTKFileiPPPPdiiiddd+0x8fa>
    9e6b:	81 fd e7 03 00 00    	cmp    $0x3e7,%ebp
    9e71:	0f 86 b9 07 00 00    	jbe    a630 <_Z12writeVTKFileiPPPPdiiiddd+0x8f0>
    9e77:	89 ea                	mov    %ebp,%edx
    9e79:	81 fd 0f 27 00 00    	cmp    $0x270f,%ebp
    9e7f:	0f 86 c9 07 00 00    	jbe    a64e <_Z12writeVTKFileiPPPPdiiiddd+0x90e>
    9e85:	48 be 4b 59 86 38 d6 	movabs $0x346dc5d63886594b,%rsi
    9e8c:	c5 6d 34 
    9e8f:	bb 01 00 00 00       	mov    $0x1,%ebx
    9e94:	eb 2b                	jmp    9ec1 <_Z12writeVTKFileiPPPPdiiiddd+0x181>
    9e96:	66 2e 0f 1f 84 00 00 	cs nopw 0x0(%rax,%rax,1)
    9e9d:	00 00 00 
    9ea0:	83 fa 63             	cmp    $0x63,%edx
    9ea3:	0f 86 59 07 00 00    	jbe    a602 <_Z12writeVTKFileiPPPPdiiiddd+0x8c2>
    9ea9:	81 fa e7 03 00 00    	cmp    $0x3e7,%edx
    9eaf:	0f 86 45 07 00 00    	jbe    a5fa <_Z12writeVTKFileiPPPPdiiiddd+0x8ba>
    9eb5:	81 fa 0f 27 00 00    	cmp    $0x270f,%edx
    9ebb:	0f 86 31 07 00 00    	jbe    a5f2 <_Z12writeVTKFileiPPPPdiiiddd+0x8b2>
    9ec1:	48 89 d0             	mov    %rdx,%rax
    9ec4:	48 89 d1             	mov    %rdx,%rcx
    9ec7:	48 f7 e6             	mul    %rsi
    9eca:	89 d8                	mov    %ebx,%eax
    9ecc:	83 c3 04             	add    $0x4,%ebx
    9ecf:	48 c1 ea 0b          	shr    $0xb,%rdx
    9ed3:	48 81 f9 9f 86 01 00 	cmp    $0x1869f,%rcx
    9eda:	77 c4                	ja     9ea0 <_Z12writeVTKFileiPPPPdiiiddd+0x160>
    9edc:	4c 8d 6c 24 70       	lea    0x70(%rsp),%r13
    9ee1:	41 8d 34 1f          	lea    (%r15,%rbx,1),%esi
    9ee5:	ba 2d 00 00 00       	mov    $0x2d,%edx
    9eea:	4c 8d b4 24 80 00 00 	lea    0x80(%rsp),%r14
    9ef1:	00 
    9ef2:	4c 89 ef             	mov    %r13,%rdi
    9ef5:	4c 89 74 24 70       	mov    %r14,0x70(%rsp)
    9efa:	e8 01 87 ff ff       	call   2600 <_ZNSt7__cxx1112basic_stringIcSt11char_traitsIcESaIcEE12_M_constructEmc@plt>
    9eff:	41 0f b6 cf          	movzbl %r15b,%ecx
    9f03:	83 eb 01             	sub    $0x1,%ebx
    9f06:	48 03 4c 24 70       	add    0x70(%rsp),%rcx
    9f0b:	83 fd 63             	cmp    $0x63,%ebp
    9f0e:	76 4e                	jbe    9f5e <_Z12writeVTKFileiPPPPdiiiddd+0x21e>
    9f10:	48 8d 35 69 2c 00 00 	lea    0x2c69(%rip),%rsi        # cb80 <_ZZNSt8__detail18__to_chars_10_implIjEEvPcjT_E8__digits>
    9f17:	66 0f 1f 84 00 00 00 	nopw   0x0(%rax,%rax,1)
    9f1e:	00 00 
    9f20:	89 ea                	mov    %ebp,%edx
    9f22:	89 e8                	mov    %ebp,%eax
    9f24:	48 69 d2 1f 85 eb 51 	imul   $0x51eb851f,%rdx,%rdx
    9f2b:	48 c1 ea 25          	shr    $0x25,%rdx
    9f2f:	6b fa 64             	imul   $0x64,%edx,%edi
    9f32:	29 f8                	sub    %edi,%eax
    9f34:	89 ef                	mov    %ebp,%edi
    9f36:	89 d5                	mov    %edx,%ebp
    9f38:	89 da                	mov    %ebx,%edx
    9f3a:	01 c0                	add    %eax,%eax
    9f3c:	44 8d 40 01          	lea    0x1(%rax),%r8d
    9f40:	0f b6 04 06          	movzbl (%rsi,%rax,1),%eax
    9f44:	46 0f b6 04 06       	movzbl (%rsi,%r8,1),%r8d
    9f49:	44 88 04 11          	mov    %r8b,(%rcx,%rdx,1)
    9f4d:	8d 53 ff             	lea    -0x1(%rbx),%edx
    9f50:	83 eb 02             	sub    $0x2,%ebx
    9f53:	88 04 11             	mov    %al,(%rcx,%rdx,1)
    9f56:	81 ff 0f 27 00 00    	cmp    $0x270f,%edi
    9f5c:	77 c2                	ja     9f20 <_Z12writeVTKFileiPPPPdiiiddd+0x1e0>
    9f5e:	8d 45 30             	lea    0x30(%rbp),%eax
    9f61:	83 fd 09             	cmp    $0x9,%ebp
    9f64:	76 17                	jbe    9f7d <_Z12writeVTKFileiPPPPdiiiddd+0x23d>
    9f66:	01 ed                	add    %ebp,%ebp
    9f68:	48 8d 05 11 2c 00 00 	lea    0x2c11(%rip),%rax        # cb80 <_ZZNSt8__detail18__to_chars_10_implIjEEvPcjT_E8__digits>
    9f6f:	8d 55 01             	lea    0x1(%rbp),%edx
    9f72:	0f b6 14 10          	movzbl (%rax,%rdx,1),%edx
    9f76:	0f b6 04 28          	movzbl (%rax,%rbp,1),%eax
    9f7a:	88 51 01             	mov    %dl,0x1(%rcx)
    9f7d:	88 01                	mov    %al,(%rcx)
    9f7f:	41 b8 07 00 00 00    	mov    $0x7,%r8d
    9f85:	31 d2                	xor    %edx,%edx
    9f87:	31 f6                	xor    %esi,%esi
    9f89:	48 8d 0d 88 2a 00 00 	lea    0x2a88(%rip),%rcx        # ca18 <_IO_stdin_used+0xa18>
    9f90:	4c 89 ef             	mov    %r13,%rdi
    9f93:	e8 18 87 ff ff       	call   26b0 <_ZNSt7__cxx1112basic_stringIcSt11char_traitsIcESaIcEE10_M_replaceEmmPKcm@plt>
    9f98:	48 8d 9c 24 a0 00 00 	lea    0xa0(%rsp),%rbx
    9f9f:	00 
    9fa0:	48 8d 50 10          	lea    0x10(%rax),%rdx
    9fa4:	48 89 9c 24 90 00 00 	mov    %rbx,0x90(%rsp)
    9fab:	00 
    9fac:	48 8b 08             	mov    (%rax),%rcx
    9faf:	48 39 d1             	cmp    %rdx,%rcx
    9fb2:	0f 84 09 06 00 00    	je     a5c1 <_Z12writeVTKFileiPPPPdiiiddd+0x881>
    9fb8:	48 89 8c 24 90 00 00 	mov    %rcx,0x90(%rsp)
    9fbf:	00 
    9fc0:	48 8b 48 10          	mov    0x10(%rax),%rcx
    9fc4:	48 89 8c 24 a0 00 00 	mov    %rcx,0xa0(%rsp)
    9fcb:	00 
    9fcc:	48 8b 48 08          	mov    0x8(%rax),%rcx
    9fd0:	c6 40 10 00          	movb   $0x0,0x10(%rax)
    9fd4:	48 89 8c 24 98 00 00 	mov    %rcx,0x98(%rsp)
    9fdb:	00 
    9fdc:	48 c7 40 08 00 00 00 	movq   $0x0,0x8(%rax)
    9fe3:	00 
    9fe4:	48 89 10             	mov    %rdx,(%rax)
    9fe7:	48 b8 ff ff ff ff ff 	movabs $0x3fffffffffffffff,%rax
    9fee:	ff ff 3f 
    9ff1:	48 2b 84 24 98 00 00 	sub    0x98(%rsp),%rax
    9ff8:	00 
    9ff9:	48 83 f8 03          	cmp    $0x3,%rax
    9ffd:	0f 86 55 06 00 00    	jbe    a658 <_Z12writeVTKFileiPPPPdiiiddd+0x918>
    a003:	48 8d bc 24 90 00 00 	lea    0x90(%rsp),%rdi
    a00a:	00 
    a00b:	ba 04 00 00 00       	mov    $0x4,%edx
    a010:	48 8d 35 1e 2a 00 00 	lea    0x2a1e(%rip),%rsi        # ca35 <_IO_stdin_used+0xa35>
    a017:	e8 14 84 ff ff       	call   2430 <_ZNSt7__cxx1112basic_stringIcSt11char_traitsIcESaIcEE9_M_appendEPKcm@plt>
    a01c:	48 8d 4c 24 60       	lea    0x60(%rsp),%rcx
    a021:	48 8d 50 10          	lea    0x10(%rax),%rdx
    a025:	48 89 4c 24 40       	mov    %rcx,0x40(%rsp)
    a02a:	48 89 4c 24 50       	mov    %rcx,0x50(%rsp)
    a02f:	48 8b 08             	mov    (%rax),%rcx
    a032:	48 39 d1             	cmp    %rdx,%rcx
    a035:	0f 84 a8 05 00 00    	je     a5e3 <_Z12writeVTKFileiPPPPdiiiddd+0x8a3>
    a03b:	48 89 4c 24 50       	mov    %rcx,0x50(%rsp)
    a040:	48 8b 48 10          	mov    0x10(%rax),%rcx
    a044:	48 89 4c 24 60       	mov    %rcx,0x60(%rsp)
    a049:	48 8b 48 08          	mov    0x8(%rax),%rcx
    a04d:	c6 40 10 00          	movb   $0x0,0x10(%rax)
    a051:	48 89 4c 24 58       	mov    %rcx,0x58(%rsp)
    a056:	48 89 10             	mov    %rdx,(%rax)
    a059:	48 8b bc 24 90 00 00 	mov    0x90(%rsp),%rdi
    a060:	00 
    a061:	48 c7 40 08 00 00 00 	movq   $0x0,0x8(%rax)
    a068:	00 
    a069:	48 39 df             	cmp    %rbx,%rdi
    a06c:	74 11                	je     a07f <_Z12writeVTKFileiPPPPdiiiddd+0x33f>
    a06e:	48 8b 84 24 a0 00 00 	mov    0xa0(%rsp),%rax
    a075:	00 
    a076:	48 8d 70 01          	lea    0x1(%rax),%rsi
    a07a:	e8 31 85 ff ff       	call   25b0 <_ZdlPvm@plt>
    a07f:	48 8b 7c 24 70       	mov    0x70(%rsp),%rdi
    a084:	4c 39 f7             	cmp    %r14,%rdi
    a087:	74 11                	je     a09a <_Z12writeVTKFileiPPPPdiiiddd+0x35a>
    a089:	48 8b 84 24 80 00 00 	mov    0x80(%rsp),%rax
    a090:	00 
    a091:	48 8d 70 01          	lea    0x1(%rax),%rsi
    a095:	e8 16 85 ff ff       	call   25b0 <_ZdlPvm@plt>
    a09a:	48 8b 74 24 50       	mov    0x50(%rsp),%rsi
    a09f:	48 8b 7c 24 30       	mov    0x30(%rsp),%rdi
    a0a4:	ba 10 00 00 00       	mov    $0x10,%edx
    a0a9:	e8 c2 84 ff ff       	call   2570 <_ZNSt13basic_filebufIcSt11char_traitsIcEE4openEPKcSt13_Ios_Openmode@plt>
    a0ae:	48 8b 94 24 b0 00 00 	mov    0xb0(%rsp),%rdx
    a0b5:	00 
    a0b6:	48 8b 7c 24 10       	mov    0x10(%rsp),%rdi
    a0bb:	48 03 7a e8          	add    -0x18(%rdx),%rdi
    a0bf:	48 85 c0             	test   %rax,%rax
    a0c2:	0f 84 0b 05 00 00    	je     a5d3 <_Z12writeVTKFileiPPPPdiiiddd+0x893>
    a0c8:	31 f6                	xor    %esi,%esi
    a0ca:	e8 31 86 ff ff       	call   2700 <_ZNSt9basic_iosIcSt11char_traitsIcEE5clearESt12_Ios_Iostate@plt>
    a0cf:	48 8b 5c 24 10       	mov    0x10(%rsp),%rbx
    a0d4:	ba 1b 00 00 00       	mov    $0x1b,%edx
    a0d9:	48 8d 35 5a 29 00 00 	lea    0x295a(%rip),%rsi        # ca3a <_IO_stdin_used+0xa3a>
    a0e0:	48 89 df             	mov    %rbx,%rdi
    a0e3:	e8 f8 84 ff ff       	call   25e0 <_ZSt16__ostream_insertIcSt11char_traitsIcEERSt13basic_ostreamIT_T0_ES6_PKS3_l@plt>
    a0e8:	ba 15 00 00 00       	mov    $0x15,%edx
    a0ed:	48 8d 35 62 29 00 00 	lea    0x2962(%rip),%rsi        # ca56 <_IO_stdin_used+0xa56>
    a0f4:	48 89 df             	mov    %rbx,%rdi
    a0f7:	e8 e4 84 ff ff       	call   25e0 <_ZSt16__ostream_insertIcSt11char_traitsIcEERSt13basic_ostreamIT_T0_ES6_PKS3_l@plt>
    a0fc:	ba 06 00 00 00       	mov    $0x6,%edx
    a101:	48 8d 35 64 29 00 00 	lea    0x2964(%rip),%rsi        # ca6c <_IO_stdin_used+0xa6c>
    a108:	48 89 df             	mov    %rbx,%rdi
    a10b:	e8 d0 84 ff ff       	call   25e0 <_ZSt16__ostream_insertIcSt11char_traitsIcEERSt13basic_ostreamIT_T0_ES6_PKS3_l@plt>
    a110:	ba 1a 00 00 00       	mov    $0x1a,%edx
    a115:	48 8d 35 57 29 00 00 	lea    0x2957(%rip),%rsi        # ca73 <_IO_stdin_used+0xa73>
    a11c:	48 89 df             	mov    %rbx,%rdi
    a11f:	e8 bc 84 ff ff       	call   25e0 <_ZSt16__ostream_insertIcSt11char_traitsIcEERSt13basic_ostreamIT_T0_ES6_PKS3_l@plt>
    a124:	ba 0b 00 00 00       	mov    $0xb,%edx
    a129:	48 8d 35 5e 29 00 00 	lea    0x295e(%rip),%rsi        # ca8e <_IO_stdin_used+0xa8e>
    a130:	48 89 df             	mov    %rbx,%rdi
    a133:	e8 a8 84 ff ff       	call   25e0 <_ZSt16__ostream_insertIcSt11char_traitsIcEERSt13basic_ostreamIT_T0_ES6_PKS3_l@plt>
    a138:	44 8b 74 24 20       	mov    0x20(%rsp),%r14d
    a13d:	48 89 df             	mov    %rbx,%rdi
    a140:	44 89 f6             	mov    %r14d,%esi
    a143:	e8 d8 85 ff ff       	call   2720 <_ZNSolsEi@plt>
    a148:	4c 8d 3d 8c 26 00 00 	lea    0x268c(%rip),%r15        # c7db <_IO_stdin_used+0x7db>
    a14f:	ba 01 00 00 00       	mov    $0x1,%edx
    a154:	48 89 c7             	mov    %rax,%rdi
    a157:	48 89 c5             	mov    %rax,%rbp
    a15a:	4c 89 fe             	mov    %r15,%rsi
    a15d:	e8 7e 84 ff ff       	call   25e0 <_ZSt16__ostream_insertIcSt11char_traitsIcEERSt13basic_ostreamIT_T0_ES6_PKS3_l@plt>
    a162:	8b 74 24 24          	mov    0x24(%rsp),%esi
    a166:	48 89 ef             	mov    %rbp,%rdi
    a169:	e8 b2 85 ff ff       	call   2720 <_ZNSolsEi@plt>
    a16e:	ba 01 00 00 00       	mov    $0x1,%edx
    a173:	4c 89 fe             	mov    %r15,%rsi
    a176:	48 89 c7             	mov    %rax,%rdi
    a179:	48 89 c5             	mov    %rax,%rbp
    a17c:	e8 5f 84 ff ff       	call   25e0 <_ZSt16__ostream_insertIcSt11char_traitsIcEERSt13basic_ostreamIT_T0_ES6_PKS3_l@plt>
    a181:	44 8b 6c 24 28       	mov    0x28(%rsp),%r13d
    a186:	48 89 ef             	mov    %rbp,%rdi
    a189:	44 89 ee             	mov    %r13d,%esi
    a18c:	e8 8f 85 ff ff       	call   2720 <_ZNSolsEi@plt>
    a191:	48 89 c7             	mov    %rax,%rdi
    a194:	ba 01 00 00 00       	mov    $0x1,%edx
    a199:	48 8d 35 78 29 00 00 	lea    0x2978(%rip),%rsi        # cb18 <_IO_stdin_used+0xb18>
    a1a0:	e8 3b 84 ff ff       	call   25e0 <_ZSt16__ostream_insertIcSt11char_traitsIcEERSt13basic_ostreamIT_T0_ES6_PKS3_l@plt>
    a1a5:	ba 0d 00 00 00       	mov    $0xd,%edx
    a1aa:	48 8d 35 e9 28 00 00 	lea    0x28e9(%rip),%rsi        # ca9a <_IO_stdin_used+0xa9a>
    a1b1:	48 89 df             	mov    %rbx,%rdi
    a1b4:	e8 27 84 ff ff       	call   25e0 <_ZSt16__ostream_insertIcSt11char_traitsIcEERSt13basic_ostreamIT_T0_ES6_PKS3_l@plt>
    a1b9:	ba 08 00 00 00       	mov    $0x8,%edx
    a1be:	48 8d 35 e3 28 00 00 	lea    0x28e3(%rip),%rsi        # caa8 <_IO_stdin_used+0xaa8>
    a1c5:	48 89 df             	mov    %rbx,%rdi
    a1c8:	e8 13 84 ff ff       	call   25e0 <_ZSt16__ostream_insertIcSt11char_traitsIcEERSt13basic_ostreamIT_T0_ES6_PKS3_l@plt>
    a1cd:	f2 0f 10 04 24       	movsd  (%rsp),%xmm0
    a1d2:	48 89 df             	mov    %rbx,%rdi
    a1d5:	e8 f6 84 ff ff       	call   26d0 <_ZNSo9_M_insertIdEERSoT_@plt>
    a1da:	ba 01 00 00 00       	mov    $0x1,%edx
    a1df:	4c 89 fe             	mov    %r15,%rsi
    a1e2:	48 89 c7             	mov    %rax,%rdi
    a1e5:	48 89 c5             	mov    %rax,%rbp
    a1e8:	e8 f3 83 ff ff       	call   25e0 <_ZSt16__ostream_insertIcSt11char_traitsIcEERSt13basic_ostreamIT_T0_ES6_PKS3_l@plt>
    a1ed:	f2 0f 10 44 24 18    	movsd  0x18(%rsp),%xmm0
    a1f3:	48 89 ef             	mov    %rbp,%rdi
    a1f6:	e8 d5 84 ff ff       	call   26d0 <_ZNSo9_M_insertIdEERSoT_@plt>
    a1fb:	ba 01 00 00 00       	mov    $0x1,%edx
    a200:	4c 89 fe             	mov    %r15,%rsi
    a203:	48 89 c7             	mov    %rax,%rdi
    a206:	48 89 c5             	mov    %rax,%rbp
    a209:	e8 d2 83 ff ff       	call   25e0 <_ZSt16__ostream_insertIcSt11char_traitsIcEERSt13basic_ostreamIT_T0_ES6_PKS3_l@plt>
    a20e:	f2 0f 10 44 24 48    	movsd  0x48(%rsp),%xmm0
    a214:	48 89 ef             	mov    %rbp,%rdi
    a217:	e8 b4 84 ff ff       	call   26d0 <_ZNSo9_M_insertIdEERSoT_@plt>
    a21c:	48 89 c7             	mov    %rax,%rdi
    a21f:	ba 01 00 00 00       	mov    $0x1,%edx
    a224:	48 8d 35 ed 28 00 00 	lea    0x28ed(%rip),%rsi        # cb18 <_IO_stdin_used+0xb18>
    a22b:	e8 b0 83 ff ff       	call   25e0 <_ZSt16__ostream_insertIcSt11char_traitsIcEERSt13basic_ostreamIT_T0_ES6_PKS3_l@plt>
    a230:	ba 0b 00 00 00       	mov    $0xb,%edx
    a235:	48 8d 35 75 28 00 00 	lea    0x2875(%rip),%rsi        # cab1 <_IO_stdin_used+0xab1>
    a23c:	48 89 df             	mov    %rbx,%rdi
    a23f:	e8 9c 83 ff ff       	call   25e0 <_ZSt16__ostream_insertIcSt11char_traitsIcEERSt13basic_ostreamIT_T0_ES6_PKS3_l@plt>
    a244:	8b 6c 24 24          	mov    0x24(%rsp),%ebp
    a248:	44 89 f0             	mov    %r14d,%eax
    a24b:	48 89 df             	mov    %rbx,%rdi
    a24e:	0f af c5             	imul   %ebp,%eax
    a251:	89 c6                	mov    %eax,%esi
    a253:	41 0f af f5          	imul   %r13d,%esi
    a257:	e8 c4 84 ff ff       	call   2720 <_ZNSolsEi@plt>
    a25c:	48 89 c7             	mov    %rax,%rdi
    a25f:	ba 01 00 00 00       	mov    $0x1,%edx
    a264:	48 8d 35 ad 28 00 00 	lea    0x28ad(%rip),%rsi        # cb18 <_IO_stdin_used+0xb18>
    a26b:	e8 70 83 ff ff       	call   25e0 <_ZSt16__ostream_insertIcSt11char_traitsIcEERSt13basic_ostreamIT_T0_ES6_PKS3_l@plt>
    a270:	ba 18 00 00 00       	mov    $0x18,%edx
    a275:	48 8d 35 41 28 00 00 	lea    0x2841(%rip),%rsi        # cabd <_IO_stdin_used+0xabd>
    a27c:	48 89 df             	mov    %rbx,%rdi
    a27f:	e8 5c 83 ff ff       	call   25e0 <_ZSt16__ostream_insertIcSt11char_traitsIcEERSt13basic_ostreamIT_T0_ES6_PKS3_l@plt>
    a284:	ba 15 00 00 00       	mov    $0x15,%edx
    a289:	48 8d 35 46 28 00 00 	lea    0x2846(%rip),%rsi        # cad6 <_IO_stdin_used+0xad6>
    a290:	48 89 df             	mov    %rbx,%rdi
    a293:	e8 48 83 ff ff       	call   25e0 <_ZSt16__ostream_insertIcSt11char_traitsIcEERSt13basic_ostreamIT_T0_ES6_PKS3_l@plt>
    a298:	45 85 ed             	test   %r13d,%r13d
    a29b:	0f 8e b4 00 00 00    	jle    a355 <_Z12writeVTKFileiPPPPdiiiddd+0x615>
    a2a1:	49 63 c5             	movslq %r13d,%rax
    a2a4:	45 31 ed             	xor    %r13d,%r13d
    a2a7:	48 c1 e0 03          	shl    $0x3,%rax
    a2ab:	48 89 44 24 18       	mov    %rax,0x18(%rsp)
    a2b0:	8d 45 ff             	lea    -0x1(%rbp),%eax
    a2b3:	48 8d 04 c5 08 00 00 	lea    0x8(,%rax,8),%rax
    a2ba:	00 
    a2bb:	48 89 04 24          	mov    %rax,(%rsp)
    a2bf:	41 8d 46 ff          	lea    -0x1(%r14),%eax
    a2c3:	4c 8d 34 c5 08 00 00 	lea    0x8(,%rax,8),%r14
    a2ca:	00 
    a2cb:	0f 1f 44 00 00       	nopl   0x0(%rax,%rax,1)
    a2d0:	8b 4c 24 24          	mov    0x24(%rsp),%ecx
    a2d4:	31 ed                	xor    %ebp,%ebp
    a2d6:	85 c9                	test   %ecx,%ecx
    a2d8:	7e 56                	jle    a330 <_Z12writeVTKFileiPPPPdiiiddd+0x5f0>
    a2da:	66 0f 1f 44 00 00    	nopw   0x0(%rax,%rax,1)
    a2e0:	8b 74 24 20          	mov    0x20(%rsp),%esi
    a2e4:	31 db                	xor    %ebx,%ebx
    a2e6:	85 f6                	test   %esi,%esi
    a2e8:	7e 3c                	jle    a326 <_Z12writeVTKFileiPPPPdiiiddd+0x5e6>
    a2ea:	66 0f 1f 44 00 00    	nopw   0x0(%rax,%rax,1)
    a2f0:	49 8b 44 24 18       	mov    0x18(%r12),%rax
    a2f5:	48 8b 7c 24 10       	mov    0x10(%rsp),%rdi
    a2fa:	48 8b 04 18          	mov    (%rax,%rbx,1),%rax
    a2fe:	48 8b 04 28          	mov    (%rax,%rbp,1),%rax
    a302:	f2 42 0f 10 04 28    	movsd  (%rax,%r13,1),%xmm0
    a308:	e8 c3 83 ff ff       	call   26d0 <_ZNSo9_M_insertIdEERSoT_@plt>
    a30d:	48 89 c7             	mov    %rax,%rdi
    a310:	ba 01 00 00 00       	mov    $0x1,%edx
    a315:	4c 89 fe             	mov    %r15,%rsi
    a318:	e8 c3 82 ff ff       	call   25e0 <_ZSt16__ostream_insertIcSt11char_traitsIcEERSt13basic_ostreamIT_T0_ES6_PKS3_l@plt>
    a31d:	48 83 c3 08          	add    $0x8,%rbx
    a321:	49 39 de             	cmp    %rbx,%r14
    a324:	75 ca                	jne    a2f0 <_Z12writeVTKFileiPPPPdiiiddd+0x5b0>
    a326:	48 83 c5 08          	add    $0x8,%rbp
    a32a:	48 39 2c 24          	cmp    %rbp,(%rsp)
    a32e:	75 b0                	jne    a2e0 <_Z12writeVTKFileiPPPPdiiiddd+0x5a0>
    a330:	48 8b 7c 24 10       	mov    0x10(%rsp),%rdi
    a335:	ba 01 00 00 00       	mov    $0x1,%edx
    a33a:	48 8d 35 d7 27 00 00 	lea    0x27d7(%rip),%rsi        # cb18 <_IO_stdin_used+0xb18>
    a341:	e8 9a 82 ff ff       	call   25e0 <_ZSt16__ostream_insertIcSt11char_traitsIcEERSt13basic_ostreamIT_T0_ES6_PKS3_l@plt>
    a346:	49 83 c5 08          	add    $0x8,%r13
    a34a:	4c 39 6c 24 18       	cmp    %r13,0x18(%rsp)
    a34f:	0f 85 7b ff ff ff    	jne    a2d0 <_Z12writeVTKFileiPPPPdiiiddd+0x590>
    a355:	48 8b 7c 24 10       	mov    0x10(%rsp),%rdi
    a35a:	ba 18 00 00 00       	mov    $0x18,%edx
    a35f:	48 8d 35 86 27 00 00 	lea    0x2786(%rip),%rsi        # caec <_IO_stdin_used+0xaec>
    a366:	e8 75 82 ff ff       	call   25e0 <_ZSt16__ostream_insertIcSt11char_traitsIcEERSt13basic_ostreamIT_T0_ES6_PKS3_l@plt>
    a36b:	48 63 44 24 28       	movslq 0x28(%rsp),%rax
    a370:	85 c0                	test   %eax,%eax
    a372:	0f 8e 10 01 00 00    	jle    a488 <_Z12writeVTKFileiPPPPdiiiddd+0x748>
    a378:	48 c1 e0 03          	shl    $0x3,%rax
    a37c:	45 31 f6             	xor    %r14d,%r14d
    a37f:	48 89 44 24 28       	mov    %rax,0x28(%rsp)
    a384:	8b 44 24 24          	mov    0x24(%rsp),%eax
    a388:	83 e8 01             	sub    $0x1,%eax
    a38b:	48 8d 04 c5 08 00 00 	lea    0x8(,%rax,8),%rax
    a392:	00 
    a393:	48 89 44 24 18       	mov    %rax,0x18(%rsp)
    a398:	8b 44 24 20          	mov    0x20(%rsp),%eax
    a39c:	83 e8 01             	sub    $0x1,%eax
    a39f:	48 8d 04 c5 08 00 00 	lea    0x8(,%rax,8),%rax
    a3a6:	00 
    a3a7:	48 89 04 24          	mov    %rax,(%rsp)
    a3ab:	0f 1f 44 00 00       	nopl   0x0(%rax,%rax,1)
    a3b0:	8b 44 24 24          	mov    0x24(%rsp),%eax
    a3b4:	45 31 ed             	xor    %r13d,%r13d
    a3b7:	85 c0                	test   %eax,%eax
    a3b9:	0f 8e ba 00 00 00    	jle    a479 <_Z12writeVTKFileiPPPPdiiiddd+0x739>
    a3bf:	90                   	nop
    a3c0:	8b 54 24 20          	mov    0x20(%rsp),%edx
    a3c4:	31 db                	xor    %ebx,%ebx
    a3c6:	85 d2                	test   %edx,%edx
    a3c8:	0f 8e 9c 00 00 00    	jle    a46a <_Z12writeVTKFileiPPPPdiiiddd+0x72a>
    a3ce:	66 90                	xchg   %ax,%ax
    a3d0:	49 8b 04 24          	mov    (%r12),%rax
    a3d4:	48 8b 7c 24 10       	mov    0x10(%rsp),%rdi
    a3d9:	48 8b 04 18          	mov    (%rax,%rbx,1),%rax
    a3dd:	4a 8b 04 28          	mov    (%rax,%r13,1),%rax
    a3e1:	f2 42 0f 10 04 30    	movsd  (%rax,%r14,1),%xmm0
    a3e7:	e8 e4 82 ff ff       	call   26d0 <_ZNSo9_M_insertIdEERSoT_@plt>
    a3ec:	ba 01 00 00 00       	mov    $0x1,%edx
    a3f1:	4c 89 fe             	mov    %r15,%rsi
    a3f4:	48 89 c7             	mov    %rax,%rdi
    a3f7:	48 89 c5             	mov    %rax,%rbp
    a3fa:	e8 e1 81 ff ff       	call   25e0 <_ZSt16__ostream_insertIcSt11char_traitsIcEERSt13basic_ostreamIT_T0_ES6_PKS3_l@plt>
    a3ff:	49 8b 44 24 08       	mov    0x8(%r12),%rax
    a404:	48 89 ef             	mov    %rbp,%rdi
    a407:	48 8b 04 18          	mov    (%rax,%rbx,1),%rax
    a40b:	4a 8b 04 28          	mov    (%rax,%r13,1),%rax
    a40f:	f2 42 0f 10 04 30    	movsd  (%rax,%r14,1),%xmm0
    a415:	e8 b6 82 ff ff       	call   26d0 <_ZNSo9_M_insertIdEERSoT_@plt>
    a41a:	ba 01 00 00 00       	mov    $0x1,%edx
    a41f:	4c 89 fe             	mov    %r15,%rsi
    a422:	48 89 c7             	mov    %rax,%rdi
    a425:	48 89 c5             	mov    %rax,%rbp
    a428:	e8 b3 81 ff ff       	call   25e0 <_ZSt16__ostream_insertIcSt11char_traitsIcEERSt13basic_ostreamIT_T0_ES6_PKS3_l@plt>
    a42d:	49 8b 44 24 10       	mov    0x10(%r12),%rax
    a432:	48 89 ef             	mov    %rbp,%rdi
    a435:	48 8b 04 18          	mov    (%rax,%rbx,1),%rax
    a439:	4a 8b 04 28          	mov    (%rax,%r13,1),%rax
    a43d:	f2 42 0f 10 04 30    	movsd  (%rax,%r14,1),%xmm0
    a443:	e8 88 82 ff ff       	call   26d0 <_ZNSo9_M_insertIdEERSoT_@plt>
    a448:	48 89 c7             	mov    %rax,%rdi
    a44b:	ba 01 00 00 00       	mov    $0x1,%edx
    a450:	48 8d 35 c1 26 00 00 	lea    0x26c1(%rip),%rsi        # cb18 <_IO_stdin_used+0xb18>
    a457:	e8 84 81 ff ff       	call   25e0 <_ZSt16__ostream_insertIcSt11char_traitsIcEERSt13basic_ostreamIT_T0_ES6_PKS3_l@plt>
    a45c:	48 83 c3 08          	add    $0x8,%rbx
    a460:	48 39 1c 24          	cmp    %rbx,(%rsp)
    a464:	0f 85 66 ff ff ff    	jne    a3d0 <_Z12writeVTKFileiPPPPdiiiddd+0x690>
    a46a:	49 83 c5 08          	add    $0x8,%r13
    a46e:	4c 3b 6c 24 18       	cmp    0x18(%rsp),%r13
    a473:	0f 85 47 ff ff ff    	jne    a3c0 <_Z12writeVTKFileiPPPPdiiiddd+0x680>
    a479:	49 83 c6 08          	add    $0x8,%r14
    a47d:	4c 39 74 24 28       	cmp    %r14,0x28(%rsp)
    a482:	0f 85 28 ff ff ff    	jne    a3b0 <_Z12writeVTKFileiPPPPdiiiddd+0x670>
    a488:	48 8b 7c 24 30       	mov    0x30(%rsp),%rdi
    a48d:	e8 7e 7f ff ff       	call   2410 <_ZNSt13basic_filebufIcSt11char_traitsIcEE5closeEv@plt>
    a492:	48 85 c0             	test   %rax,%rax
    a495:	0f 84 6f 01 00 00    	je     a60a <_Z12writeVTKFileiPPPPdiiiddd+0x8ca>
    a49b:	48 8d 2d 9e 4b 00 00 	lea    0x4b9e(%rip),%rbp        # f040 <_ZSt4cout@GLIBCXX_3.4>
    a4a2:	ba 09 00 00 00       	mov    $0x9,%edx
    a4a7:	48 8d 35 57 26 00 00 	lea    0x2657(%rip),%rsi        # cb05 <_IO_stdin_used+0xb05>
    a4ae:	48 89 ef             	mov    %rbp,%rdi
    a4b1:	e8 2a 81 ff ff       	call   25e0 <_ZSt16__ostream_insertIcSt11char_traitsIcEERSt13basic_ostreamIT_T0_ES6_PKS3_l@plt>
    a4b6:	48 8b 54 24 58       	mov    0x58(%rsp),%rdx
    a4bb:	48 8b 74 24 50       	mov    0x50(%rsp),%rsi
    a4c0:	48 89 ef             	mov    %rbp,%rdi
    a4c3:	e8 18 81 ff ff       	call   25e0 <_ZSt16__ostream_insertIcSt11char_traitsIcEERSt13basic_ostreamIT_T0_ES6_PKS3_l@plt>
    a4c8:	48 89 c7             	mov    %rax,%rdi
    a4cb:	48 8d 05 1e 46 00 00 	lea    0x461e(%rip),%rax        # eaf0 <_ZTVSt13basic_filebufIcSt11char_traitsIcEE@GLIBCXX_3.4+0x10>
    a4d2:	f3 0f 7e 1d d6 46 00 	movq   0x46d6(%rip),%xmm3        # ebb0 <_ZTVSt14basic_ofstreamIcSt11char_traitsIcEE@GLIBCXX_3.4+0x50>
    a4d9:	00 
    a4da:	ba 0a 00 00 00       	mov    $0xa,%edx
    a4df:	66 48 0f 6e f0       	movq   %rax,%xmm6
    a4e4:	48 8d 35 24 26 00 00 	lea    0x2624(%rip),%rsi        # cb0f <_IO_stdin_used+0xb0f>
    a4eb:	66 0f 6c de          	punpcklqdq %xmm6,%xmm3
    a4ef:	0f 29 1c 24          	movaps %xmm3,(%rsp)
    a4f3:	e8 e8 80 ff ff       	call   25e0 <_ZSt16__ostream_insertIcSt11char_traitsIcEERSt13basic_ostreamIT_T0_ES6_PKS3_l@plt>
    a4f8:	48 8b 7c 24 50       	mov    0x50(%rsp),%rdi
    a4fd:	48 3b 7c 24 40       	cmp    0x40(%rsp),%rdi
    a502:	74 0e                	je     a512 <_Z12writeVTKFileiPPPPdiiiddd+0x7d2>
    a504:	48 8b 44 24 60       	mov    0x60(%rsp),%rax
    a509:	48 8d 70 01          	lea    0x1(%rax),%rsi
    a50d:	e8 9e 80 ff ff       	call   25b0 <_ZdlPvm@plt>
    a512:	66 0f 6f 3c 24       	movdqa (%rsp),%xmm7
    a517:	48 8b 7c 24 30       	mov    0x30(%rsp),%rdi
    a51c:	48 8d 05 7d 46 00 00 	lea    0x467d(%rip),%rax        # eba0 <_ZTVSt14basic_ofstreamIcSt11char_traitsIcEE@GLIBCXX_3.4+0x40>
    a523:	48 89 84 24 a8 01 00 	mov    %rax,0x1a8(%rsp)
    a52a:	00 
    a52b:	0f 29 bc 24 b0 00 00 	movaps %xmm7,0xb0(%rsp)
    a532:	00 
    a533:	e8 d8 7e ff ff       	call   2410 <_ZNSt13basic_filebufIcSt11char_traitsIcEE5closeEv@plt>
    a538:	48 8d bc 24 20 01 00 	lea    0x120(%rsp),%rdi
    a53f:	00 
    a540:	e8 1b 82 ff ff       	call   2760 <_ZNSt12__basic_fileIcED1Ev@plt>
    a545:	48 8d 05 c4 44 00 00 	lea    0x44c4(%rip),%rax        # ea10 <_ZTVSt15basic_streambufIcSt11char_traitsIcEE@GLIBCXX_3.4+0x10>
    a54c:	48 8d bc 24 f0 00 00 	lea    0xf0(%rsp),%rdi
    a553:	00 
    a554:	48 89 84 24 b8 00 00 	mov    %rax,0xb8(%rsp)
    a55b:	00 
    a55c:	e8 0f 81 ff ff       	call   2670 <_ZNSt6localeD1Ev@plt>
    a561:	48 8b 05 20 45 00 00 	mov    0x4520(%rip),%rax        # ea88 <_ZTTSt14basic_ofstreamIcSt11char_traitsIcEE@GLIBCXX_3.4+0x8>
    a568:	48 8b 7c 24 38       	mov    0x38(%rsp),%rdi
    a56d:	48 8b 0d 1c 45 00 00 	mov    0x451c(%rip),%rcx        # ea90 <_ZTTSt14basic_ofstreamIcSt11char_traitsIcEE@GLIBCXX_3.4+0x10>
    a574:	48 89 84 24 b0 00 00 	mov    %rax,0xb0(%rsp)
    a57b:	00 
    a57c:	48 8b 40 e8          	mov    -0x18(%rax),%rax
    a580:	48 89 8c 04 b0 00 00 	mov    %rcx,0xb0(%rsp,%rax,1)
    a587:	00 
    a588:	48 8d 05 61 44 00 00 	lea    0x4461(%rip),%rax        # e9f0 <_ZTVSt9basic_iosIcSt11char_traitsIcEE@GLIBCXX_3.4+0x10>
    a58f:	48 89 84 24 a8 01 00 	mov    %rax,0x1a8(%rsp)
    a596:	00 
    a597:	e8 a4 7e ff ff       	call   2440 <_ZNSt8ios_baseD2Ev@plt>
    a59c:	48 8b 84 24 b8 02 00 	mov    0x2b8(%rsp),%rax
    a5a3:	00 
    a5a4:	64 48 2b 04 25 28 00 	sub    %fs:0x28,%rax
    a5ab:	00 00 
    a5ad:	75 7c                	jne    a62b <_Z12writeVTKFileiPPPPdiiiddd+0x8eb>
    a5af:	48 81 c4 c8 02 00 00 	add    $0x2c8,%rsp
    a5b6:	5b                   	pop    %rbx
    a5b7:	5d                   	pop    %rbp
    a5b8:	41 5c                	pop    %r12
    a5ba:	41 5d                	pop    %r13
    a5bc:	41 5e                	pop    %r14
    a5be:	41 5f                	pop    %r15
    a5c0:	c3                   	ret    
    a5c1:	f3 0f 6f 60 10       	movdqu 0x10(%rax),%xmm4
    a5c6:	0f 29 a4 24 a0 00 00 	movaps %xmm4,0xa0(%rsp)
    a5cd:	00 
    a5ce:	e9 f9 f9 ff ff       	jmp    9fcc <_Z12writeVTKFileiPPPPdiiiddd+0x28c>
    a5d3:	8b 77 20             	mov    0x20(%rdi),%esi
    a5d6:	83 ce 04             	or     $0x4,%esi
    a5d9:	e8 22 81 ff ff       	call   2700 <_ZNSt9basic_iosIcSt11char_traitsIcEE5clearESt12_Ios_Iostate@plt>
    a5de:	e9 ec fa ff ff       	jmp    a0cf <_Z12writeVTKFileiPPPPdiiiddd+0x38f>
    a5e3:	f3 0f 6f 68 10       	movdqu 0x10(%rax),%xmm5
    a5e8:	0f 29 6c 24 60       	movaps %xmm5,0x60(%rsp)
    a5ed:	e9 57 fa ff ff       	jmp    a049 <_Z12writeVTKFileiPPPPdiiiddd+0x309>
    a5f2:	8d 58 07             	lea    0x7(%rax),%ebx
    a5f5:	e9 e2 f8 ff ff       	jmp    9edc <_Z12writeVTKFileiPPPPdiiiddd+0x19c>
    a5fa:	8d 58 06             	lea    0x6(%rax),%ebx
    a5fd:	e9 da f8 ff ff       	jmp    9edc <_Z12writeVTKFileiPPPPdiiiddd+0x19c>
    a602:	8d 58 05             	lea    0x5(%rax),%ebx
    a605:	e9 d2 f8 ff ff       	jmp    9edc <_Z12writeVTKFileiPPPPdiiiddd+0x19c>
    a60a:	48 8b 84 24 b0 00 00 	mov    0xb0(%rsp),%rax
    a611:	00 
    a612:	48 8b 7c 24 10       	mov    0x10(%rsp),%rdi
    a617:	48 03 78 e8          	add    -0x18(%rax),%rdi
    a61b:	8b 77 20             	mov    0x20(%rdi),%esi
    a61e:	83 ce 04             	or     $0x4,%esi
    a621:	e8 da 80 ff ff       	call   2700 <_ZNSt9basic_iosIcSt11char_traitsIcEE5clearESt12_Ios_Iostate@plt>
    a626:	e9 70 fe ff ff       	jmp    a49b <_Z12writeVTKFileiPPPPdiiiddd+0x75b>
    a62b:	e8 a0 7f ff ff       	call   25d0 <__stack_chk_fail@plt>
    a630:	bb 03 00 00 00       	mov    $0x3,%ebx
    a635:	e9 a2 f8 ff ff       	jmp    9edc <_Z12writeVTKFileiPPPPdiiiddd+0x19c>
    a63a:	bb 02 00 00 00       	mov    $0x2,%ebx
    a63f:	e9 98 f8 ff ff       	jmp    9edc <_Z12writeVTKFileiPPPPdiiiddd+0x19c>
    a644:	bb 01 00 00 00       	mov    $0x1,%ebx
    a649:	e9 8e f8 ff ff       	jmp    9edc <_Z12writeVTKFileiPPPPdiiiddd+0x19c>
    a64e:	bb 04 00 00 00       	mov    $0x4,%ebx
    a653:	e9 84 f8 ff ff       	jmp    9edc <_Z12writeVTKFileiPPPPdiiiddd+0x19c>
    a658:	48 8d 3d c1 23 00 00 	lea    0x23c1(%rip),%rdi        # ca20 <_IO_stdin_used+0xa20>
    a65f:	e8 2c 7e ff ff       	call   2490 <_ZSt20__throw_length_errorPKc@plt>
    a664:	f3 0f 1e fa          	endbr64 
    a668:	48 89 c7             	mov    %rax,%rdi
    a66b:	e9 8e 82 ff ff       	jmp    28fe <_Z12writeVTKFileiPPPPdiiiddd.cold>
    a670:	f3 0f 1e fa          	endbr64 
    a674:	48 89 c5             	mov    %rax,%rbp
    a677:	e9 91 82 ff ff       	jmp    290d <_Z12writeVTKFileiPPPPdiiiddd.cold+0xf>
    a67c:	f3 0f 1e fa          	endbr64 
    a680:	48 89 c5             	mov    %rax,%rbp
    a683:	e9 d2 82 ff ff       	jmp    295a <_Z12writeVTKFileiPPPPdiiiddd.cold+0x5c>
    a688:	f3 0f 1e fa          	endbr64 
    a68c:	48 89 c5             	mov    %rax,%rbp
    a68f:	e9 10 83 ff ff       	jmp    29a4 <_Z12writeVTKFileiPPPPdiiiddd.cold+0xa6>
    a694:	f3 0f 1e fa          	endbr64 
    a698:	48 89 c5             	mov    %rax,%rbp
    a69b:	e9 e6 82 ff ff       	jmp    2986 <_Z12writeVTKFileiPPPPdiiiddd.cold+0x88>
    a6a0:	f3 0f 1e fa          	endbr64 
    a6a4:	48 89 c5             	mov    %rax,%rbp
    a6a7:	e9 8d 82 ff ff       	jmp    2939 <_Z12writeVTKFileiPPPPdiiiddd.cold+0x3b>
    a6ac:	f3 0f 1e fa          	endbr64 
    a6b0:	48 89 c5             	mov    %rax,%rbp
    a6b3:	e9 bc 82 ff ff       	jmp    2974 <_Z12writeVTKFileiPPPPdiiiddd.cold+0x76>
    a6b8:	f3 0f 1e fa          	endbr64 
    a6bc:	48 89 c5             	mov    %rax,%rbp
    a6bf:	e9 53 82 ff ff       	jmp    2917 <_Z12writeVTKFileiPPPPdiiiddd.cold+0x19>
    a6c4:	66 66 2e 0f 1f 84 00 	data16 cs nopw 0x0(%rax,%rax,1)
    a6cb:	00 00 00 00 
    a6cf:	90                   	nop

000000000000a6d0 <_Z14writeVTKFile3DRKNSt7__cxx1112basic_stringIcSt11char_traitsIcESaIcEEERKSt6vectorIS7_IS7_IdSaIdEESaIS9_EESaISB_EESF_SF_SF_ddd>:
    a6d0:	f3 0f 1e fa          	endbr64 
    a6d4:	41 57                	push   %r15
    a6d6:	41 56                	push   %r14
    a6d8:	41 55                	push   %r13
    a6da:	41 54                	push   %r12
    a6dc:	55                   	push   %rbp
    a6dd:	53                   	push   %rbx
    a6de:	48 89 fb             	mov    %rdi,%rbx
    a6e1:	48 81 ec 98 02 00 00 	sub    $0x298,%rsp
    a6e8:	48 89 74 24 08       	mov    %rsi,0x8(%rsp)
    a6ed:	48 8d ac 24 78 01 00 	lea    0x178(%rsp),%rbp
    a6f4:	00 
    a6f5:	4c 8d b4 24 80 00 00 	lea    0x80(%rsp),%r14
    a6fc:	00 
    a6fd:	48 89 54 24 18       	mov    %rdx,0x18(%rsp)
    a702:	48 89 ef             	mov    %rbp,%rdi
    a705:	48 89 4c 24 20       	mov    %rcx,0x20(%rsp)
    a70a:	4c 89 44 24 28       	mov    %r8,0x28(%rsp)
    a70f:	f2 0f 11 44 24 48    	movsd  %xmm0,0x48(%rsp)
    a715:	f2 0f 11 4c 24 10    	movsd  %xmm1,0x10(%rsp)
    a71b:	f2 0f 11 54 24 30    	movsd  %xmm2,0x30(%rsp)
    a721:	64 48 8b 04 25 28 00 	mov    %fs:0x28,%rax
    a728:	00 00 
    a72a:	48 89 84 24 88 02 00 	mov    %rax,0x288(%rsp)
    a731:	00 
    a732:	31 c0                	xor    %eax,%eax
    a734:	48 89 6c 24 68       	mov    %rbp,0x68(%rsp)
    a739:	e8 e2 7c ff ff       	call   2420 <_ZNSt8ios_baseC2Ev@plt>
    a73e:	66 0f ef c0          	pxor   %xmm0,%xmm0
    a742:	45 31 c9             	xor    %r9d,%r9d
    a745:	31 f6                	xor    %esi,%esi
    a747:	48 8d 05 a2 42 00 00 	lea    0x42a2(%rip),%rax        # e9f0 <_ZTVSt9basic_iosIcSt11char_traitsIcEE@GLIBCXX_3.4+0x10>
    a74e:	0f 29 84 24 60 02 00 	movaps %xmm0,0x260(%rsp)
    a755:	00 
    a756:	48 89 84 24 78 01 00 	mov    %rax,0x178(%rsp)
    a75d:	00 
    a75e:	48 8b 05 23 43 00 00 	mov    0x4323(%rip),%rax        # ea88 <_ZTTSt14basic_ofstreamIcSt11char_traitsIcEE@GLIBCXX_3.4+0x8>
    a765:	66 44 89 8c 24 58 02 	mov    %r9w,0x258(%rsp)
    a76c:	00 00 
    a76e:	0f 29 84 24 70 02 00 	movaps %xmm0,0x270(%rsp)
    a775:	00 
    a776:	48 8b 78 e8          	mov    -0x18(%rax),%rdi
    a77a:	48 89 84 24 80 00 00 	mov    %rax,0x80(%rsp)
    a781:	00 
    a782:	48 8b 05 07 43 00 00 	mov    0x4307(%rip),%rax        # ea90 <_ZTTSt14basic_ofstreamIcSt11char_traitsIcEE@GLIBCXX_3.4+0x10>
    a789:	48 c7 84 24 50 02 00 	movq   $0x0,0x250(%rsp)
    a790:	00 00 00 00 00 
    a795:	4c 01 f7             	add    %r14,%rdi
    a798:	48 89 07             	mov    %rax,(%rdi)
    a79b:	e8 c0 7e ff ff       	call   2660 <_ZNSt9basic_iosIcSt11char_traitsIcEE4initEPSt15basic_streambufIcS1_E@plt>
    a7a0:	48 8d 05 d1 43 00 00 	lea    0x43d1(%rip),%rax        # eb78 <_ZTVSt14basic_ofstreamIcSt11char_traitsIcEE@GLIBCXX_3.4+0x18>
    a7a7:	48 89 84 24 80 00 00 	mov    %rax,0x80(%rsp)
    a7ae:	00 
    a7af:	48 83 c0 28          	add    $0x28,%rax
    a7b3:	48 89 84 24 78 01 00 	mov    %rax,0x178(%rsp)
    a7ba:	00 
    a7bb:	48 8d 84 24 88 00 00 	lea    0x88(%rsp),%rax
    a7c2:	00 
    a7c3:	48 89 c7             	mov    %rax,%rdi
    a7c6:	48 89 44 24 70       	mov    %rax,0x70(%rsp)
    a7cb:	49 89 c7             	mov    %rax,%r15
    a7ce:	e8 ed 7d ff ff       	call   25c0 <_ZNSt13basic_filebufIcSt11char_traitsIcEEC1Ev@plt>
    a7d3:	4c 89 fe             	mov    %r15,%rsi
    a7d6:	48 89 ef             	mov    %rbp,%rdi
    a7d9:	e8 82 7e ff ff       	call   2660 <_ZNSt9basic_iosIcSt11char_traitsIcEE4initEPSt15basic_streambufIcS1_E@plt>
    a7de:	48 8b 33             	mov    (%rbx),%rsi
    a7e1:	ba 10 00 00 00       	mov    $0x10,%edx
    a7e6:	4c 89 ff             	mov    %r15,%rdi
    a7e9:	e8 82 7d ff ff       	call   2570 <_ZNSt13basic_filebufIcSt11char_traitsIcEE4openEPKcSt13_Ios_Openmode@plt>
    a7ee:	48 8b 94 24 80 00 00 	mov    0x80(%rsp),%rdx
    a7f5:	00 
    a7f6:	48 8b 7a e8          	mov    -0x18(%rdx),%rdi
    a7fa:	4c 01 f7             	add    %r14,%rdi
    a7fd:	48 85 c0             	test   %rax,%rax
    a800:	0f 84 87 05 00 00    	je     ad8d <_Z14writeVTKFile3DRKNSt7__cxx1112basic_stringIcSt11char_traitsIcESaIcEEERKSt6vectorIS7_IS7_IdSaIdEESaIS9_EESaISB_EESF_SF_SF_ddd+0x6bd>
    a806:	31 f6                	xor    %esi,%esi
    a808:	e8 f3 7e ff ff       	call   2700 <_ZNSt9basic_iosIcSt11char_traitsIcEE5clearESt12_Ios_Iostate@plt>
    a80d:	ba 1b 00 00 00       	mov    $0x1b,%edx
    a812:	48 8d 35 21 22 00 00 	lea    0x2221(%rip),%rsi        # ca3a <_IO_stdin_used+0xa3a>
    a819:	4c 89 f7             	mov    %r14,%rdi
    a81c:	e8 bf 7d ff ff       	call   25e0 <_ZSt16__ostream_insertIcSt11char_traitsIcEERSt13basic_ostreamIT_T0_ES6_PKS3_l@plt>
    a821:	ba 0b 00 00 00       	mov    $0xb,%edx
    a826:	48 8d 35 ed 22 00 00 	lea    0x22ed(%rip),%rsi        # cb1a <_IO_stdin_used+0xb1a>
    a82d:	4c 89 f7             	mov    %r14,%rdi
    a830:	e8 ab 7d ff ff       	call   25e0 <_ZSt16__ostream_insertIcSt11char_traitsIcEERSt13basic_ostreamIT_T0_ES6_PKS3_l@plt>
    a835:	ba 06 00 00 00       	mov    $0x6,%edx
    a83a:	48 8d 35 2b 22 00 00 	lea    0x222b(%rip),%rsi        # ca6c <_IO_stdin_used+0xa6c>
    a841:	4c 89 f7             	mov    %r14,%rdi
    a844:	e8 97 7d ff ff       	call   25e0 <_ZSt16__ostream_insertIcSt11char_traitsIcEERSt13basic_ostreamIT_T0_ES6_PKS3_l@plt>
    a849:	ba 18 00 00 00       	mov    $0x18,%edx
    a84e:	48 8d 35 d1 22 00 00 	lea    0x22d1(%rip),%rsi        # cb26 <_IO_stdin_used+0xb26>
    a855:	4c 89 f7             	mov    %r14,%rdi
    a858:	e8 83 7d ff ff       	call   25e0 <_ZSt16__ostream_insertIcSt11char_traitsIcEERSt13basic_ostreamIT_T0_ES6_PKS3_l@plt>
    a85d:	48 8b 44 24 08       	mov    0x8(%rsp),%rax
    a862:	4c 89 f7             	mov    %r14,%rdi
    a865:	48 be ab aa aa aa aa 	movabs $0xaaaaaaaaaaaaaaab,%rsi
    a86c:	aa aa aa 
    a86f:	48 8b 08             	mov    (%rax),%rcx
    a872:	48 8b 40 08          	mov    0x8(%rax),%rax
    a876:	48 89 04 24          	mov    %rax,(%rsp)
    a87a:	48 29 c8             	sub    %rcx,%rax
    a87d:	48 8b 11             	mov    (%rcx),%rdx
    a880:	48 c1 f8 03          	sar    $0x3,%rax
    a884:	48 0f af c6          	imul   %rsi,%rax
    a888:	48 89 44 24 58       	mov    %rax,0x58(%rsp)
    a88d:	48 89 c3             	mov    %rax,%rbx
    a890:	89 44 24 78          	mov    %eax,0x78(%rsp)
    a894:	48 8b 41 08          	mov    0x8(%rcx),%rax
    a898:	48 29 d0             	sub    %rdx,%rax
    a89b:	48 c1 f8 03          	sar    $0x3,%rax
    a89f:	48 0f af c6          	imul   %rsi,%rax
    a8a3:	48 8d 35 e4 21 00 00 	lea    0x21e4(%rip),%rsi        # ca8e <_IO_stdin_used+0xa8e>
    a8aa:	48 89 44 24 60       	mov    %rax,0x60(%rsp)
    a8af:	49 89 c5             	mov    %rax,%r13
    a8b2:	89 44 24 3c          	mov    %eax,0x3c(%rsp)
    a8b6:	48 8b 42 08          	mov    0x8(%rdx),%rax
    a8ba:	48 2b 02             	sub    (%rdx),%rax
    a8bd:	ba 0b 00 00 00       	mov    $0xb,%edx
    a8c2:	48 c1 f8 03          	sar    $0x3,%rax
    a8c6:	48 89 44 24 50       	mov    %rax,0x50(%rsp)
    a8cb:	89 44 24 38          	mov    %eax,0x38(%rsp)
    a8cf:	e8 0c 7d ff ff       	call   25e0 <_ZSt16__ostream_insertIcSt11char_traitsIcEERSt13basic_ostreamIT_T0_ES6_PKS3_l@plt>
    a8d4:	89 de                	mov    %ebx,%esi
    a8d6:	4c 89 f7             	mov    %r14,%rdi
    a8d9:	e8 42 7e ff ff       	call   2720 <_ZNSolsEi@plt>
    a8de:	4c 8d 25 f6 1e 00 00 	lea    0x1ef6(%rip),%r12        # c7db <_IO_stdin_used+0x7db>
    a8e5:	ba 01 00 00 00       	mov    $0x1,%edx
    a8ea:	48 89 c7             	mov    %rax,%rdi
    a8ed:	48 89 c5             	mov    %rax,%rbp
    a8f0:	4c 89 e6             	mov    %r12,%rsi
    a8f3:	e8 e8 7c ff ff       	call   25e0 <_ZSt16__ostream_insertIcSt11char_traitsIcEERSt13basic_ostreamIT_T0_ES6_PKS3_l@plt>
    a8f8:	8b 74 24 3c          	mov    0x3c(%rsp),%esi
    a8fc:	48 89 ef             	mov    %rbp,%rdi
    a8ff:	e8 1c 7e ff ff       	call   2720 <_ZNSolsEi@plt>
    a904:	ba 01 00 00 00       	mov    $0x1,%edx
    a909:	4c 89 e6             	mov    %r12,%rsi
    a90c:	48 89 c7             	mov    %rax,%rdi
    a90f:	48 89 c5             	mov    %rax,%rbp
    a912:	e8 c9 7c ff ff       	call   25e0 <_ZSt16__ostream_insertIcSt11char_traitsIcEERSt13basic_ostreamIT_T0_ES6_PKS3_l@plt>
    a917:	8b 74 24 38          	mov    0x38(%rsp),%esi
    a91b:	48 89 ef             	mov    %rbp,%rdi
    a91e:	e8 fd 7d ff ff       	call   2720 <_ZNSolsEi@plt>
    a923:	4c 8d 3d ee 21 00 00 	lea    0x21ee(%rip),%r15        # cb18 <_IO_stdin_used+0xb18>
    a92a:	48 89 c7             	mov    %rax,%rdi
    a92d:	ba 01 00 00 00       	mov    $0x1,%edx
    a932:	4c 89 fe             	mov    %r15,%rsi
    a935:	e8 a6 7c ff ff       	call   25e0 <_ZSt16__ostream_insertIcSt11char_traitsIcEERSt13basic_ostreamIT_T0_ES6_PKS3_l@plt>
    a93a:	ba 07 00 00 00       	mov    $0x7,%edx
    a93f:	48 8d 35 f9 21 00 00 	lea    0x21f9(%rip),%rsi        # cb3f <_IO_stdin_used+0xb3f>
    a946:	4c 89 f7             	mov    %r14,%rdi
    a949:	e8 92 7c ff ff       	call   25e0 <_ZSt16__ostream_insertIcSt11char_traitsIcEERSt13basic_ostreamIT_T0_ES6_PKS3_l@plt>
    a94e:	44 89 e9             	mov    %r13d,%ecx
    a951:	4c 89 f7             	mov    %r14,%rdi
    a954:	0f af cb             	imul   %ebx,%ecx
    a957:	0f af 4c 24 50       	imul   0x50(%rsp),%ecx
    a95c:	89 ce                	mov    %ecx,%esi
    a95e:	89 4c 24 7c          	mov    %ecx,0x7c(%rsp)
    a962:	e8 b9 7d ff ff       	call   2720 <_ZNSolsEi@plt>
    a967:	48 89 c7             	mov    %rax,%rdi
    a96a:	ba 07 00 00 00       	mov    $0x7,%edx
    a96f:	48 8d 35 f9 21 00 00 	lea    0x21f9(%rip),%rsi        # cb6f <_IO_stdin_used+0xb6f>
    a976:	e8 65 7c ff ff       	call   25e0 <_ZSt16__ostream_insertIcSt11char_traitsIcEERSt13basic_ostreamIT_T0_ES6_PKS3_l@plt>
    a97b:	c7 44 24 40 00 00 00 	movl   $0x0,0x40(%rsp)
    a982:	00 
    a983:	85 db                	test   %ebx,%ebx
    a985:	0f 8e d8 00 00 00    	jle    aa63 <_Z14writeVTKFile3DRKNSt7__cxx1112basic_stringIcSt11char_traitsIcESaIcEEERKSt6vectorIS7_IS7_IdSaIdEESaIS9_EESaISB_EESF_SF_SF_ddd+0x393>
    a98b:	0f 1f 44 00 00       	nopl   0x0(%rax,%rax,1)
    a990:	8b 7c 24 3c          	mov    0x3c(%rsp),%edi
    a994:	45 31 ed             	xor    %r13d,%r13d
    a997:	85 ff                	test   %edi,%edi
    a999:	0f 8e b1 00 00 00    	jle    aa50 <_Z14writeVTKFile3DRKNSt7__cxx1112basic_stringIcSt11char_traitsIcESaIcEEERKSt6vectorIS7_IS7_IdSaIdEESaIS9_EESaISB_EESF_SF_SF_ddd+0x380>
    a99f:	90                   	nop
    a9a0:	44 8b 44 24 38       	mov    0x38(%rsp),%r8d
    a9a5:	45 85 c0             	test   %r8d,%r8d
    a9a8:	0f 8e 93 00 00 00    	jle    aa41 <_Z14writeVTKFile3DRKNSt7__cxx1112basic_stringIcSt11char_traitsIcESaIcEEERKSt6vectorIS7_IS7_IdSaIdEESaIS9_EESaISB_EESF_SF_SF_ddd+0x371>
    a9ae:	66 0f ef c0          	pxor   %xmm0,%xmm0
    a9b2:	31 db                	xor    %ebx,%ebx
    a9b4:	f2 0f 2a 44 24 40    	cvtsi2sdl 0x40(%rsp),%xmm0
    a9ba:	f2 0f 59 44 24 48    	mulsd  0x48(%rsp),%xmm0
    a9c0:	f2 0f 11 04 24       	movsd  %xmm0,(%rsp)
    a9c5:	0f 1f 00             	nopl   (%rax)
    a9c8:	f2 0f 10 04 24       	movsd  (%rsp),%xmm0
    a9cd:	4c 89 f7             	mov    %r14,%rdi
    a9d0:	e8 fb 7c ff ff       	call   26d0 <_ZNSo9_M_insertIdEERSoT_@plt>
    a9d5:	ba 01 00 00 00       	mov    $0x1,%edx
    a9da:	4c 89 e6             	mov    %r12,%rsi
    a9dd:	48 89 c7             	mov    %rax,%rdi
    a9e0:	48 89 c5             	mov    %rax,%rbp
    a9e3:	e8 f8 7b ff ff       	call   25e0 <_ZSt16__ostream_insertIcSt11char_traitsIcEERSt13basic_ostreamIT_T0_ES6_PKS3_l@plt>
    a9e8:	66 0f ef c0          	pxor   %xmm0,%xmm0
    a9ec:	48 89 ef             	mov    %rbp,%rdi
    a9ef:	f2 41 0f 2a c5       	cvtsi2sd %r13d,%xmm0
    a9f4:	f2 0f 59 44 24 10    	mulsd  0x10(%rsp),%xmm0
    a9fa:	e8 d1 7c ff ff       	call   26d0 <_ZNSo9_M_insertIdEERSoT_@plt>
    a9ff:	ba 01 00 00 00       	mov    $0x1,%edx
    aa04:	4c 89 e6             	mov    %r12,%rsi
    aa07:	48 89 c7             	mov    %rax,%rdi
    aa0a:	48 89 c5             	mov    %rax,%rbp
    aa0d:	e8 ce 7b ff ff       	call   25e0 <_ZSt16__ostream_insertIcSt11char_traitsIcEERSt13basic_ostreamIT_T0_ES6_PKS3_l@plt>
    aa12:	66 0f ef c0          	pxor   %xmm0,%xmm0
    aa16:	48 89 ef             	mov    %rbp,%rdi
    aa19:	f2 0f 2a c3          	cvtsi2sd %ebx,%xmm0
    aa1d:	f2 0f 59 44 24 30    	mulsd  0x30(%rsp),%xmm0
    aa23:	e8 a8 7c ff ff       	call   26d0 <_ZNSo9_M_insertIdEERSoT_@plt>
    aa28:	48 89 c7             	mov    %rax,%rdi
    aa2b:	ba 01 00 00 00       	mov    $0x1,%edx
    aa30:	4c 89 fe             	mov    %r15,%rsi
    aa33:	e8 a8 7b ff ff       	call   25e0 <_ZSt16__ostream_insertIcSt11char_traitsIcEERSt13basic_ostreamIT_T0_ES6_PKS3_l@plt>
    aa38:	83 c3 01             	add    $0x1,%ebx
    aa3b:	39 5c 24 38          	cmp    %ebx,0x38(%rsp)
    aa3f:	75 87                	jne    a9c8 <_Z14writeVTKFile3DRKNSt7__cxx1112basic_stringIcSt11char_traitsIcESaIcEEERKSt6vectorIS7_IS7_IdSaIdEESaIS9_EESaISB_EESF_SF_SF_ddd+0x2f8>
    aa41:	41 83 c5 01          	add    $0x1,%r13d
    aa45:	44 39 6c 24 3c       	cmp    %r13d,0x3c(%rsp)
    aa4a:	0f 85 50 ff ff ff    	jne    a9a0 <_Z14writeVTKFile3DRKNSt7__cxx1112basic_stringIcSt11char_traitsIcESaIcEEERKSt6vectorIS7_IS7_IdSaIdEESaIS9_EESaISB_EESF_SF_SF_ddd+0x2d0>
    aa50:	83 44 24 40 01       	addl   $0x1,0x40(%rsp)
    aa55:	8b 44 24 40          	mov    0x40(%rsp),%eax
    aa59:	39 44 24 78          	cmp    %eax,0x78(%rsp)
    aa5d:	0f 85 2d ff ff ff    	jne    a990 <_Z14writeVTKFile3DRKNSt7__cxx1112basic_stringIcSt11char_traitsIcESaIcEEERKSt6vectorIS7_IS7_IdSaIdEESaIS9_EESaISB_EESF_SF_SF_ddd+0x2c0>
    aa63:	ba 0b 00 00 00       	mov    $0xb,%edx
    aa68:	48 8d 35 42 20 00 00 	lea    0x2042(%rip),%rsi        # cab1 <_IO_stdin_used+0xab1>
    aa6f:	4c 89 f7             	mov    %r14,%rdi
    aa72:	e8 69 7b ff ff       	call   25e0 <_ZSt16__ostream_insertIcSt11char_traitsIcEERSt13basic_ostreamIT_T0_ES6_PKS3_l@plt>
    aa77:	8b 74 24 7c          	mov    0x7c(%rsp),%esi
    aa7b:	4c 89 f7             	mov    %r14,%rdi
    aa7e:	e8 9d 7c ff ff       	call   2720 <_ZNSolsEi@plt>
    aa83:	48 89 c7             	mov    %rax,%rdi
    aa86:	ba 01 00 00 00       	mov    $0x1,%edx
    aa8b:	4c 89 fe             	mov    %r15,%rsi
    aa8e:	e8 4d 7b ff ff       	call   25e0 <_ZSt16__ostream_insertIcSt11char_traitsIcEERSt13basic_ostreamIT_T0_ES6_PKS3_l@plt>
    aa93:	ba 17 00 00 00       	mov    $0x17,%edx
    aa98:	48 8d 35 a8 20 00 00 	lea    0x20a8(%rip),%rsi        # cb47 <_IO_stdin_used+0xb47>
    aa9f:	4c 89 f7             	mov    %r14,%rdi
    aaa2:	e8 39 7b ff ff       	call   25e0 <_ZSt16__ostream_insertIcSt11char_traitsIcEERSt13basic_ostreamIT_T0_ES6_PKS3_l@plt>
    aaa7:	48 8b 44 24 58       	mov    0x58(%rsp),%rax
    aaac:	85 c0                	test   %eax,%eax
    aaae:	0f 8e 37 01 00 00    	jle    abeb <_Z14writeVTKFile3DRKNSt7__cxx1112basic_stringIcSt11char_traitsIcESaIcEEERKSt6vectorIS7_IS7_IdSaIdEESaIS9_EESaISB_EESF_SF_SF_ddd+0x51b>
    aab4:	83 e8 01             	sub    $0x1,%eax
    aab7:	48 c7 04 24 00 00 00 	movq   $0x0,(%rsp)
    aabe:	00 
    aabf:	48 8d 44 40 03       	lea    0x3(%rax,%rax,2),%rax
    aac4:	48 c1 e0 03          	shl    $0x3,%rax
    aac8:	48 89 44 24 40       	mov    %rax,0x40(%rsp)
    aacd:	48 8b 44 24 60       	mov    0x60(%rsp),%rax
    aad2:	83 e8 01             	sub    $0x1,%eax
    aad5:	48 8d 44 40 03       	lea    0x3(%rax,%rax,2),%rax
    aada:	48 c1 e0 03          	shl    $0x3,%rax
    aade:	48 89 44 24 30       	mov    %rax,0x30(%rsp)
    aae3:	48 8b 44 24 50       	mov    0x50(%rsp),%rax
    aae8:	83 e8 01             	sub    $0x1,%eax
    aaeb:	48 8d 04 c5 08 00 00 	lea    0x8(,%rax,8),%rax
    aaf2:	00 
    aaf3:	48 89 44 24 10       	mov    %rax,0x10(%rsp)
    aaf8:	0f 1f 84 00 00 00 00 	nopl   0x0(%rax,%rax,1)
    aaff:	00 
    ab00:	8b 4c 24 3c          	mov    0x3c(%rsp),%ecx
    ab04:	45 31 ed             	xor    %r13d,%r13d
    ab07:	85 c9                	test   %ecx,%ecx
    ab09:	0f 8e c8 00 00 00    	jle    abd7 <_Z14writeVTKFile3DRKNSt7__cxx1112basic_stringIcSt11char_traitsIcESaIcEEERKSt6vectorIS7_IS7_IdSaIdEESaIS9_EESaISB_EESF_SF_SF_ddd+0x507>
    ab0f:	90                   	nop
    ab10:	8b 74 24 38          	mov    0x38(%rsp),%esi
    ab14:	31 db                	xor    %ebx,%ebx
    ab16:	85 f6                	test   %esi,%esi
    ab18:	0f 8e aa 00 00 00    	jle    abc8 <_Z14writeVTKFile3DRKNSt7__cxx1112basic_stringIcSt11char_traitsIcESaIcEEERKSt6vectorIS7_IS7_IdSaIdEESaIS9_EESaISB_EESF_SF_SF_ddd+0x4f8>
    ab1e:	66 90                	xchg   %ax,%ax
    ab20:	48 8b 44 24 08       	mov    0x8(%rsp),%rax
    ab25:	48 8b 0c 24          	mov    (%rsp),%rcx
    ab29:	4c 89 f7             	mov    %r14,%rdi
    ab2c:	48 8b 00             	mov    (%rax),%rax
    ab2f:	48 8b 04 08          	mov    (%rax,%rcx,1),%rax
    ab33:	4a 8b 04 28          	mov    (%rax,%r13,1),%rax
    ab37:	f2 0f 10 04 18       	movsd  (%rax,%rbx,1),%xmm0
    ab3c:	e8 8f 7b ff ff       	call   26d0 <_ZNSo9_M_insertIdEERSoT_@plt>
    ab41:	ba 01 00 00 00       	mov    $0x1,%edx
    ab46:	4c 89 e6             	mov    %r12,%rsi
    ab49:	48 89 c7             	mov    %rax,%rdi
    ab4c:	48 89 c5             	mov    %rax,%rbp
    ab4f:	e8 8c 7a ff ff       	call   25e0 <_ZSt16__ostream_insertIcSt11char_traitsIcEERSt13basic_ostreamIT_T0_ES6_PKS3_l@plt>
    ab54:	48 8b 44 24 18       	mov    0x18(%rsp),%rax
    ab59:	48 8b 0c 24          	mov    (%rsp),%rcx
    ab5d:	48 89 ef             	mov    %rbp,%rdi
    ab60:	48 8b 00             	mov    (%rax),%rax
    ab63:	48 8b 04 08          	mov    (%rax,%rcx,1),%rax
    ab67:	4a 8b 04 28          	mov    (%rax,%r13,1),%rax
    ab6b:	f2 0f 10 04 18       	movsd  (%rax,%rbx,1),%xmm0
    ab70:	e8 5b 7b ff ff       	call   26d0 <_ZNSo9_M_insertIdEERSoT_@plt>
    ab75:	ba 01 00 00 00       	mov    $0x1,%edx
    ab7a:	4c 89 e6             	mov    %r12,%rsi
    ab7d:	48 89 c7             	mov    %rax,%rdi
    ab80:	48 89 c5             	mov    %rax,%rbp
    ab83:	e8 58 7a ff ff       	call   25e0 <_ZSt16__ostream_insertIcSt11char_traitsIcEERSt13basic_ostreamIT_T0_ES6_PKS3_l@plt>
    ab88:	48 8b 44 24 20       	mov    0x20(%rsp),%rax
    ab8d:	48 8b 0c 24          	mov    (%rsp),%rcx
    ab91:	48 89 ef             	mov    %rbp,%rdi
    ab94:	48 8b 00             	mov    (%rax),%rax
    ab97:	48 8b 04 08          	mov    (%rax,%rcx,1),%rax
    ab9b:	4a 8b 04 28          	mov    (%rax,%r13,1),%rax
    ab9f:	f2 0f 10 04 18       	movsd  (%rax,%rbx,1),%xmm0
    aba4:	e8 27 7b ff ff       	call   26d0 <_ZNSo9_M_insertIdEERSoT_@plt>
    aba9:	48 89 c7             	mov    %rax,%rdi
    abac:	ba 01 00 00 00       	mov    $0x1,%edx
    abb1:	4c 89 fe             	mov    %r15,%rsi
    abb4:	e8 27 7a ff ff       	call   25e0 <_ZSt16__ostream_insertIcSt11char_traitsIcEERSt13basic_ostreamIT_T0_ES6_PKS3_l@plt>
    abb9:	48 83 c3 08          	add    $0x8,%rbx
    abbd:	48 39 5c 24 10       	cmp    %rbx,0x10(%rsp)
    abc2:	0f 85 58 ff ff ff    	jne    ab20 <_Z14writeVTKFile3DRKNSt7__cxx1112basic_stringIcSt11char_traitsIcESaIcEEERKSt6vectorIS7_IS7_IdSaIdEESaIS9_EESaISB_EESF_SF_SF_ddd+0x450>
    abc8:	49 83 c5 18          	add    $0x18,%r13
    abcc:	4c 39 6c 24 30       	cmp    %r13,0x30(%rsp)
    abd1:	0f 85 39 ff ff ff    	jne    ab10 <_Z14writeVTKFile3DRKNSt7__cxx1112basic_stringIcSt11char_traitsIcESaIcEEERKSt6vectorIS7_IS7_IdSaIdEESaIS9_EESaISB_EESF_SF_SF_ddd+0x440>
    abd7:	48 83 04 24 18       	addq   $0x18,(%rsp)
    abdc:	48 8b 04 24          	mov    (%rsp),%rax
    abe0:	48 39 44 24 40       	cmp    %rax,0x40(%rsp)
    abe5:	0f 85 15 ff ff ff    	jne    ab00 <_Z14writeVTKFile3DRKNSt7__cxx1112basic_stringIcSt11char_traitsIcESaIcEEERKSt6vectorIS7_IS7_IdSaIdEESaIS9_EESaISB_EESF_SF_SF_ddd+0x430>
    abeb:	ba 17 00 00 00       	mov    $0x17,%edx
    abf0:	48 8d 35 68 1f 00 00 	lea    0x1f68(%rip),%rsi        # cb5f <_IO_stdin_used+0xb5f>
    abf7:	4c 89 f7             	mov    %r14,%rdi
    abfa:	e8 e1 79 ff ff       	call   25e0 <_ZSt16__ostream_insertIcSt11char_traitsIcEERSt13basic_ostreamIT_T0_ES6_PKS3_l@plt>
    abff:	ba 15 00 00 00       	mov    $0x15,%edx
    ac04:	48 8d 35 cb 1e 00 00 	lea    0x1ecb(%rip),%rsi        # cad6 <_IO_stdin_used+0xad6>
    ac0b:	4c 89 f7             	mov    %r14,%rdi
    ac0e:	e8 cd 79 ff ff       	call   25e0 <_ZSt16__ostream_insertIcSt11char_traitsIcEERSt13basic_ostreamIT_T0_ES6_PKS3_l@plt>
    ac13:	48 8b 44 24 58       	mov    0x58(%rsp),%rax
    ac18:	85 c0                	test   %eax,%eax
    ac1a:	0f 8e ab 00 00 00    	jle    accb <_Z14writeVTKFile3DRKNSt7__cxx1112basic_stringIcSt11char_traitsIcESaIcEEERKSt6vectorIS7_IS7_IdSaIdEESaIS9_EESaISB_EESF_SF_SF_ddd+0x5fb>
    ac20:	83 e8 01             	sub    $0x1,%eax
    ac23:	45 31 e4             	xor    %r12d,%r12d
    ac26:	48 8d 44 40 03       	lea    0x3(%rax,%rax,2),%rax
    ac2b:	48 c1 e0 03          	shl    $0x3,%rax
    ac2f:	48 89 44 24 08       	mov    %rax,0x8(%rsp)
    ac34:	48 8b 44 24 60       	mov    0x60(%rsp),%rax
    ac39:	83 e8 01             	sub    $0x1,%eax
    ac3c:	48 8d 44 40 03       	lea    0x3(%rax,%rax,2),%rax
    ac41:	48 c1 e0 03          	shl    $0x3,%rax
    ac45:	48 89 04 24          	mov    %rax,(%rsp)
    ac49:	48 8b 44 24 50       	mov    0x50(%rsp),%rax
    ac4e:	83 e8 01             	sub    $0x1,%eax
    ac51:	4c 8d 2c c5 08 00 00 	lea    0x8(,%rax,8),%r13
    ac58:	00 
    ac59:	0f 1f 80 00 00 00 00 	nopl   0x0(%rax)
    ac60:	8b 44 24 3c          	mov    0x3c(%rsp),%eax
    ac64:	31 ed                	xor    %ebp,%ebp
    ac66:	85 c0                	test   %eax,%eax
    ac68:	7e 56                	jle    acc0 <_Z14writeVTKFile3DRKNSt7__cxx1112basic_stringIcSt11char_traitsIcESaIcEEERKSt6vectorIS7_IS7_IdSaIdEESaIS9_EESaISB_EESF_SF_SF_ddd+0x5f0>
    ac6a:	66 0f 1f 44 00 00    	nopw   0x0(%rax,%rax,1)
    ac70:	8b 54 24 38          	mov    0x38(%rsp),%edx
    ac74:	31 db                	xor    %ebx,%ebx
    ac76:	85 d2                	test   %edx,%edx
    ac78:	7e 3c                	jle    acb6 <_Z14writeVTKFile3DRKNSt7__cxx1112basic_stringIcSt11char_traitsIcESaIcEEERKSt6vectorIS7_IS7_IdSaIdEESaIS9_EESaISB_EESF_SF_SF_ddd+0x5e6>
    ac7a:	66 0f 1f 44 00 00    	nopw   0x0(%rax,%rax,1)
    ac80:	48 8b 44 24 28       	mov    0x28(%rsp),%rax
    ac85:	4c 89 f7             	mov    %r14,%rdi
    ac88:	48 8b 00             	mov    (%rax),%rax
    ac8b:	4a 8b 04 20          	mov    (%rax,%r12,1),%rax
    ac8f:	48 8b 04 28          	mov    (%rax,%rbp,1),%rax
    ac93:	f2 0f 10 04 18       	movsd  (%rax,%rbx,1),%xmm0
    ac98:	e8 33 7a ff ff       	call   26d0 <_ZNSo9_M_insertIdEERSoT_@plt>
    ac9d:	48 89 c7             	mov    %rax,%rdi
    aca0:	ba 01 00 00 00       	mov    $0x1,%edx
    aca5:	4c 89 fe             	mov    %r15,%rsi
    aca8:	e8 33 79 ff ff       	call   25e0 <_ZSt16__ostream_insertIcSt11char_traitsIcEERSt13basic_ostreamIT_T0_ES6_PKS3_l@plt>
    acad:	48 83 c3 08          	add    $0x8,%rbx
    acb1:	49 39 dd             	cmp    %rbx,%r13
    acb4:	75 ca                	jne    ac80 <_Z14writeVTKFile3DRKNSt7__cxx1112basic_stringIcSt11char_traitsIcESaIcEEERKSt6vectorIS7_IS7_IdSaIdEESaIS9_EESaISB_EESF_SF_SF_ddd+0x5b0>
    acb6:	48 83 c5 18          	add    $0x18,%rbp
    acba:	48 39 2c 24          	cmp    %rbp,(%rsp)
    acbe:	75 b0                	jne    ac70 <_Z14writeVTKFile3DRKNSt7__cxx1112basic_stringIcSt11char_traitsIcESaIcEEERKSt6vectorIS7_IS7_IdSaIdEESaIS9_EESaISB_EESF_SF_SF_ddd+0x5a0>
    acc0:	49 83 c4 18          	add    $0x18,%r12
    acc4:	4c 39 64 24 08       	cmp    %r12,0x8(%rsp)
    acc9:	75 95                	jne    ac60 <_Z14writeVTKFile3DRKNSt7__cxx1112basic_stringIcSt11char_traitsIcESaIcEEERKSt6vectorIS7_IS7_IdSaIdEESaIS9_EESaISB_EESF_SF_SF_ddd+0x590>
    accb:	48 8d 05 ce 3e 00 00 	lea    0x3ece(%rip),%rax        # eba0 <_ZTVSt14basic_ofstreamIcSt11char_traitsIcEE@GLIBCXX_3.4+0x40>
    acd2:	48 8b 7c 24 70       	mov    0x70(%rsp),%rdi
    acd7:	f3 0f 7e 05 d1 3e 00 	movq   0x3ed1(%rip),%xmm0        # ebb0 <_ZTVSt14basic_ofstreamIcSt11char_traitsIcEE@GLIBCXX_3.4+0x50>
    acde:	00 
    acdf:	48 89 84 24 78 01 00 	mov    %rax,0x178(%rsp)
    ace6:	00 
    ace7:	48 8d 05 02 3e 00 00 	lea    0x3e02(%rip),%rax        # eaf0 <_ZTVSt13basic_filebufIcSt11char_traitsIcEE@GLIBCXX_3.4+0x10>
    acee:	66 48 0f 6e f0       	movq   %rax,%xmm6
    acf3:	66 0f 6c c6          	punpcklqdq %xmm6,%xmm0
    acf7:	0f 29 84 24 80 00 00 	movaps %xmm0,0x80(%rsp)
    acfe:	00 
    acff:	e8 0c 77 ff ff       	call   2410 <_ZNSt13basic_filebufIcSt11char_traitsIcEE5closeEv@plt>
    ad04:	48 8d bc 24 f0 00 00 	lea    0xf0(%rsp),%rdi
    ad0b:	00 
    ad0c:	e8 4f 7a ff ff       	call   2760 <_ZNSt12__basic_fileIcED1Ev@plt>
    ad11:	48 8d 05 f8 3c 00 00 	lea    0x3cf8(%rip),%rax        # ea10 <_ZTVSt15basic_streambufIcSt11char_traitsIcEE@GLIBCXX_3.4+0x10>
    ad18:	48 8d bc 24 c0 00 00 	lea    0xc0(%rsp),%rdi
    ad1f:	00 
    ad20:	48 89 84 24 88 00 00 	mov    %rax,0x88(%rsp)
    ad27:	00 
    ad28:	e8 43 79 ff ff       	call   2670 <_ZNSt6localeD1Ev@plt>
    ad2d:	48 8b 05 54 3d 00 00 	mov    0x3d54(%rip),%rax        # ea88 <_ZTTSt14basic_ofstreamIcSt11char_traitsIcEE@GLIBCXX_3.4+0x8>
    ad34:	48 8b 7c 24 68       	mov    0x68(%rsp),%rdi
    ad39:	48 8b 0d 50 3d 00 00 	mov    0x3d50(%rip),%rcx        # ea90 <_ZTTSt14basic_ofstreamIcSt11char_traitsIcEE@GLIBCXX_3.4+0x10>
    ad40:	48 89 84 24 80 00 00 	mov    %rax,0x80(%rsp)
    ad47:	00 
    ad48:	48 8b 40 e8          	mov    -0x18(%rax),%rax
    ad4c:	48 89 8c 04 80 00 00 	mov    %rcx,0x80(%rsp,%rax,1)
    ad53:	00 
    ad54:	48 8d 05 95 3c 00 00 	lea    0x3c95(%rip),%rax        # e9f0 <_ZTVSt9basic_iosIcSt11char_traitsIcEE@GLIBCXX_3.4+0x10>
    ad5b:	48 89 84 24 78 01 00 	mov    %rax,0x178(%rsp)
    ad62:	00 
    ad63:	e8 d8 76 ff ff       	call   2440 <_ZNSt8ios_baseD2Ev@plt>
    ad68:	48 8b 84 24 88 02 00 	mov    0x288(%rsp),%rax
    ad6f:	00 
    ad70:	64 48 2b 04 25 28 00 	sub    %fs:0x28,%rax
    ad77:	00 00 
    ad79:	75 22                	jne    ad9d <_Z14writeVTKFile3DRKNSt7__cxx1112basic_stringIcSt11char_traitsIcESaIcEEERKSt6vectorIS7_IS7_IdSaIdEESaIS9_EESaISB_EESF_SF_SF_ddd+0x6cd>
    ad7b:	48 81 c4 98 02 00 00 	add    $0x298,%rsp
    ad82:	5b                   	pop    %rbx
    ad83:	5d                   	pop    %rbp
    ad84:	41 5c                	pop    %r12
    ad86:	41 5d                	pop    %r13
    ad88:	41 5e                	pop    %r14
    ad8a:	41 5f                	pop    %r15
    ad8c:	c3                   	ret    
    ad8d:	8b 77 20             	mov    0x20(%rdi),%esi
    ad90:	83 ce 04             	or     $0x4,%esi
    ad93:	e8 68 79 ff ff       	call   2700 <_ZNSt9basic_iosIcSt11char_traitsIcEE5clearESt12_Ios_Iostate@plt>
    ad98:	e9 70 fa ff ff       	jmp    a80d <_Z14writeVTKFile3DRKNSt7__cxx1112basic_stringIcSt11char_traitsIcESaIcEEERKSt6vectorIS7_IS7_IdSaIdEESaIS9_EESaISB_EESF_SF_SF_ddd+0x13d>
    ad9d:	e8 2e 78 ff ff       	call   25d0 <__stack_chk_fail@plt>
    ada2:	f3 0f 1e fa          	endbr64 
    ada6:	48 89 c5             	mov    %rax,%rbp
    ada9:	e9 3f 7c ff ff       	jmp    29ed <_Z14writeVTKFile3DRKNSt7__cxx1112basic_stringIcSt11char_traitsIcESaIcEEERKSt6vectorIS7_IS7_IdSaIdEESaIS9_EESaISB_EESF_SF_SF_ddd.cold+0x2c>
    adae:	f3 0f 1e fa          	endbr64 
    adb2:	48 89 c5             	mov    %rax,%rbp
    adb5:	e9 07 7c ff ff       	jmp    29c1 <_Z14writeVTKFile3DRKNSt7__cxx1112basic_stringIcSt11char_traitsIcESaIcEEERKSt6vectorIS7_IS7_IdSaIdEESaIS9_EESaISB_EESF_SF_SF_ddd.cold>
    adba:	f3 0f 1e fa          	endbr64 
    adbe:	48 89 c7             	mov    %rax,%rdi
    adc1:	e9 48 7c ff ff       	jmp    2a0e <_Z14writeVTKFile3DRKNSt7__cxx1112basic_stringIcSt11char_traitsIcESaIcEEERKSt6vectorIS7_IS7_IdSaIdEESaIS9_EESaISB_EESF_SF_SF_ddd.cold+0x4d>
    adc6:	f3 0f 1e fa          	endbr64 
    adca:	48 89 c5             	mov    %rax,%rbp
    adcd:	e9 f9 7b ff ff       	jmp    29cb <_Z14writeVTKFile3DRKNSt7__cxx1112basic_stringIcSt11char_traitsIcESaIcEEERKSt6vectorIS7_IS7_IdSaIdEESaIS9_EESaISB_EESF_SF_SF_ddd.cold+0xa>
    add2:	f3 0f 1e fa          	endbr64 
    add6:	48 89 c5             	mov    %rax,%rbp
    add9:	e9 3f 7c ff ff       	jmp    2a1d <_Z14writeVTKFile3DRKNSt7__cxx1112basic_stringIcSt11char_traitsIcESaIcEEERKSt6vectorIS7_IS7_IdSaIdEESaIS9_EESaISB_EESF_SF_SF_ddd.cold+0x5c>
    adde:	66 90                	xchg   %ax,%ax

000000000000ade0 <_Z12writeVTKFileRKNSt7__cxx1112basic_stringIcSt11char_traitsIcESaIcEEERKSt6vectorIS7_IdSaIdEESaIS9_EESD_SD_dd>:
    ade0:	f3 0f 1e fa          	endbr64 
    ade4:	41 57                	push   %r15
    ade6:	49 89 f7             	mov    %rsi,%r15
    ade9:	41 56                	push   %r14
    adeb:	41 55                	push   %r13
    aded:	41 54                	push   %r12
    adef:	49 89 cc             	mov    %rcx,%r12
    adf2:	55                   	push   %rbp
    adf3:	53                   	push   %rbx
    adf4:	48 81 ec 68 02 00 00 	sub    $0x268,%rsp
    adfb:	48 89 7c 24 30       	mov    %rdi,0x30(%rsp)
    ae00:	48 8d 9c 24 48 01 00 	lea    0x148(%rsp),%rbx
    ae07:	00 
    ae08:	4c 8d 74 24 50       	lea    0x50(%rsp),%r14
    ae0d:	48 89 14 24          	mov    %rdx,(%rsp)
    ae11:	48 89 df             	mov    %rbx,%rdi
    ae14:	f2 0f 11 44 24 10    	movsd  %xmm0,0x10(%rsp)
    ae1a:	f2 0f 11 4c 24 20    	movsd  %xmm1,0x20(%rsp)
    ae20:	64 48 8b 04 25 28 00 	mov    %fs:0x28,%rax
    ae27:	00 00 
    ae29:	48 89 84 24 58 02 00 	mov    %rax,0x258(%rsp)
    ae30:	00 
    ae31:	31 c0                	xor    %eax,%eax
    ae33:	48 89 5c 24 48       	mov    %rbx,0x48(%rsp)
    ae38:	e8 e3 75 ff ff       	call   2420 <_ZNSt8ios_baseC2Ev@plt>
    ae3d:	48 8d 05 ac 3b 00 00 	lea    0x3bac(%rip),%rax        # e9f0 <_ZTVSt9basic_iosIcSt11char_traitsIcEE@GLIBCXX_3.4+0x10>
    ae44:	31 c9                	xor    %ecx,%ecx
    ae46:	31 f6                	xor    %esi,%esi
    ae48:	48 89 84 24 48 01 00 	mov    %rax,0x148(%rsp)
    ae4f:	00 
    ae50:	66 0f ef c0          	pxor   %xmm0,%xmm0
    ae54:	48 8b 05 2d 3c 00 00 	mov    0x3c2d(%rip),%rax        # ea88 <_ZTTSt14basic_ofstreamIcSt11char_traitsIcEE@GLIBCXX_3.4+0x8>
    ae5b:	66 89 8c 24 28 02 00 	mov    %cx,0x228(%rsp)
    ae62:	00 
    ae63:	0f 29 84 24 30 02 00 	movaps %xmm0,0x230(%rsp)
    ae6a:	00 
    ae6b:	0f 29 84 24 40 02 00 	movaps %xmm0,0x240(%rsp)
    ae72:	00 
    ae73:	48 8b 78 e8          	mov    -0x18(%rax),%rdi
    ae77:	48 89 44 24 50       	mov    %rax,0x50(%rsp)
    ae7c:	48 8b 05 0d 3c 00 00 	mov    0x3c0d(%rip),%rax        # ea90 <_ZTTSt14basic_ofstreamIcSt11char_traitsIcEE@GLIBCXX_3.4+0x10>
    ae83:	48 c7 84 24 20 02 00 	movq   $0x0,0x220(%rsp)
    ae8a:	00 00 00 00 00 
    ae8f:	4c 01 f7             	add    %r14,%rdi
    ae92:	48 89 07             	mov    %rax,(%rdi)
    ae95:	e8 c6 77 ff ff       	call   2660 <_ZNSt9basic_iosIcSt11char_traitsIcEE4initEPSt15basic_streambufIcS1_E@plt>
    ae9a:	48 8d 05 d7 3c 00 00 	lea    0x3cd7(%rip),%rax        # eb78 <_ZTVSt14basic_ofstreamIcSt11char_traitsIcEE@GLIBCXX_3.4+0x18>
    aea1:	48 89 44 24 50       	mov    %rax,0x50(%rsp)
    aea6:	48 83 c0 28          	add    $0x28,%rax
    aeaa:	48 89 84 24 48 01 00 	mov    %rax,0x148(%rsp)
    aeb1:	00 
    aeb2:	48 8d 44 24 58       	lea    0x58(%rsp),%rax
    aeb7:	48 89 c7             	mov    %rax,%rdi
    aeba:	48 89 44 24 28       	mov    %rax,0x28(%rsp)
    aebf:	48 89 c5             	mov    %rax,%rbp
    aec2:	e8 f9 76 ff ff       	call   25c0 <_ZNSt13basic_filebufIcSt11char_traitsIcEEC1Ev@plt>
    aec7:	48 89 ee             	mov    %rbp,%rsi
    aeca:	48 89 df             	mov    %rbx,%rdi
    aecd:	e8 8e 77 ff ff       	call   2660 <_ZNSt9basic_iosIcSt11char_traitsIcEE4initEPSt15basic_streambufIcS1_E@plt>
    aed2:	48 8b 44 24 30       	mov    0x30(%rsp),%rax
    aed7:	48 8b 7c 24 28       	mov    0x28(%rsp),%rdi
    aedc:	ba 10 00 00 00       	mov    $0x10,%edx
    aee1:	48 8b 30             	mov    (%rax),%rsi
    aee4:	e8 87 76 ff ff       	call   2570 <_ZNSt13basic_filebufIcSt11char_traitsIcEE4openEPKcSt13_Ios_Openmode@plt>
    aee9:	48 8b 54 24 50       	mov    0x50(%rsp),%rdx
    aeee:	48 8b 7a e8          	mov    -0x18(%rdx),%rdi
    aef2:	4c 01 f7             	add    %r14,%rdi
    aef5:	48 85 c0             	test   %rax,%rax
    aef8:	0f 84 2a 04 00 00    	je     b328 <_Z12writeVTKFileRKNSt7__cxx1112basic_stringIcSt11char_traitsIcESaIcEEERKSt6vectorIS7_IdSaIdEESaIS9_EESD_SD_dd+0x548>
    aefe:	31 f6                	xor    %esi,%esi
    af00:	e8 fb 77 ff ff       	call   2700 <_ZNSt9basic_iosIcSt11char_traitsIcEE5clearESt12_Ios_Iostate@plt>
    af05:	49 8b 17             	mov    (%r15),%rdx
    af08:	49 8b 47 08          	mov    0x8(%r15),%rax
    af0c:	4c 89 f7             	mov    %r14,%rdi
    af0f:	48 b9 ab aa aa aa aa 	movabs $0xaaaaaaaaaaaaaaab,%rcx
    af16:	aa aa aa 
    af19:	48 8d 35 1a 1b 00 00 	lea    0x1b1a(%rip),%rsi        # ca3a <_IO_stdin_used+0xa3a>
    af20:	48 29 d0             	sub    %rdx,%rax
    af23:	48 c1 f8 03          	sar    $0x3,%rax
    af27:	48 0f af c1          	imul   %rcx,%rax
    af2b:	48 89 44 24 40       	mov    %rax,0x40(%rsp)
    af30:	41 89 c5             	mov    %eax,%r13d
    af33:	89 44 24 1c          	mov    %eax,0x1c(%rsp)
    af37:	48 8b 42 08          	mov    0x8(%rdx),%rax
    af3b:	48 2b 02             	sub    (%rdx),%rax
    af3e:	ba 1b 00 00 00       	mov    $0x1b,%edx
    af43:	48 c1 f8 03          	sar    $0x3,%rax
    af47:	48 89 44 24 38       	mov    %rax,0x38(%rsp)
    af4c:	89 c3                	mov    %eax,%ebx
    af4e:	e8 8d 76 ff ff       	call   25e0 <_ZSt16__ostream_insertIcSt11char_traitsIcEERSt13basic_ostreamIT_T0_ES6_PKS3_l@plt>
    af53:	ba 15 00 00 00       	mov    $0x15,%edx
    af58:	48 8d 35 f7 1a 00 00 	lea    0x1af7(%rip),%rsi        # ca56 <_IO_stdin_used+0xa56>
    af5f:	4c 89 f7             	mov    %r14,%rdi
    af62:	e8 79 76 ff ff       	call   25e0 <_ZSt16__ostream_insertIcSt11char_traitsIcEERSt13basic_ostreamIT_T0_ES6_PKS3_l@plt>
    af67:	ba 06 00 00 00       	mov    $0x6,%edx
    af6c:	48 8d 35 f9 1a 00 00 	lea    0x1af9(%rip),%rsi        # ca6c <_IO_stdin_used+0xa6c>
    af73:	4c 89 f7             	mov    %r14,%rdi
    af76:	e8 65 76 ff ff       	call   25e0 <_ZSt16__ostream_insertIcSt11char_traitsIcEERSt13basic_ostreamIT_T0_ES6_PKS3_l@plt>
    af7b:	ba 1a 00 00 00       	mov    $0x1a,%edx
    af80:	48 8d 35 ec 1a 00 00 	lea    0x1aec(%rip),%rsi        # ca73 <_IO_stdin_used+0xa73>
    af87:	4c 89 f7             	mov    %r14,%rdi
    af8a:	e8 51 76 ff ff       	call   25e0 <_ZSt16__ostream_insertIcSt11char_traitsIcEERSt13basic_ostreamIT_T0_ES6_PKS3_l@plt>
    af8f:	ba 0b 00 00 00       	mov    $0xb,%edx
    af94:	48 8d 35 f3 1a 00 00 	lea    0x1af3(%rip),%rsi        # ca8e <_IO_stdin_used+0xa8e>
    af9b:	4c 89 f7             	mov    %r14,%rdi
    af9e:	e8 3d 76 ff ff       	call   25e0 <_ZSt16__ostream_insertIcSt11char_traitsIcEERSt13basic_ostreamIT_T0_ES6_PKS3_l@plt>
    afa3:	44 89 ee             	mov    %r13d,%esi
    afa6:	4c 89 f7             	mov    %r14,%rdi
    afa9:	e8 72 77 ff ff       	call   2720 <_ZNSolsEi@plt>
    afae:	4c 8d 2d 26 18 00 00 	lea    0x1826(%rip),%r13        # c7db <_IO_stdin_used+0x7db>
    afb5:	ba 01 00 00 00       	mov    $0x1,%edx
    afba:	48 89 c7             	mov    %rax,%rdi
    afbd:	48 89 c5             	mov    %rax,%rbp
    afc0:	4c 89 ee             	mov    %r13,%rsi
    afc3:	e8 18 76 ff ff       	call   25e0 <_ZSt16__ostream_insertIcSt11char_traitsIcEERSt13basic_ostreamIT_T0_ES6_PKS3_l@plt>
    afc8:	89 de                	mov    %ebx,%esi
    afca:	48 89 ef             	mov    %rbp,%rdi
    afcd:	e8 4e 77 ff ff       	call   2720 <_ZNSolsEi@plt>
    afd2:	48 8d 1d 9e 1b 00 00 	lea    0x1b9e(%rip),%rbx        # cb77 <_IO_stdin_used+0xb77>
    afd9:	48 89 c7             	mov    %rax,%rdi
    afdc:	ba 03 00 00 00       	mov    $0x3,%edx
    afe1:	48 89 de             	mov    %rbx,%rsi
    afe4:	e8 f7 75 ff ff       	call   25e0 <_ZSt16__ostream_insertIcSt11char_traitsIcEERSt13basic_ostreamIT_T0_ES6_PKS3_l@plt>
    afe9:	ba 0d 00 00 00       	mov    $0xd,%edx
    afee:	48 8d 35 a5 1a 00 00 	lea    0x1aa5(%rip),%rsi        # ca9a <_IO_stdin_used+0xa9a>
    aff5:	4c 89 f7             	mov    %r14,%rdi
    aff8:	e8 e3 75 ff ff       	call   25e0 <_ZSt16__ostream_insertIcSt11char_traitsIcEERSt13basic_ostreamIT_T0_ES6_PKS3_l@plt>
    affd:	ba 08 00 00 00       	mov    $0x8,%edx
    b002:	48 8d 35 9f 1a 00 00 	lea    0x1a9f(%rip),%rsi        # caa8 <_IO_stdin_used+0xaa8>
    b009:	4c 89 f7             	mov    %r14,%rdi
    b00c:	e8 cf 75 ff ff       	call   25e0 <_ZSt16__ostream_insertIcSt11char_traitsIcEERSt13basic_ostreamIT_T0_ES6_PKS3_l@plt>
    b011:	f2 0f 10 44 24 10    	movsd  0x10(%rsp),%xmm0
    b017:	4c 89 f7             	mov    %r14,%rdi
    b01a:	e8 b1 76 ff ff       	call   26d0 <_ZNSo9_M_insertIdEERSoT_@plt>
    b01f:	ba 01 00 00 00       	mov    $0x1,%edx
    b024:	4c 89 ee             	mov    %r13,%rsi
    b027:	48 89 c7             	mov    %rax,%rdi
    b02a:	48 89 c5             	mov    %rax,%rbp
    b02d:	e8 ae 75 ff ff       	call   25e0 <_ZSt16__ostream_insertIcSt11char_traitsIcEERSt13basic_ostreamIT_T0_ES6_PKS3_l@plt>
    b032:	f2 0f 10 44 24 20    	movsd  0x20(%rsp),%xmm0
    b038:	48 89 ef             	mov    %rbp,%rdi
    b03b:	e8 90 76 ff ff       	call   26d0 <_ZNSo9_M_insertIdEERSoT_@plt>
    b040:	48 89 c7             	mov    %rax,%rdi
    b043:	ba 03 00 00 00       	mov    $0x3,%edx
    b048:	48 89 de             	mov    %rbx,%rsi
    b04b:	e8 90 75 ff ff       	call   25e0 <_ZSt16__ostream_insertIcSt11char_traitsIcEERSt13basic_ostreamIT_T0_ES6_PKS3_l@plt>
    b050:	ba 0b 00 00 00       	mov    $0xb,%edx
    b055:	48 8d 35 55 1a 00 00 	lea    0x1a55(%rip),%rsi        # cab1 <_IO_stdin_used+0xab1>
    b05c:	4c 89 f7             	mov    %r14,%rdi
    b05f:	e8 7c 75 ff ff       	call   25e0 <_ZSt16__ostream_insertIcSt11char_traitsIcEERSt13basic_ostreamIT_T0_ES6_PKS3_l@plt>
    b064:	48 8b 5c 24 38       	mov    0x38(%rsp),%rbx
    b069:	48 8b 6c 24 40       	mov    0x40(%rsp),%rbp
    b06e:	4c 89 f7             	mov    %r14,%rdi
    b071:	89 de                	mov    %ebx,%esi
    b073:	0f af f5             	imul   %ebp,%esi
    b076:	e8 a5 76 ff ff       	call   2720 <_ZNSolsEi@plt>
    b07b:	48 89 c7             	mov    %rax,%rdi
    b07e:	ba 01 00 00 00       	mov    $0x1,%edx
    b083:	48 8d 35 8e 1a 00 00 	lea    0x1a8e(%rip),%rsi        # cb18 <_IO_stdin_used+0xb18>
    b08a:	e8 51 75 ff ff       	call   25e0 <_ZSt16__ostream_insertIcSt11char_traitsIcEERSt13basic_ostreamIT_T0_ES6_PKS3_l@plt>
    b08f:	ba 18 00 00 00       	mov    $0x18,%edx
    b094:	48 8d 35 22 1a 00 00 	lea    0x1a22(%rip),%rsi        # cabd <_IO_stdin_used+0xabd>
    b09b:	4c 89 f7             	mov    %r14,%rdi
    b09e:	e8 3d 75 ff ff       	call   25e0 <_ZSt16__ostream_insertIcSt11char_traitsIcEERSt13basic_ostreamIT_T0_ES6_PKS3_l@plt>
    b0a3:	ba 15 00 00 00       	mov    $0x15,%edx
    b0a8:	48 8d 35 27 1a 00 00 	lea    0x1a27(%rip),%rsi        # cad6 <_IO_stdin_used+0xad6>
    b0af:	4c 89 f7             	mov    %r14,%rdi
    b0b2:	e8 29 75 ff ff       	call   25e0 <_ZSt16__ostream_insertIcSt11char_traitsIcEERSt13basic_ostreamIT_T0_ES6_PKS3_l@plt>
    b0b7:	85 db                	test   %ebx,%ebx
    b0b9:	0f 8e 88 00 00 00    	jle    b147 <_Z12writeVTKFileRKNSt7__cxx1112basic_stringIcSt11char_traitsIcESaIcEEERKSt6vectorIS7_IdSaIdEESaIS9_EESD_SD_dd+0x367>
    b0bf:	8d 43 ff             	lea    -0x1(%rbx),%eax
    b0c2:	48 8d 04 c5 08 00 00 	lea    0x8(,%rax,8),%rax
    b0c9:	00 
    b0ca:	48 89 44 24 20       	mov    %rax,0x20(%rsp)
    b0cf:	8d 45 ff             	lea    -0x1(%rbp),%eax
    b0d2:	31 ed                	xor    %ebp,%ebp
    b0d4:	48 8d 44 40 03       	lea    0x3(%rax,%rax,2),%rax
    b0d9:	48 c1 e0 03          	shl    $0x3,%rax
    b0dd:	48 89 44 24 10       	mov    %rax,0x10(%rsp)
    b0e2:	66 0f 1f 44 00 00    	nopw   0x0(%rax,%rax,1)
    b0e8:	8b 54 24 1c          	mov    0x1c(%rsp),%edx
    b0ec:	31 db                	xor    %ebx,%ebx
    b0ee:	85 d2                	test   %edx,%edx
    b0f0:	7e 36                	jle    b128 <_Z12writeVTKFileRKNSt7__cxx1112basic_stringIcSt11char_traitsIcESaIcEEERKSt6vectorIS7_IdSaIdEESaIS9_EESD_SD_dd+0x348>
    b0f2:	66 0f 1f 44 00 00    	nopw   0x0(%rax,%rax,1)
    b0f8:	49 8b 04 24          	mov    (%r12),%rax
    b0fc:	4c 89 f7             	mov    %r14,%rdi
    b0ff:	48 8b 04 18          	mov    (%rax,%rbx,1),%rax
    b103:	f2 0f 10 04 28       	movsd  (%rax,%rbp,1),%xmm0
    b108:	e8 c3 75 ff ff       	call   26d0 <_ZNSo9_M_insertIdEERSoT_@plt>
    b10d:	48 89 c7             	mov    %rax,%rdi
    b110:	ba 01 00 00 00       	mov    $0x1,%edx
    b115:	4c 89 ee             	mov    %r13,%rsi
    b118:	e8 c3 74 ff ff       	call   25e0 <_ZSt16__ostream_insertIcSt11char_traitsIcEERSt13basic_ostreamIT_T0_ES6_PKS3_l@plt>
    b11d:	48 83 c3 18          	add    $0x18,%rbx
    b121:	48 39 5c 24 10       	cmp    %rbx,0x10(%rsp)
    b126:	75 d0                	jne    b0f8 <_Z12writeVTKFileRKNSt7__cxx1112basic_stringIcSt11char_traitsIcESaIcEEERKSt6vectorIS7_IdSaIdEESaIS9_EESD_SD_dd+0x318>
    b128:	ba 01 00 00 00       	mov    $0x1,%edx
    b12d:	48 8d 35 e4 19 00 00 	lea    0x19e4(%rip),%rsi        # cb18 <_IO_stdin_used+0xb18>
    b134:	4c 89 f7             	mov    %r14,%rdi
    b137:	e8 a4 74 ff ff       	call   25e0 <_ZSt16__ostream_insertIcSt11char_traitsIcEERSt13basic_ostreamIT_T0_ES6_PKS3_l@plt>
    b13c:	48 83 c5 08          	add    $0x8,%rbp
    b140:	48 39 6c 24 20       	cmp    %rbp,0x20(%rsp)
    b145:	75 a1                	jne    b0e8 <_Z12writeVTKFileRKNSt7__cxx1112basic_stringIcSt11char_traitsIcESaIcEEERKSt6vectorIS7_IdSaIdEESaIS9_EESD_SD_dd+0x308>
    b147:	ba 18 00 00 00       	mov    $0x18,%edx
    b14c:	48 8d 35 99 19 00 00 	lea    0x1999(%rip),%rsi        # caec <_IO_stdin_used+0xaec>
    b153:	4c 89 f7             	mov    %r14,%rdi
    b156:	e8 85 74 ff ff       	call   25e0 <_ZSt16__ostream_insertIcSt11char_traitsIcEERSt13basic_ostreamIT_T0_ES6_PKS3_l@plt>
    b15b:	48 8b 44 24 38       	mov    0x38(%rsp),%rax
    b160:	85 c0                	test   %eax,%eax
    b162:	0f 8e ab 00 00 00    	jle    b213 <_Z12writeVTKFileRKNSt7__cxx1112basic_stringIcSt11char_traitsIcESaIcEEERKSt6vectorIS7_IdSaIdEESaIS9_EESD_SD_dd+0x433>
    b168:	83 e8 01             	sub    $0x1,%eax
    b16b:	45 31 e4             	xor    %r12d,%r12d
    b16e:	48 8d 04 c5 08 00 00 	lea    0x8(,%rax,8),%rax
    b175:	00 
    b176:	48 89 44 24 20       	mov    %rax,0x20(%rsp)
    b17b:	48 8b 44 24 40       	mov    0x40(%rsp),%rax
    b180:	83 e8 01             	sub    $0x1,%eax
    b183:	48 8d 44 40 03       	lea    0x3(%rax,%rax,2),%rax
    b188:	48 c1 e0 03          	shl    $0x3,%rax
    b18c:	48 89 44 24 10       	mov    %rax,0x10(%rsp)
    b191:	0f 1f 80 00 00 00 00 	nopl   0x0(%rax)
    b198:	8b 44 24 1c          	mov    0x1c(%rsp),%eax
    b19c:	31 db                	xor    %ebx,%ebx
    b19e:	85 c0                	test   %eax,%eax
    b1a0:	7e 66                	jle    b208 <_Z12writeVTKFileRKNSt7__cxx1112basic_stringIcSt11char_traitsIcESaIcEEERKSt6vectorIS7_IdSaIdEESaIS9_EESD_SD_dd+0x428>
    b1a2:	66 0f 1f 44 00 00    	nopw   0x0(%rax,%rax,1)
    b1a8:	49 8b 07             	mov    (%r15),%rax
    b1ab:	4c 89 f7             	mov    %r14,%rdi
    b1ae:	48 8b 04 18          	mov    (%rax,%rbx,1),%rax
    b1b2:	f2 42 0f 10 04 20    	movsd  (%rax,%r12,1),%xmm0
    b1b8:	e8 13 75 ff ff       	call   26d0 <_ZNSo9_M_insertIdEERSoT_@plt>
    b1bd:	ba 01 00 00 00       	mov    $0x1,%edx
    b1c2:	4c 89 ee             	mov    %r13,%rsi
    b1c5:	48 89 c7             	mov    %rax,%rdi
    b1c8:	48 89 c5             	mov    %rax,%rbp
    b1cb:	e8 10 74 ff ff       	call   25e0 <_ZSt16__ostream_insertIcSt11char_traitsIcEERSt13basic_ostreamIT_T0_ES6_PKS3_l@plt>
    b1d0:	48 8b 04 24          	mov    (%rsp),%rax
    b1d4:	48 89 ef             	mov    %rbp,%rdi
    b1d7:	48 8b 00             	mov    (%rax),%rax
    b1da:	48 8b 04 18          	mov    (%rax,%rbx,1),%rax
    b1de:	f2 42 0f 10 04 20    	movsd  (%rax,%r12,1),%xmm0
    b1e4:	e8 e7 74 ff ff       	call   26d0 <_ZNSo9_M_insertIdEERSoT_@plt>
    b1e9:	48 89 c7             	mov    %rax,%rdi
    b1ec:	ba 03 00 00 00       	mov    $0x3,%edx
    b1f1:	48 8d 35 ac 18 00 00 	lea    0x18ac(%rip),%rsi        # caa4 <_IO_stdin_used+0xaa4>
    b1f8:	e8 e3 73 ff ff       	call   25e0 <_ZSt16__ostream_insertIcSt11char_traitsIcEERSt13basic_ostreamIT_T0_ES6_PKS3_l@plt>
    b1fd:	48 83 c3 18          	add    $0x18,%rbx
    b201:	48 39 5c 24 10       	cmp    %rbx,0x10(%rsp)
    b206:	75 a0                	jne    b1a8 <_Z12writeVTKFileRKNSt7__cxx1112basic_stringIcSt11char_traitsIcESaIcEEERKSt6vectorIS7_IdSaIdEESaIS9_EESD_SD_dd+0x3c8>
    b208:	49 83 c4 08          	add    $0x8,%r12
    b20c:	4c 39 64 24 20       	cmp    %r12,0x20(%rsp)
    b211:	75 85                	jne    b198 <_Z12writeVTKFileRKNSt7__cxx1112basic_stringIcSt11char_traitsIcESaIcEEERKSt6vectorIS7_IdSaIdEESaIS9_EESD_SD_dd+0x3b8>
    b213:	48 8b 7c 24 28       	mov    0x28(%rsp),%rdi
    b218:	e8 f3 71 ff ff       	call   2410 <_ZNSt13basic_filebufIcSt11char_traitsIcEE5closeEv@plt>
    b21d:	48 85 c0             	test   %rax,%rax
    b220:	0f 84 12 01 00 00    	je     b338 <_Z12writeVTKFileRKNSt7__cxx1112basic_stringIcSt11char_traitsIcESaIcEEERKSt6vectorIS7_IdSaIdEESaIS9_EESD_SD_dd+0x558>
    b226:	48 8d 2d 13 3e 00 00 	lea    0x3e13(%rip),%rbp        # f040 <_ZSt4cout@GLIBCXX_3.4>
    b22d:	ba 09 00 00 00       	mov    $0x9,%edx
    b232:	48 8d 35 cc 18 00 00 	lea    0x18cc(%rip),%rsi        # cb05 <_IO_stdin_used+0xb05>
    b239:	48 89 ef             	mov    %rbp,%rdi
    b23c:	e8 9f 73 ff ff       	call   25e0 <_ZSt16__ostream_insertIcSt11char_traitsIcEERSt13basic_ostreamIT_T0_ES6_PKS3_l@plt>
    b241:	48 8b 44 24 30       	mov    0x30(%rsp),%rax
    b246:	48 89 ef             	mov    %rbp,%rdi
    b249:	48 8b 50 08          	mov    0x8(%rax),%rdx
    b24d:	48 8b 30             	mov    (%rax),%rsi
    b250:	e8 8b 73 ff ff       	call   25e0 <_ZSt16__ostream_insertIcSt11char_traitsIcEERSt13basic_ostreamIT_T0_ES6_PKS3_l@plt>
    b255:	48 89 c7             	mov    %rax,%rdi
    b258:	48 8d 05 91 38 00 00 	lea    0x3891(%rip),%rax        # eaf0 <_ZTVSt13basic_filebufIcSt11char_traitsIcEE@GLIBCXX_3.4+0x10>
    b25f:	f3 0f 7e 15 49 39 00 	movq   0x3949(%rip),%xmm2        # ebb0 <_ZTVSt14basic_ofstreamIcSt11char_traitsIcEE@GLIBCXX_3.4+0x50>
    b266:	00 
    b267:	ba 0a 00 00 00       	mov    $0xa,%edx
    b26c:	66 48 0f 6e d8       	movq   %rax,%xmm3
    b271:	48 8d 35 97 18 00 00 	lea    0x1897(%rip),%rsi        # cb0f <_IO_stdin_used+0xb0f>
    b278:	66 0f 6c d3          	punpcklqdq %xmm3,%xmm2
    b27c:	0f 29 14 24          	movaps %xmm2,(%rsp)
    b280:	e8 5b 73 ff ff       	call   25e0 <_ZSt16__ostream_insertIcSt11char_traitsIcEERSt13basic_ostreamIT_T0_ES6_PKS3_l@plt>
    b285:	66 0f 6f 14 24       	movdqa (%rsp),%xmm2
    b28a:	48 8b 7c 24 28       	mov    0x28(%rsp),%rdi
    b28f:	48 8d 05 0a 39 00 00 	lea    0x390a(%rip),%rax        # eba0 <_ZTVSt14basic_ofstreamIcSt11char_traitsIcEE@GLIBCXX_3.4+0x40>
    b296:	48 89 84 24 48 01 00 	mov    %rax,0x148(%rsp)
    b29d:	00 
    b29e:	0f 29 54 24 50       	movaps %xmm2,0x50(%rsp)
    b2a3:	e8 68 71 ff ff       	call   2410 <_ZNSt13basic_filebufIcSt11char_traitsIcEE5closeEv@plt>
    b2a8:	48 8d bc 24 c0 00 00 	lea    0xc0(%rsp),%rdi
    b2af:	00 
    b2b0:	e8 ab 74 ff ff       	call   2760 <_ZNSt12__basic_fileIcED1Ev@plt>
    b2b5:	48 8d 05 54 37 00 00 	lea    0x3754(%rip),%rax        # ea10 <_ZTVSt15basic_streambufIcSt11char_traitsIcEE@GLIBCXX_3.4+0x10>
    b2bc:	48 8d bc 24 90 00 00 	lea    0x90(%rsp),%rdi
    b2c3:	00 
    b2c4:	48 89 44 24 58       	mov    %rax,0x58(%rsp)
    b2c9:	e8 a2 73 ff ff       	call   2670 <_ZNSt6localeD1Ev@plt>
    b2ce:	48 8b 05 b3 37 00 00 	mov    0x37b3(%rip),%rax        # ea88 <_ZTTSt14basic_ofstreamIcSt11char_traitsIcEE@GLIBCXX_3.4+0x8>
    b2d5:	48 8b 7c 24 48       	mov    0x48(%rsp),%rdi
    b2da:	48 8b 0d af 37 00 00 	mov    0x37af(%rip),%rcx        # ea90 <_ZTTSt14basic_ofstreamIcSt11char_traitsIcEE@GLIBCXX_3.4+0x10>
    b2e1:	48 89 44 24 50       	mov    %rax,0x50(%rsp)
    b2e6:	48 8b 40 e8          	mov    -0x18(%rax),%rax
    b2ea:	48 89 4c 04 50       	mov    %rcx,0x50(%rsp,%rax,1)
    b2ef:	48 8d 05 fa 36 00 00 	lea    0x36fa(%rip),%rax        # e9f0 <_ZTVSt9basic_iosIcSt11char_traitsIcEE@GLIBCXX_3.4+0x10>
    b2f6:	48 89 84 24 48 01 00 	mov    %rax,0x148(%rsp)
    b2fd:	00 
    b2fe:	e8 3d 71 ff ff       	call   2440 <_ZNSt8ios_baseD2Ev@plt>
    b303:	48 8b 84 24 58 02 00 	mov    0x258(%rsp),%rax
    b30a:	00 
    b30b:	64 48 2b 04 25 28 00 	sub    %fs:0x28,%rax
    b312:	00 00 
    b314:	75 3e                	jne    b354 <_Z12writeVTKFileRKNSt7__cxx1112basic_stringIcSt11char_traitsIcESaIcEEERKSt6vectorIS7_IdSaIdEESaIS9_EESD_SD_dd+0x574>
    b316:	48 81 c4 68 02 00 00 	add    $0x268,%rsp
    b31d:	5b                   	pop    %rbx
    b31e:	5d                   	pop    %rbp
    b31f:	41 5c                	pop    %r12
    b321:	41 5d                	pop    %r13
    b323:	41 5e                	pop    %r14
    b325:	41 5f                	pop    %r15
    b327:	c3                   	ret    
    b328:	8b 77 20             	mov    0x20(%rdi),%esi
    b32b:	83 ce 04             	or     $0x4,%esi
    b32e:	e8 cd 73 ff ff       	call   2700 <_ZNSt9basic_iosIcSt11char_traitsIcEE5clearESt12_Ios_Iostate@plt>
    b333:	e9 cd fb ff ff       	jmp    af05 <_Z12writeVTKFileRKNSt7__cxx1112basic_stringIcSt11char_traitsIcESaIcEEERKSt6vectorIS7_IdSaIdEESaIS9_EESD_SD_dd+0x125>
    b338:	48 8b 44 24 50       	mov    0x50(%rsp),%rax
    b33d:	48 8b 78 e8          	mov    -0x18(%rax),%rdi
    b341:	4c 01 f7             	add    %r14,%rdi
    b344:	8b 77 20             	mov    0x20(%rdi),%esi
    b347:	83 ce 04             	or     $0x4,%esi
    b34a:	e8 b1 73 ff ff       	call   2700 <_ZNSt9basic_iosIcSt11char_traitsIcEE5clearESt12_Ios_Iostate@plt>
    b34f:	e9 d2 fe ff ff       	jmp    b226 <_Z12writeVTKFileRKNSt7__cxx1112basic_stringIcSt11char_traitsIcESaIcEEERKSt6vectorIS7_IdSaIdEESaIS9_EESD_SD_dd+0x446>
    b354:	e8 77 72 ff ff       	call   25d0 <__stack_chk_fail@plt>
    b359:	f3 0f 1e fa          	endbr64 
    b35d:	48 89 c5             	mov    %rax,%rbp
    b360:	e9 c8 76 ff ff       	jmp    2a2d <_Z12writeVTKFileRKNSt7__cxx1112basic_stringIcSt11char_traitsIcESaIcEEERKSt6vectorIS7_IdSaIdEESaIS9_EESD_SD_dd.cold>
    b365:	f3 0f 1e fa          	endbr64 
    b369:	48 89 c5             	mov    %rax,%rbp
    b36c:	e9 c6 76 ff ff       	jmp    2a37 <_Z12writeVTKFileRKNSt7__cxx1112basic_stringIcSt11char_traitsIcESaIcEEERKSt6vectorIS7_IdSaIdEESaIS9_EESD_SD_dd.cold+0xa>
    b371:	f3 0f 1e fa          	endbr64 
    b375:	48 89 c7             	mov    %rax,%rdi
    b378:	e9 07 77 ff ff       	jmp    2a84 <_Z12writeVTKFileRKNSt7__cxx1112basic_stringIcSt11char_traitsIcESaIcEEERKSt6vectorIS7_IdSaIdEESaIS9_EESD_SD_dd.cold+0x57>
    b37d:	f3 0f 1e fa          	endbr64 
    b381:	48 89 c5             	mov    %rax,%rbp
    b384:	e9 eb 76 ff ff       	jmp    2a74 <_Z12writeVTKFileRKNSt7__cxx1112basic_stringIcSt11char_traitsIcESaIcEEERKSt6vectorIS7_IdSaIdEESaIS9_EESD_SD_dd.cold+0x47>
    b389:	f3 0f 1e fa          	endbr64 
    b38d:	48 89 c5             	mov    %rax,%rbp
    b390:	e9 be 76 ff ff       	jmp    2a53 <_Z12writeVTKFileRKNSt7__cxx1112basic_stringIcSt11char_traitsIcESaIcEEERKSt6vectorIS7_IdSaIdEESaIS9_EESD_SD_dd.cold+0x26>

Disassembly of section .fini:

000000000000b398 <_fini>:
    b398:	f3 0f 1e fa          	endbr64 
    b39c:	48 83 ec 08          	sub    $0x8,%rsp
    b3a0:	48 83 c4 08          	add    $0x8,%rsp
    b3a4:	c3                   	ret    
